
./sweet:     file format elf64-x86-64


Disassembly of section .init:

0000000000401000 <_init>:
  401000:	f3 0f 1e fa          	endbr64 
  401004:	48 83 ec 08          	sub    rsp,0x8
  401008:	48 8b 05 e9 2f 00 00 	mov    rax,QWORD PTR [rip+0x2fe9]        # 403ff8 <__gmon_start__>
  40100f:	48 85 c0             	test   rax,rax
  401012:	74 02                	je     401016 <_init+0x16>
  401014:	ff d0                	call   rax
  401016:	48 83 c4 08          	add    rsp,0x8
  40101a:	c3                   	ret    

Disassembly of section .plt:

0000000000401020 <.plt>:
  401020:	ff 35 e2 2f 00 00    	push   QWORD PTR [rip+0x2fe2]        # 404008 <_GLOBAL_OFFSET_TABLE_+0x8>
  401026:	f2 ff 25 e3 2f 00 00 	bnd jmp QWORD PTR [rip+0x2fe3]        # 404010 <_GLOBAL_OFFSET_TABLE_+0x10>
  40102d:	0f 1f 00             	nop    DWORD PTR [rax]
  401030:	f3 0f 1e fa          	endbr64 
  401034:	68 00 00 00 00       	push   0x0
  401039:	f2 e9 e1 ff ff ff    	bnd jmp 401020 <.plt>
  40103f:	90                   	nop

Disassembly of section .plt.sec:

0000000000401040 <printf@plt>:
  401040:	f3 0f 1e fa          	endbr64 
  401044:	f2 ff 25 cd 2f 00 00 	bnd jmp QWORD PTR [rip+0x2fcd]        # 404018 <printf@GLIBC_2.2.5>
  40104b:	0f 1f 44 00 00       	nop    DWORD PTR [rax+rax*1+0x0]

Disassembly of section .text:

00000000003fa040 <_start-0x7010>:
  3fa040:	f3 0f 1e fa          	endbr64 
  3fa044:	55                   	push   rbp
  3fa045:	48 89 e5             	mov    rbp,rsp
  3fa048:	54                   	push   rsp
  3fa049:	55                   	push   rbp
  3fa04a:	50                   	push   rax
  3fa04b:	53                   	push   rbx
  3fa04c:	51                   	push   rcx
  3fa04d:	52                   	push   rdx
  3fa04e:	41 50                	push   r8
  3fa050:	41 51                	push   r9
  3fa052:	41 52                	push   r10
  3fa054:	41 53                	push   r11
  3fa056:	41 54                	push   r12
  3fa058:	41 55                	push   r13
  3fa05a:	41 56                	push   r14
  3fa05c:	41 57                	push   r15
  3fa05e:	e8 7f 1c 00 00       	call   3fbce2 <_init-0x531e>
  3fa063:	41 5f                	pop    r15
  3fa065:	41 5e                	pop    r14
  3fa067:	41 5d                	pop    r13
  3fa069:	41 5c                	pop    r12
  3fa06b:	41 5b                	pop    r11
  3fa06d:	41 5a                	pop    r10
  3fa06f:	41 59                	pop    r9
  3fa071:	41 58                	pop    r8
  3fa073:	5a                   	pop    rdx
  3fa074:	59                   	pop    rcx
  3fa075:	5b                   	pop    rbx
  3fa076:	58                   	pop    rax
  3fa077:	5d                   	pop    rbp
  3fa078:	5c                   	pop    rsp
  3fa079:	48 83 c4 08          	add    rsp,0x8
  3fa07d:	e9 c4 2c 00 00       	jmp    3fcd46 <_init-0x42ba>
  3fa082:	90                   	nop
  3fa083:	5d                   	pop    rbp
  3fa084:	c3                   	ret    
  3fa085:	f3 0f 1e fa          	endbr64 
  3fa089:	55                   	push   rbp
  3fa08a:	48 89 e5             	mov    rbp,rsp
  3fa08d:	48 81 ec 40 04 00 00 	sub    rsp,0x440
  3fa094:	48 89 bd c8 fb ff ff 	mov    QWORD PTR [rbp-0x438],rdi
  3fa09b:	48 8b 85 c8 fb ff ff 	mov    rax,QWORD PTR [rbp-0x438]
  3fa0a2:	48 89 45 f8          	mov    QWORD PTR [rbp-0x8],rax
  3fa0a6:	c7 45 f4 00 00 00 00 	mov    DWORD PTR [rbp-0xc],0x0
  3fa0ad:	c7 45 ec 05 00 00 00 	mov    DWORD PTR [rbp-0x14],0x5
  3fa0b4:	48 8d 85 d0 fb ff ff 	lea    rax,[rbp-0x430]
  3fa0bb:	be 00 00 00 00       	mov    esi,0x0
  3fa0c0:	48 89 c7             	mov    rdi,rax
  3fa0c3:	e8 fb 22 00 00       	call   3fc3c3 <_init-0x4c3d>
  3fa0c8:	48 8d 85 d0 fb ff ff 	lea    rax,[rbp-0x430]
  3fa0cf:	48 83 c0 08          	add    rax,0x8
  3fa0d3:	48 89 c7             	mov    rdi,rax
  3fa0d6:	e8 e1 01 00 00       	call   3fa2bc <_init-0x6d44>
  3fa0db:	99                   	cdq    
  3fa0dc:	f7 7d ec             	idiv   DWORD PTR [rbp-0x14]
  3fa0df:	89 d0                	mov    eax,edx
  3fa0e1:	89 45 f0             	mov    DWORD PTR [rbp-0x10],eax
  3fa0e4:	83 7d f0 03          	cmp    DWORD PTR [rbp-0x10],0x3
  3fa0e8:	0f 85 2a 01 00 00    	jne    3fa218 <_init-0x6de8>
  3fa0ee:	48 8d 85 e0 fb ff ff 	lea    rax,[rbp-0x420]
  3fa0f5:	ba 00 04 00 00       	mov    edx,0x400
  3fa0fa:	be 00 00 00 00       	mov    esi,0x0
  3fa0ff:	48 89 c7             	mov    rdi,rax
  3fa102:	e8 3d 23 00 00       	call   3fc444 <_init-0x4bbc>
  3fa107:	e9 e3 00 00 00       	jmp    3fa1ef <_init-0x6e11>
  3fa10c:	48 8b 45 f8          	mov    rax,QWORD PTR [rbp-0x8]
  3fa110:	0f b6 00             	movzx  eax,BYTE PTR [rax]
  3fa113:	0f be c0             	movsx  eax,al
  3fa116:	89 c7                	mov    edi,eax
  3fa118:	e8 af 2a 00 00       	call   3fcbcc <_init-0x4434>
  3fa11d:	0f be c0             	movsx  eax,al
  3fa120:	83 e8 41             	sub    eax,0x41
  3fa123:	83 f8 13             	cmp    eax,0x13
  3fa126:	0f 87 a4 00 00 00    	ja     3fa1d0 <_init-0x6e30>
  3fa12c:	89 c0                	mov    eax,eax
  3fa12e:	48 8d 14 85 00 00 00 	lea    rdx,[rax*4+0x0]
  3fa135:	00 
  3fa136:	48 8d 05 67 2c 00 00 	lea    rax,[rip+0x2c67]        # 3fcda4 <_init-0x425c>
  3fa13d:	8b 04 02             	mov    eax,DWORD PTR [rdx+rax*1]
  3fa140:	48 98                	cdqe   
  3fa142:	48 8d 15 5b 2c 00 00 	lea    rdx,[rip+0x2c5b]        # 3fcda4 <_init-0x425c>
  3fa149:	48 01 d0             	add    rax,rdx
  3fa14c:	3e ff e0             	notrack jmp rax
  3fa14f:	8b 45 f4             	mov    eax,DWORD PTR [rbp-0xc]
  3fa152:	8d 50 01             	lea    edx,[rax+0x1]
  3fa155:	89 55 f4             	mov    DWORD PTR [rbp-0xc],edx
  3fa158:	48 98                	cdqe   
  3fa15a:	c6 84 05 e0 fb ff ff 	mov    BYTE PTR [rbp+rax*1-0x420],0x31
  3fa161:	31 
  3fa162:	e9 83 00 00 00       	jmp    3fa1ea <_init-0x6e16>
  3fa167:	8b 45 f4             	mov    eax,DWORD PTR [rbp-0xc]
  3fa16a:	8d 50 01             	lea    edx,[rax+0x1]
  3fa16d:	89 55 f4             	mov    DWORD PTR [rbp-0xc],edx
  3fa170:	48 98                	cdqe   
  3fa172:	c6 84 05 e0 fb ff ff 	mov    BYTE PTR [rbp+rax*1-0x420],0x33
  3fa179:	33 
  3fa17a:	eb 6e                	jmp    3fa1ea <_init-0x6e16>
  3fa17c:	8b 45 f4             	mov    eax,DWORD PTR [rbp-0xc]
  3fa17f:	8d 50 01             	lea    edx,[rax+0x1]
  3fa182:	89 55 f4             	mov    DWORD PTR [rbp-0xc],edx
  3fa185:	48 98                	cdqe   
  3fa187:	c6 84 05 e0 fb ff ff 	mov    BYTE PTR [rbp+rax*1-0x420],0x35
  3fa18e:	35 
  3fa18f:	eb 59                	jmp    3fa1ea <_init-0x6e16>
  3fa191:	8b 45 f4             	mov    eax,DWORD PTR [rbp-0xc]
  3fa194:	8d 50 01             	lea    edx,[rax+0x1]
  3fa197:	89 55 f4             	mov    DWORD PTR [rbp-0xc],edx
  3fa19a:	48 98                	cdqe   
  3fa19c:	c6 84 05 e0 fb ff ff 	mov    BYTE PTR [rbp+rax*1-0x420],0x37
  3fa1a3:	37 
  3fa1a4:	eb 44                	jmp    3fa1ea <_init-0x6e16>
  3fa1a6:	8b 45 f4             	mov    eax,DWORD PTR [rbp-0xc]
  3fa1a9:	8d 50 01             	lea    edx,[rax+0x1]
  3fa1ac:	89 55 f4             	mov    DWORD PTR [rbp-0xc],edx
  3fa1af:	48 98                	cdqe   
  3fa1b1:	c6 84 05 e0 fb ff ff 	mov    BYTE PTR [rbp+rax*1-0x420],0x30
  3fa1b8:	30 
  3fa1b9:	eb 2f                	jmp    3fa1ea <_init-0x6e16>
  3fa1bb:	8b 45 f4             	mov    eax,DWORD PTR [rbp-0xc]
  3fa1be:	8d 50 01             	lea    edx,[rax+0x1]
  3fa1c1:	89 55 f4             	mov    DWORD PTR [rbp-0xc],edx
  3fa1c4:	48 98                	cdqe   
  3fa1c6:	c6 84 05 e0 fb ff ff 	mov    BYTE PTR [rbp+rax*1-0x420],0x34
  3fa1cd:	34 
  3fa1ce:	eb 1a                	jmp    3fa1ea <_init-0x6e16>
  3fa1d0:	8b 45 f4             	mov    eax,DWORD PTR [rbp-0xc]
  3fa1d3:	8d 50 01             	lea    edx,[rax+0x1]
  3fa1d6:	89 55 f4             	mov    DWORD PTR [rbp-0xc],edx
  3fa1d9:	48 8b 55 f8          	mov    rdx,QWORD PTR [rbp-0x8]
  3fa1dd:	0f b6 12             	movzx  edx,BYTE PTR [rdx]
  3fa1e0:	48 98                	cdqe   
  3fa1e2:	88 94 05 e0 fb ff ff 	mov    BYTE PTR [rbp+rax*1-0x420],dl
  3fa1e9:	90                   	nop
  3fa1ea:	48 83 45 f8 01       	add    QWORD PTR [rbp-0x8],0x1
  3fa1ef:	48 8b 45 f8          	mov    rax,QWORD PTR [rbp-0x8]
  3fa1f3:	0f b6 00             	movzx  eax,BYTE PTR [rax]
  3fa1f6:	84 c0                	test   al,al
  3fa1f8:	74 0d                	je     3fa207 <_init-0x6df9>
  3fa1fa:	81 7d f4 ff 03 00 00 	cmp    DWORD PTR [rbp-0xc],0x3ff
  3fa201:	0f 8e 05 ff ff ff    	jle    3fa10c <_init-0x6ef4>
  3fa207:	48 8d 85 e0 fb ff ff 	lea    rax,[rbp-0x420]
  3fa20e:	48 89 c7             	mov    rdi,rax
  3fa211:	e8 2c 29 00 00       	call   3fcb42 <_init-0x44be>
  3fa216:	eb 14                	jmp    3fa22c <_init-0x6dd4>
  3fa218:	90                   	nop
  3fa219:	f3 0f 1e fa          	endbr64 
  3fa21d:	48 8b 85 c8 fb ff ff 	mov    rax,QWORD PTR [rbp-0x438]
  3fa224:	48 89 c7             	mov    rdi,rax
  3fa227:	e8 16 29 00 00       	call   3fcb42 <_init-0x44be>
  3fa22c:	c9                   	leave  
  3fa22d:	c3                   	ret    
  3fa22e:	f3 0f 1e fa          	endbr64 
  3fa232:	55                   	push   rbp
  3fa233:	48 89 e5             	mov    rbp,rsp
  3fa236:	48 83 ec 10          	sub    rsp,0x10
  3fa23a:	48 89 7d f8          	mov    QWORD PTR [rbp-0x8],rdi
  3fa23e:	48 89 75 f0          	mov    QWORD PTR [rbp-0x10],rsi
  3fa242:	48 8b 45 f0          	mov    rax,QWORD PTR [rbp-0x10]
  3fa246:	48 8b 00             	mov    rax,QWORD PTR [rax]
  3fa249:	48 85 c0             	test   rax,rax
  3fa24c:	75 46                	jne    3fa294 <_init-0x6d6c>
  3fa24e:	41 b9 00 00 00 00    	mov    r9d,0x0
  3fa254:	49 c7 c0 ff ff ff ff 	mov    r8,0xffffffffffffffff
  3fa25b:	b9 22 00 00 00       	mov    ecx,0x22
  3fa260:	ba 03 00 00 00       	mov    edx,0x3
  3fa265:	be 00 00 20 00       	mov    esi,0x200000
  3fa26a:	bf 00 00 00 00       	mov    edi,0x0
  3fa26f:	e8 d2 1f 00 00       	call   3fc246 <_init-0x4dba>
  3fa274:	48 8b 55 f0          	mov    rdx,QWORD PTR [rbp-0x10]
  3fa278:	48 89 02             	mov    QWORD PTR [rdx],rax
  3fa27b:	48 8b 45 f0          	mov    rax,QWORD PTR [rbp-0x10]
  3fa27f:	48 8b 00             	mov    rax,QWORD PTR [rax]
  3fa282:	48 83 f8 ff          	cmp    rax,0xffffffffffffffff
  3fa286:	75 0c                	jne    3fa294 <_init-0x6d6c>
  3fa288:	48 c7 c7 ff ff ff ff 	mov    rdi,0xffffffffffffffff
  3fa28f:	e8 f7 1d 00 00       	call   3fc08b <_init-0x4f75>
  3fa294:	48 8b 45 f0          	mov    rax,QWORD PTR [rbp-0x10]
  3fa298:	48 8b 00             	mov    rax,QWORD PTR [rax]
  3fa29b:	48 8d 90 00 01 00 00 	lea    rdx,[rax+0x100]
  3fa2a2:	48 8b 45 f0          	mov    rax,QWORD PTR [rbp-0x10]
  3fa2a6:	48 89 10             	mov    QWORD PTR [rax],rdx
  3fa2a9:	48 8b 45 f0          	mov    rax,QWORD PTR [rbp-0x10]
  3fa2ad:	48 8b 00             	mov    rax,QWORD PTR [rax]
  3fa2b0:	48 8b 55 f8          	mov    rdx,QWORD PTR [rbp-0x8]
  3fa2b4:	48 f7 da             	neg    rdx
  3fa2b7:	48 01 d0             	add    rax,rdx
  3fa2ba:	c9                   	leave  
  3fa2bb:	c3                   	ret    
  3fa2bc:	55                   	push   rbp
  3fa2bd:	48 89 e5             	mov    rbp,rsp
  3fa2c0:	48 89 7d f8          	mov    QWORD PTR [rbp-0x8],rdi
  3fa2c4:	48 8b 45 f8          	mov    rax,QWORD PTR [rbp-0x8]
  3fa2c8:	48 8b 00             	mov    rax,QWORD PTR [rax]
  3fa2cb:	48 69 c0 6d 4e c6 41 	imul   rax,rax,0x41c64e6d
  3fa2d2:	48 8d 90 39 30 00 00 	lea    rdx,[rax+0x3039]
  3fa2d9:	48 8b 45 f8          	mov    rax,QWORD PTR [rbp-0x8]
  3fa2dd:	48 89 10             	mov    QWORD PTR [rax],rdx
  3fa2e0:	48 8b 45 f8          	mov    rax,QWORD PTR [rbp-0x8]
  3fa2e4:	48 8b 00             	mov    rax,QWORD PTR [rax]
  3fa2e7:	48 8d 90 ff ff 00 00 	lea    rdx,[rax+0xffff]
  3fa2ee:	48 85 c0             	test   rax,rax
  3fa2f1:	48 0f 48 c2          	cmovs  rax,rdx
  3fa2f5:	48 c1 f8 10          	sar    rax,0x10
  3fa2f9:	25 ff 7f 00 00       	and    eax,0x7fff
  3fa2fe:	5d                   	pop    rbp
  3fa2ff:	c3                   	ret    
  3fa300:	55                   	push   rbp
  3fa301:	48 89 e5             	mov    rbp,rsp
  3fa304:	48 83 ec 30          	sub    rsp,0x30
  3fa308:	48 89 7d d8          	mov    QWORD PTR [rbp-0x28],rdi
  3fa30c:	c7 45 fc 04 00 00 00 	mov    DWORD PTR [rbp-0x4],0x4
  3fa313:	48 8d 45 e0          	lea    rax,[rbp-0x20]
  3fa317:	be 00 00 00 00       	mov    esi,0x0
  3fa31c:	48 89 c7             	mov    rdi,rax
  3fa31f:	e8 9f 20 00 00       	call   3fc3c3 <_init-0x4c3d>
  3fa324:	48 8d 45 e0          	lea    rax,[rbp-0x20]
  3fa328:	48 83 c0 08          	add    rax,0x8
  3fa32c:	48 89 c7             	mov    rdi,rax
  3fa32f:	e8 88 ff ff ff       	call   3fa2bc <_init-0x6d44>
  3fa334:	99                   	cdq    
  3fa335:	f7 7d fc             	idiv   DWORD PTR [rbp-0x4]
  3fa338:	89 d0                	mov    eax,edx
  3fa33a:	89 c0                	mov    eax,eax
  3fa33c:	48 8d 14 c5 00 00 00 	lea    rdx,[rax*8+0x0]
  3fa343:	00 
  3fa344:	48 8b 45 d8          	mov    rax,QWORD PTR [rbp-0x28]
  3fa348:	48 01 d0             	add    rax,rdx
  3fa34b:	48 8b 00             	mov    rax,QWORD PTR [rax]
  3fa34e:	c9                   	leave  
  3fa34f:	c3                   	ret    
  3fa350:	f3 0f 1e fa          	endbr64 
  3fa354:	55                   	push   rbp
  3fa355:	48 89 e5             	mov    rbp,rsp
  3fa358:	53                   	push   rbx
  3fa359:	48 83 ec 38          	sub    rsp,0x38
  3fa35d:	48 89 7d d8          	mov    QWORD PTR [rbp-0x28],rdi
  3fa361:	48 89 75 d0          	mov    QWORD PTR [rbp-0x30],rsi
  3fa365:	48 89 55 c8          	mov    QWORD PTR [rbp-0x38],rdx
  3fa369:	48 8b 45 d8          	mov    rax,QWORD PTR [rbp-0x28]
  3fa36d:	48 89 c7             	mov    rdi,rax
  3fa370:	e8 24 28 00 00       	call   3fcb99 <_init-0x4467>
  3fa375:	48 89 c3             	mov    rbx,rax
  3fa378:	48 8b 45 d0          	mov    rax,QWORD PTR [rbp-0x30]
  3fa37c:	48 89 c7             	mov    rdi,rax
  3fa37f:	e8 15 28 00 00       	call   3fcb99 <_init-0x4467>
  3fa384:	48 01 d8             	add    rax,rbx
  3fa387:	48 8d 50 02          	lea    rdx,[rax+0x2]
  3fa38b:	48 8b 45 c8          	mov    rax,QWORD PTR [rbp-0x38]
  3fa38f:	48 89 c6             	mov    rsi,rax
  3fa392:	48 89 d7             	mov    rdi,rdx
  3fa395:	e8 94 fe ff ff       	call   3fa22e <_init-0x6dd2>
  3fa39a:	48 89 45 e8          	mov    QWORD PTR [rbp-0x18],rax
  3fa39e:	48 8b 45 d8          	mov    rax,QWORD PTR [rbp-0x28]
  3fa3a2:	48 89 c7             	mov    rdi,rax
  3fa3a5:	e8 ef 27 00 00       	call   3fcb99 <_init-0x4467>
  3fa3aa:	89 c3                	mov    ebx,eax
  3fa3ac:	48 8b 45 d0          	mov    rax,QWORD PTR [rbp-0x30]
  3fa3b0:	48 89 c7             	mov    rdi,rax
  3fa3b3:	e8 e1 27 00 00       	call   3fcb99 <_init-0x4467>
  3fa3b8:	8d 14 03             	lea    edx,[rbx+rax*1]
  3fa3bb:	48 8b 45 e8          	mov    rax,QWORD PTR [rbp-0x18]
  3fa3bf:	be 00 00 00 00       	mov    esi,0x0
  3fa3c4:	48 89 c7             	mov    rdi,rax
  3fa3c7:	e8 78 20 00 00       	call   3fc444 <_init-0x4bbc>
  3fa3cc:	48 8b 45 d0          	mov    rax,QWORD PTR [rbp-0x30]
  3fa3d0:	48 89 c7             	mov    rdi,rax
  3fa3d3:	e8 c1 27 00 00       	call   3fcb99 <_init-0x4467>
  3fa3d8:	89 c2                	mov    edx,eax
  3fa3da:	48 8b 4d d0          	mov    rcx,QWORD PTR [rbp-0x30]
  3fa3de:	48 8b 45 e8          	mov    rax,QWORD PTR [rbp-0x18]
  3fa3e2:	48 89 ce             	mov    rsi,rcx
  3fa3e5:	48 89 c7             	mov    rdi,rax
  3fa3e8:	e8 04 20 00 00       	call   3fc3f1 <_init-0x4c0f>
  3fa3ed:	48 8b 45 d0          	mov    rax,QWORD PTR [rbp-0x30]
  3fa3f1:	48 89 c7             	mov    rdi,rax
  3fa3f4:	e8 a0 27 00 00       	call   3fcb99 <_init-0x4467>
  3fa3f9:	48 8b 55 e8          	mov    rdx,QWORD PTR [rbp-0x18]
  3fa3fd:	48 01 d0             	add    rax,rdx
  3fa400:	c6 00 2f             	mov    BYTE PTR [rax],0x2f
  3fa403:	48 8b 45 d8          	mov    rax,QWORD PTR [rbp-0x28]
  3fa407:	0f b6 00             	movzx  eax,BYTE PTR [rax]
  3fa40a:	3c 2e                	cmp    al,0x2e
  3fa40c:	75 14                	jne    3fa422 <_init-0x6bde>
  3fa40e:	48 8b 45 d8          	mov    rax,QWORD PTR [rbp-0x28]
  3fa412:	48 83 c0 01          	add    rax,0x1
  3fa416:	0f b6 00             	movzx  eax,BYTE PTR [rax]
  3fa419:	3c 2f                	cmp    al,0x2f
  3fa41b:	75 05                	jne    3fa422 <_init-0x6bde>
  3fa41d:	48 83 45 d8 02       	add    QWORD PTR [rbp-0x28],0x2
  3fa422:	48 8b 45 d8          	mov    rax,QWORD PTR [rbp-0x28]
  3fa426:	48 89 c7             	mov    rdi,rax
  3fa429:	e8 6b 27 00 00       	call   3fcb99 <_init-0x4467>
  3fa42e:	89 c3                	mov    ebx,eax
  3fa430:	48 8b 45 d0          	mov    rax,QWORD PTR [rbp-0x30]
  3fa434:	48 89 c7             	mov    rdi,rax
  3fa437:	e8 5d 27 00 00       	call   3fcb99 <_init-0x4467>
  3fa43c:	48 8d 50 01          	lea    rdx,[rax+0x1]
  3fa440:	48 8b 45 e8          	mov    rax,QWORD PTR [rbp-0x18]
  3fa444:	48 8d 0c 02          	lea    rcx,[rdx+rax*1]
  3fa448:	48 8b 45 d8          	mov    rax,QWORD PTR [rbp-0x28]
  3fa44c:	89 da                	mov    edx,ebx
  3fa44e:	48 89 c6             	mov    rsi,rax
  3fa451:	48 89 cf             	mov    rdi,rcx
  3fa454:	e8 98 1f 00 00       	call   3fc3f1 <_init-0x4c0f>
  3fa459:	48 8b 45 e8          	mov    rax,QWORD PTR [rbp-0x18]
  3fa45d:	48 83 c4 38          	add    rsp,0x38
  3fa461:	5b                   	pop    rbx
  3fa462:	5d                   	pop    rbp
  3fa463:	c3                   	ret    
  3fa464:	f3 0f 1e fa          	endbr64 
  3fa468:	55                   	push   rbp
  3fa469:	48 89 e5             	mov    rbp,rsp
  3fa46c:	48 81 ec 30 01 00 00 	sub    rsp,0x130
  3fa473:	48 89 bd f8 fe ff ff 	mov    QWORD PTR [rbp-0x108],rdi
  3fa47a:	48 89 b5 f0 fe ff ff 	mov    QWORD PTR [rbp-0x110],rsi
  3fa481:	48 89 95 e8 fe ff ff 	mov    QWORD PTR [rbp-0x118],rdx
  3fa488:	48 89 8d e0 fe ff ff 	mov    QWORD PTR [rbp-0x120],rcx
  3fa48f:	4c 89 85 d8 fe ff ff 	mov    QWORD PTR [rbp-0x128],r8
  3fa496:	c7 45 fc 00 00 00 00 	mov    DWORD PTR [rbp-0x4],0x0
  3fa49d:	c7 45 f8 40 00 00 00 	mov    DWORD PTR [rbp-0x8],0x40
  3fa4a4:	48 8b 85 e8 fe ff ff 	mov    rax,QWORD PTR [rbp-0x118]
  3fa4ab:	48 8b 40 50          	mov    rax,QWORD PTR [rax+0x50]
  3fa4af:	48 89 45 f0          	mov    QWORD PTR [rbp-0x10],rax
  3fa4b3:	48 8b 85 e0 fe ff ff 	mov    rax,QWORD PTR [rbp-0x120]
  3fa4ba:	48 8b 40 50          	mov    rax,QWORD PTR [rax+0x50]
  3fa4be:	48 89 45 e8          	mov    QWORD PTR [rbp-0x18],rax
  3fa4c2:	48 8b 85 e8 fe ff ff 	mov    rax,QWORD PTR [rbp-0x118]
  3fa4c9:	48 8b 40 60          	mov    rax,QWORD PTR [rax+0x60]
  3fa4cd:	48 89 45 e0          	mov    QWORD PTR [rbp-0x20],rax
  3fa4d1:	48 8b 85 e8 fe ff ff 	mov    rax,QWORD PTR [rbp-0x118]
  3fa4d8:	48 8d 48 68          	lea    rcx,[rax+0x68]
  3fa4dc:	48 8d 85 10 ff ff ff 	lea    rax,[rbp-0xf0]
  3fa4e3:	ba 90 00 00 00       	mov    edx,0x90
  3fa4e8:	48 89 ce             	mov    rsi,rcx
  3fa4eb:	48 89 c7             	mov    rdi,rax
  3fa4ee:	e8 fe 1e 00 00       	call   3fc3f1 <_init-0x4c0f>
  3fa4f3:	8b 85 28 ff ff ff    	mov    eax,DWORD PTR [rbp-0xd8]
  3fa4f9:	89 c0                	mov    eax,eax
  3fa4fb:	48 89 c2             	mov    rdx,rax
  3fa4fe:	be 41 02 00 00       	mov    esi,0x241
  3fa503:	48 8d 3d ea 28 00 00 	lea    rdi,[rip+0x28ea]        # 3fcdf4 <_init-0x420c>
  3fa50a:	e8 9b 1b 00 00       	call   3fc0aa <_init-0x4f56>
  3fa50f:	89 45 dc             	mov    DWORD PTR [rbp-0x24],eax
  3fa512:	83 7d dc ff          	cmp    DWORD PTR [rbp-0x24],0xffffffff
  3fa516:	75 0a                	jne    3fa522 <_init-0x6ade>
  3fa518:	b8 ff ff ff ff       	mov    eax,0xffffffff
  3fa51d:	e9 de 01 00 00       	jmp    3fa700 <_init-0x6900>
  3fa522:	8b 45 f8             	mov    eax,DWORD PTR [rbp-0x8]
  3fa525:	48 63 d0             	movsxd rdx,eax
  3fa528:	8b 45 dc             	mov    eax,DWORD PTR [rbp-0x24]
  3fa52b:	48 98                	cdqe   
  3fa52d:	48 8b 4d f0          	mov    rcx,QWORD PTR [rbp-0x10]
  3fa531:	48 89 ce             	mov    rsi,rcx
  3fa534:	48 89 c7             	mov    rdi,rax
  3fa537:	e8 f8 1b 00 00       	call   3fc134 <_init-0x4ecc>
  3fa53c:	89 45 d8             	mov    DWORD PTR [rbp-0x28],eax
  3fa53f:	8b 45 f8             	mov    eax,DWORD PTR [rbp-0x8]
  3fa542:	39 45 d8             	cmp    DWORD PTR [rbp-0x28],eax
  3fa545:	74 0a                	je     3fa551 <_init-0x6aaf>
  3fa547:	b8 ff ff ff ff       	mov    eax,0xffffffff
  3fa54c:	e9 af 01 00 00       	jmp    3fa700 <_init-0x6900>
  3fa551:	e8 d5 27 00 00       	call   3fcd2b <_init-0x42d5>
  3fa556:	48 c7 c2 94 2e 40 00 	mov    rdx,0x402e94
  3fa55d:	48 89 d1             	mov    rcx,rdx
  3fa560:	48 c7 c2 a2 2e 40 00 	mov    rdx,0x402ea2
  3fa567:	48 29 d1             	sub    rcx,rdx
  3fa56a:	48 89 ca             	mov    rdx,rcx
  3fa56d:	48 29 d0             	sub    rax,rdx
  3fa570:	48 89 45 d0          	mov    QWORD PTR [rbp-0x30],rax
  3fa574:	e8 b2 27 00 00       	call   3fcd2b <_init-0x42d5>
  3fa579:	48 c7 c2 94 2e 40 00 	mov    rdx,0x402e94
  3fa580:	48 89 d1             	mov    rcx,rdx
  3fa583:	48 c7 c2 b7 2e 40 00 	mov    rdx,0x402eb7
  3fa58a:	48 29 d1             	sub    rcx,rdx
  3fa58d:	48 89 ca             	mov    rdx,rcx
  3fa590:	48 29 d0             	sub    rax,rdx
  3fa593:	48 89 45 c8          	mov    QWORD PTR [rbp-0x38],rax
  3fa597:	48 8b 45 c8          	mov    rax,QWORD PTR [rbp-0x38]
  3fa59b:	48 2b 45 d0          	sub    rax,QWORD PTR [rbp-0x30]
  3fa59f:	89 45 c4             	mov    DWORD PTR [rbp-0x3c],eax
  3fa5a2:	e8 84 27 00 00       	call   3fcd2b <_init-0x42d5>
  3fa5a7:	48 c7 c2 94 2e 40 00 	mov    rdx,0x402e94
  3fa5ae:	48 89 d1             	mov    rcx,rdx
  3fa5b1:	48 c7 c2 a2 2e 40 00 	mov    rdx,0x402ea2
  3fa5b8:	48 29 d1             	sub    rcx,rdx
  3fa5bb:	48 89 ca             	mov    rdx,rcx
  3fa5be:	48 29 d0             	sub    rax,rdx
  3fa5c1:	48 89 45 b8          	mov    QWORD PTR [rbp-0x48],rax
  3fa5c5:	c7 85 0a ff ff ff 68 	mov    DWORD PTR [rbp-0xf6],0x68
  3fa5cc:	00 00 00 
  3fa5cf:	66 c7 85 0e ff ff ff 	mov    WORD PTR [rbp-0xf2],0xc300
  3fa5d6:	00 c3 
  3fa5d8:	48 8d 85 0a ff ff ff 	lea    rax,[rbp-0xf6]
  3fa5df:	48 83 c0 01          	add    rax,0x1
  3fa5e3:	48 8b 95 d8 fe ff ff 	mov    rdx,QWORD PTR [rbp-0x128]
  3fa5ea:	89 10                	mov    DWORD PTR [rax],edx
  3fa5ec:	48 8b 85 e0 fe ff ff 	mov    rax,QWORD PTR [rbp-0x120]
  3fa5f3:	48 8b 40 58          	mov    rax,QWORD PTR [rax+0x58]
  3fa5f7:	48 2d 68 42 00 00    	sub    rax,0x4268
  3fa5fd:	48 89 45 b0          	mov    QWORD PTR [rbp-0x50],rax
  3fa601:	8b 45 c4             	mov    eax,DWORD PTR [rbp-0x3c]
  3fa604:	48 98                	cdqe   
  3fa606:	48 29 45 b0          	sub    QWORD PTR [rbp-0x50],rax
  3fa60a:	8b 45 dc             	mov    eax,DWORD PTR [rbp-0x24]
  3fa60d:	48 98                	cdqe   
  3fa60f:	48 8b 55 b0          	mov    rdx,QWORD PTR [rbp-0x50]
  3fa613:	48 8b 4d e8          	mov    rcx,QWORD PTR [rbp-0x18]
  3fa617:	48 89 ce             	mov    rsi,rcx
  3fa61a:	48 89 c7             	mov    rdi,rax
  3fa61d:	e8 12 1b 00 00       	call   3fc134 <_init-0x4ecc>
  3fa622:	89 45 d8             	mov    DWORD PTR [rbp-0x28],eax
  3fa625:	8b 45 d8             	mov    eax,DWORD PTR [rbp-0x28]
  3fa628:	48 39 45 b0          	cmp    QWORD PTR [rbp-0x50],rax
  3fa62c:	74 0a                	je     3fa638 <_init-0x69c8>
  3fa62e:	b8 ff ff ff ff       	mov    eax,0xffffffff
  3fa633:	e9 c8 00 00 00       	jmp    3fa700 <_init-0x6900>
  3fa638:	8b 45 dc             	mov    eax,DWORD PTR [rbp-0x24]
  3fa63b:	48 98                	cdqe   
  3fa63d:	48 8d 8d 0a ff ff ff 	lea    rcx,[rbp-0xf6]
  3fa644:	ba 06 00 00 00       	mov    edx,0x6
  3fa649:	48 89 ce             	mov    rsi,rcx
  3fa64c:	48 89 c7             	mov    rdi,rax
  3fa64f:	e8 e0 1a 00 00       	call   3fc134 <_init-0x4ecc>
  3fa654:	8b 45 c4             	mov    eax,DWORD PTR [rbp-0x3c]
  3fa657:	48 98                	cdqe   
  3fa659:	48 8d 90 62 42 00 00 	lea    rdx,[rax+0x4262]
  3fa660:	48 8b 45 b0          	mov    rax,QWORD PTR [rbp-0x50]
  3fa664:	48 8d 48 06          	lea    rcx,[rax+0x6]
  3fa668:	48 8b 45 e8          	mov    rax,QWORD PTR [rbp-0x18]
  3fa66c:	48 01 c1             	add    rcx,rax
  3fa66f:	8b 45 dc             	mov    eax,DWORD PTR [rbp-0x24]
  3fa672:	48 98                	cdqe   
  3fa674:	48 89 ce             	mov    rsi,rcx
  3fa677:	48 89 c7             	mov    rdi,rax
  3fa67a:	e8 b5 1a 00 00       	call   3fc134 <_init-0x4ecc>
  3fa67f:	48 8b 85 f0 fe ff ff 	mov    rax,QWORD PTR [rbp-0x110]
  3fa686:	83 c0 40             	add    eax,0x40
  3fa689:	89 45 ac             	mov    DWORD PTR [rbp-0x54],eax
  3fa68c:	8b 4d ac             	mov    ecx,DWORD PTR [rbp-0x54]
  3fa68f:	8b 45 dc             	mov    eax,DWORD PTR [rbp-0x24]
  3fa692:	48 98                	cdqe   
  3fa694:	ba 00 00 00 00       	mov    edx,0x0
  3fa699:	48 89 ce             	mov    rsi,rcx
  3fa69c:	48 89 c7             	mov    rdi,rax
  3fa69f:	e8 48 1b 00 00       	call   3fc1ec <_init-0x4e14>
  3fa6a4:	89 45 d8             	mov    DWORD PTR [rbp-0x28],eax
  3fa6a7:	8b 45 d8             	mov    eax,DWORD PTR [rbp-0x28]
  3fa6aa:	3b 45 ac             	cmp    eax,DWORD PTR [rbp-0x54]
  3fa6ad:	74 07                	je     3fa6b6 <_init-0x694a>
  3fa6af:	b8 ff ff ff ff       	mov    eax,0xffffffff
  3fa6b4:	eb 4a                	jmp    3fa700 <_init-0x6900>
  3fa6b6:	48 83 45 f0 40       	add    QWORD PTR [rbp-0x10],0x40
  3fa6bb:	48 8b 85 40 ff ff ff 	mov    rax,QWORD PTR [rbp-0xc0]
  3fa6c2:	83 e8 40             	sub    eax,0x40
  3fa6c5:	89 45 a8             	mov    DWORD PTR [rbp-0x58],eax
  3fa6c8:	8b 55 a8             	mov    edx,DWORD PTR [rbp-0x58]
  3fa6cb:	8b 45 dc             	mov    eax,DWORD PTR [rbp-0x24]
  3fa6ce:	48 98                	cdqe   
  3fa6d0:	48 8b 4d f0          	mov    rcx,QWORD PTR [rbp-0x10]
  3fa6d4:	48 89 ce             	mov    rsi,rcx
  3fa6d7:	48 89 c7             	mov    rdi,rax
  3fa6da:	e8 55 1a 00 00       	call   3fc134 <_init-0x4ecc>
  3fa6df:	89 45 d8             	mov    DWORD PTR [rbp-0x28],eax
  3fa6e2:	8b 45 d8             	mov    eax,DWORD PTR [rbp-0x28]
  3fa6e5:	3b 45 a8             	cmp    eax,DWORD PTR [rbp-0x58]
  3fa6e8:	74 07                	je     3fa6f1 <_init-0x690f>
  3fa6ea:	b8 ff ff ff ff       	mov    eax,0xffffffff
  3fa6ef:	eb 0f                	jmp    3fa700 <_init-0x6900>
  3fa6f1:	8b 45 dc             	mov    eax,DWORD PTR [rbp-0x24]
  3fa6f4:	89 c7                	mov    edi,eax
  3fa6f6:	e8 e5 19 00 00       	call   3fc0e0 <_init-0x4f20>
  3fa6fb:	b8 00 00 00 00       	mov    eax,0x0
  3fa700:	c9                   	leave  
  3fa701:	c3                   	ret    
  3fa702:	f3 0f 1e fa          	endbr64 
  3fa706:	55                   	push   rbp
  3fa707:	48 89 e5             	mov    rbp,rsp
  3fa70a:	48 81 ec 10 01 00 00 	sub    rsp,0x110
  3fa711:	48 89 bd f8 fe ff ff 	mov    QWORD PTR [rbp-0x108],rdi
  3fa718:	48 89 b5 f0 fe ff ff 	mov    QWORD PTR [rbp-0x110],rsi
  3fa71f:	c7 45 fc 00 00 00 00 	mov    DWORD PTR [rbp-0x4],0x0
  3fa726:	c7 45 f4 01 00 00 00 	mov    DWORD PTR [rbp-0xc],0x1
  3fa72d:	48 8b 85 f0 fe ff ff 	mov    rax,QWORD PTR [rbp-0x110]
  3fa734:	48 8b 40 60          	mov    rax,QWORD PTR [rax+0x60]
  3fa738:	48 89 45 d8          	mov    QWORD PTR [rbp-0x28],rax
  3fa73c:	48 8b 85 f8 fe ff ff 	mov    rax,QWORD PTR [rbp-0x108]
  3fa743:	48 8b 40 58          	mov    rax,QWORD PTR [rax+0x58]
  3fa747:	48 89 45 d0          	mov    QWORD PTR [rbp-0x30],rax
  3fa74b:	48 8b 45 d0          	mov    rax,QWORD PTR [rbp-0x30]
  3fa74f:	48 25 00 f0 ff ff    	and    rax,0xfffffffffffff000
  3fa755:	48 05 00 10 00 00    	add    rax,0x1000
  3fa75b:	48 89 45 c8          	mov    QWORD PTR [rbp-0x38],rax
  3fa75f:	48 8b 85 f0 fe ff ff 	mov    rax,QWORD PTR [rbp-0x110]
  3fa766:	48 8b 40 50          	mov    rax,QWORD PTR [rax+0x50]
  3fa76a:	48 89 45 c0          	mov    QWORD PTR [rbp-0x40],rax
  3fa76e:	48 8b 45 c0          	mov    rax,QWORD PTR [rbp-0x40]
  3fa772:	48 83 c0 09          	add    rax,0x9
  3fa776:	c7 00 25 5d 01 00    	mov    DWORD PTR [rax],0x15d25
  3fa77c:	48 8b 85 f0 fe ff ff 	mov    rax,QWORD PTR [rbp-0x110]
  3fa783:	48 8b 00             	mov    rax,QWORD PTR [rax]
  3fa786:	48 89 45 b8          	mov    QWORD PTR [rbp-0x48],rax
  3fa78a:	48 8b 85 f0 fe ff ff 	mov    rax,QWORD PTR [rbp-0x110]
  3fa791:	48 8b 40 08          	mov    rax,QWORD PTR [rax+0x8]
  3fa795:	48 89 45 b0          	mov    QWORD PTR [rbp-0x50],rax
  3fa799:	48 8b 85 f0 fe ff ff 	mov    rax,QWORD PTR [rbp-0x110]
  3fa7a0:	48 8b 40 10          	mov    rax,QWORD PTR [rax+0x10]
  3fa7a4:	48 89 45 a8          	mov    QWORD PTR [rbp-0x58],rax
  3fa7a8:	48 8b 45 b8          	mov    rax,QWORD PTR [rbp-0x48]
  3fa7ac:	48 8b 40 18          	mov    rax,QWORD PTR [rax+0x18]
  3fa7b0:	48 89 45 a0          	mov    QWORD PTR [rbp-0x60],rax
  3fa7b4:	48 8b 45 b0          	mov    rax,QWORD PTR [rbp-0x50]
  3fa7b8:	48 8b 50 08          	mov    rdx,QWORD PTR [rax+0x8]
  3fa7bc:	48 8b 45 c8          	mov    rax,QWORD PTR [rbp-0x38]
  3fa7c0:	48 01 c2             	add    rdx,rax
  3fa7c3:	48 8b 45 b0          	mov    rax,QWORD PTR [rbp-0x50]
  3fa7c7:	48 89 50 08          	mov    QWORD PTR [rax+0x8],rdx
  3fa7cb:	48 8b 45 b0          	mov    rax,QWORD PTR [rbp-0x50]
  3fa7cf:	48 83 c0 38          	add    rax,0x38
  3fa7d3:	48 8b 48 08          	mov    rcx,QWORD PTR [rax+0x8]
  3fa7d7:	48 8b 45 b0          	mov    rax,QWORD PTR [rbp-0x50]
  3fa7db:	48 83 c0 38          	add    rax,0x38
  3fa7df:	48 8b 55 c8          	mov    rdx,QWORD PTR [rbp-0x38]
  3fa7e3:	48 01 ca             	add    rdx,rcx
  3fa7e6:	48 89 50 08          	mov    QWORD PTR [rax+0x8],rdx
  3fa7ea:	c7 45 f8 00 00 00 00 	mov    DWORD PTR [rbp-0x8],0x0
  3fa7f1:	e9 7b 04 00 00       	jmp    3fac71 <_init-0x638f>
  3fa7f6:	83 7d fc 00          	cmp    DWORD PTR [rbp-0x4],0x0
  3fa7fa:	74 4b                	je     3fa847 <_init-0x67b9>
  3fa7fc:	8b 45 f8             	mov    eax,DWORD PTR [rbp-0x8]
  3fa7ff:	48 63 d0             	movsxd rdx,eax
  3fa802:	48 89 d0             	mov    rax,rdx
  3fa805:	48 c1 e0 03          	shl    rax,0x3
  3fa809:	48 29 d0             	sub    rax,rdx
  3fa80c:	48 c1 e0 03          	shl    rax,0x3
  3fa810:	48 89 c2             	mov    rdx,rax
  3fa813:	48 8b 45 b0          	mov    rax,QWORD PTR [rbp-0x50]
  3fa817:	48 01 d0             	add    rax,rdx
  3fa81a:	48 8b 48 08          	mov    rcx,QWORD PTR [rax+0x8]
  3fa81e:	8b 45 f8             	mov    eax,DWORD PTR [rbp-0x8]
  3fa821:	48 63 d0             	movsxd rdx,eax
  3fa824:	48 89 d0             	mov    rax,rdx
  3fa827:	48 c1 e0 03          	shl    rax,0x3
  3fa82b:	48 29 d0             	sub    rax,rdx
  3fa82e:	48 c1 e0 03          	shl    rax,0x3
  3fa832:	48 89 c2             	mov    rdx,rax
  3fa835:	48 8b 45 b0          	mov    rax,QWORD PTR [rbp-0x50]
  3fa839:	48 01 d0             	add    rax,rdx
  3fa83c:	48 8b 55 c8          	mov    rdx,QWORD PTR [rbp-0x38]
  3fa840:	48 01 ca             	add    rdx,rcx
  3fa843:	48 89 50 08          	mov    QWORD PTR [rax+0x8],rdx
  3fa847:	8b 45 f8             	mov    eax,DWORD PTR [rbp-0x8]
  3fa84a:	48 63 d0             	movsxd rdx,eax
  3fa84d:	48 89 d0             	mov    rax,rdx
  3fa850:	48 c1 e0 03          	shl    rax,0x3
  3fa854:	48 29 d0             	sub    rax,rdx
  3fa857:	48 c1 e0 03          	shl    rax,0x3
  3fa85b:	48 89 c2             	mov    rdx,rax
  3fa85e:	48 8b 45 b0          	mov    rax,QWORD PTR [rbp-0x50]
  3fa862:	48 01 d0             	add    rax,rdx
  3fa865:	8b 00                	mov    eax,DWORD PTR [rax]
  3fa867:	83 f8 01             	cmp    eax,0x1
  3fa86a:	0f 85 d4 01 00 00    	jne    3faa44 <_init-0x65bc>
  3fa870:	8b 45 f8             	mov    eax,DWORD PTR [rbp-0x8]
  3fa873:	48 63 d0             	movsxd rdx,eax
  3fa876:	48 89 d0             	mov    rax,rdx
  3fa879:	48 c1 e0 03          	shl    rax,0x3
  3fa87d:	48 29 d0             	sub    rax,rdx
  3fa880:	48 c1 e0 03          	shl    rax,0x3
  3fa884:	48 89 c2             	mov    rdx,rax
  3fa887:	48 8b 45 b0          	mov    rax,QWORD PTR [rbp-0x50]
  3fa88b:	48 01 d0             	add    rax,rdx
  3fa88e:	8b 40 04             	mov    eax,DWORD PTR [rax+0x4]
  3fa891:	83 f8 05             	cmp    eax,0x5
  3fa894:	0f 85 aa 01 00 00    	jne    3faa44 <_init-0x65bc>
  3fa89a:	8b 45 f8             	mov    eax,DWORD PTR [rbp-0x8]
  3fa89d:	48 63 d0             	movsxd rdx,eax
  3fa8a0:	48 89 d0             	mov    rax,rdx
  3fa8a3:	48 c1 e0 03          	shl    rax,0x3
  3fa8a7:	48 29 d0             	sub    rax,rdx
  3fa8aa:	48 c1 e0 03          	shl    rax,0x3
  3fa8ae:	48 89 c2             	mov    rdx,rax
  3fa8b1:	48 8b 45 b0          	mov    rax,QWORD PTR [rbp-0x50]
  3fa8b5:	48 01 d0             	add    rax,rdx
  3fa8b8:	48 8b 40 10          	mov    rax,QWORD PTR [rax+0x10]
  3fa8bc:	48 89 45 e8          	mov    QWORD PTR [rbp-0x18],rax
  3fa8c0:	8b 45 f8             	mov    eax,DWORD PTR [rbp-0x8]
  3fa8c3:	48 63 d0             	movsxd rdx,eax
  3fa8c6:	48 89 d0             	mov    rax,rdx
  3fa8c9:	48 c1 e0 03          	shl    rax,0x3
  3fa8cd:	48 29 d0             	sub    rax,rdx
  3fa8d0:	48 c1 e0 03          	shl    rax,0x3
  3fa8d4:	48 89 c2             	mov    rdx,rax
  3fa8d7:	48 8b 45 b0          	mov    rax,QWORD PTR [rbp-0x50]
  3fa8db:	48 01 d0             	add    rax,rdx
  3fa8de:	48 8b 48 10          	mov    rcx,QWORD PTR [rax+0x10]
  3fa8e2:	8b 45 f8             	mov    eax,DWORD PTR [rbp-0x8]
  3fa8e5:	48 63 d0             	movsxd rdx,eax
  3fa8e8:	48 89 d0             	mov    rax,rdx
  3fa8eb:	48 c1 e0 03          	shl    rax,0x3
  3fa8ef:	48 29 d0             	sub    rax,rdx
  3fa8f2:	48 c1 e0 03          	shl    rax,0x3
  3fa8f6:	48 89 c2             	mov    rdx,rax
  3fa8f9:	48 8b 45 b0          	mov    rax,QWORD PTR [rbp-0x50]
  3fa8fd:	48 01 c2             	add    rdx,rax
  3fa900:	48 89 c8             	mov    rax,rcx
  3fa903:	48 2b 45 c8          	sub    rax,QWORD PTR [rbp-0x38]
  3fa907:	48 89 42 10          	mov    QWORD PTR [rdx+0x10],rax
  3fa90b:	8b 45 f8             	mov    eax,DWORD PTR [rbp-0x8]
  3fa90e:	48 63 d0             	movsxd rdx,eax
  3fa911:	48 89 d0             	mov    rax,rdx
  3fa914:	48 c1 e0 03          	shl    rax,0x3
  3fa918:	48 29 d0             	sub    rax,rdx
  3fa91b:	48 c1 e0 03          	shl    rax,0x3
  3fa91f:	48 89 c2             	mov    rdx,rax
  3fa922:	48 8b 45 b0          	mov    rax,QWORD PTR [rbp-0x50]
  3fa926:	48 01 d0             	add    rax,rdx
  3fa929:	48 8b 48 18          	mov    rcx,QWORD PTR [rax+0x18]
  3fa92d:	8b 45 f8             	mov    eax,DWORD PTR [rbp-0x8]
  3fa930:	48 63 d0             	movsxd rdx,eax
  3fa933:	48 89 d0             	mov    rax,rdx
  3fa936:	48 c1 e0 03          	shl    rax,0x3
  3fa93a:	48 29 d0             	sub    rax,rdx
  3fa93d:	48 c1 e0 03          	shl    rax,0x3
  3fa941:	48 89 c2             	mov    rdx,rax
  3fa944:	48 8b 45 b0          	mov    rax,QWORD PTR [rbp-0x50]
  3fa948:	48 01 c2             	add    rdx,rax
  3fa94b:	48 89 c8             	mov    rax,rcx
  3fa94e:	48 2b 45 c8          	sub    rax,QWORD PTR [rbp-0x38]
  3fa952:	48 89 42 18          	mov    QWORD PTR [rdx+0x18],rax
  3fa956:	8b 45 f8             	mov    eax,DWORD PTR [rbp-0x8]
  3fa959:	48 63 d0             	movsxd rdx,eax
  3fa95c:	48 89 d0             	mov    rax,rdx
  3fa95f:	48 c1 e0 03          	shl    rax,0x3
  3fa963:	48 29 d0             	sub    rax,rdx
  3fa966:	48 c1 e0 03          	shl    rax,0x3
  3fa96a:	48 89 c2             	mov    rdx,rax
  3fa96d:	48 8b 45 b0          	mov    rax,QWORD PTR [rbp-0x50]
  3fa971:	48 01 d0             	add    rax,rdx
  3fa974:	48 8b 48 20          	mov    rcx,QWORD PTR [rax+0x20]
  3fa978:	8b 45 f8             	mov    eax,DWORD PTR [rbp-0x8]
  3fa97b:	48 63 d0             	movsxd rdx,eax
  3fa97e:	48 89 d0             	mov    rax,rdx
  3fa981:	48 c1 e0 03          	shl    rax,0x3
  3fa985:	48 29 d0             	sub    rax,rdx
  3fa988:	48 c1 e0 03          	shl    rax,0x3
  3fa98c:	48 89 c2             	mov    rdx,rax
  3fa98f:	48 8b 45 b0          	mov    rax,QWORD PTR [rbp-0x50]
  3fa993:	48 01 d0             	add    rax,rdx
  3fa996:	48 8b 55 c8          	mov    rdx,QWORD PTR [rbp-0x38]
  3fa99a:	48 01 ca             	add    rdx,rcx
  3fa99d:	48 89 50 20          	mov    QWORD PTR [rax+0x20],rdx
  3fa9a1:	8b 45 f8             	mov    eax,DWORD PTR [rbp-0x8]
  3fa9a4:	48 63 d0             	movsxd rdx,eax
  3fa9a7:	48 89 d0             	mov    rax,rdx
  3fa9aa:	48 c1 e0 03          	shl    rax,0x3
  3fa9ae:	48 29 d0             	sub    rax,rdx
  3fa9b1:	48 c1 e0 03          	shl    rax,0x3
  3fa9b5:	48 89 c2             	mov    rdx,rax
  3fa9b8:	48 8b 45 b0          	mov    rax,QWORD PTR [rbp-0x50]
  3fa9bc:	48 01 d0             	add    rax,rdx
  3fa9bf:	48 8b 48 28          	mov    rcx,QWORD PTR [rax+0x28]
  3fa9c3:	8b 45 f8             	mov    eax,DWORD PTR [rbp-0x8]
  3fa9c6:	48 63 d0             	movsxd rdx,eax
  3fa9c9:	48 89 d0             	mov    rax,rdx
  3fa9cc:	48 c1 e0 03          	shl    rax,0x3
  3fa9d0:	48 29 d0             	sub    rax,rdx
  3fa9d3:	48 c1 e0 03          	shl    rax,0x3
  3fa9d7:	48 89 c2             	mov    rdx,rax
  3fa9da:	48 8b 45 b0          	mov    rax,QWORD PTR [rbp-0x50]
  3fa9de:	48 01 d0             	add    rax,rdx
  3fa9e1:	48 8b 55 c8          	mov    rdx,QWORD PTR [rbp-0x38]
  3fa9e5:	48 01 ca             	add    rdx,rcx
  3fa9e8:	48 89 50 28          	mov    QWORD PTR [rax+0x28],rdx
  3fa9ec:	8b 45 f8             	mov    eax,DWORD PTR [rbp-0x8]
  3fa9ef:	48 63 d0             	movsxd rdx,eax
  3fa9f2:	48 89 d0             	mov    rax,rdx
  3fa9f5:	48 c1 e0 03          	shl    rax,0x3
  3fa9f9:	48 29 d0             	sub    rax,rdx
  3fa9fc:	48 c1 e0 03          	shl    rax,0x3
  3faa00:	48 89 c2             	mov    rdx,rax
  3faa03:	48 8b 45 b0          	mov    rax,QWORD PTR [rbp-0x50]
  3faa07:	48 01 d0             	add    rax,rdx
  3faa0a:	48 c7 40 30 00 10 00 	mov    QWORD PTR [rax+0x30],0x1000
  3faa11:	00 
  3faa12:	8b 45 f8             	mov    eax,DWORD PTR [rbp-0x8]
  3faa15:	48 63 d0             	movsxd rdx,eax
  3faa18:	48 89 d0             	mov    rax,rdx
  3faa1b:	48 c1 e0 03          	shl    rax,0x3
  3faa1f:	48 29 d0             	sub    rax,rdx
  3faa22:	48 c1 e0 03          	shl    rax,0x3
  3faa26:	48 89 c2             	mov    rdx,rax
  3faa29:	48 8b 45 b0          	mov    rax,QWORD PTR [rbp-0x50]
  3faa2d:	48 01 d0             	add    rax,rdx
  3faa30:	48 8b 40 10          	mov    rax,QWORD PTR [rax+0x10]
  3faa34:	48 89 45 e0          	mov    QWORD PTR [rbp-0x20],rax
  3faa38:	c7 45 fc 01 00 00 00 	mov    DWORD PTR [rbp-0x4],0x1
  3faa3f:	e9 29 02 00 00       	jmp    3fac6d <_init-0x6393>
  3faa44:	8b 45 f8             	mov    eax,DWORD PTR [rbp-0x8]
  3faa47:	48 63 d0             	movsxd rdx,eax
  3faa4a:	48 89 d0             	mov    rax,rdx
  3faa4d:	48 c1 e0 03          	shl    rax,0x3
  3faa51:	48 29 d0             	sub    rax,rdx
  3faa54:	48 c1 e0 03          	shl    rax,0x3
  3faa58:	48 89 c2             	mov    rdx,rax
  3faa5b:	48 8b 45 b0          	mov    rax,QWORD PTR [rbp-0x50]
  3faa5f:	48 01 d0             	add    rax,rdx
  3faa62:	8b 00                	mov    eax,DWORD PTR [rax]
  3faa64:	83 f8 01             	cmp    eax,0x1
  3faa67:	75 75                	jne    3faade <_init-0x6522>
  3faa69:	8b 45 f8             	mov    eax,DWORD PTR [rbp-0x8]
  3faa6c:	48 63 d0             	movsxd rdx,eax
  3faa6f:	48 89 d0             	mov    rax,rdx
  3faa72:	48 c1 e0 03          	shl    rax,0x3
  3faa76:	48 29 d0             	sub    rax,rdx
  3faa79:	48 c1 e0 03          	shl    rax,0x3
  3faa7d:	48 89 c2             	mov    rdx,rax
  3faa80:	48 8b 45 b0          	mov    rax,QWORD PTR [rbp-0x50]
  3faa84:	48 01 d0             	add    rax,rdx
  3faa87:	48 8b 40 08          	mov    rax,QWORD PTR [rax+0x8]
  3faa8b:	48 85 c0             	test   rax,rax
  3faa8e:	74 4e                	je     3faade <_init-0x6522>
  3faa90:	8b 45 f8             	mov    eax,DWORD PTR [rbp-0x8]
  3faa93:	48 63 d0             	movsxd rdx,eax
  3faa96:	48 89 d0             	mov    rax,rdx
  3faa99:	48 c1 e0 03          	shl    rax,0x3
  3faa9d:	48 29 d0             	sub    rax,rdx
  3faaa0:	48 c1 e0 03          	shl    rax,0x3
  3faaa4:	48 89 c2             	mov    rdx,rax
  3faaa7:	48 8b 45 b0          	mov    rax,QWORD PTR [rbp-0x50]
  3faaab:	48 01 d0             	add    rax,rdx
  3faaae:	8b 40 04             	mov    eax,DWORD PTR [rax+0x4]
  3faab1:	83 e0 02             	and    eax,0x2
  3faab4:	85 c0                	test   eax,eax
  3faab6:	74 26                	je     3faade <_init-0x6522>
  3faab8:	8b 45 f8             	mov    eax,DWORD PTR [rbp-0x8]
  3faabb:	48 63 d0             	movsxd rdx,eax
  3faabe:	48 89 d0             	mov    rax,rdx
  3faac1:	48 c1 e0 03          	shl    rax,0x3
  3faac5:	48 29 d0             	sub    rax,rdx
  3faac8:	48 c1 e0 03          	shl    rax,0x3
  3faacc:	48 89 c2             	mov    rdx,rax
  3faacf:	48 8b 45 b0          	mov    rax,QWORD PTR [rbp-0x50]
  3faad3:	48 01 d0             	add    rax,rdx
  3faad6:	48 c7 40 30 00 10 00 	mov    QWORD PTR [rax+0x30],0x1000
  3faadd:	00 
  3faade:	8b 45 f8             	mov    eax,DWORD PTR [rbp-0x8]
  3faae1:	48 63 d0             	movsxd rdx,eax
  3faae4:	48 89 d0             	mov    rax,rdx
  3faae7:	48 c1 e0 03          	shl    rax,0x3
  3faaeb:	48 29 d0             	sub    rax,rdx
  3faaee:	48 c1 e0 03          	shl    rax,0x3
  3faaf2:	48 89 c2             	mov    rdx,rax
  3faaf5:	48 8b 45 b0          	mov    rax,QWORD PTR [rbp-0x50]
  3faaf9:	48 01 d0             	add    rax,rdx
  3faafc:	8b 00                	mov    eax,DWORD PTR [rax]
  3faafe:	83 f8 01             	cmp    eax,0x1
  3fab01:	0f 85 66 01 00 00    	jne    3fac6d <_init-0x6393>
  3fab07:	8b 45 f8             	mov    eax,DWORD PTR [rbp-0x8]
  3fab0a:	48 63 d0             	movsxd rdx,eax
  3fab0d:	48 89 d0             	mov    rax,rdx
  3fab10:	48 c1 e0 03          	shl    rax,0x3
  3fab14:	48 29 d0             	sub    rax,rdx
  3fab17:	48 c1 e0 03          	shl    rax,0x3
  3fab1b:	48 89 c2             	mov    rdx,rax
  3fab1e:	48 8b 45 b0          	mov    rax,QWORD PTR [rbp-0x50]
  3fab22:	48 01 d0             	add    rax,rdx
  3fab25:	8b 40 04             	mov    eax,DWORD PTR [rax+0x4]
  3fab28:	85 c0                	test   eax,eax
  3fab2a:	0f 84 3d 01 00 00    	je     3fac6d <_init-0x6393>
  3fab30:	83 7d f4 00          	cmp    DWORD PTR [rbp-0xc],0x0
  3fab34:	0f 84 33 01 00 00    	je     3fac6d <_init-0x6393>
  3fab3a:	8b 45 f8             	mov    eax,DWORD PTR [rbp-0x8]
  3fab3d:	48 63 d0             	movsxd rdx,eax
  3fab40:	48 89 d0             	mov    rax,rdx
  3fab43:	48 c1 e0 03          	shl    rax,0x3
  3fab47:	48 29 d0             	sub    rax,rdx
  3fab4a:	48 c1 e0 03          	shl    rax,0x3
  3fab4e:	48 89 c2             	mov    rdx,rax
  3fab51:	48 8b 45 b0          	mov    rax,QWORD PTR [rbp-0x50]
  3fab55:	48 01 d0             	add    rax,rdx
  3fab58:	48 8b 48 10          	mov    rcx,QWORD PTR [rax+0x10]
  3fab5c:	8b 45 f8             	mov    eax,DWORD PTR [rbp-0x8]
  3fab5f:	48 63 d0             	movsxd rdx,eax
  3fab62:	48 89 d0             	mov    rax,rdx
  3fab65:	48 c1 e0 03          	shl    rax,0x3
  3fab69:	48 29 d0             	sub    rax,rdx
  3fab6c:	48 c1 e0 03          	shl    rax,0x3
  3fab70:	48 89 c2             	mov    rdx,rax
  3fab73:	48 8b 45 b0          	mov    rax,QWORD PTR [rbp-0x50]
  3fab77:	48 01 c2             	add    rdx,rax
  3fab7a:	48 89 c8             	mov    rax,rcx
  3fab7d:	48 2b 45 c8          	sub    rax,QWORD PTR [rbp-0x38]
  3fab81:	48 89 42 10          	mov    QWORD PTR [rdx+0x10],rax
  3fab85:	8b 45 f8             	mov    eax,DWORD PTR [rbp-0x8]
  3fab88:	48 63 d0             	movsxd rdx,eax
  3fab8b:	48 89 d0             	mov    rax,rdx
  3fab8e:	48 c1 e0 03          	shl    rax,0x3
  3fab92:	48 29 d0             	sub    rax,rdx
  3fab95:	48 c1 e0 03          	shl    rax,0x3
  3fab99:	48 89 c2             	mov    rdx,rax
  3fab9c:	48 8b 45 b0          	mov    rax,QWORD PTR [rbp-0x50]
  3faba0:	48 01 d0             	add    rax,rdx
  3faba3:	48 8b 48 18          	mov    rcx,QWORD PTR [rax+0x18]
  3faba7:	8b 45 f8             	mov    eax,DWORD PTR [rbp-0x8]
  3fabaa:	48 63 d0             	movsxd rdx,eax
  3fabad:	48 89 d0             	mov    rax,rdx
  3fabb0:	48 c1 e0 03          	shl    rax,0x3
  3fabb4:	48 29 d0             	sub    rax,rdx
  3fabb7:	48 c1 e0 03          	shl    rax,0x3
  3fabbb:	48 89 c2             	mov    rdx,rax
  3fabbe:	48 8b 45 b0          	mov    rax,QWORD PTR [rbp-0x50]
  3fabc2:	48 01 c2             	add    rdx,rax
  3fabc5:	48 89 c8             	mov    rax,rcx
  3fabc8:	48 2b 45 c8          	sub    rax,QWORD PTR [rbp-0x38]
  3fabcc:	48 89 42 18          	mov    QWORD PTR [rdx+0x18],rax
  3fabd0:	8b 45 f8             	mov    eax,DWORD PTR [rbp-0x8]
  3fabd3:	48 63 d0             	movsxd rdx,eax
  3fabd6:	48 89 d0             	mov    rax,rdx
  3fabd9:	48 c1 e0 03          	shl    rax,0x3
  3fabdd:	48 29 d0             	sub    rax,rdx
  3fabe0:	48 c1 e0 03          	shl    rax,0x3
  3fabe4:	48 89 c2             	mov    rdx,rax
  3fabe7:	48 8b 45 b0          	mov    rax,QWORD PTR [rbp-0x50]
  3fabeb:	48 01 d0             	add    rax,rdx
  3fabee:	48 8b 48 20          	mov    rcx,QWORD PTR [rax+0x20]
  3fabf2:	8b 45 f8             	mov    eax,DWORD PTR [rbp-0x8]
  3fabf5:	48 63 d0             	movsxd rdx,eax
  3fabf8:	48 89 d0             	mov    rax,rdx
  3fabfb:	48 c1 e0 03          	shl    rax,0x3
  3fabff:	48 29 d0             	sub    rax,rdx
  3fac02:	48 c1 e0 03          	shl    rax,0x3
  3fac06:	48 89 c2             	mov    rdx,rax
  3fac09:	48 8b 45 b0          	mov    rax,QWORD PTR [rbp-0x50]
  3fac0d:	48 01 d0             	add    rax,rdx
  3fac10:	48 8b 55 c8          	mov    rdx,QWORD PTR [rbp-0x38]
  3fac14:	48 01 ca             	add    rdx,rcx
  3fac17:	48 89 50 20          	mov    QWORD PTR [rax+0x20],rdx
  3fac1b:	8b 45 f8             	mov    eax,DWORD PTR [rbp-0x8]
  3fac1e:	48 63 d0             	movsxd rdx,eax
  3fac21:	48 89 d0             	mov    rax,rdx
  3fac24:	48 c1 e0 03          	shl    rax,0x3
  3fac28:	48 29 d0             	sub    rax,rdx
  3fac2b:	48 c1 e0 03          	shl    rax,0x3
  3fac2f:	48 89 c2             	mov    rdx,rax
  3fac32:	48 8b 45 b0          	mov    rax,QWORD PTR [rbp-0x50]
  3fac36:	48 01 d0             	add    rax,rdx
  3fac39:	48 8b 48 28          	mov    rcx,QWORD PTR [rax+0x28]
  3fac3d:	8b 45 f8             	mov    eax,DWORD PTR [rbp-0x8]
  3fac40:	48 63 d0             	movsxd rdx,eax
  3fac43:	48 89 d0             	mov    rax,rdx
  3fac46:	48 c1 e0 03          	shl    rax,0x3
  3fac4a:	48 29 d0             	sub    rax,rdx
  3fac4d:	48 c1 e0 03          	shl    rax,0x3
  3fac51:	48 89 c2             	mov    rdx,rax
  3fac54:	48 8b 45 b0          	mov    rax,QWORD PTR [rbp-0x50]
  3fac58:	48 01 d0             	add    rax,rdx
  3fac5b:	48 8b 55 c8          	mov    rdx,QWORD PTR [rbp-0x38]
  3fac5f:	48 01 ca             	add    rdx,rcx
  3fac62:	48 89 50 28          	mov    QWORD PTR [rax+0x28],rdx
  3fac66:	c7 45 f4 00 00 00 00 	mov    DWORD PTR [rbp-0xc],0x0
  3fac6d:	83 45 f8 01          	add    DWORD PTR [rbp-0x8],0x1
  3fac71:	48 8b 45 b8          	mov    rax,QWORD PTR [rbp-0x48]
  3fac75:	0f b7 40 38          	movzx  eax,WORD PTR [rax+0x38]
  3fac79:	0f b7 c0             	movzx  eax,ax
  3fac7c:	39 45 f8             	cmp    DWORD PTR [rbp-0x8],eax
  3fac7f:	0f 8c 71 fb ff ff    	jl     3fa7f6 <_init-0x680a>
  3fac85:	83 7d fc 00          	cmp    DWORD PTR [rbp-0x4],0x0
  3fac89:	75 0c                	jne    3fac97 <_init-0x6369>
  3fac8b:	48 c7 c0 ff ff ff ff 	mov    rax,0xffffffffffffffff
  3fac92:	e9 e3 01 00 00       	jmp    3fae7a <_init-0x6186>
  3fac97:	48 8b 45 e8          	mov    rax,QWORD PTR [rbp-0x18]
  3fac9b:	48 2b 45 c8          	sub    rax,QWORD PTR [rbp-0x38]
  3fac9f:	48 8d 50 40          	lea    rdx,[rax+0x40]
  3faca3:	48 8b 45 b8          	mov    rax,QWORD PTR [rbp-0x48]
  3faca7:	48 89 50 18          	mov    QWORD PTR [rax+0x18],rdx
  3facab:	48 8b 45 b8          	mov    rax,QWORD PTR [rbp-0x48]
  3facaf:	48 8b 50 28          	mov    rdx,QWORD PTR [rax+0x28]
  3facb3:	48 8b 45 c0          	mov    rax,QWORD PTR [rbp-0x40]
  3facb7:	48 01 d0             	add    rax,rdx
  3facba:	48 89 45 a8          	mov    QWORD PTR [rbp-0x58],rax
  3facbe:	48 8b 45 b8          	mov    rax,QWORD PTR [rbp-0x48]
  3facc2:	0f b7 40 3e          	movzx  eax,WORD PTR [rax+0x3e]
  3facc6:	0f b7 c0             	movzx  eax,ax
  3facc9:	48 c1 e0 06          	shl    rax,0x6
  3faccd:	48 89 c2             	mov    rdx,rax
  3facd0:	48 8b 45 a8          	mov    rax,QWORD PTR [rbp-0x58]
  3facd4:	48 01 d0             	add    rax,rdx
  3facd7:	48 8b 50 18          	mov    rdx,QWORD PTR [rax+0x18]
  3facdb:	48 8b 45 c0          	mov    rax,QWORD PTR [rbp-0x40]
  3facdf:	48 01 d0             	add    rax,rdx
  3face2:	48 89 45 98          	mov    QWORD PTR [rbp-0x68],rax
  3face6:	c7 45 f8 00 00 00 00 	mov    DWORD PTR [rbp-0x8],0x0
  3faced:	e9 1d 01 00 00       	jmp    3fae0f <_init-0x61f1>
  3facf2:	8b 45 f8             	mov    eax,DWORD PTR [rbp-0x8]
  3facf5:	48 98                	cdqe   
  3facf7:	48 c1 e0 06          	shl    rax,0x6
  3facfb:	48 89 c2             	mov    rdx,rax
  3facfe:	48 8b 45 a8          	mov    rax,QWORD PTR [rbp-0x58]
  3fad02:	48 01 d0             	add    rax,rdx
  3fad05:	8b 00                	mov    eax,DWORD PTR [rax]
  3fad07:	89 c2                	mov    edx,eax
  3fad09:	48 8b 45 98          	mov    rax,QWORD PTR [rbp-0x68]
  3fad0d:	48 01 d0             	add    rax,rdx
  3fad10:	ba 05 00 00 00       	mov    edx,0x5
  3fad15:	48 8d 35 ea 20 00 00 	lea    rsi,[rip+0x20ea]        # 3fce06 <_init-0x41fa>
  3fad1c:	48 89 c7             	mov    rdi,rax
  3fad1f:	e8 d7 1e 00 00       	call   3fcbfb <_init-0x4405>
  3fad24:	85 c0                	test   eax,eax
  3fad26:	0f 85 aa 00 00 00    	jne    3fadd6 <_init-0x622a>
  3fad2c:	8b 45 f8             	mov    eax,DWORD PTR [rbp-0x8]
  3fad2f:	48 98                	cdqe   
  3fad31:	48 c1 e0 06          	shl    rax,0x6
  3fad35:	48 89 c2             	mov    rdx,rax
  3fad38:	48 8b 45 a8          	mov    rax,QWORD PTR [rbp-0x58]
  3fad3c:	48 01 d0             	add    rax,rdx
  3fad3f:	48 c7 40 18 40 00 00 	mov    QWORD PTR [rax+0x18],0x40
  3fad46:	00 
  3fad47:	8b 45 f8             	mov    eax,DWORD PTR [rbp-0x8]
  3fad4a:	48 98                	cdqe   
  3fad4c:	48 c1 e0 06          	shl    rax,0x6
  3fad50:	48 89 c2             	mov    rdx,rax
  3fad53:	48 8b 45 a8          	mov    rax,QWORD PTR [rbp-0x58]
  3fad57:	48 01 c2             	add    rdx,rax
  3fad5a:	48 8b 45 e8          	mov    rax,QWORD PTR [rbp-0x18]
  3fad5e:	48 2b 45 c8          	sub    rax,QWORD PTR [rbp-0x38]
  3fad62:	48 89 42 10          	mov    QWORD PTR [rdx+0x10],rax
  3fad66:	8b 45 f8             	mov    eax,DWORD PTR [rbp-0x8]
  3fad69:	48 98                	cdqe   
  3fad6b:	48 c1 e0 06          	shl    rax,0x6
  3fad6f:	48 89 c2             	mov    rdx,rax
  3fad72:	48 8b 45 a8          	mov    rax,QWORD PTR [rbp-0x58]
  3fad76:	48 01 d0             	add    rax,rdx
  3fad79:	48 8b 50 10          	mov    rdx,QWORD PTR [rax+0x10]
  3fad7d:	8b 45 f8             	mov    eax,DWORD PTR [rbp-0x8]
  3fad80:	48 98                	cdqe   
  3fad82:	48 c1 e0 06          	shl    rax,0x6
  3fad86:	48 89 c1             	mov    rcx,rax
  3fad89:	48 8b 45 a8          	mov    rax,QWORD PTR [rbp-0x58]
  3fad8d:	48 01 c8             	add    rax,rcx
  3fad90:	48 83 c2 40          	add    rdx,0x40
  3fad94:	48 89 50 10          	mov    QWORD PTR [rax+0x10],rdx
  3fad98:	8b 45 f8             	mov    eax,DWORD PTR [rbp-0x8]
  3fad9b:	48 98                	cdqe   
  3fad9d:	48 c1 e0 06          	shl    rax,0x6
  3fada1:	48 89 c2             	mov    rdx,rax
  3fada4:	48 8b 45 a8          	mov    rax,QWORD PTR [rbp-0x58]
  3fada8:	48 01 d0             	add    rax,rdx
  3fadab:	48 8b 48 20          	mov    rcx,QWORD PTR [rax+0x20]
  3fadaf:	48 8b 85 f8 fe ff ff 	mov    rax,QWORD PTR [rbp-0x108]
  3fadb6:	48 8b 50 58          	mov    rdx,QWORD PTR [rax+0x58]
  3fadba:	8b 45 f8             	mov    eax,DWORD PTR [rbp-0x8]
  3fadbd:	48 98                	cdqe   
  3fadbf:	48 c1 e0 06          	shl    rax,0x6
  3fadc3:	48 89 c6             	mov    rsi,rax
  3fadc6:	48 8b 45 a8          	mov    rax,QWORD PTR [rbp-0x58]
  3fadca:	48 01 f0             	add    rax,rsi
  3fadcd:	48 01 ca             	add    rdx,rcx
  3fadd0:	48 89 50 20          	mov    QWORD PTR [rax+0x20],rdx
  3fadd4:	eb 35                	jmp    3fae0b <_init-0x61f5>
  3fadd6:	8b 45 f8             	mov    eax,DWORD PTR [rbp-0x8]
  3fadd9:	48 98                	cdqe   
  3faddb:	48 c1 e0 06          	shl    rax,0x6
  3faddf:	48 89 c2             	mov    rdx,rax
  3fade2:	48 8b 45 a8          	mov    rax,QWORD PTR [rbp-0x58]
  3fade6:	48 01 d0             	add    rax,rdx
  3fade9:	48 8b 48 18          	mov    rcx,QWORD PTR [rax+0x18]
  3faded:	8b 45 f8             	mov    eax,DWORD PTR [rbp-0x8]
  3fadf0:	48 98                	cdqe   
  3fadf2:	48 c1 e0 06          	shl    rax,0x6
  3fadf6:	48 89 c2             	mov    rdx,rax
  3fadf9:	48 8b 45 a8          	mov    rax,QWORD PTR [rbp-0x58]
  3fadfd:	48 01 d0             	add    rax,rdx
  3fae00:	48 8b 55 c8          	mov    rdx,QWORD PTR [rbp-0x38]
  3fae04:	48 01 ca             	add    rdx,rcx
  3fae07:	48 89 50 18          	mov    QWORD PTR [rax+0x18],rdx
  3fae0b:	83 45 f8 01          	add    DWORD PTR [rbp-0x8],0x1
  3fae0f:	48 8b 45 b8          	mov    rax,QWORD PTR [rbp-0x48]
  3fae13:	0f b7 40 3c          	movzx  eax,WORD PTR [rax+0x3c]
  3fae17:	0f b7 c0             	movzx  eax,ax
  3fae1a:	39 45 f8             	cmp    DWORD PTR [rbp-0x8],eax
  3fae1d:	0f 8c cf fe ff ff    	jl     3facf2 <_init-0x630e>
  3fae23:	48 8b 45 b8          	mov    rax,QWORD PTR [rbp-0x48]
  3fae27:	48 8b 50 28          	mov    rdx,QWORD PTR [rax+0x28]
  3fae2b:	48 8b 45 c8          	mov    rax,QWORD PTR [rbp-0x38]
  3fae2f:	48 01 c2             	add    rdx,rax
  3fae32:	48 8b 45 b8          	mov    rax,QWORD PTR [rbp-0x48]
  3fae36:	48 89 50 28          	mov    QWORD PTR [rax+0x28],rdx
  3fae3a:	48 8b 45 b8          	mov    rax,QWORD PTR [rbp-0x48]
  3fae3e:	48 8b 50 20          	mov    rdx,QWORD PTR [rax+0x20]
  3fae42:	48 8b 45 c8          	mov    rax,QWORD PTR [rbp-0x38]
  3fae46:	48 01 c2             	add    rdx,rax
  3fae49:	48 8b 45 b8          	mov    rax,QWORD PTR [rbp-0x48]
  3fae4d:	48 89 50 20          	mov    QWORD PTR [rax+0x20],rdx
  3fae51:	48 8b 7d a0          	mov    rdi,QWORD PTR [rbp-0x60]
  3fae55:	48 8b 8d f8 fe ff ff 	mov    rcx,QWORD PTR [rbp-0x108]
  3fae5c:	48 8b 95 f0 fe ff ff 	mov    rdx,QWORD PTR [rbp-0x110]
  3fae63:	48 8b 75 c8          	mov    rsi,QWORD PTR [rbp-0x38]
  3fae67:	48 8b 45 d0          	mov    rax,QWORD PTR [rbp-0x30]
  3fae6b:	49 89 f8             	mov    r8,rdi
  3fae6e:	48 89 c7             	mov    rdi,rax
  3fae71:	e8 ee f5 ff ff       	call   3fa464 <_init-0x6b9c>
  3fae76:	48 8b 45 e0          	mov    rax,QWORD PTR [rbp-0x20]
  3fae7a:	c9                   	leave  
  3fae7b:	c3                   	ret    
  3fae7c:	f3 0f 1e fa          	endbr64 
  3fae80:	55                   	push   rbp
  3fae81:	48 89 e5             	mov    rbp,rsp
  3fae84:	48 83 ec 30          	sub    rsp,0x30
  3fae88:	48 89 7d d8          	mov    QWORD PTR [rbp-0x28],rdi
  3fae8c:	e8 9a 1e 00 00       	call   3fcd2b <_init-0x42d5>
  3fae91:	48 c7 c2 94 2e 40 00 	mov    rdx,0x402e94
  3fae98:	48 89 d1             	mov    rcx,rdx
  3fae9b:	48 c7 c2 a2 2e 40 00 	mov    rdx,0x402ea2
  3faea2:	48 29 d1             	sub    rcx,rdx
  3faea5:	48 89 ca             	mov    rdx,rcx
  3faea8:	48 29 d0             	sub    rax,rdx
  3faeab:	48 89 45 f8          	mov    QWORD PTR [rbp-0x8],rax
  3faeaf:	e8 77 1e 00 00       	call   3fcd2b <_init-0x42d5>
  3faeb4:	48 c7 c2 94 2e 40 00 	mov    rdx,0x402e94
  3faebb:	48 89 d1             	mov    rcx,rdx
  3faebe:	48 c7 c2 b7 2e 40 00 	mov    rdx,0x402eb7
  3faec5:	48 29 d1             	sub    rcx,rdx
  3faec8:	48 89 ca             	mov    rdx,rcx
  3faecb:	48 29 d0             	sub    rax,rdx
  3faece:	48 89 45 f0          	mov    QWORD PTR [rbp-0x10],rax
  3faed2:	e8 54 1e 00 00       	call   3fcd2b <_init-0x42d5>
  3faed7:	48 c7 c2 94 2e 40 00 	mov    rdx,0x402e94
  3faede:	48 89 d1             	mov    rcx,rdx
  3faee1:	48 c7 c2 9c 01 40 00 	mov    rdx,0x40019c
  3faee8:	48 29 d1             	sub    rcx,rdx
  3faeeb:	48 89 ca             	mov    rdx,rcx
  3faeee:	48 29 d0             	sub    rax,rdx
  3faef1:	48 89 45 e8          	mov    QWORD PTR [rbp-0x18],rax
  3faef5:	48 8b 55 e8          	mov    rdx,QWORD PTR [rbp-0x18]
  3faef9:	48 8b 45 d8          	mov    rax,QWORD PTR [rbp-0x28]
  3faefd:	48 89 50 50          	mov    QWORD PTR [rax+0x50],rdx
  3faf01:	48 c7 c0 a2 2e 40 00 	mov    rax,0x402ea2
  3faf08:	48 89 c2             	mov    rdx,rax
  3faf0b:	48 c7 c0 9c 01 40 00 	mov    rax,0x40019c
  3faf12:	48 29 c2             	sub    rdx,rax
  3faf15:	48 89 d0             	mov    rax,rdx
  3faf18:	48 89 c2             	mov    rdx,rax
  3faf1b:	48 8b 45 d8          	mov    rax,QWORD PTR [rbp-0x28]
  3faf1f:	48 89 50 58          	mov    QWORD PTR [rax+0x58],rdx
  3faf23:	48 8b 45 d8          	mov    rax,QWORD PTR [rbp-0x28]
  3faf27:	48 8b 50 58          	mov    rdx,QWORD PTR [rax+0x58]
  3faf2b:	48 8b 45 f0          	mov    rax,QWORD PTR [rbp-0x10]
  3faf2f:	48 2b 45 f8          	sub    rax,QWORD PTR [rbp-0x8]
  3faf33:	48 98                	cdqe   
  3faf35:	48 01 c2             	add    rdx,rax
  3faf38:	48 8b 45 d8          	mov    rax,QWORD PTR [rbp-0x28]
  3faf3c:	48 89 50 58          	mov    QWORD PTR [rax+0x58],rdx
  3faf40:	48 8b 45 d8          	mov    rax,QWORD PTR [rbp-0x28]
  3faf44:	48 8b 40 58          	mov    rax,QWORD PTR [rax+0x58]
  3faf48:	48 8d 90 68 42 00 00 	lea    rdx,[rax+0x4268]
  3faf4f:	48 8b 45 d8          	mov    rax,QWORD PTR [rbp-0x28]
  3faf53:	48 89 50 58          	mov    QWORD PTR [rax+0x58],rdx
  3faf57:	b8 00 00 00 00       	mov    eax,0x0
  3faf5c:	c9                   	leave  
  3faf5d:	c3                   	ret    
  3faf5e:	f3 0f 1e fa          	endbr64 
  3faf62:	55                   	push   rbp
  3faf63:	48 89 e5             	mov    rbp,rsp
  3faf66:	48 83 ec 10          	sub    rsp,0x10
  3faf6a:	48 89 7d f8          	mov    QWORD PTR [rbp-0x8],rdi
  3faf6e:	48 8b 45 f8          	mov    rax,QWORD PTR [rbp-0x8]
  3faf72:	48 8b 50 58          	mov    rdx,QWORD PTR [rax+0x58]
  3faf76:	48 8b 45 f8          	mov    rax,QWORD PTR [rbp-0x8]
  3faf7a:	48 8b 40 50          	mov    rax,QWORD PTR [rax+0x50]
  3faf7e:	48 89 d6             	mov    rsi,rdx
  3faf81:	48 89 c7             	mov    rdi,rax
  3faf84:	e8 23 13 00 00       	call   3fc2ac <_init-0x4d54>
  3faf89:	48 8b 45 f8          	mov    rax,QWORD PTR [rbp-0x8]
  3faf8d:	8b 80 f8 00 00 00    	mov    eax,DWORD PTR [rax+0xf8]
  3faf93:	89 c7                	mov    edi,eax
  3faf95:	e8 46 11 00 00       	call   3fc0e0 <_init-0x4f20>
  3faf9a:	90                   	nop
  3faf9b:	c9                   	leave  
  3faf9c:	c3                   	ret    
  3faf9d:	f3 0f 1e fa          	endbr64 
  3fafa1:	55                   	push   rbp
  3fafa2:	48 89 e5             	mov    rbp,rsp
  3fafa5:	53                   	push   rbx
  3fafa6:	48 81 ec b8 00 00 00 	sub    rsp,0xb8
  3fafad:	48 89 bd 48 ff ff ff 	mov    QWORD PTR [rbp-0xb8],rdi
  3fafb4:	48 89 b5 40 ff ff ff 	mov    QWORD PTR [rbp-0xc0],rsi
  3fafbb:	48 8b 85 40 ff ff ff 	mov    rax,QWORD PTR [rbp-0xc0]
  3fafc2:	48 8b 95 48 ff ff ff 	mov    rdx,QWORD PTR [rbp-0xb8]
  3fafc9:	48 89 50 60          	mov    QWORD PTR [rax+0x60],rdx
  3fafcd:	48 8b 85 48 ff ff ff 	mov    rax,QWORD PTR [rbp-0xb8]
  3fafd4:	ba 00 00 00 00       	mov    edx,0x0
  3fafd9:	be 00 00 00 00       	mov    esi,0x0
  3fafde:	48 89 c7             	mov    rdi,rax
  3fafe1:	e8 c4 10 00 00       	call   3fc0aa <_init-0x4f56>
  3fafe6:	89 45 e8             	mov    DWORD PTR [rbp-0x18],eax
  3fafe9:	83 7d e8 00          	cmp    DWORD PTR [rbp-0x18],0x0
  3fafed:	79 0a                	jns    3faff9 <_init-0x6007>
  3fafef:	b8 ff ff ff ff       	mov    eax,0xffffffff
  3faff4:	e9 b1 03 00 00       	jmp    3fb3aa <_init-0x5c56>
  3faff9:	48 8b 85 40 ff ff ff 	mov    rax,QWORD PTR [rbp-0xc0]
  3fb000:	8b 55 e8             	mov    edx,DWORD PTR [rbp-0x18]
  3fb003:	89 90 f8 00 00 00    	mov    DWORD PTR [rax+0xf8],edx
  3fb009:	8b 45 e8             	mov    eax,DWORD PTR [rbp-0x18]
  3fb00c:	48 98                	cdqe   
  3fb00e:	48 8d 95 50 ff ff ff 	lea    rdx,[rbp-0xb0]
  3fb015:	48 89 d6             	mov    rsi,rdx
  3fb018:	48 89 c7             	mov    rdi,rax
  3fb01b:	e8 4a 11 00 00       	call   3fc16a <_init-0x4e96>
  3fb020:	85 c0                	test   eax,eax
  3fb022:	79 0a                	jns    3fb02e <_init-0x5fd2>
  3fb024:	b8 ff ff ff ff       	mov    eax,0xffffffff
  3fb029:	e9 7c 03 00 00       	jmp    3fb3aa <_init-0x5c56>
  3fb02e:	8b 45 e8             	mov    eax,DWORD PTR [rbp-0x18]
  3fb031:	48 63 d0             	movsxd rdx,eax
  3fb034:	48 8b 45 80          	mov    rax,QWORD PTR [rbp-0x80]
  3fb038:	41 b9 00 00 00 00    	mov    r9d,0x0
  3fb03e:	49 89 d0             	mov    r8,rdx
  3fb041:	b9 02 00 00 00       	mov    ecx,0x2
  3fb046:	ba 03 00 00 00       	mov    edx,0x3
  3fb04b:	48 89 c6             	mov    rsi,rax
  3fb04e:	bf 00 00 00 00       	mov    edi,0x0
  3fb053:	e8 ee 11 00 00       	call   3fc246 <_init-0x4dba>
  3fb058:	48 8b 95 40 ff ff ff 	mov    rdx,QWORD PTR [rbp-0xc0]
  3fb05f:	48 89 42 50          	mov    QWORD PTR [rdx+0x50],rax
  3fb063:	48 8b 85 40 ff ff ff 	mov    rax,QWORD PTR [rbp-0xc0]
  3fb06a:	48 8b 40 50          	mov    rax,QWORD PTR [rax+0x50]
  3fb06e:	48 83 f8 ff          	cmp    rax,0xffffffffffffffff
  3fb072:	75 0a                	jne    3fb07e <_init-0x5f82>
  3fb074:	b8 ff ff ff ff       	mov    eax,0xffffffff
  3fb079:	e9 2c 03 00 00       	jmp    3fb3aa <_init-0x5c56>
  3fb07e:	48 8b 85 40 ff ff ff 	mov    rax,QWORD PTR [rbp-0xc0]
  3fb085:	48 8b 50 50          	mov    rdx,QWORD PTR [rax+0x50]
  3fb089:	48 8b 85 40 ff ff ff 	mov    rax,QWORD PTR [rbp-0xc0]
  3fb090:	48 89 10             	mov    QWORD PTR [rax],rdx
  3fb093:	48 8b 85 40 ff ff ff 	mov    rax,QWORD PTR [rbp-0xc0]
  3fb09a:	48 8b 50 50          	mov    rdx,QWORD PTR [rax+0x50]
  3fb09e:	48 8b 85 40 ff ff ff 	mov    rax,QWORD PTR [rbp-0xc0]
  3fb0a5:	48 8b 00             	mov    rax,QWORD PTR [rax]
  3fb0a8:	48 8b 40 20          	mov    rax,QWORD PTR [rax+0x20]
  3fb0ac:	48 01 c2             	add    rdx,rax
  3fb0af:	48 8b 85 40 ff ff ff 	mov    rax,QWORD PTR [rbp-0xc0]
  3fb0b6:	48 89 50 08          	mov    QWORD PTR [rax+0x8],rdx
  3fb0ba:	48 8b 85 40 ff ff ff 	mov    rax,QWORD PTR [rbp-0xc0]
  3fb0c1:	48 8b 50 50          	mov    rdx,QWORD PTR [rax+0x50]
  3fb0c5:	48 8b 85 40 ff ff ff 	mov    rax,QWORD PTR [rbp-0xc0]
  3fb0cc:	48 8b 00             	mov    rax,QWORD PTR [rax]
  3fb0cf:	48 8b 40 28          	mov    rax,QWORD PTR [rax+0x28]
  3fb0d3:	48 01 c2             	add    rdx,rax
  3fb0d6:	48 8b 85 40 ff ff ff 	mov    rax,QWORD PTR [rbp-0xc0]
  3fb0dd:	48 89 50 10          	mov    QWORD PTR [rax+0x10],rdx
  3fb0e1:	c7 45 ec 00 00 00 00 	mov    DWORD PTR [rbp-0x14],0x0
  3fb0e8:	e9 b6 01 00 00       	jmp    3fb2a3 <_init-0x5d5d>
  3fb0ed:	48 8b 85 40 ff ff ff 	mov    rax,QWORD PTR [rbp-0xc0]
  3fb0f4:	48 8b 48 08          	mov    rcx,QWORD PTR [rax+0x8]
  3fb0f8:	8b 45 ec             	mov    eax,DWORD PTR [rbp-0x14]
  3fb0fb:	48 63 d0             	movsxd rdx,eax
  3fb0fe:	48 89 d0             	mov    rax,rdx
  3fb101:	48 c1 e0 03          	shl    rax,0x3
  3fb105:	48 29 d0             	sub    rax,rdx
  3fb108:	48 c1 e0 03          	shl    rax,0x3
  3fb10c:	48 01 c8             	add    rax,rcx
  3fb10f:	8b 00                	mov    eax,DWORD PTR [rax]
  3fb111:	83 f8 01             	cmp    eax,0x1
  3fb114:	74 0e                	je     3fb124 <_init-0x5edc>
  3fb116:	83 f8 02             	cmp    eax,0x2
  3fb119:	0f 84 3f 01 00 00    	je     3fb25e <_init-0x5da2>
  3fb11f:	e9 7b 01 00 00       	jmp    3fb29f <_init-0x5d61>
  3fb124:	48 8b 85 40 ff ff ff 	mov    rax,QWORD PTR [rbp-0xc0]
  3fb12b:	48 8b 48 08          	mov    rcx,QWORD PTR [rax+0x8]
  3fb12f:	8b 45 ec             	mov    eax,DWORD PTR [rbp-0x14]
  3fb132:	48 63 d0             	movsxd rdx,eax
  3fb135:	48 89 d0             	mov    rax,rdx
  3fb138:	48 c1 e0 03          	shl    rax,0x3
  3fb13c:	48 29 d0             	sub    rax,rdx
  3fb13f:	48 c1 e0 03          	shl    rax,0x3
  3fb143:	48 01 c8             	add    rax,rcx
  3fb146:	48 8b 40 08          	mov    rax,QWORD PTR [rax+0x8]
  3fb14a:	48 85 c0             	test   rax,rax
  3fb14d:	0f 95 c0             	setne  al
  3fb150:	0f b6 c0             	movzx  eax,al
  3fb153:	85 c0                	test   eax,eax
  3fb155:	74 0a                	je     3fb161 <_init-0x5e9f>
  3fb157:	83 f8 01             	cmp    eax,0x1
  3fb15a:	74 6c                	je     3fb1c8 <_init-0x5e38>
  3fb15c:	e9 3e 01 00 00       	jmp    3fb29f <_init-0x5d61>
  3fb161:	48 8b 85 40 ff ff ff 	mov    rax,QWORD PTR [rbp-0xc0]
  3fb168:	48 8b 48 08          	mov    rcx,QWORD PTR [rax+0x8]
  3fb16c:	8b 45 ec             	mov    eax,DWORD PTR [rbp-0x14]
  3fb16f:	48 63 d0             	movsxd rdx,eax
  3fb172:	48 89 d0             	mov    rax,rdx
  3fb175:	48 c1 e0 03          	shl    rax,0x3
  3fb179:	48 29 d0             	sub    rax,rdx
  3fb17c:	48 c1 e0 03          	shl    rax,0x3
  3fb180:	48 01 c8             	add    rax,rcx
  3fb183:	48 8b 50 10          	mov    rdx,QWORD PTR [rax+0x10]
  3fb187:	48 8b 85 40 ff ff ff 	mov    rax,QWORD PTR [rbp-0xc0]
  3fb18e:	48 89 50 20          	mov    QWORD PTR [rax+0x20],rdx
  3fb192:	48 8b 85 40 ff ff ff 	mov    rax,QWORD PTR [rbp-0xc0]
  3fb199:	48 8b 48 08          	mov    rcx,QWORD PTR [rax+0x8]
  3fb19d:	8b 45 ec             	mov    eax,DWORD PTR [rbp-0x14]
  3fb1a0:	48 63 d0             	movsxd rdx,eax
  3fb1a3:	48 89 d0             	mov    rax,rdx
  3fb1a6:	48 c1 e0 03          	shl    rax,0x3
  3fb1aa:	48 29 d0             	sub    rax,rdx
  3fb1ad:	48 c1 e0 03          	shl    rax,0x3
  3fb1b1:	48 01 c8             	add    rax,rcx
  3fb1b4:	48 8b 50 28          	mov    rdx,QWORD PTR [rax+0x28]
  3fb1b8:	48 8b 85 40 ff ff ff 	mov    rax,QWORD PTR [rbp-0xc0]
  3fb1bf:	48 89 50 30          	mov    QWORD PTR [rax+0x30],rdx
  3fb1c3:	e9 94 00 00 00       	jmp    3fb25c <_init-0x5da4>
  3fb1c8:	48 8b 85 40 ff ff ff 	mov    rax,QWORD PTR [rbp-0xc0]
  3fb1cf:	48 8b 48 08          	mov    rcx,QWORD PTR [rax+0x8]
  3fb1d3:	8b 45 ec             	mov    eax,DWORD PTR [rbp-0x14]
  3fb1d6:	48 63 d0             	movsxd rdx,eax
  3fb1d9:	48 89 d0             	mov    rax,rdx
  3fb1dc:	48 c1 e0 03          	shl    rax,0x3
  3fb1e0:	48 29 d0             	sub    rax,rdx
  3fb1e3:	48 c1 e0 03          	shl    rax,0x3
  3fb1e7:	48 01 c8             	add    rax,rcx
  3fb1ea:	48 8b 50 10          	mov    rdx,QWORD PTR [rax+0x10]
  3fb1ee:	48 8b 85 40 ff ff ff 	mov    rax,QWORD PTR [rbp-0xc0]
  3fb1f5:	48 89 50 28          	mov    QWORD PTR [rax+0x28],rdx
  3fb1f9:	48 8b 85 40 ff ff ff 	mov    rax,QWORD PTR [rbp-0xc0]
  3fb200:	48 8b 48 08          	mov    rcx,QWORD PTR [rax+0x8]
  3fb204:	8b 45 ec             	mov    eax,DWORD PTR [rbp-0x14]
  3fb207:	48 63 d0             	movsxd rdx,eax
  3fb20a:	48 89 d0             	mov    rax,rdx
  3fb20d:	48 c1 e0 03          	shl    rax,0x3
  3fb211:	48 29 d0             	sub    rax,rdx
  3fb214:	48 c1 e0 03          	shl    rax,0x3
  3fb218:	48 01 c8             	add    rax,rcx
  3fb21b:	48 8b 50 28          	mov    rdx,QWORD PTR [rax+0x28]
  3fb21f:	48 8b 85 40 ff ff ff 	mov    rax,QWORD PTR [rbp-0xc0]
  3fb226:	48 89 50 38          	mov    QWORD PTR [rax+0x38],rdx
  3fb22a:	48 8b 85 40 ff ff ff 	mov    rax,QWORD PTR [rbp-0xc0]
  3fb231:	48 8b 48 08          	mov    rcx,QWORD PTR [rax+0x8]
  3fb235:	8b 45 ec             	mov    eax,DWORD PTR [rbp-0x14]
  3fb238:	48 63 d0             	movsxd rdx,eax
  3fb23b:	48 89 d0             	mov    rax,rdx
  3fb23e:	48 c1 e0 03          	shl    rax,0x3
  3fb242:	48 29 d0             	sub    rax,rdx
  3fb245:	48 c1 e0 03          	shl    rax,0x3
  3fb249:	48 01 c8             	add    rax,rcx
  3fb24c:	48 8b 50 08          	mov    rdx,QWORD PTR [rax+0x8]
  3fb250:	48 8b 85 40 ff ff ff 	mov    rax,QWORD PTR [rbp-0xc0]
  3fb257:	48 89 50 40          	mov    QWORD PTR [rax+0x40],rdx
  3fb25b:	90                   	nop
  3fb25c:	eb 41                	jmp    3fb29f <_init-0x5d61>
  3fb25e:	48 8b 85 40 ff ff ff 	mov    rax,QWORD PTR [rbp-0xc0]
  3fb265:	48 8b 48 50          	mov    rcx,QWORD PTR [rax+0x50]
  3fb269:	48 8b 85 40 ff ff ff 	mov    rax,QWORD PTR [rbp-0xc0]
  3fb270:	48 8b 70 08          	mov    rsi,QWORD PTR [rax+0x8]
  3fb274:	8b 45 ec             	mov    eax,DWORD PTR [rbp-0x14]
  3fb277:	48 63 d0             	movsxd rdx,eax
  3fb27a:	48 89 d0             	mov    rax,rdx
  3fb27d:	48 c1 e0 03          	shl    rax,0x3
  3fb281:	48 29 d0             	sub    rax,rdx
  3fb284:	48 c1 e0 03          	shl    rax,0x3
  3fb288:	48 01 f0             	add    rax,rsi
  3fb28b:	48 8b 40 08          	mov    rax,QWORD PTR [rax+0x8]
  3fb28f:	48 8d 14 01          	lea    rdx,[rcx+rax*1]
  3fb293:	48 8b 85 40 ff ff ff 	mov    rax,QWORD PTR [rbp-0xc0]
  3fb29a:	48 89 50 18          	mov    QWORD PTR [rax+0x18],rdx
  3fb29e:	90                   	nop
  3fb29f:	83 45 ec 01          	add    DWORD PTR [rbp-0x14],0x1
  3fb2a3:	48 8b 85 40 ff ff ff 	mov    rax,QWORD PTR [rbp-0xc0]
  3fb2aa:	48 8b 00             	mov    rax,QWORD PTR [rax]
  3fb2ad:	0f b7 40 38          	movzx  eax,WORD PTR [rax+0x38]
  3fb2b1:	0f b7 c0             	movzx  eax,ax
  3fb2b4:	39 45 ec             	cmp    DWORD PTR [rbp-0x14],eax
  3fb2b7:	0f 8c 30 fe ff ff    	jl     3fb0ed <_init-0x5f13>
  3fb2bd:	48 8b 85 40 ff ff ff 	mov    rax,QWORD PTR [rbp-0xc0]
  3fb2c4:	48 8b 8d 50 ff ff ff 	mov    rcx,QWORD PTR [rbp-0xb0]
  3fb2cb:	48 8b 9d 58 ff ff ff 	mov    rbx,QWORD PTR [rbp-0xa8]
  3fb2d2:	48 89 48 68          	mov    QWORD PTR [rax+0x68],rcx
  3fb2d6:	48 89 58 70          	mov    QWORD PTR [rax+0x70],rbx
  3fb2da:	48 8b 8d 60 ff ff ff 	mov    rcx,QWORD PTR [rbp-0xa0]
  3fb2e1:	48 8b 9d 68 ff ff ff 	mov    rbx,QWORD PTR [rbp-0x98]
  3fb2e8:	48 89 48 78          	mov    QWORD PTR [rax+0x78],rcx
  3fb2ec:	48 89 98 80 00 00 00 	mov    QWORD PTR [rax+0x80],rbx
  3fb2f3:	48 8b 8d 70 ff ff ff 	mov    rcx,QWORD PTR [rbp-0x90]
  3fb2fa:	48 8b 9d 78 ff ff ff 	mov    rbx,QWORD PTR [rbp-0x88]
  3fb301:	48 89 88 88 00 00 00 	mov    QWORD PTR [rax+0x88],rcx
  3fb308:	48 89 98 90 00 00 00 	mov    QWORD PTR [rax+0x90],rbx
  3fb30f:	48 8b 4d 80          	mov    rcx,QWORD PTR [rbp-0x80]
  3fb313:	48 8b 5d 88          	mov    rbx,QWORD PTR [rbp-0x78]
  3fb317:	48 89 88 98 00 00 00 	mov    QWORD PTR [rax+0x98],rcx
  3fb31e:	48 89 98 a0 00 00 00 	mov    QWORD PTR [rax+0xa0],rbx
  3fb325:	48 8b 4d 90          	mov    rcx,QWORD PTR [rbp-0x70]
  3fb329:	48 8b 5d 98          	mov    rbx,QWORD PTR [rbp-0x68]
  3fb32d:	48 89 88 a8 00 00 00 	mov    QWORD PTR [rax+0xa8],rcx
  3fb334:	48 89 98 b0 00 00 00 	mov    QWORD PTR [rax+0xb0],rbx
  3fb33b:	48 8b 4d a0          	mov    rcx,QWORD PTR [rbp-0x60]
  3fb33f:	48 8b 5d a8          	mov    rbx,QWORD PTR [rbp-0x58]
  3fb343:	48 89 88 b8 00 00 00 	mov    QWORD PTR [rax+0xb8],rcx
  3fb34a:	48 89 98 c0 00 00 00 	mov    QWORD PTR [rax+0xc0],rbx
  3fb351:	48 8b 4d b0          	mov    rcx,QWORD PTR [rbp-0x50]
  3fb355:	48 8b 5d b8          	mov    rbx,QWORD PTR [rbp-0x48]
  3fb359:	48 89 88 c8 00 00 00 	mov    QWORD PTR [rax+0xc8],rcx
  3fb360:	48 89 98 d0 00 00 00 	mov    QWORD PTR [rax+0xd0],rbx
  3fb367:	48 8b 4d c0          	mov    rcx,QWORD PTR [rbp-0x40]
  3fb36b:	48 8b 5d c8          	mov    rbx,QWORD PTR [rbp-0x38]
  3fb36f:	48 89 88 d8 00 00 00 	mov    QWORD PTR [rax+0xd8],rcx
  3fb376:	48 89 98 e0 00 00 00 	mov    QWORD PTR [rax+0xe0],rbx
  3fb37d:	48 8b 4d d0          	mov    rcx,QWORD PTR [rbp-0x30]
  3fb381:	48 8b 5d d8          	mov    rbx,QWORD PTR [rbp-0x28]
  3fb385:	48 89 88 e8 00 00 00 	mov    QWORD PTR [rax+0xe8],rcx
  3fb38c:	48 89 98 f0 00 00 00 	mov    QWORD PTR [rax+0xf0],rbx
  3fb393:	48 8b 45 80          	mov    rax,QWORD PTR [rbp-0x80]
  3fb397:	48 89 c2             	mov    rdx,rax
  3fb39a:	48 8b 85 40 ff ff ff 	mov    rax,QWORD PTR [rbp-0xc0]
  3fb3a1:	48 89 50 58          	mov    QWORD PTR [rax+0x58],rdx
  3fb3a5:	b8 00 00 00 00       	mov    eax,0x0
  3fb3aa:	48 81 c4 b8 00 00 00 	add    rsp,0xb8
  3fb3b1:	5b                   	pop    rbx
  3fb3b2:	5d                   	pop    rbp
  3fb3b3:	c3                   	ret    
  3fb3b4:	f3 0f 1e fa          	endbr64 
  3fb3b8:	55                   	push   rbp
  3fb3b9:	48 89 e5             	mov    rbp,rsp
  3fb3bc:	53                   	push   rbx
  3fb3bd:	48 81 ec b8 00 00 00 	sub    rsp,0xb8
  3fb3c4:	48 89 bd 48 ff ff ff 	mov    QWORD PTR [rbp-0xb8],rdi
  3fb3cb:	48 89 b5 40 ff ff ff 	mov    QWORD PTR [rbp-0xc0],rsi
  3fb3d2:	48 8b 85 40 ff ff ff 	mov    rax,QWORD PTR [rbp-0xc0]
  3fb3d9:	48 8b 95 48 ff ff ff 	mov    rdx,QWORD PTR [rbp-0xb8]
  3fb3e0:	48 89 50 60          	mov    QWORD PTR [rax+0x60],rdx
  3fb3e4:	48 8b 85 48 ff ff ff 	mov    rax,QWORD PTR [rbp-0xb8]
  3fb3eb:	ba 00 00 00 00       	mov    edx,0x0
  3fb3f0:	be 02 00 00 00       	mov    esi,0x2
  3fb3f5:	48 89 c7             	mov    rdi,rax
  3fb3f8:	e8 ad 0c 00 00       	call   3fc0aa <_init-0x4f56>
  3fb3fd:	89 45 e8             	mov    DWORD PTR [rbp-0x18],eax
  3fb400:	83 7d e8 00          	cmp    DWORD PTR [rbp-0x18],0x0
  3fb404:	79 0a                	jns    3fb410 <_init-0x5bf0>
  3fb406:	b8 ff ff ff ff       	mov    eax,0xffffffff
  3fb40b:	e9 b1 03 00 00       	jmp    3fb7c1 <_init-0x583f>
  3fb410:	48 8b 85 40 ff ff ff 	mov    rax,QWORD PTR [rbp-0xc0]
  3fb417:	8b 55 e8             	mov    edx,DWORD PTR [rbp-0x18]
  3fb41a:	89 90 f8 00 00 00    	mov    DWORD PTR [rax+0xf8],edx
  3fb420:	8b 45 e8             	mov    eax,DWORD PTR [rbp-0x18]
  3fb423:	48 98                	cdqe   
  3fb425:	48 8d 95 50 ff ff ff 	lea    rdx,[rbp-0xb0]
  3fb42c:	48 89 d6             	mov    rsi,rdx
  3fb42f:	48 89 c7             	mov    rdi,rax
  3fb432:	e8 33 0d 00 00       	call   3fc16a <_init-0x4e96>
  3fb437:	85 c0                	test   eax,eax
  3fb439:	79 0a                	jns    3fb445 <_init-0x5bbb>
  3fb43b:	b8 ff ff ff ff       	mov    eax,0xffffffff
  3fb440:	e9 7c 03 00 00       	jmp    3fb7c1 <_init-0x583f>
  3fb445:	8b 45 e8             	mov    eax,DWORD PTR [rbp-0x18]
  3fb448:	48 63 d0             	movsxd rdx,eax
  3fb44b:	48 8b 45 80          	mov    rax,QWORD PTR [rbp-0x80]
  3fb44f:	41 b9 00 00 00 00    	mov    r9d,0x0
  3fb455:	49 89 d0             	mov    r8,rdx
  3fb458:	b9 01 00 00 00       	mov    ecx,0x1
  3fb45d:	ba 03 00 00 00       	mov    edx,0x3
  3fb462:	48 89 c6             	mov    rsi,rax
  3fb465:	bf 00 00 00 00       	mov    edi,0x0
  3fb46a:	e8 d7 0d 00 00       	call   3fc246 <_init-0x4dba>
  3fb46f:	48 8b 95 40 ff ff ff 	mov    rdx,QWORD PTR [rbp-0xc0]
  3fb476:	48 89 42 50          	mov    QWORD PTR [rdx+0x50],rax
  3fb47a:	48 8b 85 40 ff ff ff 	mov    rax,QWORD PTR [rbp-0xc0]
  3fb481:	48 8b 40 50          	mov    rax,QWORD PTR [rax+0x50]
  3fb485:	48 83 f8 ff          	cmp    rax,0xffffffffffffffff
  3fb489:	75 0a                	jne    3fb495 <_init-0x5b6b>
  3fb48b:	b8 ff ff ff ff       	mov    eax,0xffffffff
  3fb490:	e9 2c 03 00 00       	jmp    3fb7c1 <_init-0x583f>
  3fb495:	48 8b 85 40 ff ff ff 	mov    rax,QWORD PTR [rbp-0xc0]
  3fb49c:	48 8b 50 50          	mov    rdx,QWORD PTR [rax+0x50]
  3fb4a0:	48 8b 85 40 ff ff ff 	mov    rax,QWORD PTR [rbp-0xc0]
  3fb4a7:	48 89 10             	mov    QWORD PTR [rax],rdx
  3fb4aa:	48 8b 85 40 ff ff ff 	mov    rax,QWORD PTR [rbp-0xc0]
  3fb4b1:	48 8b 50 50          	mov    rdx,QWORD PTR [rax+0x50]
  3fb4b5:	48 8b 85 40 ff ff ff 	mov    rax,QWORD PTR [rbp-0xc0]
  3fb4bc:	48 8b 00             	mov    rax,QWORD PTR [rax]
  3fb4bf:	48 8b 40 20          	mov    rax,QWORD PTR [rax+0x20]
  3fb4c3:	48 01 c2             	add    rdx,rax
  3fb4c6:	48 8b 85 40 ff ff ff 	mov    rax,QWORD PTR [rbp-0xc0]
  3fb4cd:	48 89 50 08          	mov    QWORD PTR [rax+0x8],rdx
  3fb4d1:	48 8b 85 40 ff ff ff 	mov    rax,QWORD PTR [rbp-0xc0]
  3fb4d8:	48 8b 50 50          	mov    rdx,QWORD PTR [rax+0x50]
  3fb4dc:	48 8b 85 40 ff ff ff 	mov    rax,QWORD PTR [rbp-0xc0]
  3fb4e3:	48 8b 00             	mov    rax,QWORD PTR [rax]
  3fb4e6:	48 8b 40 28          	mov    rax,QWORD PTR [rax+0x28]
  3fb4ea:	48 01 c2             	add    rdx,rax
  3fb4ed:	48 8b 85 40 ff ff ff 	mov    rax,QWORD PTR [rbp-0xc0]
  3fb4f4:	48 89 50 10          	mov    QWORD PTR [rax+0x10],rdx
  3fb4f8:	c7 45 ec 00 00 00 00 	mov    DWORD PTR [rbp-0x14],0x0
  3fb4ff:	e9 b6 01 00 00       	jmp    3fb6ba <_init-0x5946>
  3fb504:	48 8b 85 40 ff ff ff 	mov    rax,QWORD PTR [rbp-0xc0]
  3fb50b:	48 8b 48 08          	mov    rcx,QWORD PTR [rax+0x8]
  3fb50f:	8b 45 ec             	mov    eax,DWORD PTR [rbp-0x14]
  3fb512:	48 63 d0             	movsxd rdx,eax
  3fb515:	48 89 d0             	mov    rax,rdx
  3fb518:	48 c1 e0 03          	shl    rax,0x3
  3fb51c:	48 29 d0             	sub    rax,rdx
  3fb51f:	48 c1 e0 03          	shl    rax,0x3
  3fb523:	48 01 c8             	add    rax,rcx
  3fb526:	8b 00                	mov    eax,DWORD PTR [rax]
  3fb528:	83 f8 01             	cmp    eax,0x1
  3fb52b:	74 0e                	je     3fb53b <_init-0x5ac5>
  3fb52d:	83 f8 02             	cmp    eax,0x2
  3fb530:	0f 84 3f 01 00 00    	je     3fb675 <_init-0x598b>
  3fb536:	e9 7b 01 00 00       	jmp    3fb6b6 <_init-0x594a>
  3fb53b:	48 8b 85 40 ff ff ff 	mov    rax,QWORD PTR [rbp-0xc0]
  3fb542:	48 8b 48 08          	mov    rcx,QWORD PTR [rax+0x8]
  3fb546:	8b 45 ec             	mov    eax,DWORD PTR [rbp-0x14]
  3fb549:	48 63 d0             	movsxd rdx,eax
  3fb54c:	48 89 d0             	mov    rax,rdx
  3fb54f:	48 c1 e0 03          	shl    rax,0x3
  3fb553:	48 29 d0             	sub    rax,rdx
  3fb556:	48 c1 e0 03          	shl    rax,0x3
  3fb55a:	48 01 c8             	add    rax,rcx
  3fb55d:	48 8b 40 08          	mov    rax,QWORD PTR [rax+0x8]
  3fb561:	48 85 c0             	test   rax,rax
  3fb564:	0f 95 c0             	setne  al
  3fb567:	0f b6 c0             	movzx  eax,al
  3fb56a:	85 c0                	test   eax,eax
  3fb56c:	74 0a                	je     3fb578 <_init-0x5a88>
  3fb56e:	83 f8 01             	cmp    eax,0x1
  3fb571:	74 6c                	je     3fb5df <_init-0x5a21>
  3fb573:	e9 3e 01 00 00       	jmp    3fb6b6 <_init-0x594a>
  3fb578:	48 8b 85 40 ff ff ff 	mov    rax,QWORD PTR [rbp-0xc0]
  3fb57f:	48 8b 48 08          	mov    rcx,QWORD PTR [rax+0x8]
  3fb583:	8b 45 ec             	mov    eax,DWORD PTR [rbp-0x14]
  3fb586:	48 63 d0             	movsxd rdx,eax
  3fb589:	48 89 d0             	mov    rax,rdx
  3fb58c:	48 c1 e0 03          	shl    rax,0x3
  3fb590:	48 29 d0             	sub    rax,rdx
  3fb593:	48 c1 e0 03          	shl    rax,0x3
  3fb597:	48 01 c8             	add    rax,rcx
  3fb59a:	48 8b 50 10          	mov    rdx,QWORD PTR [rax+0x10]
  3fb59e:	48 8b 85 40 ff ff ff 	mov    rax,QWORD PTR [rbp-0xc0]
  3fb5a5:	48 89 50 20          	mov    QWORD PTR [rax+0x20],rdx
  3fb5a9:	48 8b 85 40 ff ff ff 	mov    rax,QWORD PTR [rbp-0xc0]
  3fb5b0:	48 8b 48 08          	mov    rcx,QWORD PTR [rax+0x8]
  3fb5b4:	8b 45 ec             	mov    eax,DWORD PTR [rbp-0x14]
  3fb5b7:	48 63 d0             	movsxd rdx,eax
  3fb5ba:	48 89 d0             	mov    rax,rdx
  3fb5bd:	48 c1 e0 03          	shl    rax,0x3
  3fb5c1:	48 29 d0             	sub    rax,rdx
  3fb5c4:	48 c1 e0 03          	shl    rax,0x3
  3fb5c8:	48 01 c8             	add    rax,rcx
  3fb5cb:	48 8b 50 28          	mov    rdx,QWORD PTR [rax+0x28]
  3fb5cf:	48 8b 85 40 ff ff ff 	mov    rax,QWORD PTR [rbp-0xc0]
  3fb5d6:	48 89 50 30          	mov    QWORD PTR [rax+0x30],rdx
  3fb5da:	e9 94 00 00 00       	jmp    3fb673 <_init-0x598d>
  3fb5df:	48 8b 85 40 ff ff ff 	mov    rax,QWORD PTR [rbp-0xc0]
  3fb5e6:	48 8b 48 08          	mov    rcx,QWORD PTR [rax+0x8]
  3fb5ea:	8b 45 ec             	mov    eax,DWORD PTR [rbp-0x14]
  3fb5ed:	48 63 d0             	movsxd rdx,eax
  3fb5f0:	48 89 d0             	mov    rax,rdx
  3fb5f3:	48 c1 e0 03          	shl    rax,0x3
  3fb5f7:	48 29 d0             	sub    rax,rdx
  3fb5fa:	48 c1 e0 03          	shl    rax,0x3
  3fb5fe:	48 01 c8             	add    rax,rcx
  3fb601:	48 8b 50 10          	mov    rdx,QWORD PTR [rax+0x10]
  3fb605:	48 8b 85 40 ff ff ff 	mov    rax,QWORD PTR [rbp-0xc0]
  3fb60c:	48 89 50 28          	mov    QWORD PTR [rax+0x28],rdx
  3fb610:	48 8b 85 40 ff ff ff 	mov    rax,QWORD PTR [rbp-0xc0]
  3fb617:	48 8b 48 08          	mov    rcx,QWORD PTR [rax+0x8]
  3fb61b:	8b 45 ec             	mov    eax,DWORD PTR [rbp-0x14]
  3fb61e:	48 63 d0             	movsxd rdx,eax
  3fb621:	48 89 d0             	mov    rax,rdx
  3fb624:	48 c1 e0 03          	shl    rax,0x3
  3fb628:	48 29 d0             	sub    rax,rdx
  3fb62b:	48 c1 e0 03          	shl    rax,0x3
  3fb62f:	48 01 c8             	add    rax,rcx
  3fb632:	48 8b 50 28          	mov    rdx,QWORD PTR [rax+0x28]
  3fb636:	48 8b 85 40 ff ff ff 	mov    rax,QWORD PTR [rbp-0xc0]
  3fb63d:	48 89 50 38          	mov    QWORD PTR [rax+0x38],rdx
  3fb641:	48 8b 85 40 ff ff ff 	mov    rax,QWORD PTR [rbp-0xc0]
  3fb648:	48 8b 48 08          	mov    rcx,QWORD PTR [rax+0x8]
  3fb64c:	8b 45 ec             	mov    eax,DWORD PTR [rbp-0x14]
  3fb64f:	48 63 d0             	movsxd rdx,eax
  3fb652:	48 89 d0             	mov    rax,rdx
  3fb655:	48 c1 e0 03          	shl    rax,0x3
  3fb659:	48 29 d0             	sub    rax,rdx
  3fb65c:	48 c1 e0 03          	shl    rax,0x3
  3fb660:	48 01 c8             	add    rax,rcx
  3fb663:	48 8b 50 08          	mov    rdx,QWORD PTR [rax+0x8]
  3fb667:	48 8b 85 40 ff ff ff 	mov    rax,QWORD PTR [rbp-0xc0]
  3fb66e:	48 89 50 40          	mov    QWORD PTR [rax+0x40],rdx
  3fb672:	90                   	nop
  3fb673:	eb 41                	jmp    3fb6b6 <_init-0x594a>
  3fb675:	48 8b 85 40 ff ff ff 	mov    rax,QWORD PTR [rbp-0xc0]
  3fb67c:	48 8b 48 50          	mov    rcx,QWORD PTR [rax+0x50]
  3fb680:	48 8b 85 40 ff ff ff 	mov    rax,QWORD PTR [rbp-0xc0]
  3fb687:	48 8b 70 08          	mov    rsi,QWORD PTR [rax+0x8]
  3fb68b:	8b 45 ec             	mov    eax,DWORD PTR [rbp-0x14]
  3fb68e:	48 63 d0             	movsxd rdx,eax
  3fb691:	48 89 d0             	mov    rax,rdx
  3fb694:	48 c1 e0 03          	shl    rax,0x3
  3fb698:	48 29 d0             	sub    rax,rdx
  3fb69b:	48 c1 e0 03          	shl    rax,0x3
  3fb69f:	48 01 f0             	add    rax,rsi
  3fb6a2:	48 8b 40 08          	mov    rax,QWORD PTR [rax+0x8]
  3fb6a6:	48 8d 14 01          	lea    rdx,[rcx+rax*1]
  3fb6aa:	48 8b 85 40 ff ff ff 	mov    rax,QWORD PTR [rbp-0xc0]
  3fb6b1:	48 89 50 18          	mov    QWORD PTR [rax+0x18],rdx
  3fb6b5:	90                   	nop
  3fb6b6:	83 45 ec 01          	add    DWORD PTR [rbp-0x14],0x1
  3fb6ba:	48 8b 85 40 ff ff ff 	mov    rax,QWORD PTR [rbp-0xc0]
  3fb6c1:	48 8b 00             	mov    rax,QWORD PTR [rax]
  3fb6c4:	0f b7 40 38          	movzx  eax,WORD PTR [rax+0x38]
  3fb6c8:	0f b7 c0             	movzx  eax,ax
  3fb6cb:	39 45 ec             	cmp    DWORD PTR [rbp-0x14],eax
  3fb6ce:	0f 8c 30 fe ff ff    	jl     3fb504 <_init-0x5afc>
  3fb6d4:	48 8b 85 40 ff ff ff 	mov    rax,QWORD PTR [rbp-0xc0]
  3fb6db:	48 8b 8d 50 ff ff ff 	mov    rcx,QWORD PTR [rbp-0xb0]
  3fb6e2:	48 8b 9d 58 ff ff ff 	mov    rbx,QWORD PTR [rbp-0xa8]
  3fb6e9:	48 89 48 68          	mov    QWORD PTR [rax+0x68],rcx
  3fb6ed:	48 89 58 70          	mov    QWORD PTR [rax+0x70],rbx
  3fb6f1:	48 8b 8d 60 ff ff ff 	mov    rcx,QWORD PTR [rbp-0xa0]
  3fb6f8:	48 8b 9d 68 ff ff ff 	mov    rbx,QWORD PTR [rbp-0x98]
  3fb6ff:	48 89 48 78          	mov    QWORD PTR [rax+0x78],rcx
  3fb703:	48 89 98 80 00 00 00 	mov    QWORD PTR [rax+0x80],rbx
  3fb70a:	48 8b 8d 70 ff ff ff 	mov    rcx,QWORD PTR [rbp-0x90]
  3fb711:	48 8b 9d 78 ff ff ff 	mov    rbx,QWORD PTR [rbp-0x88]
  3fb718:	48 89 88 88 00 00 00 	mov    QWORD PTR [rax+0x88],rcx
  3fb71f:	48 89 98 90 00 00 00 	mov    QWORD PTR [rax+0x90],rbx
  3fb726:	48 8b 4d 80          	mov    rcx,QWORD PTR [rbp-0x80]
  3fb72a:	48 8b 5d 88          	mov    rbx,QWORD PTR [rbp-0x78]
  3fb72e:	48 89 88 98 00 00 00 	mov    QWORD PTR [rax+0x98],rcx
  3fb735:	48 89 98 a0 00 00 00 	mov    QWORD PTR [rax+0xa0],rbx
  3fb73c:	48 8b 4d 90          	mov    rcx,QWORD PTR [rbp-0x70]
  3fb740:	48 8b 5d 98          	mov    rbx,QWORD PTR [rbp-0x68]
  3fb744:	48 89 88 a8 00 00 00 	mov    QWORD PTR [rax+0xa8],rcx
  3fb74b:	48 89 98 b0 00 00 00 	mov    QWORD PTR [rax+0xb0],rbx
  3fb752:	48 8b 4d a0          	mov    rcx,QWORD PTR [rbp-0x60]
  3fb756:	48 8b 5d a8          	mov    rbx,QWORD PTR [rbp-0x58]
  3fb75a:	48 89 88 b8 00 00 00 	mov    QWORD PTR [rax+0xb8],rcx
  3fb761:	48 89 98 c0 00 00 00 	mov    QWORD PTR [rax+0xc0],rbx
  3fb768:	48 8b 4d b0          	mov    rcx,QWORD PTR [rbp-0x50]
  3fb76c:	48 8b 5d b8          	mov    rbx,QWORD PTR [rbp-0x48]
  3fb770:	48 89 88 c8 00 00 00 	mov    QWORD PTR [rax+0xc8],rcx
  3fb777:	48 89 98 d0 00 00 00 	mov    QWORD PTR [rax+0xd0],rbx
  3fb77e:	48 8b 4d c0          	mov    rcx,QWORD PTR [rbp-0x40]
  3fb782:	48 8b 5d c8          	mov    rbx,QWORD PTR [rbp-0x38]
  3fb786:	48 89 88 d8 00 00 00 	mov    QWORD PTR [rax+0xd8],rcx
  3fb78d:	48 89 98 e0 00 00 00 	mov    QWORD PTR [rax+0xe0],rbx
  3fb794:	48 8b 4d d0          	mov    rcx,QWORD PTR [rbp-0x30]
  3fb798:	48 8b 5d d8          	mov    rbx,QWORD PTR [rbp-0x28]
  3fb79c:	48 89 88 e8 00 00 00 	mov    QWORD PTR [rax+0xe8],rcx
  3fb7a3:	48 89 98 f0 00 00 00 	mov    QWORD PTR [rax+0xf0],rbx
  3fb7aa:	48 8b 45 80          	mov    rax,QWORD PTR [rbp-0x80]
  3fb7ae:	48 89 c2             	mov    rdx,rax
  3fb7b1:	48 8b 85 40 ff ff ff 	mov    rax,QWORD PTR [rbp-0xc0]
  3fb7b8:	48 89 50 58          	mov    QWORD PTR [rax+0x58],rdx
  3fb7bc:	b8 00 00 00 00       	mov    eax,0x0
  3fb7c1:	48 81 c4 b8 00 00 00 	add    rsp,0xb8
  3fb7c8:	5b                   	pop    rbx
  3fb7c9:	5d                   	pop    rbp
  3fb7ca:	c3                   	ret    
  3fb7cb:	f3 0f 1e fa          	endbr64 
  3fb7cf:	55                   	push   rbp
  3fb7d0:	48 89 e5             	mov    rbp,rsp
  3fb7d3:	48 83 ec 70          	sub    rsp,0x70
  3fb7d7:	48 89 7d 98          	mov    QWORD PTR [rbp-0x68],rdi
  3fb7db:	48 89 75 90          	mov    QWORD PTR [rbp-0x70],rsi
  3fb7df:	c7 45 b4 00 00 00 00 	mov    DWORD PTR [rbp-0x4c],0x0
  3fb7e6:	c7 45 f8 ff ff ff ff 	mov    DWORD PTR [rbp-0x8],0xffffffff
  3fb7ed:	48 8b 45 98          	mov    rax,QWORD PTR [rbp-0x68]
  3fb7f1:	48 8b 40 18          	mov    rax,QWORD PTR [rax+0x18]
  3fb7f5:	48 89 45 a8          	mov    QWORD PTR [rbp-0x58],rax
  3fb7f9:	48 c7 45 c0 00 00 00 	mov    QWORD PTR [rbp-0x40],0x0
  3fb800:	00 
  3fb801:	48 c7 45 b8 00 00 00 	mov    QWORD PTR [rbp-0x48],0x0
  3fb808:	00 
  3fb809:	c7 45 fc 00 00 00 00 	mov    DWORD PTR [rbp-0x4],0x0
  3fb810:	e9 67 01 00 00       	jmp    3fb97c <_init-0x5684>
  3fb815:	8b 45 fc             	mov    eax,DWORD PTR [rbp-0x4]
  3fb818:	48 98                	cdqe   
  3fb81a:	48 c1 e0 04          	shl    rax,0x4
  3fb81e:	48 89 c2             	mov    rdx,rax
  3fb821:	48 8b 45 a8          	mov    rax,QWORD PTR [rbp-0x58]
  3fb825:	48 01 d0             	add    rax,rdx
  3fb828:	48 8b 00             	mov    rax,QWORD PTR [rax]
  3fb82b:	48 83 f8 17          	cmp    rax,0x17
  3fb82f:	0f 87 43 01 00 00    	ja     3fb978 <_init-0x5688>
  3fb835:	48 8d 14 85 00 00 00 	lea    rdx,[rax*4+0x0]
  3fb83c:	00 
  3fb83d:	48 8d 05 d0 15 00 00 	lea    rax,[rip+0x15d0]        # 3fce14 <_init-0x41ec>
  3fb844:	8b 04 02             	mov    eax,DWORD PTR [rdx+rax*1]
  3fb847:	48 98                	cdqe   
  3fb849:	48 8d 15 c4 15 00 00 	lea    rdx,[rip+0x15c4]        # 3fce14 <_init-0x41ec>
  3fb850:	48 01 d0             	add    rax,rdx
  3fb853:	3e ff e0             	notrack jmp rax
  3fb856:	48 8b 45 98          	mov    rax,QWORD PTR [rbp-0x68]
  3fb85a:	48 8b 50 50          	mov    rdx,QWORD PTR [rax+0x50]
  3fb85e:	8b 45 fc             	mov    eax,DWORD PTR [rbp-0x4]
  3fb861:	48 98                	cdqe   
  3fb863:	48 c1 e0 04          	shl    rax,0x4
  3fb867:	48 89 c1             	mov    rcx,rax
  3fb86a:	48 8b 45 a8          	mov    rax,QWORD PTR [rbp-0x58]
  3fb86e:	48 01 c8             	add    rax,rcx
  3fb871:	48 8b 48 08          	mov    rcx,QWORD PTR [rax+0x8]
  3fb875:	48 8b 45 98          	mov    rax,QWORD PTR [rbp-0x68]
  3fb879:	48 8b 40 20          	mov    rax,QWORD PTR [rax+0x20]
  3fb87d:	48 29 c1             	sub    rcx,rax
  3fb880:	48 89 c8             	mov    rax,rcx
  3fb883:	48 01 d0             	add    rax,rdx
  3fb886:	48 89 45 f0          	mov    QWORD PTR [rbp-0x10],rax
  3fb88a:	e9 e9 00 00 00       	jmp    3fb978 <_init-0x5688>
  3fb88f:	48 8b 45 98          	mov    rax,QWORD PTR [rbp-0x68]
  3fb893:	48 8b 50 50          	mov    rdx,QWORD PTR [rax+0x50]
  3fb897:	48 8b 45 98          	mov    rax,QWORD PTR [rbp-0x68]
  3fb89b:	48 8b 48 40          	mov    rcx,QWORD PTR [rax+0x40]
  3fb89f:	8b 45 fc             	mov    eax,DWORD PTR [rbp-0x4]
  3fb8a2:	48 98                	cdqe   
  3fb8a4:	48 c1 e0 04          	shl    rax,0x4
  3fb8a8:	48 89 c6             	mov    rsi,rax
  3fb8ab:	48 8b 45 a8          	mov    rax,QWORD PTR [rbp-0x58]
  3fb8af:	48 01 f0             	add    rax,rsi
  3fb8b2:	48 8b 70 08          	mov    rsi,QWORD PTR [rax+0x8]
  3fb8b6:	48 8b 45 98          	mov    rax,QWORD PTR [rbp-0x68]
  3fb8ba:	48 8b 40 28          	mov    rax,QWORD PTR [rax+0x28]
  3fb8be:	48 29 c6             	sub    rsi,rax
  3fb8c1:	48 89 f0             	mov    rax,rsi
  3fb8c4:	48 01 c8             	add    rax,rcx
  3fb8c7:	48 01 d0             	add    rax,rdx
  3fb8ca:	48 89 45 e0          	mov    QWORD PTR [rbp-0x20],rax
  3fb8ce:	e9 a5 00 00 00       	jmp    3fb978 <_init-0x5688>
  3fb8d3:	48 8b 45 98          	mov    rax,QWORD PTR [rbp-0x68]
  3fb8d7:	48 8b 50 50          	mov    rdx,QWORD PTR [rax+0x50]
  3fb8db:	8b 45 fc             	mov    eax,DWORD PTR [rbp-0x4]
  3fb8de:	48 98                	cdqe   
  3fb8e0:	48 c1 e0 04          	shl    rax,0x4
  3fb8e4:	48 89 c1             	mov    rcx,rax
  3fb8e7:	48 8b 45 a8          	mov    rax,QWORD PTR [rbp-0x58]
  3fb8eb:	48 01 c8             	add    rax,rcx
  3fb8ee:	48 8b 48 08          	mov    rcx,QWORD PTR [rax+0x8]
  3fb8f2:	48 8b 45 98          	mov    rax,QWORD PTR [rbp-0x68]
  3fb8f6:	48 8b 40 20          	mov    rax,QWORD PTR [rax+0x20]
  3fb8fa:	48 29 c1             	sub    rcx,rax
  3fb8fd:	48 89 c8             	mov    rax,rcx
  3fb900:	48 01 d0             	add    rax,rdx
  3fb903:	48 89 45 d8          	mov    QWORD PTR [rbp-0x28],rax
  3fb907:	eb 6f                	jmp    3fb978 <_init-0x5688>
  3fb909:	8b 45 fc             	mov    eax,DWORD PTR [rbp-0x4]
  3fb90c:	48 98                	cdqe   
  3fb90e:	48 c1 e0 04          	shl    rax,0x4
  3fb912:	48 89 c2             	mov    rdx,rax
  3fb915:	48 8b 45 a8          	mov    rax,QWORD PTR [rbp-0x58]
  3fb919:	48 01 d0             	add    rax,rdx
  3fb91c:	48 8b 40 08          	mov    rax,QWORD PTR [rax+0x8]
  3fb920:	48 89 45 d0          	mov    QWORD PTR [rbp-0x30],rax
  3fb924:	eb 52                	jmp    3fb978 <_init-0x5688>
  3fb926:	48 8b 45 98          	mov    rax,QWORD PTR [rbp-0x68]
  3fb92a:	48 8b 50 50          	mov    rdx,QWORD PTR [rax+0x50]
  3fb92e:	8b 45 fc             	mov    eax,DWORD PTR [rbp-0x4]
  3fb931:	48 98                	cdqe   
  3fb933:	48 c1 e0 04          	shl    rax,0x4
  3fb937:	48 89 c1             	mov    rcx,rax
  3fb93a:	48 8b 45 a8          	mov    rax,QWORD PTR [rbp-0x58]
  3fb93e:	48 01 c8             	add    rax,rcx
  3fb941:	48 8b 48 08          	mov    rcx,QWORD PTR [rax+0x8]
  3fb945:	48 8b 45 98          	mov    rax,QWORD PTR [rbp-0x68]
  3fb949:	48 8b 40 20          	mov    rax,QWORD PTR [rax+0x20]
  3fb94d:	48 29 c1             	sub    rcx,rax
  3fb950:	48 89 c8             	mov    rax,rcx
  3fb953:	48 01 d0             	add    rax,rdx
  3fb956:	48 89 45 e8          	mov    QWORD PTR [rbp-0x18],rax
  3fb95a:	eb 1c                	jmp    3fb978 <_init-0x5688>
  3fb95c:	8b 45 fc             	mov    eax,DWORD PTR [rbp-0x4]
  3fb95f:	48 98                	cdqe   
  3fb961:	48 c1 e0 04          	shl    rax,0x4
  3fb965:	48 89 c2             	mov    rdx,rax
  3fb968:	48 8b 45 a8          	mov    rax,QWORD PTR [rbp-0x58]
  3fb96c:	48 01 d0             	add    rax,rdx
  3fb96f:	48 8b 40 08          	mov    rax,QWORD PTR [rax+0x8]
  3fb973:	48 89 45 c8          	mov    QWORD PTR [rbp-0x38],rax
  3fb977:	90                   	nop
  3fb978:	83 45 fc 01          	add    DWORD PTR [rbp-0x4],0x1
  3fb97c:	8b 45 fc             	mov    eax,DWORD PTR [rbp-0x4]
  3fb97f:	48 98                	cdqe   
  3fb981:	48 c1 e0 04          	shl    rax,0x4
  3fb985:	48 89 c2             	mov    rdx,rax
  3fb988:	48 8b 45 a8          	mov    rax,QWORD PTR [rbp-0x58]
  3fb98c:	48 01 d0             	add    rax,rdx
  3fb98f:	48 8b 00             	mov    rax,QWORD PTR [rax]
  3fb992:	48 85 c0             	test   rax,rax
  3fb995:	0f 85 7a fe ff ff    	jne    3fb815 <_init-0x57eb>
  3fb99b:	48 83 7d f0 00       	cmp    QWORD PTR [rbp-0x10],0x0
  3fb9a0:	74 07                	je     3fb9a9 <_init-0x5657>
  3fb9a2:	48 83 7d e0 00       	cmp    QWORD PTR [rbp-0x20],0x0
  3fb9a7:	75 0a                	jne    3fb9b3 <_init-0x564d>
  3fb9a9:	b8 ff ff ff ff       	mov    eax,0xffffffff
  3fb9ae:	e9 af 01 00 00       	jmp    3fbb62 <_init-0x549e>
  3fb9b3:	c7 45 fc 00 00 00 00 	mov    DWORD PTR [rbp-0x4],0x0
  3fb9ba:	eb 47                	jmp    3fba03 <_init-0x55fd>
  3fb9bc:	8b 45 fc             	mov    eax,DWORD PTR [rbp-0x4]
  3fb9bf:	48 63 d0             	movsxd rdx,eax
  3fb9c2:	48 89 d0             	mov    rax,rdx
  3fb9c5:	48 01 c0             	add    rax,rax
  3fb9c8:	48 01 d0             	add    rax,rdx
  3fb9cb:	48 c1 e0 03          	shl    rax,0x3
  3fb9cf:	48 89 c2             	mov    rdx,rax
  3fb9d2:	48 8b 45 f0          	mov    rax,QWORD PTR [rbp-0x10]
  3fb9d6:	48 01 d0             	add    rax,rdx
  3fb9d9:	8b 00                	mov    eax,DWORD PTR [rax]
  3fb9db:	89 c2                	mov    edx,eax
  3fb9dd:	48 8b 45 d8          	mov    rax,QWORD PTR [rbp-0x28]
  3fb9e1:	48 01 d0             	add    rax,rdx
  3fb9e4:	48 8d 35 21 14 00 00 	lea    rsi,[rip+0x1421]        # 3fce0c <_init-0x41f4>
  3fb9eb:	48 89 c7             	mov    rdi,rax
  3fb9ee:	e8 7f 12 00 00       	call   3fcc72 <_init-0x438e>
  3fb9f3:	85 c0                	test   eax,eax
  3fb9f5:	75 08                	jne    3fb9ff <_init-0x5601>
  3fb9f7:	8b 45 fc             	mov    eax,DWORD PTR [rbp-0x4]
  3fb9fa:	89 45 f8             	mov    DWORD PTR [rbp-0x8],eax
  3fb9fd:	eb 2b                	jmp    3fba2a <_init-0x55d6>
  3fb9ff:	83 45 fc 01          	add    DWORD PTR [rbp-0x4],0x1
  3fba03:	8b 45 fc             	mov    eax,DWORD PTR [rbp-0x4]
  3fba06:	48 63 d0             	movsxd rdx,eax
  3fba09:	48 89 d0             	mov    rax,rdx
  3fba0c:	48 01 c0             	add    rax,rax
  3fba0f:	48 01 d0             	add    rax,rdx
  3fba12:	48 c1 e0 03          	shl    rax,0x3
  3fba16:	48 89 c2             	mov    rdx,rax
  3fba19:	48 8b 45 f0          	mov    rax,QWORD PTR [rbp-0x10]
  3fba1d:	48 01 d0             	add    rax,rdx
  3fba20:	8b 00                	mov    eax,DWORD PTR [rax]
  3fba22:	89 c0                	mov    eax,eax
  3fba24:	48 39 45 d0          	cmp    QWORD PTR [rbp-0x30],rax
  3fba28:	73 92                	jae    3fb9bc <_init-0x5644>
  3fba2a:	83 7d f8 ff          	cmp    DWORD PTR [rbp-0x8],0xffffffff
  3fba2e:	75 0a                	jne    3fba3a <_init-0x55c6>
  3fba30:	b8 ff ff ff ff       	mov    eax,0xffffffff
  3fba35:	e9 28 01 00 00       	jmp    3fbb62 <_init-0x549e>
  3fba3a:	c7 45 fc 00 00 00 00 	mov    DWORD PTR [rbp-0x4],0x0
  3fba41:	e9 c4 00 00 00       	jmp    3fbb0a <_init-0x54f6>
  3fba46:	8b 45 fc             	mov    eax,DWORD PTR [rbp-0x4]
  3fba49:	48 63 d0             	movsxd rdx,eax
  3fba4c:	48 89 d0             	mov    rax,rdx
  3fba4f:	48 01 c0             	add    rax,rax
  3fba52:	48 01 d0             	add    rax,rdx
  3fba55:	48 c1 e0 03          	shl    rax,0x3
  3fba59:	48 89 c2             	mov    rdx,rax
  3fba5c:	48 8b 45 e8          	mov    rax,QWORD PTR [rbp-0x18]
  3fba60:	48 01 d0             	add    rax,rdx
  3fba63:	48 8b 40 08          	mov    rax,QWORD PTR [rax+0x8]
  3fba67:	48 c1 e8 20          	shr    rax,0x20
  3fba6b:	48 89 c2             	mov    rdx,rax
  3fba6e:	48 89 d0             	mov    rax,rdx
  3fba71:	48 01 c0             	add    rax,rax
  3fba74:	48 01 d0             	add    rax,rdx
  3fba77:	48 c1 e0 03          	shl    rax,0x3
  3fba7b:	48 89 c2             	mov    rdx,rax
  3fba7e:	48 8b 45 f0          	mov    rax,QWORD PTR [rbp-0x10]
  3fba82:	48 01 d0             	add    rax,rdx
  3fba85:	8b 00                	mov    eax,DWORD PTR [rax]
  3fba87:	89 c2                	mov    edx,eax
  3fba89:	48 8b 45 d8          	mov    rax,QWORD PTR [rbp-0x28]
  3fba8d:	48 01 d0             	add    rax,rdx
  3fba90:	48 8d 35 75 13 00 00 	lea    rsi,[rip+0x1375]        # 3fce0c <_init-0x41f4>
  3fba97:	48 89 c7             	mov    rdi,rax
  3fba9a:	e8 d3 11 00 00       	call   3fcc72 <_init-0x438e>
  3fba9f:	85 c0                	test   eax,eax
  3fbaa1:	75 63                	jne    3fbb06 <_init-0x54fa>
  3fbaa3:	8b 45 fc             	mov    eax,DWORD PTR [rbp-0x4]
  3fbaa6:	48 63 d0             	movsxd rdx,eax
  3fbaa9:	48 89 d0             	mov    rax,rdx
  3fbaac:	48 01 c0             	add    rax,rax
  3fbaaf:	48 01 d0             	add    rax,rdx
  3fbab2:	48 c1 e0 03          	shl    rax,0x3
  3fbab6:	48 89 c2             	mov    rdx,rax
  3fbab9:	48 8b 45 e8          	mov    rax,QWORD PTR [rbp-0x18]
  3fbabd:	48 01 d0             	add    rax,rdx
  3fbac0:	48 8b 00             	mov    rax,QWORD PTR [rax]
  3fbac3:	48 89 45 c0          	mov    QWORD PTR [rbp-0x40],rax
  3fbac7:	48 8b 45 98          	mov    rax,QWORD PTR [rbp-0x68]
  3fbacb:	48 8b 48 40          	mov    rcx,QWORD PTR [rax+0x40]
  3fbacf:	8b 45 fc             	mov    eax,DWORD PTR [rbp-0x4]
  3fbad2:	48 63 d0             	movsxd rdx,eax
  3fbad5:	48 89 d0             	mov    rax,rdx
  3fbad8:	48 01 c0             	add    rax,rax
  3fbadb:	48 01 d0             	add    rax,rdx
  3fbade:	48 c1 e0 03          	shl    rax,0x3
  3fbae2:	48 89 c2             	mov    rdx,rax
  3fbae5:	48 8b 45 e8          	mov    rax,QWORD PTR [rbp-0x18]
  3fbae9:	48 01 d0             	add    rax,rdx
  3fbaec:	48 8b 10             	mov    rdx,QWORD PTR [rax]
  3fbaef:	48 8b 45 98          	mov    rax,QWORD PTR [rbp-0x68]
  3fbaf3:	48 8b 40 28          	mov    rax,QWORD PTR [rax+0x28]
  3fbaf7:	48 29 c2             	sub    rdx,rax
  3fbafa:	48 89 d0             	mov    rax,rdx
  3fbafd:	48 01 c8             	add    rax,rcx
  3fbb00:	48 89 45 b8          	mov    QWORD PTR [rbp-0x48],rax
  3fbb04:	eb 2b                	jmp    3fbb31 <_init-0x54cf>
  3fbb06:	83 45 fc 01          	add    DWORD PTR [rbp-0x4],0x1
  3fbb0a:	8b 45 fc             	mov    eax,DWORD PTR [rbp-0x4]
  3fbb0d:	48 63 c8             	movsxd rcx,eax
  3fbb10:	48 8b 45 c8          	mov    rax,QWORD PTR [rbp-0x38]
  3fbb14:	48 ba ab aa aa aa aa 	movabs rdx,0xaaaaaaaaaaaaaaab
  3fbb1b:	aa aa aa 
  3fbb1e:	48 f7 e2             	mul    rdx
  3fbb21:	48 89 d0             	mov    rax,rdx
  3fbb24:	48 c1 e8 04          	shr    rax,0x4
  3fbb28:	48 39 c1             	cmp    rcx,rax
  3fbb2b:	0f 82 15 ff ff ff    	jb     3fba46 <_init-0x55ba>
  3fbb31:	48 83 7d c0 00       	cmp    QWORD PTR [rbp-0x40],0x0
  3fbb36:	75 07                	jne    3fbb3f <_init-0x54c1>
  3fbb38:	b8 ff ff ff ff       	mov    eax,0xffffffff
  3fbb3d:	eb 23                	jmp    3fbb62 <_init-0x549e>
  3fbb3f:	48 8b 45 98          	mov    rax,QWORD PTR [rbp-0x68]
  3fbb43:	48 8b 50 50          	mov    rdx,QWORD PTR [rax+0x50]
  3fbb47:	48 8b 45 b8          	mov    rax,QWORD PTR [rbp-0x48]
  3fbb4b:	48 01 d0             	add    rax,rdx
  3fbb4e:	48 89 45 a0          	mov    QWORD PTR [rbp-0x60],rax
  3fbb52:	48 8b 45 a0          	mov    rax,QWORD PTR [rbp-0x60]
  3fbb56:	48 8b 55 90          	mov    rdx,QWORD PTR [rbp-0x70]
  3fbb5a:	48 89 10             	mov    QWORD PTR [rax],rdx
  3fbb5d:	b8 00 00 00 00       	mov    eax,0x0
  3fbb62:	c9                   	leave  
  3fbb63:	c3                   	ret    
  3fbb64:	f3 0f 1e fa          	endbr64 
  3fbb68:	55                   	push   rbp
  3fbb69:	48 89 e5             	mov    rbp,rsp
  3fbb6c:	48 81 ec 00 10 00 00 	sub    rsp,0x1000
  3fbb73:	48 83 0c 24 00       	or     QWORD PTR [rsp],0x0
  3fbb78:	48 81 ec d0 00 00 00 	sub    rsp,0xd0
  3fbb7f:	48 89 bd 38 ef ff ff 	mov    QWORD PTR [rbp-0x10c8],rdi
  3fbb86:	c7 45 f4 00 00 00 00 	mov    DWORD PTR [rbp-0xc],0x0
  3fbb8d:	48 8b 85 38 ef ff ff 	mov    rax,QWORD PTR [rbp-0x10c8]
  3fbb94:	ba 00 00 00 00       	mov    edx,0x0
  3fbb99:	be 00 00 00 00       	mov    esi,0x0
  3fbb9e:	48 89 c7             	mov    rdi,rax
  3fbba1:	e8 04 05 00 00       	call   3fc0aa <_init-0x4f56>
  3fbba6:	89 45 f0             	mov    DWORD PTR [rbp-0x10],eax
  3fbba9:	83 7d f0 00          	cmp    DWORD PTR [rbp-0x10],0x0
  3fbbad:	79 0a                	jns    3fbbb9 <_init-0x5447>
  3fbbaf:	b8 ff ff ff ff       	mov    eax,0xffffffff
  3fbbb4:	e9 27 01 00 00       	jmp    3fbce0 <_init-0x5320>
  3fbbb9:	8b 45 f0             	mov    eax,DWORD PTR [rbp-0x10]
  3fbbbc:	48 98                	cdqe   
  3fbbbe:	48 8d 8d 40 ef ff ff 	lea    rcx,[rbp-0x10c0]
  3fbbc5:	ba 00 10 00 00       	mov    edx,0x1000
  3fbbca:	48 89 ce             	mov    rsi,rcx
  3fbbcd:	48 89 c7             	mov    rdi,rax
  3fbbd0:	e8 29 05 00 00       	call   3fc0fe <_init-0x4f02>
  3fbbd5:	85 c0                	test   eax,eax
  3fbbd7:	79 0a                	jns    3fbbe3 <_init-0x541d>
  3fbbd9:	b8 ff ff ff ff       	mov    eax,0xffffffff
  3fbbde:	e9 fd 00 00 00       	jmp    3fbce0 <_init-0x5320>
  3fbbe3:	8b 45 f0             	mov    eax,DWORD PTR [rbp-0x10]
  3fbbe6:	89 c7                	mov    edi,eax
  3fbbe8:	e8 f3 04 00 00       	call   3fc0e0 <_init-0x4f20>
  3fbbed:	48 8d 85 40 ef ff ff 	lea    rax,[rbp-0x10c0]
  3fbbf4:	48 89 45 e8          	mov    QWORD PTR [rbp-0x18],rax
  3fbbf8:	48 8b 45 e8          	mov    rax,QWORD PTR [rbp-0x18]
  3fbbfc:	48 8b 40 20          	mov    rax,QWORD PTR [rax+0x20]
  3fbc00:	48 8d 95 40 ef ff ff 	lea    rdx,[rbp-0x10c0]
  3fbc07:	48 01 d0             	add    rax,rdx
  3fbc0a:	48 89 45 e0          	mov    QWORD PTR [rbp-0x20],rax
  3fbc0e:	48 8d 85 40 ef ff ff 	lea    rax,[rbp-0x10c0]
  3fbc15:	ba 04 00 00 00       	mov    edx,0x4
  3fbc1a:	48 89 c6             	mov    rsi,rax
  3fbc1d:	48 8d 3d 50 12 00 00 	lea    rdi,[rip+0x1250]        # 3fce74 <_init-0x418c>
  3fbc24:	e8 a9 10 00 00       	call   3fccd2 <_init-0x432e>
  3fbc29:	85 c0                	test   eax,eax
  3fbc2b:	74 0a                	je     3fbc37 <_init-0x53c9>
  3fbc2d:	b8 ff ff ff ff       	mov    eax,0xffffffff
  3fbc32:	e9 a9 00 00 00       	jmp    3fbce0 <_init-0x5320>
  3fbc37:	48 8b 45 e8          	mov    rax,QWORD PTR [rbp-0x18]
  3fbc3b:	48 83 c0 09          	add    rax,0x9
  3fbc3f:	8b 00                	mov    eax,DWORD PTR [rax]
  3fbc41:	89 45 dc             	mov    DWORD PTR [rbp-0x24],eax
  3fbc44:	81 7d dc 25 5d 01 00 	cmp    DWORD PTR [rbp-0x24],0x15d25
  3fbc4b:	75 0a                	jne    3fbc57 <_init-0x53a9>
  3fbc4d:	b8 ff ff ff ff       	mov    eax,0xffffffff
  3fbc52:	e9 89 00 00 00       	jmp    3fbce0 <_init-0x5320>
  3fbc57:	48 8b 45 e8          	mov    rax,QWORD PTR [rbp-0x18]
  3fbc5b:	0f b7 40 10          	movzx  eax,WORD PTR [rax+0x10]
  3fbc5f:	66 83 f8 02          	cmp    ax,0x2
  3fbc63:	74 07                	je     3fbc6c <_init-0x5394>
  3fbc65:	b8 ff ff ff ff       	mov    eax,0xffffffff
  3fbc6a:	eb 74                	jmp    3fbce0 <_init-0x5320>
  3fbc6c:	48 8b 45 e8          	mov    rax,QWORD PTR [rbp-0x18]
  3fbc70:	0f b7 40 12          	movzx  eax,WORD PTR [rax+0x12]
  3fbc74:	66 83 f8 3e          	cmp    ax,0x3e
  3fbc78:	74 07                	je     3fbc81 <_init-0x537f>
  3fbc7a:	b8 ff ff ff ff       	mov    eax,0xffffffff
  3fbc7f:	eb 5f                	jmp    3fbce0 <_init-0x5320>
  3fbc81:	c7 45 fc 00 00 00 00 	mov    DWORD PTR [rbp-0x4],0x0
  3fbc88:	c7 45 f8 00 00 00 00 	mov    DWORD PTR [rbp-0x8],0x0
  3fbc8f:	eb 2d                	jmp    3fbcbe <_init-0x5342>
  3fbc91:	8b 45 f8             	mov    eax,DWORD PTR [rbp-0x8]
  3fbc94:	48 63 d0             	movsxd rdx,eax
  3fbc97:	48 89 d0             	mov    rax,rdx
  3fbc9a:	48 c1 e0 03          	shl    rax,0x3
  3fbc9e:	48 29 d0             	sub    rax,rdx
  3fbca1:	48 c1 e0 03          	shl    rax,0x3
  3fbca5:	48 89 c2             	mov    rdx,rax
  3fbca8:	48 8b 45 e0          	mov    rax,QWORD PTR [rbp-0x20]
  3fbcac:	48 01 d0             	add    rax,rdx
  3fbcaf:	8b 00                	mov    eax,DWORD PTR [rax]
  3fbcb1:	83 f8 02             	cmp    eax,0x2
  3fbcb4:	75 04                	jne    3fbcba <_init-0x5346>
  3fbcb6:	83 45 fc 01          	add    DWORD PTR [rbp-0x4],0x1
  3fbcba:	83 45 f8 01          	add    DWORD PTR [rbp-0x8],0x1
  3fbcbe:	48 8b 45 e8          	mov    rax,QWORD PTR [rbp-0x18]
  3fbcc2:	0f b7 40 38          	movzx  eax,WORD PTR [rax+0x38]
  3fbcc6:	0f b7 c0             	movzx  eax,ax
  3fbcc9:	39 45 f8             	cmp    DWORD PTR [rbp-0x8],eax
  3fbccc:	7c c3                	jl     3fbc91 <_init-0x536f>
  3fbcce:	83 7d fc 00          	cmp    DWORD PTR [rbp-0x4],0x0
  3fbcd2:	75 07                	jne    3fbcdb <_init-0x5325>
  3fbcd4:	b8 ff ff ff ff       	mov    eax,0xffffffff
  3fbcd9:	eb 05                	jmp    3fbce0 <_init-0x5320>
  3fbcdb:	b8 00 00 00 00       	mov    eax,0x0
  3fbce0:	c9                   	leave  
  3fbce1:	c3                   	ret    
  3fbce2:	f3 0f 1e fa          	endbr64 
  3fbce6:	55                   	push   rbp
  3fbce7:	48 89 e5             	mov    rbp,rsp
  3fbcea:	4c 8d 9c 24 00 80 ff 	lea    r11,[rsp-0x8000]
  3fbcf1:	ff 
  3fbcf2:	48 81 ec 00 10 00 00 	sub    rsp,0x1000
  3fbcf9:	48 83 0c 24 00       	or     QWORD PTR [rsp],0x0
  3fbcfe:	4c 39 dc             	cmp    rsp,r11
  3fbd01:	75 ef                	jne    3fbcf2 <_init-0x530e>
  3fbd03:	48 81 ec 60 03 00 00 	sub    rsp,0x360
  3fbd0a:	48 89 bd a8 7c ff ff 	mov    QWORD PTR [rbp-0x8358],rdi
  3fbd11:	48 c7 45 90 00 00 00 	mov    QWORD PTR [rbp-0x70],0x0
  3fbd18:	00 
  3fbd19:	48 c7 45 e8 00 00 00 	mov    QWORD PTR [rbp-0x18],0x0
  3fbd20:	00 
  3fbd21:	c7 45 f8 04 00 00 00 	mov    DWORD PTR [rbp-0x8],0x4
  3fbd28:	c7 45 f4 00 00 00 00 	mov    DWORD PTR [rbp-0xc],0x0
  3fbd2f:	48 8d 05 43 11 00 00 	lea    rax,[rip+0x1143]        # 3fce79 <_init-0x4187>
  3fbd36:	48 89 85 e0 7c ff ff 	mov    QWORD PTR [rbp-0x8320],rax
  3fbd3d:	48 8d 05 3b 11 00 00 	lea    rax,[rip+0x113b]        # 3fce7f <_init-0x4181>
  3fbd44:	48 89 85 e8 7c ff ff 	mov    QWORD PTR [rbp-0x8318],rax
  3fbd4b:	48 8d 05 37 11 00 00 	lea    rax,[rip+0x1137]        # 3fce89 <_init-0x4177>
  3fbd52:	48 89 85 f0 7c ff ff 	mov    QWORD PTR [rbp-0x8310],rax
  3fbd59:	48 8d 05 2e 11 00 00 	lea    rax,[rip+0x112e]        # 3fce8e <_init-0x4172>
  3fbd60:	48 89 85 f8 7c ff ff 	mov    QWORD PTR [rbp-0x8308],rax
  3fbd67:	66 c7 85 de 7c ff ff 	mov    WORD PTR [rbp-0x8322],0x2e
  3fbd6e:	2e 00 
  3fbd70:	b8 00 00 00 00       	mov    eax,0x0
  3fbd75:	e8 f3 02 00 00       	call   3fc06d <_init-0x4f93>
  3fbd7a:	85 c0                	test   eax,eax
  3fbd7c:	74 09                	je     3fbd87 <_init-0x5279>
  3fbd7e:	48 8d 85 de 7c ff ff 	lea    rax,[rbp-0x8322]
  3fbd85:	eb 0f                	jmp    3fbd96 <_init-0x526a>
  3fbd87:	48 8d 85 e0 7c ff ff 	lea    rax,[rbp-0x8320]
  3fbd8e:	48 89 c7             	mov    rdi,rax
  3fbd91:	e8 6a e5 ff ff       	call   3fa300 <_init-0x6d00>
  3fbd96:	48 89 45 e8          	mov    QWORD PTR [rbp-0x18],rax
  3fbd9a:	48 8b 45 e8          	mov    rax,QWORD PTR [rbp-0x18]
  3fbd9e:	48 8d 35 f2 10 00 00 	lea    rsi,[rip+0x10f2]        # 3fce97 <_init-0x4169>
  3fbda5:	48 89 c7             	mov    rdi,rax
  3fbda8:	e8 c5 0e 00 00       	call   3fcc72 <_init-0x438e>
  3fbdad:	85 c0                	test   eax,eax
  3fbdaf:	75 07                	jne    3fbdb8 <_init-0x5248>
  3fbdb1:	c7 45 f8 01 00 00 00 	mov    DWORD PTR [rbp-0x8],0x1
  3fbdb8:	48 8b 45 e8          	mov    rax,QWORD PTR [rbp-0x18]
  3fbdbc:	ba 00 00 00 00       	mov    edx,0x0
  3fbdc1:	be 00 00 01 00       	mov    esi,0x10000
  3fbdc6:	48 89 c7             	mov    rdi,rax
  3fbdc9:	e8 dc 02 00 00       	call   3fc0aa <_init-0x4f56>
  3fbdce:	89 45 e4             	mov    DWORD PTR [rbp-0x1c],eax
  3fbdd1:	83 7d e4 00          	cmp    DWORD PTR [rbp-0x1c],0x0
  3fbdd5:	0f 88 8c 02 00 00    	js     3fc067 <_init-0x4f99>
  3fbddb:	48 8d 85 00 7e ff ff 	lea    rax,[rbp-0x8200]
  3fbde2:	48 89 c7             	mov    rdi,rax
  3fbde5:	e8 92 f0 ff ff       	call   3fae7c <_init-0x6184>
  3fbdea:	8b 45 e4             	mov    eax,DWORD PTR [rbp-0x1c]
  3fbded:	48 8d 8d 90 7f ff ff 	lea    rcx,[rbp-0x8070]
  3fbdf4:	ba 00 80 00 00       	mov    edx,0x8000
  3fbdf9:	48 89 ce             	mov    rsi,rcx
  3fbdfc:	89 c7                	mov    edi,eax
  3fbdfe:	e8 8c 05 00 00       	call   3fc38f <_init-0x4c71>
  3fbe03:	89 45 e0             	mov    DWORD PTR [rbp-0x20],eax
  3fbe06:	83 7d e0 00          	cmp    DWORD PTR [rbp-0x20],0x0
  3fbe0a:	0f 88 5a 02 00 00    	js     3fc06a <_init-0x4f96>
  3fbe10:	83 7d e0 00          	cmp    DWORD PTR [rbp-0x20],0x0
  3fbe14:	0f 84 f5 01 00 00    	je     3fc00f <_init-0x4ff1>
  3fbe1a:	c7 45 dc 00 00 00 00 	mov    DWORD PTR [rbp-0x24],0x0
  3fbe21:	c7 45 fc 00 00 00 00 	mov    DWORD PTR [rbp-0x4],0x0
  3fbe28:	e9 d1 01 00 00       	jmp    3fbffe <_init-0x5002>
  3fbe2d:	8b 45 fc             	mov    eax,DWORD PTR [rbp-0x4]
  3fbe30:	48 98                	cdqe   
  3fbe32:	48 8d 95 90 7f ff ff 	lea    rdx,[rbp-0x8070]
  3fbe39:	48 01 d0             	add    rax,rdx
  3fbe3c:	48 89 45 d0          	mov    QWORD PTR [rbp-0x30],rax
  3fbe40:	48 8b 45 d0          	mov    rax,QWORD PTR [rbp-0x30]
  3fbe44:	0f b7 40 10          	movzx  eax,WORD PTR [rax+0x10]
  3fbe48:	0f b7 c0             	movzx  eax,ax
  3fbe4b:	83 e8 01             	sub    eax,0x1
  3fbe4e:	01 45 fc             	add    DWORD PTR [rbp-0x4],eax
  3fbe51:	48 8b 45 d0          	mov    rax,QWORD PTR [rbp-0x30]
  3fbe55:	48 83 c0 13          	add    rax,0x13
  3fbe59:	48 8d 35 39 10 00 00 	lea    rsi,[rip+0x1039]        # 3fce99 <_init-0x4167>
  3fbe60:	48 89 c7             	mov    rdi,rax
  3fbe63:	e8 0a 0e 00 00       	call   3fcc72 <_init-0x438e>
  3fbe68:	85 c0                	test   eax,eax
  3fbe6a:	0f 84 80 01 00 00    	je     3fbff0 <_init-0x5010>
  3fbe70:	48 8b 45 d0          	mov    rax,QWORD PTR [rbp-0x30]
  3fbe74:	0f b6 40 13          	movzx  eax,BYTE PTR [rax+0x13]
  3fbe78:	3c 2e                	cmp    al,0x2e
  3fbe7a:	0f 84 73 01 00 00    	je     3fbff3 <_init-0x500d>
  3fbe80:	48 8b 45 d0          	mov    rax,QWORD PTR [rbp-0x30]
  3fbe84:	48 8d 48 13          	lea    rcx,[rax+0x13]
  3fbe88:	48 8d 55 90          	lea    rdx,[rbp-0x70]
  3fbe8c:	48 8b 45 e8          	mov    rax,QWORD PTR [rbp-0x18]
  3fbe90:	48 89 c6             	mov    rsi,rax
  3fbe93:	48 89 cf             	mov    rdi,rcx
  3fbe96:	e8 b5 e4 ff ff       	call   3fa350 <_init-0x6cb0>
  3fbe9b:	48 89 45 c8          	mov    QWORD PTR [rbp-0x38],rax
  3fbe9f:	48 8b 45 c8          	mov    rax,QWORD PTR [rbp-0x38]
  3fbea3:	48 89 c7             	mov    rdi,rax
  3fbea6:	e8 b9 fc ff ff       	call   3fbb64 <_init-0x549c>
  3fbeab:	85 c0                	test   eax,eax
  3fbead:	0f 88 43 01 00 00    	js     3fbff6 <_init-0x500a>
  3fbeb3:	83 7d f4 00          	cmp    DWORD PTR [rbp-0xc],0x0
  3fbeb7:	74 43                	je     3fbefc <_init-0x5104>
  3fbeb9:	c7 45 9c 0a 00 00 00 	mov    DWORD PTR [rbp-0x64],0xa
  3fbec0:	48 8d 85 b0 7c ff ff 	lea    rax,[rbp-0x8350]
  3fbec7:	be 00 00 00 00       	mov    esi,0x0
  3fbecc:	48 89 c7             	mov    rdi,rax
  3fbecf:	e8 ef 04 00 00       	call   3fc3c3 <_init-0x4c3d>
  3fbed4:	48 8d 85 b0 7c ff ff 	lea    rax,[rbp-0x8350]
  3fbedb:	48 83 c0 08          	add    rax,0x8
  3fbedf:	48 89 c7             	mov    rdi,rax
  3fbee2:	e8 d5 e3 ff ff       	call   3fa2bc <_init-0x6d44>
  3fbee7:	99                   	cdq    
  3fbee8:	f7 7d 9c             	idiv   DWORD PTR [rbp-0x64]
  3fbeeb:	89 d0                	mov    eax,edx
  3fbeed:	89 45 c4             	mov    DWORD PTR [rbp-0x3c],eax
  3fbef0:	83 7d c4 07          	cmp    DWORD PTR [rbp-0x3c],0x7
  3fbef4:	0f 85 ff 00 00 00    	jne    3fbff9 <_init-0x5007>
  3fbefa:	eb 01                	jmp    3fbefd <_init-0x5103>
  3fbefc:	90                   	nop
  3fbefd:	48 8d 95 00 7d ff ff 	lea    rdx,[rbp-0x8300]
  3fbf04:	48 8b 45 c8          	mov    rax,QWORD PTR [rbp-0x38]
  3fbf08:	48 89 d6             	mov    rsi,rdx
  3fbf0b:	48 89 c7             	mov    rdi,rax
  3fbf0e:	e8 8a f0 ff ff       	call   3faf9d <_init-0x6063>
  3fbf13:	48 8d 95 00 7d ff ff 	lea    rdx,[rbp-0x8300]
  3fbf1a:	48 8d 85 00 7e ff ff 	lea    rax,[rbp-0x8200]
  3fbf21:	48 89 d6             	mov    rsi,rdx
  3fbf24:	48 89 c7             	mov    rdi,rax
  3fbf27:	e8 d6 e7 ff ff       	call   3fa702 <_init-0x68fe>
  3fbf2c:	48 89 45 b8          	mov    QWORD PTR [rbp-0x48],rax
  3fbf30:	48 8d 85 00 7d ff ff 	lea    rax,[rbp-0x8300]
  3fbf37:	48 89 c7             	mov    rdi,rax
  3fbf3a:	e8 1f f0 ff ff       	call   3faf5e <_init-0x60a2>
  3fbf3f:	48 8d 85 00 7d ff ff 	lea    rax,[rbp-0x8300]
  3fbf46:	48 89 c6             	mov    rsi,rax
  3fbf49:	48 8d 3d a4 0e 00 00 	lea    rdi,[rip+0xea4]        # 3fcdf4 <_init-0x420c>
  3fbf50:	e8 5f f4 ff ff       	call   3fb3b4 <_init-0x5c4c>
  3fbf55:	e8 d1 0d 00 00       	call   3fcd2b <_init-0x42d5>
  3fbf5a:	48 c7 c2 94 2e 40 00 	mov    rdx,0x402e94
  3fbf61:	48 89 d1             	mov    rcx,rdx
  3fbf64:	48 c7 c2 9c 01 40 00 	mov    rdx,0x40019c
  3fbf6b:	48 29 d1             	sub    rcx,rdx
  3fbf6e:	48 89 ca             	mov    rdx,rcx
  3fbf71:	48 29 d0             	sub    rax,rdx
  3fbf74:	48 89 45 b0          	mov    QWORD PTR [rbp-0x50],rax
  3fbf78:	e8 ae 0d 00 00       	call   3fcd2b <_init-0x42d5>
  3fbf7d:	48 c7 c2 94 2e 40 00 	mov    rdx,0x402e94
  3fbf84:	48 89 d1             	mov    rcx,rdx
  3fbf87:	48 c7 c2 e1 01 40 00 	mov    rdx,0x4001e1
  3fbf8e:	48 29 d1             	sub    rcx,rdx
  3fbf91:	48 89 ca             	mov    rdx,rcx
  3fbf94:	48 29 d0             	sub    rax,rdx
  3fbf97:	48 89 45 a8          	mov    QWORD PTR [rbp-0x58],rax
  3fbf9b:	48 8b 45 a8          	mov    rax,QWORD PTR [rbp-0x58]
  3fbf9f:	48 2b 45 b0          	sub    rax,QWORD PTR [rbp-0x50]
  3fbfa3:	48 89 45 a0          	mov    QWORD PTR [rbp-0x60],rax
  3fbfa7:	48 8b 55 b8          	mov    rdx,QWORD PTR [rbp-0x48]
  3fbfab:	48 8b 45 a0          	mov    rax,QWORD PTR [rbp-0x60]
  3fbfaf:	48 01 d0             	add    rax,rdx
  3fbfb2:	48 8d 50 40          	lea    rdx,[rax+0x40]
  3fbfb6:	48 8d 85 00 7d ff ff 	lea    rax,[rbp-0x8300]
  3fbfbd:	48 89 d6             	mov    rsi,rdx
  3fbfc0:	48 89 c7             	mov    rdi,rax
  3fbfc3:	e8 03 f8 ff ff       	call   3fb7cb <_init-0x5835>
  3fbfc8:	48 8d 85 00 7d ff ff 	lea    rax,[rbp-0x8300]
  3fbfcf:	48 89 c7             	mov    rdi,rax
  3fbfd2:	e8 87 ef ff ff       	call   3faf5e <_init-0x60a2>
  3fbfd7:	48 8b 45 c8          	mov    rax,QWORD PTR [rbp-0x38]
  3fbfdb:	48 89 c6             	mov    rsi,rax
  3fbfde:	48 8d 3d 0f 0e 00 00 	lea    rdi,[rip+0xe0f]        # 3fcdf4 <_init-0x420c>
  3fbfe5:	e8 d4 01 00 00       	call   3fc1be <_init-0x4e42>
  3fbfea:	83 45 f4 01          	add    DWORD PTR [rbp-0xc],0x1
  3fbfee:	eb 0a                	jmp    3fbffa <_init-0x5006>
  3fbff0:	90                   	nop
  3fbff1:	eb 07                	jmp    3fbffa <_init-0x5006>
  3fbff3:	90                   	nop
  3fbff4:	eb 04                	jmp    3fbffa <_init-0x5006>
  3fbff6:	90                   	nop
  3fbff7:	eb 01                	jmp    3fbffa <_init-0x5006>
  3fbff9:	90                   	nop
  3fbffa:	83 45 fc 01          	add    DWORD PTR [rbp-0x4],0x1
  3fbffe:	8b 45 fc             	mov    eax,DWORD PTR [rbp-0x4]
  3fc001:	3b 45 e0             	cmp    eax,DWORD PTR [rbp-0x20]
  3fc004:	0f 8c 23 fe ff ff    	jl     3fbe2d <_init-0x51d3>
  3fc00a:	e9 db fd ff ff       	jmp    3fbdea <_init-0x5216>
  3fc00f:	90                   	nop
  3fc010:	83 6d f8 01          	sub    DWORD PTR [rbp-0x8],0x1
  3fc014:	83 7d f8 00          	cmp    DWORD PTR [rbp-0x8],0x0
  3fc018:	7e 0f                	jle    3fc029 <_init-0x4fd7>
  3fc01a:	8b 45 e4             	mov    eax,DWORD PTR [rbp-0x1c]
  3fc01d:	89 c7                	mov    edi,eax
  3fc01f:	e8 bc 00 00 00       	call   3fc0e0 <_init-0x4f20>
  3fc024:	e9 47 fd ff ff       	jmp    3fbd70 <_init-0x5290>
  3fc029:	c7 45 98 32 00 00 00 	mov    DWORD PTR [rbp-0x68],0x32
  3fc030:	48 8d 85 c0 7c ff ff 	lea    rax,[rbp-0x8340]
  3fc037:	be 00 00 00 00       	mov    esi,0x0
  3fc03c:	48 89 c7             	mov    rdi,rax
  3fc03f:	e8 7f 03 00 00       	call   3fc3c3 <_init-0x4c3d>
  3fc044:	48 8d 85 c0 7c ff ff 	lea    rax,[rbp-0x8340]
  3fc04b:	48 83 c0 08          	add    rax,0x8
  3fc04f:	48 89 c7             	mov    rdi,rax
  3fc052:	e8 65 e2 ff ff       	call   3fa2bc <_init-0x6d44>
  3fc057:	99                   	cdq    
  3fc058:	f7 7d 98             	idiv   DWORD PTR [rbp-0x68]
  3fc05b:	89 d0                	mov    eax,edx
  3fc05d:	89 45 c4             	mov    DWORD PTR [rbp-0x3c],eax
  3fc060:	e8 02 0d 00 00       	call   3fcd67 <_init-0x4299>
  3fc065:	eb 04                	jmp    3fc06b <_init-0x4f95>
  3fc067:	90                   	nop
  3fc068:	eb 01                	jmp    3fc06b <_init-0x4f95>
  3fc06a:	90                   	nop
  3fc06b:	c9                   	leave  
  3fc06c:	c3                   	ret    
  3fc06d:	f3 0f 1e fa          	endbr64 
  3fc071:	55                   	push   rbp
  3fc072:	48 89 e5             	mov    rbp,rsp
  3fc075:	48 c7 c0 66 00 00 00 	mov    rax,0x66
  3fc07c:	0f 05                	syscall 
  3fc07e:	48 89 c0             	mov    rax,rax
  3fc081:	48 89 45 f8          	mov    QWORD PTR [rbp-0x8],rax
  3fc085:	48 8b 45 f8          	mov    rax,QWORD PTR [rbp-0x8]
  3fc089:	5d                   	pop    rbp
  3fc08a:	c3                   	ret    
  3fc08b:	f3 0f 1e fa          	endbr64 
  3fc08f:	55                   	push   rbp
  3fc090:	48 89 e5             	mov    rbp,rsp
  3fc093:	48 89 7d f8          	mov    QWORD PTR [rbp-0x8],rdi
  3fc097:	48 8b 45 f8          	mov    rax,QWORD PTR [rbp-0x8]
  3fc09b:	48 89 c7             	mov    rdi,rax
  3fc09e:	48 c7 c0 3c 00 00 00 	mov    rax,0x3c
  3fc0a5:	0f 05                	syscall 
  3fc0a7:	90                   	nop
  3fc0a8:	5d                   	pop    rbp
  3fc0a9:	c3                   	ret    
  3fc0aa:	f3 0f 1e fa          	endbr64 
  3fc0ae:	55                   	push   rbp
  3fc0af:	48 89 e5             	mov    rbp,rsp
  3fc0b2:	48 89 7d e8          	mov    QWORD PTR [rbp-0x18],rdi
  3fc0b6:	48 89 75 e0          	mov    QWORD PTR [rbp-0x20],rsi
  3fc0ba:	48 89 55 d8          	mov    QWORD PTR [rbp-0x28],rdx
  3fc0be:	48 8b 7d e8          	mov    rdi,QWORD PTR [rbp-0x18]
  3fc0c2:	48 8b 75 e0          	mov    rsi,QWORD PTR [rbp-0x20]
  3fc0c6:	48 8b 55 d8          	mov    rdx,QWORD PTR [rbp-0x28]
  3fc0ca:	48 c7 c0 02 00 00 00 	mov    rax,0x2
  3fc0d1:	0f 05                	syscall 
  3fc0d3:	48 89 c0             	mov    rax,rax
  3fc0d6:	48 89 45 f8          	mov    QWORD PTR [rbp-0x8],rax
  3fc0da:	48 8b 45 f8          	mov    rax,QWORD PTR [rbp-0x8]
  3fc0de:	5d                   	pop    rbp
  3fc0df:	c3                   	ret    
  3fc0e0:	f3 0f 1e fa          	endbr64 
  3fc0e4:	55                   	push   rbp
  3fc0e5:	48 89 e5             	mov    rbp,rsp
  3fc0e8:	89 7d ec             	mov    DWORD PTR [rbp-0x14],edi
  3fc0eb:	48 8b 7d ec          	mov    rdi,QWORD PTR [rbp-0x14]
  3fc0ef:	48 c7 c0 03 00 00 00 	mov    rax,0x3
  3fc0f6:	0f 05                	syscall 
  3fc0f8:	48 8b 45 f8          	mov    rax,QWORD PTR [rbp-0x8]
  3fc0fc:	5d                   	pop    rbp
  3fc0fd:	c3                   	ret    
  3fc0fe:	f3 0f 1e fa          	endbr64 
  3fc102:	55                   	push   rbp
  3fc103:	48 89 e5             	mov    rbp,rsp
  3fc106:	48 89 7d e8          	mov    QWORD PTR [rbp-0x18],rdi
  3fc10a:	48 89 75 e0          	mov    QWORD PTR [rbp-0x20],rsi
  3fc10e:	48 89 55 d8          	mov    QWORD PTR [rbp-0x28],rdx
  3fc112:	48 8b 7d e8          	mov    rdi,QWORD PTR [rbp-0x18]
  3fc116:	48 8b 75 e0          	mov    rsi,QWORD PTR [rbp-0x20]
  3fc11a:	48 8b 55 d8          	mov    rdx,QWORD PTR [rbp-0x28]
  3fc11e:	48 c7 c0 00 00 00 00 	mov    rax,0x0
  3fc125:	0f 05                	syscall 
  3fc127:	48 89 c0             	mov    rax,rax
  3fc12a:	48 89 45 f8          	mov    QWORD PTR [rbp-0x8],rax
  3fc12e:	48 8b 45 f8          	mov    rax,QWORD PTR [rbp-0x8]
  3fc132:	5d                   	pop    rbp
  3fc133:	c3                   	ret    
  3fc134:	f3 0f 1e fa          	endbr64 
  3fc138:	55                   	push   rbp
  3fc139:	48 89 e5             	mov    rbp,rsp
  3fc13c:	48 89 7d e8          	mov    QWORD PTR [rbp-0x18],rdi
  3fc140:	48 89 75 e0          	mov    QWORD PTR [rbp-0x20],rsi
  3fc144:	48 89 55 d8          	mov    QWORD PTR [rbp-0x28],rdx
  3fc148:	48 8b 7d e8          	mov    rdi,QWORD PTR [rbp-0x18]
  3fc14c:	48 8b 75 e0          	mov    rsi,QWORD PTR [rbp-0x20]
  3fc150:	48 8b 55 d8          	mov    rdx,QWORD PTR [rbp-0x28]
  3fc154:	48 c7 c0 01 00 00 00 	mov    rax,0x1
  3fc15b:	0f 05                	syscall 
  3fc15d:	48 89 c0             	mov    rax,rax
  3fc160:	48 89 45 f8          	mov    QWORD PTR [rbp-0x8],rax
  3fc164:	48 8b 45 f8          	mov    rax,QWORD PTR [rbp-0x8]
  3fc168:	5d                   	pop    rbp
  3fc169:	c3                   	ret    
  3fc16a:	f3 0f 1e fa          	endbr64 
  3fc16e:	55                   	push   rbp
  3fc16f:	48 89 e5             	mov    rbp,rsp
  3fc172:	48 89 7d e8          	mov    QWORD PTR [rbp-0x18],rdi
  3fc176:	48 89 75 e0          	mov    QWORD PTR [rbp-0x20],rsi
  3fc17a:	48 8b 7d e8          	mov    rdi,QWORD PTR [rbp-0x18]
  3fc17e:	48 8b 75 e0          	mov    rsi,QWORD PTR [rbp-0x20]
  3fc182:	48 c7 c0 05 00 00 00 	mov    rax,0x5
  3fc189:	0f 05                	syscall 
  3fc18b:	48 89 c0             	mov    rax,rax
  3fc18e:	48 89 45 f8          	mov    QWORD PTR [rbp-0x8],rax
  3fc192:	48 8b 45 f8          	mov    rax,QWORD PTR [rbp-0x8]
  3fc196:	5d                   	pop    rbp
  3fc197:	c3                   	ret    
  3fc198:	f3 0f 1e fa          	endbr64 
  3fc19c:	55                   	push   rbp
  3fc19d:	48 89 e5             	mov    rbp,rsp
  3fc1a0:	48 89 7d e8          	mov    QWORD PTR [rbp-0x18],rdi
  3fc1a4:	48 8b 7d e8          	mov    rdi,QWORD PTR [rbp-0x18]
  3fc1a8:	48 c7 c0 57 00 00 00 	mov    rax,0x57
  3fc1af:	0f 05                	syscall 
  3fc1b1:	48 89 c0             	mov    rax,rax
  3fc1b4:	48 89 45 f8          	mov    QWORD PTR [rbp-0x8],rax
  3fc1b8:	48 8b 45 f8          	mov    rax,QWORD PTR [rbp-0x8]
  3fc1bc:	5d                   	pop    rbp
  3fc1bd:	c3                   	ret    
  3fc1be:	f3 0f 1e fa          	endbr64 
  3fc1c2:	55                   	push   rbp
  3fc1c3:	48 89 e5             	mov    rbp,rsp
  3fc1c6:	48 89 7d e8          	mov    QWORD PTR [rbp-0x18],rdi
  3fc1ca:	48 89 75 e0          	mov    QWORD PTR [rbp-0x20],rsi
  3fc1ce:	48 8b 7d e8          	mov    rdi,QWORD PTR [rbp-0x18]
  3fc1d2:	48 8b 75 e0          	mov    rsi,QWORD PTR [rbp-0x20]
  3fc1d6:	48 c7 c0 52 00 00 00 	mov    rax,0x52
  3fc1dd:	0f 05                	syscall 
  3fc1df:	48 89 c0             	mov    rax,rax
  3fc1e2:	48 89 45 f8          	mov    QWORD PTR [rbp-0x8],rax
  3fc1e6:	48 8b 45 f8          	mov    rax,QWORD PTR [rbp-0x8]
  3fc1ea:	5d                   	pop    rbp
  3fc1eb:	c3                   	ret    
  3fc1ec:	f3 0f 1e fa          	endbr64 
  3fc1f0:	55                   	push   rbp
  3fc1f1:	48 89 e5             	mov    rbp,rsp
  3fc1f4:	48 89 7d e8          	mov    QWORD PTR [rbp-0x18],rdi
  3fc1f8:	48 89 75 e0          	mov    QWORD PTR [rbp-0x20],rsi
  3fc1fc:	89 55 dc             	mov    DWORD PTR [rbp-0x24],edx
  3fc1ff:	48 8b 7d e8          	mov    rdi,QWORD PTR [rbp-0x18]
  3fc203:	48 8b 75 e0          	mov    rsi,QWORD PTR [rbp-0x20]
  3fc207:	48 8b 55 dc          	mov    rdx,QWORD PTR [rbp-0x24]
  3fc20b:	48 c7 c0 08 00 00 00 	mov    rax,0x8
  3fc212:	0f 05                	syscall 
  3fc214:	48 89 c0             	mov    rax,rax
  3fc217:	48 89 45 f8          	mov    QWORD PTR [rbp-0x8],rax
  3fc21b:	48 8b 45 f8          	mov    rax,QWORD PTR [rbp-0x8]
  3fc21f:	5d                   	pop    rbp
  3fc220:	c3                   	ret    
  3fc221:	f3 0f 1e fa          	endbr64 
  3fc225:	55                   	push   rbp
  3fc226:	48 89 e5             	mov    rbp,rsp
  3fc229:	89 7d ec             	mov    DWORD PTR [rbp-0x14],edi
  3fc22c:	48 8b 7d ec          	mov    rdi,QWORD PTR [rbp-0x14]
  3fc230:	48 c7 c0 4a 00 00 00 	mov    rax,0x4a
  3fc237:	0f 05                	syscall 
  3fc239:	48 89 c0             	mov    rax,rax
  3fc23c:	48 89 45 f8          	mov    QWORD PTR [rbp-0x8],rax
  3fc240:	48 8b 45 f8          	mov    rax,QWORD PTR [rbp-0x8]
  3fc244:	5d                   	pop    rbp
  3fc245:	c3                   	ret    
  3fc246:	f3 0f 1e fa          	endbr64 
  3fc24a:	55                   	push   rbp
  3fc24b:	48 89 e5             	mov    rbp,rsp
  3fc24e:	48 89 7d d8          	mov    QWORD PTR [rbp-0x28],rdi
  3fc252:	48 89 75 d0          	mov    QWORD PTR [rbp-0x30],rsi
  3fc256:	48 89 55 c8          	mov    QWORD PTR [rbp-0x38],rdx
  3fc25a:	48 89 4d c0          	mov    QWORD PTR [rbp-0x40],rcx
  3fc25e:	4c 89 45 b8          	mov    QWORD PTR [rbp-0x48],r8
  3fc262:	4c 89 4d b0          	mov    QWORD PTR [rbp-0x50],r9
  3fc266:	48 8b 45 b8          	mov    rax,QWORD PTR [rbp-0x48]
  3fc26a:	48 89 45 f8          	mov    QWORD PTR [rbp-0x8],rax
  3fc26e:	48 8b 45 b0          	mov    rax,QWORD PTR [rbp-0x50]
  3fc272:	48 89 45 f0          	mov    QWORD PTR [rbp-0x10],rax
  3fc276:	48 8b 45 c0          	mov    rax,QWORD PTR [rbp-0x40]
  3fc27a:	48 89 45 e8          	mov    QWORD PTR [rbp-0x18],rax
  3fc27e:	48 8b 7d d8          	mov    rdi,QWORD PTR [rbp-0x28]
  3fc282:	48 8b 75 d0          	mov    rsi,QWORD PTR [rbp-0x30]
  3fc286:	48 8b 55 c8          	mov    rdx,QWORD PTR [rbp-0x38]
  3fc28a:	4c 8b 55 c0          	mov    r10,QWORD PTR [rbp-0x40]
  3fc28e:	4c 8b 45 f8          	mov    r8,QWORD PTR [rbp-0x8]
  3fc292:	4c 8b 4d f0          	mov    r9,QWORD PTR [rbp-0x10]
  3fc296:	48 c7 c0 09 00 00 00 	mov    rax,0x9
  3fc29d:	0f 05                	syscall 
  3fc29f:	48 89 c0             	mov    rax,rax
  3fc2a2:	48 89 45 e0          	mov    QWORD PTR [rbp-0x20],rax
  3fc2a6:	48 8b 45 e0          	mov    rax,QWORD PTR [rbp-0x20]
  3fc2aa:	5d                   	pop    rbp
  3fc2ab:	c3                   	ret    
  3fc2ac:	f3 0f 1e fa          	endbr64 
  3fc2b0:	55                   	push   rbp
  3fc2b1:	48 89 e5             	mov    rbp,rsp
  3fc2b4:	48 89 7d e8          	mov    QWORD PTR [rbp-0x18],rdi
  3fc2b8:	48 89 75 e0          	mov    QWORD PTR [rbp-0x20],rsi
  3fc2bc:	48 8b 7d e8          	mov    rdi,QWORD PTR [rbp-0x18]
  3fc2c0:	48 8b 75 e0          	mov    rsi,QWORD PTR [rbp-0x20]
  3fc2c4:	48 c7 c0 0b 00 00 00 	mov    rax,0xb
  3fc2cb:	0f 05                	syscall 
  3fc2cd:	48 89 c0             	mov    rax,rax
  3fc2d0:	48 89 45 f8          	mov    QWORD PTR [rbp-0x8],rax
  3fc2d4:	48 8b 45 f8          	mov    rax,QWORD PTR [rbp-0x8]
  3fc2d8:	5d                   	pop    rbp
  3fc2d9:	c3                   	ret    
  3fc2da:	f3 0f 1e fa          	endbr64 
  3fc2de:	55                   	push   rbp
  3fc2df:	48 89 e5             	mov    rbp,rsp
  3fc2e2:	48 89 7d e8          	mov    QWORD PTR [rbp-0x18],rdi
  3fc2e6:	48 89 75 e0          	mov    QWORD PTR [rbp-0x20],rsi
  3fc2ea:	89 55 dc             	mov    DWORD PTR [rbp-0x24],edx
  3fc2ed:	48 8b 7d e8          	mov    rdi,QWORD PTR [rbp-0x18]
  3fc2f1:	48 8b 75 e0          	mov    rsi,QWORD PTR [rbp-0x20]
  3fc2f5:	48 8b 55 dc          	mov    rdx,QWORD PTR [rbp-0x24]
  3fc2f9:	48 c7 c0 0a 00 00 00 	mov    rax,0xa
  3fc300:	0f 05                	syscall 
  3fc302:	48 89 c0             	mov    rax,rax
  3fc305:	48 89 45 f8          	mov    QWORD PTR [rbp-0x8],rax
  3fc309:	48 8b 45 f8          	mov    rax,QWORD PTR [rbp-0x8]
  3fc30d:	5d                   	pop    rbp
  3fc30e:	c3                   	ret    
  3fc30f:	f3 0f 1e fa          	endbr64 
  3fc313:	55                   	push   rbp
  3fc314:	48 89 e5             	mov    rbp,rsp
  3fc317:	48 89 7d e8          	mov    QWORD PTR [rbp-0x18],rdi
  3fc31b:	48 89 75 e0          	mov    QWORD PTR [rbp-0x20],rsi
  3fc31f:	48 89 55 d8          	mov    QWORD PTR [rbp-0x28],rdx
  3fc323:	48 89 4d d0          	mov    QWORD PTR [rbp-0x30],rcx
  3fc327:	48 8b 7d e8          	mov    rdi,QWORD PTR [rbp-0x18]
  3fc32b:	48 8b 75 e0          	mov    rsi,QWORD PTR [rbp-0x20]
  3fc32f:	48 8b 55 d8          	mov    rdx,QWORD PTR [rbp-0x28]
  3fc333:	4c 8b 55 d0          	mov    r10,QWORD PTR [rbp-0x30]
  3fc337:	48 c7 c0 65 00 00 00 	mov    rax,0x65
  3fc33e:	0f 05                	syscall 
  3fc340:	48 89 c0             	mov    rax,rax
  3fc343:	48 89 45 f8          	mov    QWORD PTR [rbp-0x8],rax
  3fc347:	48 8b 45 f8          	mov    rax,QWORD PTR [rbp-0x8]
  3fc34b:	5d                   	pop    rbp
  3fc34c:	c3                   	ret    
  3fc34d:	f3 0f 1e fa          	endbr64 
  3fc351:	55                   	push   rbp
  3fc352:	48 89 e5             	mov    rbp,rsp
  3fc355:	48 89 7d e8          	mov    QWORD PTR [rbp-0x18],rdi
  3fc359:	48 89 75 e0          	mov    QWORD PTR [rbp-0x20],rsi
  3fc35d:	48 89 55 d8          	mov    QWORD PTR [rbp-0x28],rdx
  3fc361:	48 89 4d d0          	mov    QWORD PTR [rbp-0x30],rcx
  3fc365:	4c 89 45 c8          	mov    QWORD PTR [rbp-0x38],r8
  3fc369:	48 8b 7d e8          	mov    rdi,QWORD PTR [rbp-0x18]
  3fc36d:	48 8b 75 e0          	mov    rsi,QWORD PTR [rbp-0x20]
  3fc371:	48 8b 55 d8          	mov    rdx,QWORD PTR [rbp-0x28]
  3fc375:	4c 8b 55 d0          	mov    r10,QWORD PTR [rbp-0x30]
  3fc379:	48 c7 c0 9d 00 00 00 	mov    rax,0x9d
  3fc380:	0f 05                	syscall 
  3fc382:	48 89 c0             	mov    rax,rax
  3fc385:	48 89 45 f8          	mov    QWORD PTR [rbp-0x8],rax
  3fc389:	48 8b 45 f8          	mov    rax,QWORD PTR [rbp-0x8]
  3fc38d:	5d                   	pop    rbp
  3fc38e:	c3                   	ret    
  3fc38f:	f3 0f 1e fa          	endbr64 
  3fc393:	55                   	push   rbp
  3fc394:	48 89 e5             	mov    rbp,rsp
  3fc397:	89 7d ec             	mov    DWORD PTR [rbp-0x14],edi
  3fc39a:	48 89 75 e0          	mov    QWORD PTR [rbp-0x20],rsi
  3fc39e:	89 55 e8             	mov    DWORD PTR [rbp-0x18],edx
  3fc3a1:	48 8b 7d ec          	mov    rdi,QWORD PTR [rbp-0x14]
  3fc3a5:	48 8b 75 e0          	mov    rsi,QWORD PTR [rbp-0x20]
  3fc3a9:	48 8b 55 e8          	mov    rdx,QWORD PTR [rbp-0x18]
  3fc3ad:	48 c7 c0 d9 00 00 00 	mov    rax,0xd9
  3fc3b4:	0f 05                	syscall 
  3fc3b6:	48 89 c0             	mov    rax,rax
  3fc3b9:	48 89 45 f8          	mov    QWORD PTR [rbp-0x8],rax
  3fc3bd:	48 8b 45 f8          	mov    rax,QWORD PTR [rbp-0x8]
  3fc3c1:	5d                   	pop    rbp
  3fc3c2:	c3                   	ret    
  3fc3c3:	f3 0f 1e fa          	endbr64 
  3fc3c7:	55                   	push   rbp
  3fc3c8:	48 89 e5             	mov    rbp,rsp
  3fc3cb:	48 89 7d e8          	mov    QWORD PTR [rbp-0x18],rdi
  3fc3cf:	48 89 75 e0          	mov    QWORD PTR [rbp-0x20],rsi
  3fc3d3:	48 8b 7d e8          	mov    rdi,QWORD PTR [rbp-0x18]
  3fc3d7:	48 8b 75 e0          	mov    rsi,QWORD PTR [rbp-0x20]
  3fc3db:	48 c7 c0 60 00 00 00 	mov    rax,0x60
  3fc3e2:	0f 05                	syscall 
  3fc3e4:	48 89 c0             	mov    rax,rax
  3fc3e7:	48 89 45 f8          	mov    QWORD PTR [rbp-0x8],rax
  3fc3eb:	48 8b 45 f8          	mov    rax,QWORD PTR [rbp-0x8]
  3fc3ef:	5d                   	pop    rbp
  3fc3f0:	c3                   	ret    
  3fc3f1:	f3 0f 1e fa          	endbr64 
  3fc3f5:	55                   	push   rbp
  3fc3f6:	48 89 e5             	mov    rbp,rsp
  3fc3f9:	48 89 7d d8          	mov    QWORD PTR [rbp-0x28],rdi
  3fc3fd:	48 89 75 d0          	mov    QWORD PTR [rbp-0x30],rsi
  3fc401:	89 55 cc             	mov    DWORD PTR [rbp-0x34],edx
  3fc404:	48 8b 45 d0          	mov    rax,QWORD PTR [rbp-0x30]
  3fc408:	48 89 45 f0          	mov    QWORD PTR [rbp-0x10],rax
  3fc40c:	48 8b 45 d8          	mov    rax,QWORD PTR [rbp-0x28]
  3fc410:	48 89 45 e8          	mov    QWORD PTR [rbp-0x18],rax
  3fc414:	c7 45 fc 00 00 00 00 	mov    DWORD PTR [rbp-0x4],0x0
  3fc41b:	eb 1b                	jmp    3fc438 <_init-0x4bc8>
  3fc41d:	48 8b 45 f0          	mov    rax,QWORD PTR [rbp-0x10]
  3fc421:	0f b6 10             	movzx  edx,BYTE PTR [rax]
  3fc424:	48 8b 45 e8          	mov    rax,QWORD PTR [rbp-0x18]
  3fc428:	88 10                	mov    BYTE PTR [rax],dl
  3fc42a:	48 83 45 f0 01       	add    QWORD PTR [rbp-0x10],0x1
  3fc42f:	48 83 45 e8 01       	add    QWORD PTR [rbp-0x18],0x1
  3fc434:	83 45 fc 01          	add    DWORD PTR [rbp-0x4],0x1
  3fc438:	8b 45 fc             	mov    eax,DWORD PTR [rbp-0x4]
  3fc43b:	39 45 cc             	cmp    DWORD PTR [rbp-0x34],eax
  3fc43e:	77 dd                	ja     3fc41d <_init-0x4be3>
  3fc440:	90                   	nop
  3fc441:	90                   	nop
  3fc442:	5d                   	pop    rbp
  3fc443:	c3                   	ret    
  3fc444:	f3 0f 1e fa          	endbr64 
  3fc448:	55                   	push   rbp
  3fc449:	48 89 e5             	mov    rbp,rsp
  3fc44c:	48 89 7d e8          	mov    QWORD PTR [rbp-0x18],rdi
  3fc450:	89 f0                	mov    eax,esi
  3fc452:	89 55 e0             	mov    DWORD PTR [rbp-0x20],edx
  3fc455:	88 45 e4             	mov    BYTE PTR [rbp-0x1c],al
  3fc458:	48 8b 45 e8          	mov    rax,QWORD PTR [rbp-0x18]
  3fc45c:	48 89 45 f8          	mov    QWORD PTR [rbp-0x8],rax
  3fc460:	8b 45 e0             	mov    eax,DWORD PTR [rbp-0x20]
  3fc463:	89 45 f4             	mov    DWORD PTR [rbp-0xc],eax
  3fc466:	eb 0f                	jmp    3fc477 <_init-0x4b89>
  3fc468:	48 8b 45 f8          	mov    rax,QWORD PTR [rbp-0x8]
  3fc46c:	0f b6 55 e4          	movzx  edx,BYTE PTR [rbp-0x1c]
  3fc470:	88 10                	mov    BYTE PTR [rax],dl
  3fc472:	48 83 45 f8 01       	add    QWORD PTR [rbp-0x8],0x1
  3fc477:	8b 45 f4             	mov    eax,DWORD PTR [rbp-0xc]
  3fc47a:	8d 50 ff             	lea    edx,[rax-0x1]
  3fc47d:	89 55 f4             	mov    DWORD PTR [rbp-0xc],edx
  3fc480:	85 c0                	test   eax,eax
  3fc482:	75 e4                	jne    3fc468 <_init-0x4b98>
  3fc484:	90                   	nop
  3fc485:	90                   	nop
  3fc486:	5d                   	pop    rbp
  3fc487:	c3                   	ret    
  3fc488:	f3 0f 1e fa          	endbr64 
  3fc48c:	55                   	push   rbp
  3fc48d:	48 89 e5             	mov    rbp,rsp
  3fc490:	48 81 ec 10 01 00 00 	sub    rsp,0x110
  3fc497:	48 89 bd f8 fe ff ff 	mov    QWORD PTR [rbp-0x108],rdi
  3fc49e:	48 89 b5 58 ff ff ff 	mov    QWORD PTR [rbp-0xa8],rsi
  3fc4a5:	48 89 95 60 ff ff ff 	mov    QWORD PTR [rbp-0xa0],rdx
  3fc4ac:	48 89 8d 68 ff ff ff 	mov    QWORD PTR [rbp-0x98],rcx
  3fc4b3:	4c 89 85 70 ff ff ff 	mov    QWORD PTR [rbp-0x90],r8
  3fc4ba:	4c 89 8d 78 ff ff ff 	mov    QWORD PTR [rbp-0x88],r9
  3fc4c1:	84 c0                	test   al,al
  3fc4c3:	74 20                	je     3fc4e5 <_init-0x4b1b>
  3fc4c5:	0f 29 45 80          	movaps XMMWORD PTR [rbp-0x80],xmm0
  3fc4c9:	0f 29 4d 90          	movaps XMMWORD PTR [rbp-0x70],xmm1
  3fc4cd:	0f 29 55 a0          	movaps XMMWORD PTR [rbp-0x60],xmm2
  3fc4d1:	0f 29 5d b0          	movaps XMMWORD PTR [rbp-0x50],xmm3
  3fc4d5:	0f 29 65 c0          	movaps XMMWORD PTR [rbp-0x40],xmm4
  3fc4d9:	0f 29 6d d0          	movaps XMMWORD PTR [rbp-0x30],xmm5
  3fc4dd:	0f 29 75 e0          	movaps XMMWORD PTR [rbp-0x20],xmm6
  3fc4e1:	0f 29 7d f0          	movaps XMMWORD PTR [rbp-0x10],xmm7
  3fc4e5:	48 c7 85 20 ff ff ff 	mov    QWORD PTR [rbp-0xe0],0x0
  3fc4ec:	00 00 00 00 
  3fc4f0:	48 c7 85 28 ff ff ff 	mov    QWORD PTR [rbp-0xd8],0x0
  3fc4f7:	00 00 00 00 
  3fc4fb:	48 c7 85 30 ff ff ff 	mov    QWORD PTR [rbp-0xd0],0x0
  3fc502:	00 00 00 00 
  3fc506:	66 c7 85 38 ff ff ff 	mov    WORD PTR [rbp-0xc8],0x0
  3fc50d:	00 00 
  3fc50f:	c7 85 08 ff ff ff 08 	mov    DWORD PTR [rbp-0xf8],0x8
  3fc516:	00 00 00 
  3fc519:	c7 85 0c ff ff ff 30 	mov    DWORD PTR [rbp-0xf4],0x30
  3fc520:	00 00 00 
  3fc523:	48 8d 45 10          	lea    rax,[rbp+0x10]
  3fc527:	48 89 85 10 ff ff ff 	mov    QWORD PTR [rbp-0xf0],rax
  3fc52e:	48 8d 85 50 ff ff ff 	lea    rax,[rbp-0xb0]
  3fc535:	48 89 85 18 ff ff ff 	mov    QWORD PTR [rbp-0xe8],rax
  3fc53c:	c7 85 4c ff ff ff 00 	mov    DWORD PTR [rbp-0xb4],0x0
  3fc543:	00 00 00 
  3fc546:	e9 6d 02 00 00       	jmp    3fc7b8 <_init-0x4848>
  3fc54b:	48 8b 85 f8 fe ff ff 	mov    rax,QWORD PTR [rbp-0x108]
  3fc552:	0f b6 00             	movzx  eax,BYTE PTR [rax]
  3fc555:	3c 25                	cmp    al,0x25
  3fc557:	74 31                	je     3fc58a <_init-0x4a76>
  3fc559:	83 bd 4c ff ff ff 00 	cmp    DWORD PTR [rbp-0xb4],0x0
  3fc560:	75 28                	jne    3fc58a <_init-0x4a76>
  3fc562:	48 8b 85 f8 fe ff ff 	mov    rax,QWORD PTR [rbp-0x108]
  3fc569:	ba 01 00 00 00       	mov    edx,0x1
  3fc56e:	48 89 c6             	mov    rsi,rax
  3fc571:	bf 01 00 00 00       	mov    edi,0x1
  3fc576:	e8 b9 fb ff ff       	call   3fc134 <_init-0x4ecc>
  3fc57b:	c7 85 4c ff ff ff 00 	mov    DWORD PTR [rbp-0xb4],0x0
  3fc582:	00 00 00 
  3fc585:	e9 26 02 00 00       	jmp    3fc7b0 <_init-0x4850>
  3fc58a:	48 8b 85 f8 fe ff ff 	mov    rax,QWORD PTR [rbp-0x108]
  3fc591:	0f b6 00             	movzx  eax,BYTE PTR [rax]
  3fc594:	3c 25                	cmp    al,0x25
  3fc596:	0f 84 0a 02 00 00    	je     3fc7a6 <_init-0x485a>
  3fc59c:	48 8b 85 f8 fe ff ff 	mov    rax,QWORD PTR [rbp-0x108]
  3fc5a3:	0f b6 00             	movzx  eax,BYTE PTR [rax]
  3fc5a6:	0f be c0             	movsx  eax,al
  3fc5a9:	83 f8 78             	cmp    eax,0x78
  3fc5ac:	0f 84 61 01 00 00    	je     3fc713 <_init-0x48ed>
  3fc5b2:	83 f8 78             	cmp    eax,0x78
  3fc5b5:	0f 8f c5 01 00 00    	jg     3fc780 <_init-0x4880>
  3fc5bb:	83 f8 75             	cmp    eax,0x75
  3fc5be:	74 79                	je     3fc639 <_init-0x49c7>
  3fc5c0:	83 f8 75             	cmp    eax,0x75
  3fc5c3:	0f 8f b7 01 00 00    	jg     3fc780 <_init-0x4880>
  3fc5c9:	83 f8 64             	cmp    eax,0x64
  3fc5cc:	0f 84 d4 00 00 00    	je     3fc6a6 <_init-0x495a>
  3fc5d2:	83 f8 73             	cmp    eax,0x73
  3fc5d5:	0f 85 a5 01 00 00    	jne    3fc780 <_init-0x4880>
  3fc5db:	8b 85 08 ff ff ff    	mov    eax,DWORD PTR [rbp-0xf8]
  3fc5e1:	83 f8 2f             	cmp    eax,0x2f
  3fc5e4:	77 23                	ja     3fc609 <_init-0x49f7>
  3fc5e6:	48 8b 85 18 ff ff ff 	mov    rax,QWORD PTR [rbp-0xe8]
  3fc5ed:	8b 95 08 ff ff ff    	mov    edx,DWORD PTR [rbp-0xf8]
  3fc5f3:	89 d2                	mov    edx,edx
  3fc5f5:	48 01 d0             	add    rax,rdx
  3fc5f8:	8b 95 08 ff ff ff    	mov    edx,DWORD PTR [rbp-0xf8]
  3fc5fe:	83 c2 08             	add    edx,0x8
  3fc601:	89 95 08 ff ff ff    	mov    DWORD PTR [rbp-0xf8],edx
  3fc607:	eb 12                	jmp    3fc61b <_init-0x49e5>
  3fc609:	48 8b 85 10 ff ff ff 	mov    rax,QWORD PTR [rbp-0xf0]
  3fc610:	48 8d 50 08          	lea    rdx,[rax+0x8]
  3fc614:	48 89 95 10 ff ff ff 	mov    QWORD PTR [rbp-0xf0],rdx
  3fc61b:	48 8b 00             	mov    rax,QWORD PTR [rax]
  3fc61e:	48 89 85 40 ff ff ff 	mov    QWORD PTR [rbp-0xc0],rax
  3fc625:	48 8b 85 40 ff ff ff 	mov    rax,QWORD PTR [rbp-0xc0]
  3fc62c:	48 89 c7             	mov    rdi,rax
  3fc62f:	e8 cd 04 00 00       	call   3fcb01 <_init-0x44ff>
  3fc634:	e9 61 01 00 00       	jmp    3fc79a <_init-0x4866>
  3fc639:	8b 85 08 ff ff ff    	mov    eax,DWORD PTR [rbp-0xf8]
  3fc63f:	83 f8 2f             	cmp    eax,0x2f
  3fc642:	77 23                	ja     3fc667 <_init-0x4999>
  3fc644:	48 8b 85 18 ff ff ff 	mov    rax,QWORD PTR [rbp-0xe8]
  3fc64b:	8b 95 08 ff ff ff    	mov    edx,DWORD PTR [rbp-0xf8]
  3fc651:	89 d2                	mov    edx,edx
  3fc653:	48 01 d0             	add    rax,rdx
  3fc656:	8b 95 08 ff ff ff    	mov    edx,DWORD PTR [rbp-0xf8]
  3fc65c:	83 c2 08             	add    edx,0x8
  3fc65f:	89 95 08 ff ff ff    	mov    DWORD PTR [rbp-0xf8],edx
  3fc665:	eb 12                	jmp    3fc679 <_init-0x4987>
  3fc667:	48 8b 85 10 ff ff ff 	mov    rax,QWORD PTR [rbp-0xf0]
  3fc66e:	48 8d 50 08          	lea    rdx,[rax+0x8]
  3fc672:	48 89 95 10 ff ff ff 	mov    QWORD PTR [rbp-0xf0],rdx
  3fc679:	8b 00                	mov    eax,DWORD PTR [rax]
  3fc67b:	89 85 3c ff ff ff    	mov    DWORD PTR [rbp-0xc4],eax
  3fc681:	8b 85 3c ff ff ff    	mov    eax,DWORD PTR [rbp-0xc4]
  3fc687:	48 8d 95 20 ff ff ff 	lea    rdx,[rbp-0xe0]
  3fc68e:	48 89 d6             	mov    rsi,rdx
  3fc691:	48 89 c7             	mov    rdi,rax
  3fc694:	e8 38 01 00 00       	call   3fc7d1 <_init-0x482f>
  3fc699:	48 89 c7             	mov    rdi,rax
  3fc69c:	e8 60 04 00 00       	call   3fcb01 <_init-0x44ff>
  3fc6a1:	e9 f4 00 00 00       	jmp    3fc79a <_init-0x4866>
  3fc6a6:	8b 85 08 ff ff ff    	mov    eax,DWORD PTR [rbp-0xf8]
  3fc6ac:	83 f8 2f             	cmp    eax,0x2f
  3fc6af:	77 23                	ja     3fc6d4 <_init-0x492c>
  3fc6b1:	48 8b 85 18 ff ff ff 	mov    rax,QWORD PTR [rbp-0xe8]
  3fc6b8:	8b 95 08 ff ff ff    	mov    edx,DWORD PTR [rbp-0xf8]
  3fc6be:	89 d2                	mov    edx,edx
  3fc6c0:	48 01 d0             	add    rax,rdx
  3fc6c3:	8b 95 08 ff ff ff    	mov    edx,DWORD PTR [rbp-0xf8]
  3fc6c9:	83 c2 08             	add    edx,0x8
  3fc6cc:	89 95 08 ff ff ff    	mov    DWORD PTR [rbp-0xf8],edx
  3fc6d2:	eb 12                	jmp    3fc6e6 <_init-0x491a>
  3fc6d4:	48 8b 85 10 ff ff ff 	mov    rax,QWORD PTR [rbp-0xf0]
  3fc6db:	48 8d 50 08          	lea    rdx,[rax+0x8]
  3fc6df:	48 89 95 10 ff ff ff 	mov    QWORD PTR [rbp-0xf0],rdx
  3fc6e6:	8b 00                	mov    eax,DWORD PTR [rax]
  3fc6e8:	89 85 3c ff ff ff    	mov    DWORD PTR [rbp-0xc4],eax
  3fc6ee:	8b 85 3c ff ff ff    	mov    eax,DWORD PTR [rbp-0xc4]
  3fc6f4:	48 8d 95 20 ff ff ff 	lea    rdx,[rbp-0xe0]
  3fc6fb:	48 89 d6             	mov    rsi,rdx
  3fc6fe:	48 89 c7             	mov    rdi,rax
  3fc701:	e8 cb 00 00 00       	call   3fc7d1 <_init-0x482f>
  3fc706:	48 89 c7             	mov    rdi,rax
  3fc709:	e8 f3 03 00 00       	call   3fcb01 <_init-0x44ff>
  3fc70e:	e9 87 00 00 00       	jmp    3fc79a <_init-0x4866>
  3fc713:	8b 85 08 ff ff ff    	mov    eax,DWORD PTR [rbp-0xf8]
  3fc719:	83 f8 2f             	cmp    eax,0x2f
  3fc71c:	77 23                	ja     3fc741 <_init-0x48bf>
  3fc71e:	48 8b 85 18 ff ff ff 	mov    rax,QWORD PTR [rbp-0xe8]
  3fc725:	8b 95 08 ff ff ff    	mov    edx,DWORD PTR [rbp-0xf8]
  3fc72b:	89 d2                	mov    edx,edx
  3fc72d:	48 01 d0             	add    rax,rdx
  3fc730:	8b 95 08 ff ff ff    	mov    edx,DWORD PTR [rbp-0xf8]
  3fc736:	83 c2 08             	add    edx,0x8
  3fc739:	89 95 08 ff ff ff    	mov    DWORD PTR [rbp-0xf8],edx
  3fc73f:	eb 12                	jmp    3fc753 <_init-0x48ad>
  3fc741:	48 8b 85 10 ff ff ff 	mov    rax,QWORD PTR [rbp-0xf0]
  3fc748:	48 8d 50 08          	lea    rdx,[rax+0x8]
  3fc74c:	48 89 95 10 ff ff ff 	mov    QWORD PTR [rbp-0xf0],rdx
  3fc753:	48 8b 00             	mov    rax,QWORD PTR [rax]
  3fc756:	48 89 85 40 ff ff ff 	mov    QWORD PTR [rbp-0xc0],rax
  3fc75d:	48 8b 85 40 ff ff ff 	mov    rax,QWORD PTR [rbp-0xc0]
  3fc764:	48 8d 95 20 ff ff ff 	lea    rdx,[rbp-0xe0]
  3fc76b:	48 89 d6             	mov    rsi,rdx
  3fc76e:	48 89 c7             	mov    rdi,rax
  3fc771:	e8 dd 01 00 00       	call   3fc953 <_init-0x46ad>
  3fc776:	48 89 c7             	mov    rdi,rax
  3fc779:	e8 83 03 00 00       	call   3fcb01 <_init-0x44ff>
  3fc77e:	eb 1a                	jmp    3fc79a <_init-0x4866>
  3fc780:	48 8b 85 f8 fe ff ff 	mov    rax,QWORD PTR [rbp-0x108]
  3fc787:	ba 01 00 00 00       	mov    edx,0x1
  3fc78c:	48 89 c6             	mov    rsi,rax
  3fc78f:	bf 01 00 00 00       	mov    edi,0x1
  3fc794:	e8 9b f9 ff ff       	call   3fc134 <_init-0x4ecc>
  3fc799:	90                   	nop
  3fc79a:	c7 85 4c ff ff ff 00 	mov    DWORD PTR [rbp-0xb4],0x0
  3fc7a1:	00 00 00 
  3fc7a4:	eb 0a                	jmp    3fc7b0 <_init-0x4850>
  3fc7a6:	c7 85 4c ff ff ff 01 	mov    DWORD PTR [rbp-0xb4],0x1
  3fc7ad:	00 00 00 
  3fc7b0:	48 83 85 f8 fe ff ff 	add    QWORD PTR [rbp-0x108],0x1
  3fc7b7:	01 
  3fc7b8:	48 8b 85 f8 fe ff ff 	mov    rax,QWORD PTR [rbp-0x108]
  3fc7bf:	0f b6 00             	movzx  eax,BYTE PTR [rax]
  3fc7c2:	84 c0                	test   al,al
  3fc7c4:	0f 85 81 fd ff ff    	jne    3fc54b <_init-0x4ab5>
  3fc7ca:	b8 01 00 00 00       	mov    eax,0x1
  3fc7cf:	c9                   	leave  
  3fc7d0:	c3                   	ret    
  3fc7d1:	f3 0f 1e fa          	endbr64 
  3fc7d5:	55                   	push   rbp
  3fc7d6:	48 89 e5             	mov    rbp,rsp
  3fc7d9:	48 89 7d e8          	mov    QWORD PTR [rbp-0x18],rdi
  3fc7dd:	48 89 75 e0          	mov    QWORD PTR [rbp-0x20],rsi
  3fc7e1:	c7 45 fc 00 00 00 00 	mov    DWORD PTR [rbp-0x4],0x0
  3fc7e8:	48 8b 4d e8          	mov    rcx,QWORD PTR [rbp-0x18]
  3fc7ec:	48 ba 67 66 66 66 66 	movabs rdx,0x6666666666666667
  3fc7f3:	66 66 66 
  3fc7f6:	48 89 c8             	mov    rax,rcx
  3fc7f9:	48 f7 ea             	imul   rdx
  3fc7fc:	48 c1 fa 02          	sar    rdx,0x2
  3fc800:	48 89 c8             	mov    rax,rcx
  3fc803:	48 c1 f8 3f          	sar    rax,0x3f
  3fc807:	48 29 c2             	sub    rdx,rax
  3fc80a:	48 89 d0             	mov    rax,rdx
  3fc80d:	48 c1 e0 02          	shl    rax,0x2
  3fc811:	48 01 d0             	add    rax,rdx
  3fc814:	48 01 c0             	add    rax,rax
  3fc817:	48 29 c1             	sub    rcx,rax
  3fc81a:	48 89 ca             	mov    rdx,rcx
  3fc81d:	89 d0                	mov    eax,edx
  3fc81f:	8d 48 30             	lea    ecx,[rax+0x30]
  3fc822:	8b 45 fc             	mov    eax,DWORD PTR [rbp-0x4]
  3fc825:	48 63 d0             	movsxd rdx,eax
  3fc828:	48 8b 45 e0          	mov    rax,QWORD PTR [rbp-0x20]
  3fc82c:	48 01 d0             	add    rax,rdx
  3fc82f:	89 ca                	mov    edx,ecx
  3fc831:	88 10                	mov    BYTE PTR [rax],dl
  3fc833:	48 8b 4d e8          	mov    rcx,QWORD PTR [rbp-0x18]
  3fc837:	48 ba 67 66 66 66 66 	movabs rdx,0x6666666666666667
  3fc83e:	66 66 66 
  3fc841:	48 89 c8             	mov    rax,rcx
  3fc844:	48 f7 ea             	imul   rdx
  3fc847:	48 c1 fa 02          	sar    rdx,0x2
  3fc84b:	48 89 c8             	mov    rax,rcx
  3fc84e:	48 c1 f8 3f          	sar    rax,0x3f
  3fc852:	48 29 c2             	sub    rdx,rax
  3fc855:	48 89 d0             	mov    rax,rdx
  3fc858:	48 89 45 e8          	mov    QWORD PTR [rbp-0x18],rax
  3fc85c:	83 45 fc 01          	add    DWORD PTR [rbp-0x4],0x1
  3fc860:	48 83 7d e8 00       	cmp    QWORD PTR [rbp-0x18],0x0
  3fc865:	75 81                	jne    3fc7e8 <_init-0x4818>
  3fc867:	8b 45 fc             	mov    eax,DWORD PTR [rbp-0x4]
  3fc86a:	48 63 d0             	movsxd rdx,eax
  3fc86d:	48 8b 45 e0          	mov    rax,QWORD PTR [rbp-0x20]
  3fc871:	48 01 d0             	add    rax,rdx
  3fc874:	c6 00 00             	mov    BYTE PTR [rax],0x0
  3fc877:	c7 45 f8 00 00 00 00 	mov    DWORD PTR [rbp-0x8],0x0
  3fc87e:	e9 b5 00 00 00       	jmp    3fc938 <_init-0x46c8>
  3fc883:	8b 45 f8             	mov    eax,DWORD PTR [rbp-0x8]
  3fc886:	48 63 d0             	movsxd rdx,eax
  3fc889:	48 8b 45 e0          	mov    rax,QWORD PTR [rbp-0x20]
  3fc88d:	48 01 d0             	add    rax,rdx
  3fc890:	0f b6 30             	movzx  esi,BYTE PTR [rax]
  3fc893:	8b 45 fc             	mov    eax,DWORD PTR [rbp-0x4]
  3fc896:	2b 45 f8             	sub    eax,DWORD PTR [rbp-0x8]
  3fc899:	48 98                	cdqe   
  3fc89b:	48 8d 50 ff          	lea    rdx,[rax-0x1]
  3fc89f:	48 8b 45 e0          	mov    rax,QWORD PTR [rbp-0x20]
  3fc8a3:	48 01 d0             	add    rax,rdx
  3fc8a6:	0f b6 08             	movzx  ecx,BYTE PTR [rax]
  3fc8a9:	8b 45 f8             	mov    eax,DWORD PTR [rbp-0x8]
  3fc8ac:	48 63 d0             	movsxd rdx,eax
  3fc8af:	48 8b 45 e0          	mov    rax,QWORD PTR [rbp-0x20]
  3fc8b3:	48 01 d0             	add    rax,rdx
  3fc8b6:	31 ce                	xor    esi,ecx
  3fc8b8:	89 f2                	mov    edx,esi
  3fc8ba:	88 10                	mov    BYTE PTR [rax],dl
  3fc8bc:	8b 45 fc             	mov    eax,DWORD PTR [rbp-0x4]
  3fc8bf:	2b 45 f8             	sub    eax,DWORD PTR [rbp-0x8]
  3fc8c2:	48 98                	cdqe   
  3fc8c4:	48 8d 50 ff          	lea    rdx,[rax-0x1]
  3fc8c8:	48 8b 45 e0          	mov    rax,QWORD PTR [rbp-0x20]
  3fc8cc:	48 01 d0             	add    rax,rdx
  3fc8cf:	0f b6 30             	movzx  esi,BYTE PTR [rax]
  3fc8d2:	8b 45 f8             	mov    eax,DWORD PTR [rbp-0x8]
  3fc8d5:	48 63 d0             	movsxd rdx,eax
  3fc8d8:	48 8b 45 e0          	mov    rax,QWORD PTR [rbp-0x20]
  3fc8dc:	48 01 d0             	add    rax,rdx
  3fc8df:	0f b6 08             	movzx  ecx,BYTE PTR [rax]
  3fc8e2:	8b 45 fc             	mov    eax,DWORD PTR [rbp-0x4]
  3fc8e5:	2b 45 f8             	sub    eax,DWORD PTR [rbp-0x8]
  3fc8e8:	48 98                	cdqe   
  3fc8ea:	48 8d 50 ff          	lea    rdx,[rax-0x1]
  3fc8ee:	48 8b 45 e0          	mov    rax,QWORD PTR [rbp-0x20]
  3fc8f2:	48 01 d0             	add    rax,rdx
  3fc8f5:	31 ce                	xor    esi,ecx
  3fc8f7:	89 f2                	mov    edx,esi
  3fc8f9:	88 10                	mov    BYTE PTR [rax],dl
  3fc8fb:	8b 45 f8             	mov    eax,DWORD PTR [rbp-0x8]
  3fc8fe:	48 63 d0             	movsxd rdx,eax
  3fc901:	48 8b 45 e0          	mov    rax,QWORD PTR [rbp-0x20]
  3fc905:	48 01 d0             	add    rax,rdx
  3fc908:	0f b6 30             	movzx  esi,BYTE PTR [rax]
  3fc90b:	8b 45 fc             	mov    eax,DWORD PTR [rbp-0x4]
  3fc90e:	2b 45 f8             	sub    eax,DWORD PTR [rbp-0x8]
  3fc911:	48 98                	cdqe   
  3fc913:	48 8d 50 ff          	lea    rdx,[rax-0x1]
  3fc917:	48 8b 45 e0          	mov    rax,QWORD PTR [rbp-0x20]
  3fc91b:	48 01 d0             	add    rax,rdx
  3fc91e:	0f b6 08             	movzx  ecx,BYTE PTR [rax]
  3fc921:	8b 45 f8             	mov    eax,DWORD PTR [rbp-0x8]
  3fc924:	48 63 d0             	movsxd rdx,eax
  3fc927:	48 8b 45 e0          	mov    rax,QWORD PTR [rbp-0x20]
  3fc92b:	48 01 d0             	add    rax,rdx
  3fc92e:	31 ce                	xor    esi,ecx
  3fc930:	89 f2                	mov    edx,esi
  3fc932:	88 10                	mov    BYTE PTR [rax],dl
  3fc934:	83 45 f8 01          	add    DWORD PTR [rbp-0x8],0x1
  3fc938:	8b 45 fc             	mov    eax,DWORD PTR [rbp-0x4]
  3fc93b:	89 c2                	mov    edx,eax
  3fc93d:	c1 ea 1f             	shr    edx,0x1f
  3fc940:	01 d0                	add    eax,edx
  3fc942:	d1 f8                	sar    eax,1
  3fc944:	39 45 f8             	cmp    DWORD PTR [rbp-0x8],eax
  3fc947:	0f 8c 36 ff ff ff    	jl     3fc883 <_init-0x477d>
  3fc94d:	48 8b 45 e0          	mov    rax,QWORD PTR [rbp-0x20]
  3fc951:	5d                   	pop    rbp
  3fc952:	c3                   	ret    
  3fc953:	f3 0f 1e fa          	endbr64 
  3fc957:	55                   	push   rbp
  3fc958:	48 89 e5             	mov    rbp,rsp
  3fc95b:	48 89 7d e8          	mov    QWORD PTR [rbp-0x18],rdi
  3fc95f:	48 89 75 e0          	mov    QWORD PTR [rbp-0x20],rsi
  3fc963:	c7 45 fc 00 00 00 00 	mov    DWORD PTR [rbp-0x4],0x0
  3fc96a:	48 8b 45 e8          	mov    rax,QWORD PTR [rbp-0x18]
  3fc96e:	48 99                	cqo    
  3fc970:	48 c1 ea 3c          	shr    rdx,0x3c
  3fc974:	48 01 d0             	add    rax,rdx
  3fc977:	83 e0 0f             	and    eax,0xf
  3fc97a:	48 29 d0             	sub    rax,rdx
  3fc97d:	48 89 c1             	mov    rcx,rax
  3fc980:	8b 45 fc             	mov    eax,DWORD PTR [rbp-0x4]
  3fc983:	48 63 d0             	movsxd rdx,eax
  3fc986:	48 8b 45 e0          	mov    rax,QWORD PTR [rbp-0x20]
  3fc98a:	48 01 d0             	add    rax,rdx
  3fc98d:	89 ca                	mov    edx,ecx
  3fc98f:	88 10                	mov    BYTE PTR [rax],dl
  3fc991:	8b 45 fc             	mov    eax,DWORD PTR [rbp-0x4]
  3fc994:	48 63 d0             	movsxd rdx,eax
  3fc997:	48 8b 45 e0          	mov    rax,QWORD PTR [rbp-0x20]
  3fc99b:	48 01 d0             	add    rax,rdx
  3fc99e:	0f b6 00             	movzx  eax,BYTE PTR [rax]
  3fc9a1:	3c 09                	cmp    al,0x9
  3fc9a3:	7e 26                	jle    3fc9cb <_init-0x4635>
  3fc9a5:	8b 45 fc             	mov    eax,DWORD PTR [rbp-0x4]
  3fc9a8:	48 63 d0             	movsxd rdx,eax
  3fc9ab:	48 8b 45 e0          	mov    rax,QWORD PTR [rbp-0x20]
  3fc9af:	48 01 d0             	add    rax,rdx
  3fc9b2:	0f b6 00             	movzx  eax,BYTE PTR [rax]
  3fc9b5:	8d 48 57             	lea    ecx,[rax+0x57]
  3fc9b8:	8b 45 fc             	mov    eax,DWORD PTR [rbp-0x4]
  3fc9bb:	48 63 d0             	movsxd rdx,eax
  3fc9be:	48 8b 45 e0          	mov    rax,QWORD PTR [rbp-0x20]
  3fc9c2:	48 01 d0             	add    rax,rdx
  3fc9c5:	89 ca                	mov    edx,ecx
  3fc9c7:	88 10                	mov    BYTE PTR [rax],dl
  3fc9c9:	eb 24                	jmp    3fc9ef <_init-0x4611>
  3fc9cb:	8b 45 fc             	mov    eax,DWORD PTR [rbp-0x4]
  3fc9ce:	48 63 d0             	movsxd rdx,eax
  3fc9d1:	48 8b 45 e0          	mov    rax,QWORD PTR [rbp-0x20]
  3fc9d5:	48 01 d0             	add    rax,rdx
  3fc9d8:	0f b6 00             	movzx  eax,BYTE PTR [rax]
  3fc9db:	8d 48 30             	lea    ecx,[rax+0x30]
  3fc9de:	8b 45 fc             	mov    eax,DWORD PTR [rbp-0x4]
  3fc9e1:	48 63 d0             	movsxd rdx,eax
  3fc9e4:	48 8b 45 e0          	mov    rax,QWORD PTR [rbp-0x20]
  3fc9e8:	48 01 d0             	add    rax,rdx
  3fc9eb:	89 ca                	mov    edx,ecx
  3fc9ed:	88 10                	mov    BYTE PTR [rax],dl
  3fc9ef:	48 8b 45 e8          	mov    rax,QWORD PTR [rbp-0x18]
  3fc9f3:	48 8d 50 0f          	lea    rdx,[rax+0xf]
  3fc9f7:	48 85 c0             	test   rax,rax
  3fc9fa:	48 0f 48 c2          	cmovs  rax,rdx
  3fc9fe:	48 c1 f8 04          	sar    rax,0x4
  3fca02:	48 89 45 e8          	mov    QWORD PTR [rbp-0x18],rax
  3fca06:	83 45 fc 01          	add    DWORD PTR [rbp-0x4],0x1
  3fca0a:	48 83 7d e8 00       	cmp    QWORD PTR [rbp-0x18],0x0
  3fca0f:	0f 85 55 ff ff ff    	jne    3fc96a <_init-0x4696>
  3fca15:	8b 45 fc             	mov    eax,DWORD PTR [rbp-0x4]
  3fca18:	48 63 d0             	movsxd rdx,eax
  3fca1b:	48 8b 45 e0          	mov    rax,QWORD PTR [rbp-0x20]
  3fca1f:	48 01 d0             	add    rax,rdx
  3fca22:	c6 00 00             	mov    BYTE PTR [rax],0x0
  3fca25:	c7 45 f8 00 00 00 00 	mov    DWORD PTR [rbp-0x8],0x0
  3fca2c:	e9 b5 00 00 00       	jmp    3fcae6 <_init-0x451a>
  3fca31:	8b 45 f8             	mov    eax,DWORD PTR [rbp-0x8]
  3fca34:	48 63 d0             	movsxd rdx,eax
  3fca37:	48 8b 45 e0          	mov    rax,QWORD PTR [rbp-0x20]
  3fca3b:	48 01 d0             	add    rax,rdx
  3fca3e:	0f b6 30             	movzx  esi,BYTE PTR [rax]
  3fca41:	8b 45 fc             	mov    eax,DWORD PTR [rbp-0x4]
  3fca44:	2b 45 f8             	sub    eax,DWORD PTR [rbp-0x8]
  3fca47:	48 98                	cdqe   
  3fca49:	48 8d 50 ff          	lea    rdx,[rax-0x1]
  3fca4d:	48 8b 45 e0          	mov    rax,QWORD PTR [rbp-0x20]
  3fca51:	48 01 d0             	add    rax,rdx
  3fca54:	0f b6 08             	movzx  ecx,BYTE PTR [rax]
  3fca57:	8b 45 f8             	mov    eax,DWORD PTR [rbp-0x8]
  3fca5a:	48 63 d0             	movsxd rdx,eax
  3fca5d:	48 8b 45 e0          	mov    rax,QWORD PTR [rbp-0x20]
  3fca61:	48 01 d0             	add    rax,rdx
  3fca64:	31 ce                	xor    esi,ecx
  3fca66:	89 f2                	mov    edx,esi
  3fca68:	88 10                	mov    BYTE PTR [rax],dl
  3fca6a:	8b 45 fc             	mov    eax,DWORD PTR [rbp-0x4]
  3fca6d:	2b 45 f8             	sub    eax,DWORD PTR [rbp-0x8]
  3fca70:	48 98                	cdqe   
  3fca72:	48 8d 50 ff          	lea    rdx,[rax-0x1]
  3fca76:	48 8b 45 e0          	mov    rax,QWORD PTR [rbp-0x20]
  3fca7a:	48 01 d0             	add    rax,rdx
  3fca7d:	0f b6 30             	movzx  esi,BYTE PTR [rax]
  3fca80:	8b 45 f8             	mov    eax,DWORD PTR [rbp-0x8]
  3fca83:	48 63 d0             	movsxd rdx,eax
  3fca86:	48 8b 45 e0          	mov    rax,QWORD PTR [rbp-0x20]
  3fca8a:	48 01 d0             	add    rax,rdx
  3fca8d:	0f b6 08             	movzx  ecx,BYTE PTR [rax]
  3fca90:	8b 45 fc             	mov    eax,DWORD PTR [rbp-0x4]
  3fca93:	2b 45 f8             	sub    eax,DWORD PTR [rbp-0x8]
  3fca96:	48 98                	cdqe   
  3fca98:	48 8d 50 ff          	lea    rdx,[rax-0x1]
  3fca9c:	48 8b 45 e0          	mov    rax,QWORD PTR [rbp-0x20]
  3fcaa0:	48 01 d0             	add    rax,rdx
  3fcaa3:	31 ce                	xor    esi,ecx
  3fcaa5:	89 f2                	mov    edx,esi
  3fcaa7:	88 10                	mov    BYTE PTR [rax],dl
  3fcaa9:	8b 45 f8             	mov    eax,DWORD PTR [rbp-0x8]
  3fcaac:	48 63 d0             	movsxd rdx,eax
  3fcaaf:	48 8b 45 e0          	mov    rax,QWORD PTR [rbp-0x20]
  3fcab3:	48 01 d0             	add    rax,rdx
  3fcab6:	0f b6 30             	movzx  esi,BYTE PTR [rax]
  3fcab9:	8b 45 fc             	mov    eax,DWORD PTR [rbp-0x4]
  3fcabc:	2b 45 f8             	sub    eax,DWORD PTR [rbp-0x8]
  3fcabf:	48 98                	cdqe   
  3fcac1:	48 8d 50 ff          	lea    rdx,[rax-0x1]
  3fcac5:	48 8b 45 e0          	mov    rax,QWORD PTR [rbp-0x20]
  3fcac9:	48 01 d0             	add    rax,rdx
  3fcacc:	0f b6 08             	movzx  ecx,BYTE PTR [rax]
  3fcacf:	8b 45 f8             	mov    eax,DWORD PTR [rbp-0x8]
  3fcad2:	48 63 d0             	movsxd rdx,eax
  3fcad5:	48 8b 45 e0          	mov    rax,QWORD PTR [rbp-0x20]
  3fcad9:	48 01 d0             	add    rax,rdx
  3fcadc:	31 ce                	xor    esi,ecx
  3fcade:	89 f2                	mov    edx,esi
  3fcae0:	88 10                	mov    BYTE PTR [rax],dl
  3fcae2:	83 45 f8 01          	add    DWORD PTR [rbp-0x8],0x1
  3fcae6:	8b 45 fc             	mov    eax,DWORD PTR [rbp-0x4]
  3fcae9:	89 c2                	mov    edx,eax
  3fcaeb:	c1 ea 1f             	shr    edx,0x1f
  3fcaee:	01 d0                	add    eax,edx
  3fcaf0:	d1 f8                	sar    eax,1
  3fcaf2:	39 45 f8             	cmp    DWORD PTR [rbp-0x8],eax
  3fcaf5:	0f 8c 36 ff ff ff    	jl     3fca31 <_init-0x45cf>
  3fcafb:	48 8b 45 e0          	mov    rax,QWORD PTR [rbp-0x20]
  3fcaff:	5d                   	pop    rbp
  3fcb00:	c3                   	ret    
  3fcb01:	f3 0f 1e fa          	endbr64 
  3fcb05:	55                   	push   rbp
  3fcb06:	48 89 e5             	mov    rbp,rsp
  3fcb09:	48 83 ec 10          	sub    rsp,0x10
  3fcb0d:	48 89 7d f8          	mov    QWORD PTR [rbp-0x8],rdi
  3fcb11:	48 8b 45 f8          	mov    rax,QWORD PTR [rbp-0x8]
  3fcb15:	48 89 c7             	mov    rdi,rax
  3fcb18:	e8 7c 00 00 00       	call   3fcb99 <_init-0x4467>
  3fcb1d:	48 89 c2             	mov    rdx,rax
  3fcb20:	48 8b 45 f8          	mov    rax,QWORD PTR [rbp-0x8]
  3fcb24:	48 89 c6             	mov    rsi,rax
  3fcb27:	bf 01 00 00 00       	mov    edi,0x1
  3fcb2c:	e8 03 f6 ff ff       	call   3fc134 <_init-0x4ecc>
  3fcb31:	bf 01 00 00 00       	mov    edi,0x1
  3fcb36:	e8 e6 f6 ff ff       	call   3fc221 <_init-0x4ddf>
  3fcb3b:	b8 01 00 00 00       	mov    eax,0x1
  3fcb40:	c9                   	leave  
  3fcb41:	c3                   	ret    
  3fcb42:	f3 0f 1e fa          	endbr64 
  3fcb46:	55                   	push   rbp
  3fcb47:	48 89 e5             	mov    rbp,rsp
  3fcb4a:	48 83 ec 10          	sub    rsp,0x10
  3fcb4e:	48 89 7d f8          	mov    QWORD PTR [rbp-0x8],rdi
  3fcb52:	48 8b 45 f8          	mov    rax,QWORD PTR [rbp-0x8]
  3fcb56:	48 89 c7             	mov    rdi,rax
  3fcb59:	e8 3b 00 00 00       	call   3fcb99 <_init-0x4467>
  3fcb5e:	48 89 c2             	mov    rdx,rax
  3fcb61:	48 8b 45 f8          	mov    rax,QWORD PTR [rbp-0x8]
  3fcb65:	48 89 c6             	mov    rsi,rax
  3fcb68:	bf 01 00 00 00       	mov    edi,0x1
  3fcb6d:	e8 c2 f5 ff ff       	call   3fc134 <_init-0x4ecc>
  3fcb72:	ba 01 00 00 00       	mov    edx,0x1
  3fcb77:	48 8d 35 21 03 00 00 	lea    rsi,[rip+0x321]        # 3fce9f <_init-0x4161>
  3fcb7e:	bf 01 00 00 00       	mov    edi,0x1
  3fcb83:	e8 ac f5 ff ff       	call   3fc134 <_init-0x4ecc>
  3fcb88:	bf 01 00 00 00       	mov    edi,0x1
  3fcb8d:	e8 8f f6 ff ff       	call   3fc221 <_init-0x4ddf>
  3fcb92:	b8 01 00 00 00       	mov    eax,0x1
  3fcb97:	c9                   	leave  
  3fcb98:	c3                   	ret    
  3fcb99:	f3 0f 1e fa          	endbr64 
  3fcb9d:	55                   	push   rbp
  3fcb9e:	48 89 e5             	mov    rbp,rsp
  3fcba1:	48 89 7d e8          	mov    QWORD PTR [rbp-0x18],rdi
  3fcba5:	48 c7 45 f8 00 00 00 	mov    QWORD PTR [rbp-0x8],0x0
  3fcbac:	00 
  3fcbad:	eb 05                	jmp    3fcbb4 <_init-0x444c>
  3fcbaf:	48 83 45 f8 01       	add    QWORD PTR [rbp-0x8],0x1
  3fcbb4:	48 8b 55 e8          	mov    rdx,QWORD PTR [rbp-0x18]
  3fcbb8:	48 8b 45 f8          	mov    rax,QWORD PTR [rbp-0x8]
  3fcbbc:	48 01 d0             	add    rax,rdx
  3fcbbf:	0f b6 00             	movzx  eax,BYTE PTR [rax]
  3fcbc2:	84 c0                	test   al,al
  3fcbc4:	75 e9                	jne    3fcbaf <_init-0x4451>
  3fcbc6:	48 8b 45 f8          	mov    rax,QWORD PTR [rbp-0x8]
  3fcbca:	5d                   	pop    rbp
  3fcbcb:	c3                   	ret    
  3fcbcc:	f3 0f 1e fa          	endbr64 
  3fcbd0:	55                   	push   rbp
  3fcbd1:	48 89 e5             	mov    rbp,rsp
  3fcbd4:	89 f8                	mov    eax,edi
  3fcbd6:	88 45 fc             	mov    BYTE PTR [rbp-0x4],al
  3fcbd9:	80 7d fc 60          	cmp    BYTE PTR [rbp-0x4],0x60
  3fcbdd:	7e 16                	jle    3fcbf5 <_init-0x440b>
  3fcbdf:	80 7d fc 7a          	cmp    BYTE PTR [rbp-0x4],0x7a
  3fcbe3:	7f 10                	jg     3fcbf5 <_init-0x440b>
  3fcbe5:	0f b6 45 fc          	movzx  eax,BYTE PTR [rbp-0x4]
  3fcbe9:	83 e8 20             	sub    eax,0x20
  3fcbec:	88 45 fc             	mov    BYTE PTR [rbp-0x4],al
  3fcbef:	0f b6 45 fc          	movzx  eax,BYTE PTR [rbp-0x4]
  3fcbf3:	eb 04                	jmp    3fcbf9 <_init-0x4407>
  3fcbf5:	0f b6 45 fc          	movzx  eax,BYTE PTR [rbp-0x4]
  3fcbf9:	5d                   	pop    rbp
  3fcbfa:	c3                   	ret    
  3fcbfb:	f3 0f 1e fa          	endbr64 
  3fcbff:	55                   	push   rbp
  3fcc00:	48 89 e5             	mov    rbp,rsp
  3fcc03:	48 89 7d f8          	mov    QWORD PTR [rbp-0x8],rdi
  3fcc07:	48 89 75 f0          	mov    QWORD PTR [rbp-0x10],rsi
  3fcc0b:	48 89 55 e8          	mov    QWORD PTR [rbp-0x18],rdx
  3fcc0f:	eb 53                	jmp    3fcc64 <_init-0x439c>
  3fcc11:	48 8b 45 f8          	mov    rax,QWORD PTR [rbp-0x8]
  3fcc15:	0f b6 10             	movzx  edx,BYTE PTR [rax]
  3fcc18:	48 8b 45 f0          	mov    rax,QWORD PTR [rbp-0x10]
  3fcc1c:	0f b6 00             	movzx  eax,BYTE PTR [rax]
  3fcc1f:	38 c2                	cmp    dl,al
  3fcc21:	74 20                	je     3fcc43 <_init-0x43bd>
  3fcc23:	48 8b 45 f8          	mov    rax,QWORD PTR [rbp-0x8]
  3fcc27:	0f b6 10             	movzx  edx,BYTE PTR [rax]
  3fcc2a:	48 8b 45 f0          	mov    rax,QWORD PTR [rbp-0x10]
  3fcc2e:	0f b6 00             	movzx  eax,BYTE PTR [rax]
  3fcc31:	38 c2                	cmp    dl,al
  3fcc33:	73 07                	jae    3fcc3c <_init-0x43c4>
  3fcc35:	b8 ff ff ff ff       	mov    eax,0xffffffff
  3fcc3a:	eb 34                	jmp    3fcc70 <_init-0x4390>
  3fcc3c:	b8 01 00 00 00       	mov    eax,0x1
  3fcc41:	eb 2d                	jmp    3fcc70 <_init-0x4390>
  3fcc43:	48 8b 45 f8          	mov    rax,QWORD PTR [rbp-0x8]
  3fcc47:	0f b6 00             	movzx  eax,BYTE PTR [rax]
  3fcc4a:	84 c0                	test   al,al
  3fcc4c:	75 07                	jne    3fcc55 <_init-0x43ab>
  3fcc4e:	b8 00 00 00 00       	mov    eax,0x0
  3fcc53:	eb 1b                	jmp    3fcc70 <_init-0x4390>
  3fcc55:	48 83 45 f8 01       	add    QWORD PTR [rbp-0x8],0x1
  3fcc5a:	48 83 45 f0 01       	add    QWORD PTR [rbp-0x10],0x1
  3fcc5f:	48 83 6d e8 01       	sub    QWORD PTR [rbp-0x18],0x1
  3fcc64:	48 83 7d e8 00       	cmp    QWORD PTR [rbp-0x18],0x0
  3fcc69:	75 a6                	jne    3fcc11 <_init-0x43ef>
  3fcc6b:	b8 00 00 00 00       	mov    eax,0x0
  3fcc70:	5d                   	pop    rbp
  3fcc71:	c3                   	ret    
  3fcc72:	f3 0f 1e fa          	endbr64 
  3fcc76:	55                   	push   rbp
  3fcc77:	48 89 e5             	mov    rbp,rsp
  3fcc7a:	48 89 7d f8          	mov    QWORD PTR [rbp-0x8],rdi
  3fcc7e:	48 89 75 f0          	mov    QWORD PTR [rbp-0x10],rsi
  3fcc82:	eb 1c                	jmp    3fcca0 <_init-0x4360>
  3fcc84:	48 8b 45 f8          	mov    rax,QWORD PTR [rbp-0x8]
  3fcc88:	0f b6 00             	movzx  eax,BYTE PTR [rax]
  3fcc8b:	84 c0                	test   al,al
  3fcc8d:	75 07                	jne    3fcc96 <_init-0x436a>
  3fcc8f:	b8 00 00 00 00       	mov    eax,0x0
  3fcc94:	eb 3a                	jmp    3fccd0 <_init-0x4330>
  3fcc96:	48 83 45 f8 01       	add    QWORD PTR [rbp-0x8],0x1
  3fcc9b:	48 83 45 f0 01       	add    QWORD PTR [rbp-0x10],0x1
  3fcca0:	48 8b 45 f8          	mov    rax,QWORD PTR [rbp-0x8]
  3fcca4:	0f b6 10             	movzx  edx,BYTE PTR [rax]
  3fcca7:	48 8b 45 f0          	mov    rax,QWORD PTR [rbp-0x10]
  3fccab:	0f b6 00             	movzx  eax,BYTE PTR [rax]
  3fccae:	38 c2                	cmp    dl,al
  3fccb0:	74 d2                	je     3fcc84 <_init-0x437c>
  3fccb2:	48 8b 45 f8          	mov    rax,QWORD PTR [rbp-0x8]
  3fccb6:	0f b6 10             	movzx  edx,BYTE PTR [rax]
  3fccb9:	48 8b 45 f0          	mov    rax,QWORD PTR [rbp-0x10]
  3fccbd:	0f b6 00             	movzx  eax,BYTE PTR [rax]
  3fccc0:	38 c2                	cmp    dl,al
  3fccc2:	73 07                	jae    3fcccb <_init-0x4335>
  3fccc4:	b8 ff ff ff ff       	mov    eax,0xffffffff
  3fccc9:	eb 05                	jmp    3fccd0 <_init-0x4330>
  3fcccb:	b8 01 00 00 00       	mov    eax,0x1
  3fccd0:	5d                   	pop    rbp
  3fccd1:	c3                   	ret    
  3fccd2:	f3 0f 1e fa          	endbr64 
  3fccd6:	55                   	push   rbp
  3fccd7:	48 89 e5             	mov    rbp,rsp
  3fccda:	48 89 7d e8          	mov    QWORD PTR [rbp-0x18],rdi
  3fccde:	48 89 75 e0          	mov    QWORD PTR [rbp-0x20],rsi
  3fcce2:	89 55 dc             	mov    DWORD PTR [rbp-0x24],edx
  3fcce5:	eb 35                	jmp    3fcd1c <_init-0x42e4>
  3fcce7:	48 8b 45 e8          	mov    rax,QWORD PTR [rbp-0x18]
  3fcceb:	0f b6 00             	movzx  eax,BYTE PTR [rax]
  3fccee:	88 45 ff             	mov    BYTE PTR [rbp-0x1],al
  3fccf1:	48 8b 45 e0          	mov    rax,QWORD PTR [rbp-0x20]
  3fccf5:	0f b6 00             	movzx  eax,BYTE PTR [rax]
  3fccf8:	88 45 fe             	mov    BYTE PTR [rbp-0x2],al
  3fccfb:	0f b6 45 ff          	movzx  eax,BYTE PTR [rbp-0x1]
  3fccff:	3a 45 fe             	cmp    al,BYTE PTR [rbp-0x2]
  3fcd02:	74 0e                	je     3fcd12 <_init-0x42ee>
  3fcd04:	0f b6 55 ff          	movzx  edx,BYTE PTR [rbp-0x1]
  3fcd08:	0f b6 45 fe          	movzx  eax,BYTE PTR [rbp-0x2]
  3fcd0c:	29 c2                	sub    edx,eax
  3fcd0e:	89 d0                	mov    eax,edx
  3fcd10:	eb 17                	jmp    3fcd29 <_init-0x42d7>
  3fcd12:	48 83 45 e8 01       	add    QWORD PTR [rbp-0x18],0x1
  3fcd17:	48 83 45 e0 01       	add    QWORD PTR [rbp-0x20],0x1
  3fcd1c:	8b 45 dc             	mov    eax,DWORD PTR [rbp-0x24]
  3fcd1f:	8d 50 ff             	lea    edx,[rax-0x1]
  3fcd22:	89 55 dc             	mov    DWORD PTR [rbp-0x24],edx
  3fcd25:	85 c0                	test   eax,eax
  3fcd27:	75 be                	jne    3fcce7 <_init-0x4319>
  3fcd29:	5d                   	pop    rbp
  3fcd2a:	c3                   	ret    
  3fcd2b:	f3 0f 1e fa          	endbr64 
  3fcd2f:	55                   	push   rbp
  3fcd30:	48 89 e5             	mov    rbp,rsp
  3fcd33:	e8 00 00 00 00       	call   3fcd38 <_init-0x42c8>
  3fcd38:	58                   	pop    rax
  3fcd39:	48 89 c0             	mov    rax,rax
  3fcd3c:	48 89 45 f8          	mov    QWORD PTR [rbp-0x8],rax
  3fcd40:	48 8b 45 f8          	mov    rax,QWORD PTR [rbp-0x8]
  3fcd44:	5d                   	pop    rbp
  3fcd45:	c3                   	ret    
  3fcd46:	68 50 10 40 00       	push   0x401050
  3fcd4b:	c3                   	ret    
  3fcd4c:	89 e5                	mov    ebp,esp
  3fcd4e:	bf 00 00 00 00       	mov    edi,0x0
  3fcd53:	e8 33 f3 ff ff       	call   3fc08b <_init-0x4f75>
  3fcd58:	90                   	nop
  3fcd59:	5d                   	pop    rbp
  3fcd5a:	c3                   	ret    
  3fcd5b:	f3 0f 1e fa          	endbr64 
  3fcd5f:	55                   	push   rbp
  3fcd60:	48 89 e5             	mov    rbp,rsp
  3fcd63:	90                   	nop
  3fcd64:	90                   	nop
  3fcd65:	5d                   	pop    rbp
  3fcd66:	c3                   	ret    
  3fcd67:	f3 0f 1e fa          	endbr64 
  3fcd6b:	55                   	push   rbp
  3fcd6c:	48 89 e5             	mov    rbp,rsp
  3fcd6f:	ba ed 3b 00 00       	mov    edx,0x3bed
  3fcd74:	48 c7 c0 00 30 40 00 	mov    rax,0x403000
  3fcd7b:	48 89 c6             	mov    rsi,rax
  3fcd7e:	bf 01 00 00 00       	mov    edi,0x1
  3fcd83:	e8 ac f3 ff ff       	call   3fc134 <_init-0x4ecc>
  3fcd88:	90                   	nop
  3fcd89:	5d                   	pop    rbp
  3fcd8a:	c3                   	ret    
	...
  3fcda3:	00 17                	add    BYTE PTR [rdi],dl
  3fcda5:	d4                   	(bad)  
  3fcda6:	ff                   	(bad)  
  3fcda7:	ff 2c d4             	jmp    FWORD PTR [rsp+rdx*8]
  3fcdaa:	ff                   	(bad)  
  3fcdab:	ff 2c d4             	jmp    FWORD PTR [rsp+rdx*8]
  3fcdae:	ff                   	(bad)  
  3fcdaf:	ff 2c d4             	jmp    FWORD PTR [rsp+rdx*8]
  3fcdb2:	ff                   	(bad)  
  3fcdb3:	ff c3                	inc    ebx
  3fcdb5:	d3 ff                	sar    edi,cl
  3fcdb7:	ff 2c d4             	jmp    FWORD PTR [rsp+rdx*8]
  3fcdba:	ff                   	(bad)  
  3fcdbb:	ff 2c d4             	jmp    FWORD PTR [rsp+rdx*8]
  3fcdbe:	ff                   	(bad)  
  3fcdbf:	ff 2c d4             	jmp    FWORD PTR [rsp+rdx*8]
  3fcdc2:	ff                   	(bad)  
  3fcdc3:	ff ab d3 ff ff 2c    	jmp    FWORD PTR [rbx+0x2cffffd3]
  3fcdc9:	d4                   	(bad)  
  3fcdca:	ff                   	(bad)  
  3fcdcb:	ff 2c d4             	jmp    FWORD PTR [rsp+rdx*8]
  3fcdce:	ff                   	(bad)  
  3fcdcf:	ff 2c d4             	jmp    FWORD PTR [rsp+rdx*8]
  3fcdd2:	ff                   	(bad)  
  3fcdd3:	ff 2c d4             	jmp    FWORD PTR [rsp+rdx*8]
  3fcdd6:	ff                   	(bad)  
  3fcdd7:	ff 2c d4             	jmp    FWORD PTR [rsp+rdx*8]
  3fcdda:	ff                   	(bad)  
  3fcddb:	ff 02                	inc    DWORD PTR [rdx]
  3fcddd:	d4                   	(bad)  
  3fcdde:	ff                   	(bad)  
  3fcddf:	ff 2c d4             	jmp    FWORD PTR [rsp+rdx*8]
  3fcde2:	ff                   	(bad)  
  3fcde3:	ff 2c d4             	jmp    FWORD PTR [rsp+rdx*8]
  3fcde6:	ff                   	(bad)  
  3fcde7:	ff 2c d4             	jmp    FWORD PTR [rsp+rdx*8]
  3fcdea:	ff                   	(bad)  
  3fcdeb:	ff                   	(bad)  
  3fcdec:	d8 d3                	fcom   st(3)
  3fcdee:	ff                   	(bad)  
  3fcdef:	ff                   	(bad)  
  3fcdf0:	ed                   	in     eax,dx
  3fcdf1:	d3 ff                	sar    edi,cl
  3fcdf3:	ff 2e                	jmp    FWORD PTR [rsi]
  3fcdf5:	78 79                	js     3fce70 <_init-0x4190>
  3fcdf7:	7a 2e                	jp     3fce27 <_init-0x41d9>
  3fcdf9:	73 6b                	jae    3fce66 <_init-0x419a>
  3fcdfb:	65 6b 73 69 2e       	imul   esi,DWORD PTR gs:[rbx+0x69],0x2e
  3fce00:	65 6c                	gs ins BYTE PTR es:[rdi],dx
  3fce02:	66 36 34 00          	data16 ss xor al,0x0
  3fce06:	2e 74 65             	cs je  3fce6e <_init-0x4192>
  3fce09:	78 74                	js     3fce7f <_init-0x4181>
  3fce0b:	00 70 75             	add    BYTE PTR [rax+0x75],dh
  3fce0e:	74 73                	je     3fce83 <_init-0x417d>
  3fce10:	00 00                	add    BYTE PTR [rax],al
  3fce12:	00 00                	add    BYTE PTR [rax],al
  3fce14:	64 eb ff             	fs jmp 3fce16 <_init-0x41ea>
  3fce17:	ff 64 eb ff          	jmp    QWORD PTR [rbx+rbp*8-0x1]
  3fce1b:	ff 48 eb             	dec    DWORD PTR [rax-0x15]
  3fce1e:	ff                   	(bad)  
  3fce1f:	ff                   	(bad)  
  3fce20:	7b ea                	jnp    3fce0c <_init-0x41f4>
  3fce22:	ff                   	(bad)  
  3fce23:	ff 64 eb ff          	jmp    QWORD PTR [rbx+rbp*8-0x1]
  3fce27:	ff                   	(bad)  
  3fce28:	bf ea ff ff 42       	mov    edi,0x42ffffea
  3fce2d:	ea                   	(bad)  
  3fce2e:	ff                   	(bad)  
  3fce2f:	ff 64 eb ff          	jmp    QWORD PTR [rbx+rbp*8-0x1]
  3fce33:	ff 64 eb ff          	jmp    QWORD PTR [rbx+rbp*8-0x1]
  3fce37:	ff 64 eb ff          	jmp    QWORD PTR [rbx+rbp*8-0x1]
  3fce3b:	ff f5                	push   rbp
  3fce3d:	ea                   	(bad)  
  3fce3e:	ff                   	(bad)  
  3fce3f:	ff 64 eb ff          	jmp    QWORD PTR [rbx+rbp*8-0x1]
  3fce43:	ff 64 eb ff          	jmp    QWORD PTR [rbx+rbp*8-0x1]
  3fce47:	ff 64 eb ff          	jmp    QWORD PTR [rbx+rbp*8-0x1]
  3fce4b:	ff 64 eb ff          	jmp    QWORD PTR [rbx+rbp*8-0x1]
  3fce4f:	ff 64 eb ff          	jmp    QWORD PTR [rbx+rbp*8-0x1]
  3fce53:	ff 64 eb ff          	jmp    QWORD PTR [rbx+rbp*8-0x1]
  3fce57:	ff 64 eb ff          	jmp    QWORD PTR [rbx+rbp*8-0x1]
  3fce5b:	ff 64 eb ff          	jmp    QWORD PTR [rbx+rbp*8-0x1]
  3fce5f:	ff 64 eb ff          	jmp    QWORD PTR [rbx+rbp*8-0x1]
  3fce63:	ff 64 eb ff          	jmp    QWORD PTR [rbx+rbp*8-0x1]
  3fce67:	ff 64 eb ff          	jmp    QWORD PTR [rbx+rbp*8-0x1]
  3fce6b:	ff 64 eb ff          	jmp    QWORD PTR [rbx+rbp*8-0x1]
  3fce6f:	ff 12                	call   QWORD PTR [rdx]
  3fce71:	eb ff                	jmp    3fce72 <_init-0x418e>
  3fce73:	ff                   	(bad)  
  3fce74:	7f 45                	jg     3fcebb <_init-0x4145>
  3fce76:	4c                   	rex.WR
  3fce77:	46 00 2f             	rex.RX add BYTE PTR [rdi],r13b
  3fce7a:	73 62                	jae    3fcede <_init-0x4122>
  3fce7c:	69 6e 00 2f 75 73 72 	imul   ebp,DWORD PTR [rsi+0x0],0x7273752f
  3fce83:	2f                   	(bad)  
  3fce84:	73 62                	jae    3fcee8 <_init-0x4118>
  3fce86:	69 6e 00 2f 62 69 6e 	imul   ebp,DWORD PTR [rsi+0x0],0x6e69622f
  3fce8d:	00 2f                	add    BYTE PTR [rdi],ch
  3fce8f:	75 73                	jne    3fcf04 <_init-0x40fc>
  3fce91:	72 2f                	jb     3fcec2 <_init-0x413e>
  3fce93:	62                   	(bad)  
  3fce94:	69 6e 00 2e 00 76 69 	imul   ebp,DWORD PTR [rsi+0x0],0x6976002e
  3fce9b:	72 75                	jb     3fcf12 <_init-0x40ee>
  3fce9d:	73 00                	jae    3fce9f <_init-0x4161>
  3fce9f:	0a 00                	or     al,BYTE PTR [rax]
  3fcea1:	00 00                	add    BYTE PTR [rax],al
  3fcea3:	00 1b                	add    BYTE PTR [rbx],bl
  3fcea5:	5b                   	pop    rbx
  3fcea6:	30 3b                	xor    BYTE PTR [rbx],bh
  3fcea8:	31 3b                	xor    DWORD PTR [rbx],edi
  3fceaa:	33 30                	xor    esi,DWORD PTR [rax]
  3fceac:	3b 34 30             	cmp    esi,DWORD PTR [rax+rsi*1]
  3fceaf:	6d                   	ins    DWORD PTR es:[rdi],dx
  3fceb0:	40 1b 5b 30          	rex sbb ebx,DWORD PTR [rbx+0x30]
  3fceb4:	3b 33                	cmp    esi,DWORD PTR [rbx]
  3fceb6:	31 3b                	xor    DWORD PTR [rbx],edi
  3fceb8:	34 30                	xor    al,0x30
  3fceba:	6d                   	ins    DWORD PTR es:[rdi],dx
  3fcebb:	38 1b                	cmp    BYTE PTR [rbx],bl
  3fcebd:	5b                   	pop    rbx
  3fcebe:	30 3b                	xor    BYTE PTR [rbx],bh
  3fcec0:	35 3b 33 30 3b       	xor    eax,0x3b30333b
  3fcec5:	34 30                	xor    al,0x30
  3fcec7:	6d                   	ins    DWORD PTR es:[rdi],dx
  3fcec8:	38 1b                	cmp    BYTE PTR [rbx],bl
  3fceca:	5b                   	pop    rbx
  3fcecb:	30 3b                	xor    BYTE PTR [rbx],bh
  3fcecd:	33 31                	xor    esi,DWORD PTR [rcx]
  3fcecf:	3b 34 30             	cmp    esi,DWORD PTR [rax+rsi*1]
  3fced2:	6d                   	ins    DWORD PTR es:[rdi],dx
  3fced3:	40 1b 5b 30          	rex sbb ebx,DWORD PTR [rbx+0x30]
  3fced7:	3b 35 3b 33 30 3b    	cmp    esi,DWORD PTR [rip+0x3b30333b]        # 3b700218 <_end+0x3b2fc1e0>
  3fcedd:	34 30                	xor    al,0x30
  3fcedf:	6d                   	ins    DWORD PTR es:[rdi],dx
  3fcee0:	38 1b                	cmp    BYTE PTR [rbx],bl
  3fcee2:	5b                   	pop    rbx
  3fcee3:	30 3b                	xor    BYTE PTR [rbx],bh
  3fcee5:	33 31                	xor    esi,DWORD PTR [rcx]
  3fcee7:	3b 34 30             	cmp    esi,DWORD PTR [rax+rsi*1]
  3fceea:	6d                   	ins    DWORD PTR es:[rdi],dx
  3fceeb:	40 1b 5b 30          	rex sbb ebx,DWORD PTR [rbx+0x30]
  3fceef:	3b 35 3b 33 30 3b    	cmp    esi,DWORD PTR [rip+0x3b30333b]        # 3b700230 <_end+0x3b2fc1f8>
  3fcef5:	34 30                	xor    al,0x30
  3fcef7:	6d                   	ins    DWORD PTR es:[rdi],dx
  3fcef8:	38 1b                	cmp    BYTE PTR [rbx],bl
  3fcefa:	5b                   	pop    rbx
  3fcefb:	30 3b                	xor    BYTE PTR [rbx],bh
  3fcefd:	33 31                	xor    esi,DWORD PTR [rcx]
  3fceff:	3b 34 30             	cmp    esi,DWORD PTR [rax+rsi*1]
  3fcf02:	6d                   	ins    DWORD PTR es:[rdi],dx
  3fcf03:	40 1b 5b 30          	rex sbb ebx,DWORD PTR [rbx+0x30]
  3fcf07:	3b 35 3b 33 30 3b    	cmp    esi,DWORD PTR [rip+0x3b30333b]        # 3b700248 <_end+0x3b2fc210>
  3fcf0d:	34 30                	xor    al,0x30
  3fcf0f:	6d                   	ins    DWORD PTR es:[rdi],dx
  3fcf10:	38 1b                	cmp    BYTE PTR [rbx],bl
  3fcf12:	5b                   	pop    rbx
  3fcf13:	30 3b                	xor    BYTE PTR [rbx],bh
  3fcf15:	33 31                	xor    esi,DWORD PTR [rcx]
  3fcf17:	3b 34 30             	cmp    esi,DWORD PTR [rax+rsi*1]
  3fcf1a:	6d                   	ins    DWORD PTR es:[rdi],dx
  3fcf1b:	40 1b 5b 30          	rex sbb ebx,DWORD PTR [rbx+0x30]
  3fcf1f:	3b 35 3b 33 30 3b    	cmp    esi,DWORD PTR [rip+0x3b30333b]        # 3b700260 <_end+0x3b2fc228>
  3fcf25:	34 30                	xor    al,0x30
  3fcf27:	6d                   	ins    DWORD PTR es:[rdi],dx
  3fcf28:	38 1b                	cmp    BYTE PTR [rbx],bl
  3fcf2a:	5b                   	pop    rbx
  3fcf2b:	30 3b                	xor    BYTE PTR [rbx],bh
  3fcf2d:	33 31                	xor    esi,DWORD PTR [rcx]
  3fcf2f:	3b 34 30             	cmp    esi,DWORD PTR [rax+rsi*1]
  3fcf32:	6d                   	ins    DWORD PTR es:[rdi],dx
  3fcf33:	40 1b 5b 30          	rex sbb ebx,DWORD PTR [rbx+0x30]
  3fcf37:	3b 35 3b 33 30 3b    	cmp    esi,DWORD PTR [rip+0x3b30333b]        # 3b700278 <_end+0x3b2fc240>
  3fcf3d:	34 30                	xor    al,0x30
  3fcf3f:	6d                   	ins    DWORD PTR es:[rdi],dx
  3fcf40:	38 1b                	cmp    BYTE PTR [rbx],bl
  3fcf42:	5b                   	pop    rbx
  3fcf43:	30 3b                	xor    BYTE PTR [rbx],bh
  3fcf45:	33 31                	xor    esi,DWORD PTR [rcx]
  3fcf47:	3b 34 30             	cmp    esi,DWORD PTR [rax+rsi*1]
  3fcf4a:	6d                   	ins    DWORD PTR es:[rdi],dx
  3fcf4b:	40 1b 5b 30          	rex sbb ebx,DWORD PTR [rbx+0x30]
  3fcf4f:	3b 35 3b 33 30 3b    	cmp    esi,DWORD PTR [rip+0x3b30333b]        # 3b700290 <_end+0x3b2fc258>
  3fcf55:	34 30                	xor    al,0x30
  3fcf57:	6d                   	ins    DWORD PTR es:[rdi],dx
  3fcf58:	38 1b                	cmp    BYTE PTR [rbx],bl
  3fcf5a:	5b                   	pop    rbx
  3fcf5b:	30 3b                	xor    BYTE PTR [rbx],bh
  3fcf5d:	33 31                	xor    esi,DWORD PTR [rcx]
  3fcf5f:	3b 34 30             	cmp    esi,DWORD PTR [rax+rsi*1]
  3fcf62:	6d                   	ins    DWORD PTR es:[rdi],dx
  3fcf63:	40 1b 5b 30          	rex sbb ebx,DWORD PTR [rbx+0x30]
  3fcf67:	3b 35 3b 33 30 3b    	cmp    esi,DWORD PTR [rip+0x3b30333b]        # 3b7002a8 <_end+0x3b2fc270>
  3fcf6d:	34 30                	xor    al,0x30
  3fcf6f:	6d                   	ins    DWORD PTR es:[rdi],dx
  3fcf70:	38 1b                	cmp    BYTE PTR [rbx],bl
  3fcf72:	5b                   	pop    rbx
  3fcf73:	30 3b                	xor    BYTE PTR [rbx],bh
  3fcf75:	33 31                	xor    esi,DWORD PTR [rcx]
  3fcf77:	3b 34 30             	cmp    esi,DWORD PTR [rax+rsi*1]
  3fcf7a:	6d                   	ins    DWORD PTR es:[rdi],dx
  3fcf7b:	40 1b 5b 30          	rex sbb ebx,DWORD PTR [rbx+0x30]
  3fcf7f:	3b 35 3b 33 30 3b    	cmp    esi,DWORD PTR [rip+0x3b30333b]        # 3b7002c0 <_end+0x3b2fc288>
  3fcf85:	34 30                	xor    al,0x30
  3fcf87:	6d                   	ins    DWORD PTR es:[rdi],dx
  3fcf88:	38 1b                	cmp    BYTE PTR [rbx],bl
  3fcf8a:	5b                   	pop    rbx
  3fcf8b:	30 3b                	xor    BYTE PTR [rbx],bh
  3fcf8d:	33 31                	xor    esi,DWORD PTR [rcx]
  3fcf8f:	3b 34 30             	cmp    esi,DWORD PTR [rax+rsi*1]
  3fcf92:	6d                   	ins    DWORD PTR es:[rdi],dx
  3fcf93:	40 1b 5b 30          	rex sbb ebx,DWORD PTR [rbx+0x30]
  3fcf97:	3b 35 3b 33 30 3b    	cmp    esi,DWORD PTR [rip+0x3b30333b]        # 3b7002d8 <_end+0x3b2fc2a0>
  3fcf9d:	34 30                	xor    al,0x30
  3fcf9f:	6d                   	ins    DWORD PTR es:[rdi],dx
  3fcfa0:	38 1b                	cmp    BYTE PTR [rbx],bl
  3fcfa2:	5b                   	pop    rbx
  3fcfa3:	30 3b                	xor    BYTE PTR [rbx],bh
  3fcfa5:	33 31                	xor    esi,DWORD PTR [rcx]
  3fcfa7:	3b 34 30             	cmp    esi,DWORD PTR [rax+rsi*1]
  3fcfaa:	6d                   	ins    DWORD PTR es:[rdi],dx
  3fcfab:	40 1b 5b 30          	rex sbb ebx,DWORD PTR [rbx+0x30]
  3fcfaf:	3b 35 3b 33 30 3b    	cmp    esi,DWORD PTR [rip+0x3b30333b]        # 3b7002f0 <_end+0x3b2fc2b8>
  3fcfb5:	34 30                	xor    al,0x30
  3fcfb7:	6d                   	ins    DWORD PTR es:[rdi],dx
  3fcfb8:	38 1b                	cmp    BYTE PTR [rbx],bl
  3fcfba:	5b                   	pop    rbx
  3fcfbb:	30 3b                	xor    BYTE PTR [rbx],bh
  3fcfbd:	33 31                	xor    esi,DWORD PTR [rcx]
  3fcfbf:	3b 34 30             	cmp    esi,DWORD PTR [rax+rsi*1]
  3fcfc2:	6d                   	ins    DWORD PTR es:[rdi],dx
  3fcfc3:	40 1b 5b 30          	rex sbb ebx,DWORD PTR [rbx+0x30]
  3fcfc7:	3b 35 3b 33 30 3b    	cmp    esi,DWORD PTR [rip+0x3b30333b]        # 3b700308 <_end+0x3b2fc2d0>
  3fcfcd:	34 30                	xor    al,0x30
  3fcfcf:	6d                   	ins    DWORD PTR es:[rdi],dx
  3fcfd0:	38 1b                	cmp    BYTE PTR [rbx],bl
  3fcfd2:	5b                   	pop    rbx
  3fcfd3:	30 3b                	xor    BYTE PTR [rbx],bh
  3fcfd5:	33 31                	xor    esi,DWORD PTR [rcx]
  3fcfd7:	3b 34 30             	cmp    esi,DWORD PTR [rax+rsi*1]
  3fcfda:	6d                   	ins    DWORD PTR es:[rdi],dx
  3fcfdb:	40 1b 5b 30          	rex sbb ebx,DWORD PTR [rbx+0x30]
  3fcfdf:	3b 35 3b 33 30 3b    	cmp    esi,DWORD PTR [rip+0x3b30333b]        # 3b700320 <_end+0x3b2fc2e8>
  3fcfe5:	34 30                	xor    al,0x30
  3fcfe7:	6d                   	ins    DWORD PTR es:[rdi],dx
  3fcfe8:	38 1b                	cmp    BYTE PTR [rbx],bl
  3fcfea:	5b                   	pop    rbx
  3fcfeb:	30 3b                	xor    BYTE PTR [rbx],bh
  3fcfed:	33 31                	xor    esi,DWORD PTR [rcx]
  3fcfef:	3b 34 30             	cmp    esi,DWORD PTR [rax+rsi*1]
  3fcff2:	6d                   	ins    DWORD PTR es:[rdi],dx
  3fcff3:	40 1b 5b 30          	rex sbb ebx,DWORD PTR [rbx+0x30]
  3fcff7:	3b 35 3b 33 30 3b    	cmp    esi,DWORD PTR [rip+0x3b30333b]        # 3b700338 <_end+0x3b2fc300>
  3fcffd:	34 30                	xor    al,0x30
  3fcfff:	6d                   	ins    DWORD PTR es:[rdi],dx
  3fd000:	38 1b                	cmp    BYTE PTR [rbx],bl
  3fd002:	5b                   	pop    rbx
  3fd003:	30 3b                	xor    BYTE PTR [rbx],bh
  3fd005:	33 31                	xor    esi,DWORD PTR [rcx]
  3fd007:	3b 34 30             	cmp    esi,DWORD PTR [rax+rsi*1]
  3fd00a:	6d                   	ins    DWORD PTR es:[rdi],dx
  3fd00b:	40 1b 5b 30          	rex sbb ebx,DWORD PTR [rbx+0x30]
  3fd00f:	3b 35 3b 33 30 3b    	cmp    esi,DWORD PTR [rip+0x3b30333b]        # 3b700350 <_end+0x3b2fc318>
  3fd015:	34 30                	xor    al,0x30
  3fd017:	6d                   	ins    DWORD PTR es:[rdi],dx
  3fd018:	38 1b                	cmp    BYTE PTR [rbx],bl
  3fd01a:	5b                   	pop    rbx
  3fd01b:	30 3b                	xor    BYTE PTR [rbx],bh
  3fd01d:	33 31                	xor    esi,DWORD PTR [rcx]
  3fd01f:	3b 34 30             	cmp    esi,DWORD PTR [rax+rsi*1]
  3fd022:	6d                   	ins    DWORD PTR es:[rdi],dx
  3fd023:	40 1b 5b 30          	rex sbb ebx,DWORD PTR [rbx+0x30]
  3fd027:	3b 35 3b 33 30 3b    	cmp    esi,DWORD PTR [rip+0x3b30333b]        # 3b700368 <_end+0x3b2fc330>
  3fd02d:	34 30                	xor    al,0x30
  3fd02f:	6d                   	ins    DWORD PTR es:[rdi],dx
  3fd030:	38 1b                	cmp    BYTE PTR [rbx],bl
  3fd032:	5b                   	pop    rbx
  3fd033:	30 3b                	xor    BYTE PTR [rbx],bh
  3fd035:	33 31                	xor    esi,DWORD PTR [rcx]
  3fd037:	3b 34 30             	cmp    esi,DWORD PTR [rax+rsi*1]
  3fd03a:	6d                   	ins    DWORD PTR es:[rdi],dx
  3fd03b:	40 1b 5b 30          	rex sbb ebx,DWORD PTR [rbx+0x30]
  3fd03f:	3b 35 3b 33 30 3b    	cmp    esi,DWORD PTR [rip+0x3b30333b]        # 3b700380 <_end+0x3b2fc348>
  3fd045:	34 30                	xor    al,0x30
  3fd047:	6d                   	ins    DWORD PTR es:[rdi],dx
  3fd048:	38 1b                	cmp    BYTE PTR [rbx],bl
  3fd04a:	5b                   	pop    rbx
  3fd04b:	30 3b                	xor    BYTE PTR [rbx],bh
  3fd04d:	33 31                	xor    esi,DWORD PTR [rcx]
  3fd04f:	3b 34 30             	cmp    esi,DWORD PTR [rax+rsi*1]
  3fd052:	6d                   	ins    DWORD PTR es:[rdi],dx
  3fd053:	40 1b 5b 30          	rex sbb ebx,DWORD PTR [rbx+0x30]
  3fd057:	3b 35 3b 33 30 3b    	cmp    esi,DWORD PTR [rip+0x3b30333b]        # 3b700398 <_end+0x3b2fc360>
  3fd05d:	34 30                	xor    al,0x30
  3fd05f:	6d                   	ins    DWORD PTR es:[rdi],dx
  3fd060:	38 1b                	cmp    BYTE PTR [rbx],bl
  3fd062:	5b                   	pop    rbx
  3fd063:	30 3b                	xor    BYTE PTR [rbx],bh
  3fd065:	33 31                	xor    esi,DWORD PTR [rcx]
  3fd067:	3b 34 30             	cmp    esi,DWORD PTR [rax+rsi*1]
  3fd06a:	6d                   	ins    DWORD PTR es:[rdi],dx
  3fd06b:	40 1b 5b 30          	rex sbb ebx,DWORD PTR [rbx+0x30]
  3fd06f:	3b 35 3b 33 30 3b    	cmp    esi,DWORD PTR [rip+0x3b30333b]        # 3b7003b0 <_end+0x3b2fc378>
  3fd075:	34 30                	xor    al,0x30
  3fd077:	6d                   	ins    DWORD PTR es:[rdi],dx
  3fd078:	38 1b                	cmp    BYTE PTR [rbx],bl
  3fd07a:	5b                   	pop    rbx
  3fd07b:	30 3b                	xor    BYTE PTR [rbx],bh
  3fd07d:	33 31                	xor    esi,DWORD PTR [rcx]
  3fd07f:	3b 34 30             	cmp    esi,DWORD PTR [rax+rsi*1]
  3fd082:	6d                   	ins    DWORD PTR es:[rdi],dx
  3fd083:	40 1b 5b 30          	rex sbb ebx,DWORD PTR [rbx+0x30]
  3fd087:	3b 35 3b 33 30 3b    	cmp    esi,DWORD PTR [rip+0x3b30333b]        # 3b7003c8 <_end+0x3b2fc390>
  3fd08d:	34 30                	xor    al,0x30
  3fd08f:	6d                   	ins    DWORD PTR es:[rdi],dx
  3fd090:	38 1b                	cmp    BYTE PTR [rbx],bl
  3fd092:	5b                   	pop    rbx
  3fd093:	30 3b                	xor    BYTE PTR [rbx],bh
  3fd095:	33 31                	xor    esi,DWORD PTR [rcx]
  3fd097:	3b 34 30             	cmp    esi,DWORD PTR [rax+rsi*1]
  3fd09a:	6d                   	ins    DWORD PTR es:[rdi],dx
  3fd09b:	40 1b 5b 30          	rex sbb ebx,DWORD PTR [rbx+0x30]
  3fd09f:	3b 35 3b 33 30 3b    	cmp    esi,DWORD PTR [rip+0x3b30333b]        # 3b7003e0 <_end+0x3b2fc3a8>
  3fd0a5:	34 30                	xor    al,0x30
  3fd0a7:	6d                   	ins    DWORD PTR es:[rdi],dx
  3fd0a8:	38 1b                	cmp    BYTE PTR [rbx],bl
  3fd0aa:	5b                   	pop    rbx
  3fd0ab:	30 3b                	xor    BYTE PTR [rbx],bh
  3fd0ad:	33 31                	xor    esi,DWORD PTR [rcx]
  3fd0af:	3b 34 30             	cmp    esi,DWORD PTR [rax+rsi*1]
  3fd0b2:	6d                   	ins    DWORD PTR es:[rdi],dx
  3fd0b3:	40 1b 5b 30          	rex sbb ebx,DWORD PTR [rbx+0x30]
  3fd0b7:	3b 35 3b 33 30 3b    	cmp    esi,DWORD PTR [rip+0x3b30333b]        # 3b7003f8 <_end+0x3b2fc3c0>
  3fd0bd:	34 30                	xor    al,0x30
  3fd0bf:	6d                   	ins    DWORD PTR es:[rdi],dx
  3fd0c0:	38 1b                	cmp    BYTE PTR [rbx],bl
  3fd0c2:	5b                   	pop    rbx
  3fd0c3:	30 3b                	xor    BYTE PTR [rbx],bh
  3fd0c5:	33 31                	xor    esi,DWORD PTR [rcx]
  3fd0c7:	3b 34 30             	cmp    esi,DWORD PTR [rax+rsi*1]
  3fd0ca:	6d                   	ins    DWORD PTR es:[rdi],dx
  3fd0cb:	40 1b 5b 30          	rex sbb ebx,DWORD PTR [rbx+0x30]
  3fd0cf:	3b 35 3b 33 30 3b    	cmp    esi,DWORD PTR [rip+0x3b30333b]        # 3b700410 <_end+0x3b2fc3d8>
  3fd0d5:	34 30                	xor    al,0x30
  3fd0d7:	6d                   	ins    DWORD PTR es:[rdi],dx
  3fd0d8:	38 1b                	cmp    BYTE PTR [rbx],bl
  3fd0da:	5b                   	pop    rbx
  3fd0db:	30 3b                	xor    BYTE PTR [rbx],bh
  3fd0dd:	33 31                	xor    esi,DWORD PTR [rcx]
  3fd0df:	3b 34 30             	cmp    esi,DWORD PTR [rax+rsi*1]
  3fd0e2:	6d                   	ins    DWORD PTR es:[rdi],dx
  3fd0e3:	40 1b 5b 30          	rex sbb ebx,DWORD PTR [rbx+0x30]
  3fd0e7:	3b 35 3b 33 30 3b    	cmp    esi,DWORD PTR [rip+0x3b30333b]        # 3b700428 <_end+0x3b2fc3f0>
  3fd0ed:	34 30                	xor    al,0x30
  3fd0ef:	6d                   	ins    DWORD PTR es:[rdi],dx
  3fd0f0:	38 1b                	cmp    BYTE PTR [rbx],bl
  3fd0f2:	5b                   	pop    rbx
  3fd0f3:	30 3b                	xor    BYTE PTR [rbx],bh
  3fd0f5:	33 31                	xor    esi,DWORD PTR [rcx]
  3fd0f7:	3b 34 30             	cmp    esi,DWORD PTR [rax+rsi*1]
  3fd0fa:	6d                   	ins    DWORD PTR es:[rdi],dx
  3fd0fb:	40 1b 5b 30          	rex sbb ebx,DWORD PTR [rbx+0x30]
  3fd0ff:	6d                   	ins    DWORD PTR es:[rdi],dx
  3fd100:	0d 0a 1b 5b 30       	or     eax,0x305b1b0a
  3fd105:	3b 31                	cmp    esi,DWORD PTR [rcx]
  3fd107:	3b 33                	cmp    esi,DWORD PTR [rbx]
  3fd109:	30 3b                	xor    BYTE PTR [rbx],bh
  3fd10b:	34 30                	xor    al,0x30
  3fd10d:	6d                   	ins    DWORD PTR es:[rdi],dx
  3fd10e:	40 38 38             	cmp    BYTE PTR [rax],dil
  3fd111:	38 38                	cmp    BYTE PTR [rax],bh
  3fd113:	38 38                	cmp    BYTE PTR [rax],bh
  3fd115:	38 38                	cmp    BYTE PTR [rax],bh
  3fd117:	38 38                	cmp    BYTE PTR [rax],bh
  3fd119:	38 38                	cmp    BYTE PTR [rax],bh
  3fd11b:	38 38                	cmp    BYTE PTR [rax],bh
  3fd11d:	38 38                	cmp    BYTE PTR [rax],bh
  3fd11f:	38 38                	cmp    BYTE PTR [rax],bh
  3fd121:	38 38                	cmp    BYTE PTR [rax],bh
  3fd123:	38 1b                	cmp    BYTE PTR [rbx],bl
  3fd125:	5b                   	pop    rbx
  3fd126:	30 3b                	xor    BYTE PTR [rbx],bh
  3fd128:	33 31                	xor    esi,DWORD PTR [rcx]
  3fd12a:	3b 34 30             	cmp    esi,DWORD PTR [rax+rsi*1]
  3fd12d:	6d                   	ins    DWORD PTR es:[rdi],dx
  3fd12e:	38 1b                	cmp    BYTE PTR [rbx],bl
  3fd130:	5b                   	pop    rbx
  3fd131:	30 3b                	xor    BYTE PTR [rbx],bh
  3fd133:	35 3b 33 30 3b       	xor    eax,0x3b30333b
  3fd138:	34 30                	xor    al,0x30
  3fd13a:	6d                   	ins    DWORD PTR es:[rdi],dx
  3fd13b:	38 1b                	cmp    BYTE PTR [rbx],bl
  3fd13d:	5b                   	pop    rbx
  3fd13e:	30 3b                	xor    BYTE PTR [rbx],bh
  3fd140:	31 3b                	xor    DWORD PTR [rbx],edi
  3fd142:	33 30                	xor    esi,DWORD PTR [rax]
  3fd144:	3b 34 30             	cmp    esi,DWORD PTR [rax+rsi*1]
  3fd147:	6d                   	ins    DWORD PTR es:[rdi],dx
  3fd148:	38 38                	cmp    BYTE PTR [rax],bh
  3fd14a:	38 38                	cmp    BYTE PTR [rax],bh
  3fd14c:	1b 5b 30             	sbb    ebx,DWORD PTR [rbx+0x30]
  3fd14f:	3b 35 3b 33 30 3b    	cmp    esi,DWORD PTR [rip+0x3b30333b]        # 3b700490 <_end+0x3b2fc458>
  3fd155:	34 30                	xor    al,0x30
  3fd157:	6d                   	ins    DWORD PTR es:[rdi],dx
  3fd158:	40 1b 5b 30          	rex sbb ebx,DWORD PTR [rbx+0x30]
  3fd15c:	3b 35 3b 33 31 3b    	cmp    esi,DWORD PTR [rip+0x3b31333b]        # 3b71049d <_end+0x3b30c465>
  3fd162:	34 30                	xor    al,0x30
  3fd164:	6d                   	ins    DWORD PTR es:[rdi],dx
  3fd165:	58                   	pop    rax
  3fd166:	1b 5b 30             	sbb    ebx,DWORD PTR [rbx+0x30]
  3fd169:	3b 33                	cmp    esi,DWORD PTR [rbx]
  3fd16b:	32 3b                	xor    bh,BYTE PTR [rbx]
  3fd16d:	34 30                	xor    al,0x30
  3fd16f:	6d                   	ins    DWORD PTR es:[rdi],dx
  3fd170:	58                   	pop    rax
  3fd171:	1b 5b 30             	sbb    ebx,DWORD PTR [rbx+0x30]
  3fd174:	3b 35 3b 33 30 3b    	cmp    esi,DWORD PTR [rip+0x3b30333b]        # 3b7004b5 <_end+0x3b2fc47d>
  3fd17a:	34 30                	xor    al,0x30
  3fd17c:	6d                   	ins    DWORD PTR es:[rdi],dx
  3fd17d:	38 1b                	cmp    BYTE PTR [rbx],bl
  3fd17f:	5b                   	pop    rbx
  3fd180:	30 3b                	xor    BYTE PTR [rbx],bh
  3fd182:	33 31                	xor    esi,DWORD PTR [rcx]
  3fd184:	3b 34 30             	cmp    esi,DWORD PTR [rax+rsi*1]
  3fd187:	6d                   	ins    DWORD PTR es:[rdi],dx
  3fd188:	38 1b                	cmp    BYTE PTR [rbx],bl
  3fd18a:	5b                   	pop    rbx
  3fd18b:	30 3b                	xor    BYTE PTR [rbx],bh
  3fd18d:	35 3b 33 30 3b       	xor    eax,0x3b30333b
  3fd192:	34 30                	xor    al,0x30
  3fd194:	6d                   	ins    DWORD PTR es:[rdi],dx
  3fd195:	38 1b                	cmp    BYTE PTR [rbx],bl
  3fd197:	5b                   	pop    rbx
  3fd198:	30 3b                	xor    BYTE PTR [rbx],bh
  3fd19a:	31 3b                	xor    DWORD PTR [rbx],edi
  3fd19c:	33 30                	xor    esi,DWORD PTR [rax]
  3fd19e:	3b 34 30             	cmp    esi,DWORD PTR [rax+rsi*1]
  3fd1a1:	6d                   	ins    DWORD PTR es:[rdi],dx
  3fd1a2:	38 38                	cmp    BYTE PTR [rax],bh
  3fd1a4:	38 38                	cmp    BYTE PTR [rax],bh
  3fd1a6:	38 38                	cmp    BYTE PTR [rax],bh
  3fd1a8:	38 38                	cmp    BYTE PTR [rax],bh
  3fd1aa:	38 38                	cmp    BYTE PTR [rax],bh
  3fd1ac:	38 38                	cmp    BYTE PTR [rax],bh
  3fd1ae:	38 38                	cmp    BYTE PTR [rax],bh
  3fd1b0:	38 38                	cmp    BYTE PTR [rax],bh
  3fd1b2:	1b 5b 30             	sbb    ebx,DWORD PTR [rbx+0x30]
  3fd1b5:	6d                   	ins    DWORD PTR es:[rdi],dx
  3fd1b6:	0d 0a 1b 5b 30       	or     eax,0x305b1b0a
  3fd1bb:	3b 31                	cmp    esi,DWORD PTR [rcx]
  3fd1bd:	3b 33                	cmp    esi,DWORD PTR [rbx]
  3fd1bf:	30 3b                	xor    BYTE PTR [rbx],bh
  3fd1c1:	34 30                	xor    al,0x30
  3fd1c3:	6d                   	ins    DWORD PTR es:[rdi],dx
  3fd1c4:	40 1b 5b 30          	rex sbb ebx,DWORD PTR [rbx+0x30]
  3fd1c8:	3b 33                	cmp    esi,DWORD PTR [rbx]
  3fd1ca:	31 3b                	xor    DWORD PTR [rbx],edi
  3fd1cc:	34 30                	xor    al,0x30
  3fd1ce:	6d                   	ins    DWORD PTR es:[rdi],dx
  3fd1cf:	38 1b                	cmp    BYTE PTR [rbx],bl
  3fd1d1:	5b                   	pop    rbx
  3fd1d2:	30 3b                	xor    BYTE PTR [rbx],bh
  3fd1d4:	35 3b 33 30 3b       	xor    eax,0x3b30333b
  3fd1d9:	34 30                	xor    al,0x30
  3fd1db:	6d                   	ins    DWORD PTR es:[rdi],dx
  3fd1dc:	58                   	pop    rax
  3fd1dd:	1b 5b 30             	sbb    ebx,DWORD PTR [rbx+0x30]
  3fd1e0:	3b 33                	cmp    esi,DWORD PTR [rbx]
  3fd1e2:	31 3b                	xor    DWORD PTR [rbx],edi
  3fd1e4:	34 30                	xor    al,0x30
  3fd1e6:	6d                   	ins    DWORD PTR es:[rdi],dx
  3fd1e7:	38 1b                	cmp    BYTE PTR [rbx],bl
  3fd1e9:	5b                   	pop    rbx
  3fd1ea:	30 3b                	xor    BYTE PTR [rbx],bh
  3fd1ec:	35 3b 33 30 3b       	xor    eax,0x3b30333b
  3fd1f1:	34 30                	xor    al,0x30
  3fd1f3:	6d                   	ins    DWORD PTR es:[rdi],dx
  3fd1f4:	58                   	pop    rax
  3fd1f5:	1b 5b 30             	sbb    ebx,DWORD PTR [rbx+0x30]
  3fd1f8:	3b 33                	cmp    esi,DWORD PTR [rbx]
  3fd1fa:	31 3b                	xor    DWORD PTR [rbx],edi
  3fd1fc:	34 30                	xor    al,0x30
  3fd1fe:	6d                   	ins    DWORD PTR es:[rdi],dx
  3fd1ff:	38 1b                	cmp    BYTE PTR [rbx],bl
  3fd201:	5b                   	pop    rbx
  3fd202:	30 3b                	xor    BYTE PTR [rbx],bh
  3fd204:	35 3b 33 30 3b       	xor    eax,0x3b30333b
  3fd209:	34 30                	xor    al,0x30
  3fd20b:	6d                   	ins    DWORD PTR es:[rdi],dx
  3fd20c:	58                   	pop    rax
  3fd20d:	1b 5b 30             	sbb    ebx,DWORD PTR [rbx+0x30]
  3fd210:	3b 33                	cmp    esi,DWORD PTR [rbx]
  3fd212:	31 3b                	xor    DWORD PTR [rbx],edi
  3fd214:	34 30                	xor    al,0x30
  3fd216:	6d                   	ins    DWORD PTR es:[rdi],dx
  3fd217:	38 1b                	cmp    BYTE PTR [rbx],bl
  3fd219:	5b                   	pop    rbx
  3fd21a:	30 3b                	xor    BYTE PTR [rbx],bh
  3fd21c:	35 3b 33 30 3b       	xor    eax,0x3b30333b
  3fd221:	34 30                	xor    al,0x30
  3fd223:	6d                   	ins    DWORD PTR es:[rdi],dx
  3fd224:	58                   	pop    rax
  3fd225:	1b 5b 30             	sbb    ebx,DWORD PTR [rbx+0x30]
  3fd228:	3b 33                	cmp    esi,DWORD PTR [rbx]
  3fd22a:	31 3b                	xor    DWORD PTR [rbx],edi
  3fd22c:	34 30                	xor    al,0x30
  3fd22e:	6d                   	ins    DWORD PTR es:[rdi],dx
  3fd22f:	38 1b                	cmp    BYTE PTR [rbx],bl
  3fd231:	5b                   	pop    rbx
  3fd232:	30 3b                	xor    BYTE PTR [rbx],bh
  3fd234:	35 3b 33 30 3b       	xor    eax,0x3b30333b
  3fd239:	34 30                	xor    al,0x30
  3fd23b:	6d                   	ins    DWORD PTR es:[rdi],dx
  3fd23c:	58                   	pop    rax
  3fd23d:	1b 5b 30             	sbb    ebx,DWORD PTR [rbx+0x30]
  3fd240:	3b 33                	cmp    esi,DWORD PTR [rbx]
  3fd242:	31 3b                	xor    DWORD PTR [rbx],edi
  3fd244:	34 30                	xor    al,0x30
  3fd246:	6d                   	ins    DWORD PTR es:[rdi],dx
  3fd247:	38 1b                	cmp    BYTE PTR [rbx],bl
  3fd249:	5b                   	pop    rbx
  3fd24a:	30 3b                	xor    BYTE PTR [rbx],bh
  3fd24c:	31 3b                	xor    DWORD PTR [rbx],edi
  3fd24e:	33 30                	xor    esi,DWORD PTR [rax]
  3fd250:	3b 34 30             	cmp    esi,DWORD PTR [rax+rsi*1]
  3fd253:	6d                   	ins    DWORD PTR es:[rdi],dx
  3fd254:	38 1b                	cmp    BYTE PTR [rbx],bl
  3fd256:	5b                   	pop    rbx
  3fd257:	30 3b                	xor    BYTE PTR [rbx],bh
  3fd259:	33 30                	xor    esi,DWORD PTR [rax]
  3fd25b:	3b 34 31             	cmp    esi,DWORD PTR [rcx+rsi*1]
  3fd25e:	6d                   	ins    DWORD PTR es:[rdi],dx
  3fd25f:	38 1b                	cmp    BYTE PTR [rbx],bl
  3fd261:	5b                   	pop    rbx
  3fd262:	30 3b                	xor    BYTE PTR [rbx],bh
  3fd264:	35 3b 33 32 3b       	xor    eax,0x3b32333b
  3fd269:	34 30                	xor    al,0x30
  3fd26b:	6d                   	ins    DWORD PTR es:[rdi],dx
  3fd26c:	53                   	push   rbx
  3fd26d:	1b 5b 30             	sbb    ebx,DWORD PTR [rbx+0x30]
  3fd270:	3b 31                	cmp    esi,DWORD PTR [rcx]
  3fd272:	3b 33                	cmp    esi,DWORD PTR [rbx]
  3fd274:	30 3b                	xor    BYTE PTR [rbx],bh
  3fd276:	34 31                	xor    al,0x31
  3fd278:	6d                   	ins    DWORD PTR es:[rdi],dx
  3fd279:	38 1b                	cmp    BYTE PTR [rbx],bl
  3fd27b:	5b                   	pop    rbx
  3fd27c:	30 3b                	xor    BYTE PTR [rbx],bh
  3fd27e:	33 31                	xor    esi,DWORD PTR [rcx]
  3fd280:	3b 34 30             	cmp    esi,DWORD PTR [rax+rsi*1]
  3fd283:	6d                   	ins    DWORD PTR es:[rdi],dx
  3fd284:	58                   	pop    rax
  3fd285:	1b 5b 30             	sbb    ebx,DWORD PTR [rbx+0x30]
  3fd288:	3b 35 3b 33 30 3b    	cmp    esi,DWORD PTR [rip+0x3b30333b]        # 3b7005c9 <_end+0x3b2fc591>
  3fd28e:	34 30                	xor    al,0x30
  3fd290:	6d                   	ins    DWORD PTR es:[rdi],dx
  3fd291:	58                   	pop    rax
  3fd292:	1b 5b 30             	sbb    ebx,DWORD PTR [rbx+0x30]
  3fd295:	3b 31                	cmp    esi,DWORD PTR [rcx]
  3fd297:	3b 33                	cmp    esi,DWORD PTR [rbx]
  3fd299:	30 3b                	xor    BYTE PTR [rbx],bh
  3fd29b:	34 31                	xor    al,0x31
  3fd29d:	6d                   	ins    DWORD PTR es:[rdi],dx
  3fd29e:	38 1b                	cmp    BYTE PTR [rbx],bl
  3fd2a0:	5b                   	pop    rbx
  3fd2a1:	30 3b                	xor    BYTE PTR [rbx],bh
  3fd2a3:	35 3b 33 33 3b       	xor    eax,0x3b33333b
  3fd2a8:	34 30                	xor    al,0x30
  3fd2aa:	6d                   	ins    DWORD PTR es:[rdi],dx
  3fd2ab:	25 1b 5b 30 3b       	and    eax,0x3b305b1b
  3fd2b0:	31 3b                	xor    DWORD PTR [rbx],edi
  3fd2b2:	33 30                	xor    esi,DWORD PTR [rax]
  3fd2b4:	3b 34 37             	cmp    esi,DWORD PTR [rdi+rsi*1]
  3fd2b7:	6d                   	ins    DWORD PTR es:[rdi],dx
  3fd2b8:	53                   	push   rbx
  3fd2b9:	1b 5b 30             	sbb    ebx,DWORD PTR [rbx+0x30]
  3fd2bc:	3b 35 3b 33 37 3b    	cmp    esi,DWORD PTR [rip+0x3b37333b]        # 3b7705fd <_end+0x3b36c5c5>
  3fd2c2:	34 30                	xor    al,0x30
  3fd2c4:	6d                   	ins    DWORD PTR es:[rdi],dx
  3fd2c5:	38 1b                	cmp    BYTE PTR [rbx],bl
  3fd2c7:	5b                   	pop    rbx
  3fd2c8:	30 3b                	xor    BYTE PTR [rbx],bh
  3fd2ca:	35 3b 33 33 3b       	xor    eax,0x3b33333b
  3fd2cf:	34 30                	xor    al,0x30
  3fd2d1:	6d                   	ins    DWORD PTR es:[rdi],dx
  3fd2d2:	3a 1b                	cmp    bl,BYTE PTR [rbx]
  3fd2d4:	5b                   	pop    rbx
  3fd2d5:	30 3b                	xor    BYTE PTR [rbx],bh
  3fd2d7:	31 3b                	xor    DWORD PTR [rbx],edi
  3fd2d9:	33 37                	xor    esi,DWORD PTR [rdi]
  3fd2db:	3b 34 37             	cmp    esi,DWORD PTR [rdi+rsi*1]
  3fd2de:	6d                   	ins    DWORD PTR es:[rdi],dx
  3fd2df:	53                   	push   rbx
  3fd2e0:	1b 5b 30             	sbb    ebx,DWORD PTR [rbx+0x30]
  3fd2e3:	3b 35 3b 33 33 3b    	cmp    esi,DWORD PTR [rip+0x3b33333b]        # 3b730624 <_end+0x3b32c5ec>
  3fd2e9:	34 30                	xor    al,0x30
  3fd2eb:	6d                   	ins    DWORD PTR es:[rdi],dx
  3fd2ec:	3b 74 2e 38          	cmp    esi,DWORD PTR [rsi+rbp*1+0x38]
  3fd2f0:	3a 20                	cmp    ah,BYTE PTR [rax]
  3fd2f2:	1b 5b 30             	sbb    ebx,DWORD PTR [rbx+0x30]
  3fd2f5:	3b 31                	cmp    esi,DWORD PTR [rcx]
  3fd2f7:	3b 33                	cmp    esi,DWORD PTR [rbx]
  3fd2f9:	37                   	(bad)  
  3fd2fa:	3b 34 37             	cmp    esi,DWORD PTR [rdi+rsi*1]
  3fd2fd:	6d                   	ins    DWORD PTR es:[rdi],dx
  3fd2fe:	20 1b                	and    BYTE PTR [rbx],bl
  3fd300:	5b                   	pop    rbx
  3fd301:	30 3b                	xor    BYTE PTR [rbx],bh
  3fd303:	35 3b 33 33 3b       	xor    eax,0x3b33333b
  3fd308:	34 30                	xor    al,0x30
  3fd30a:	6d                   	ins    DWORD PTR es:[rdi],dx
  3fd30b:	40 25 1b 5b 30 3b    	rex and eax,0x3b305b1b
  3fd311:	35 3b 33 30 3b       	xor    eax,0x3b30333b
  3fd316:	34 30                	xor    al,0x30
  3fd318:	6d                   	ins    DWORD PTR es:[rdi],dx
  3fd319:	58                   	pop    rax
  3fd31a:	1b 5b 30             	sbb    ebx,DWORD PTR [rbx+0x30]
  3fd31d:	3b 35 3b 33 31 3b    	cmp    esi,DWORD PTR [rip+0x3b31333b]        # 3b71065e <_end+0x3b30c626>
  3fd323:	34 30                	xor    al,0x30
  3fd325:	6d                   	ins    DWORD PTR es:[rdi],dx
  3fd326:	38 1b                	cmp    BYTE PTR [rbx],bl
  3fd328:	5b                   	pop    rbx
  3fd329:	30 3b                	xor    BYTE PTR [rbx],bh
  3fd32b:	33 31                	xor    esi,DWORD PTR [rcx]
  3fd32d:	3b 34 30             	cmp    esi,DWORD PTR [rax+rsi*1]
  3fd330:	6d                   	ins    DWORD PTR es:[rdi],dx
  3fd331:	58                   	pop    rax
  3fd332:	1b 5b 30             	sbb    ebx,DWORD PTR [rbx+0x30]
  3fd335:	3b 35 3b 33 30 3b    	cmp    esi,DWORD PTR [rip+0x3b30333b]        # 3b700676 <_end+0x3b2fc63e>
  3fd33b:	34 30                	xor    al,0x30
  3fd33d:	6d                   	ins    DWORD PTR es:[rdi],dx
  3fd33e:	58                   	pop    rax
  3fd33f:	1b 5b 30             	sbb    ebx,DWORD PTR [rbx+0x30]
  3fd342:	3b 33                	cmp    esi,DWORD PTR [rbx]
  3fd344:	31 3b                	xor    DWORD PTR [rbx],edi
  3fd346:	34 30                	xor    al,0x30
  3fd348:	6d                   	ins    DWORD PTR es:[rdi],dx
  3fd349:	38 1b                	cmp    BYTE PTR [rbx],bl
  3fd34b:	5b                   	pop    rbx
  3fd34c:	30 3b                	xor    BYTE PTR [rbx],bh
  3fd34e:	35 3b 33 30 3b       	xor    eax,0x3b30333b
  3fd353:	34 30                	xor    al,0x30
  3fd355:	6d                   	ins    DWORD PTR es:[rdi],dx
  3fd356:	58                   	pop    rax
  3fd357:	1b 5b 30             	sbb    ebx,DWORD PTR [rbx+0x30]
  3fd35a:	3b 33                	cmp    esi,DWORD PTR [rbx]
  3fd35c:	31 3b                	xor    DWORD PTR [rbx],edi
  3fd35e:	34 30                	xor    al,0x30
  3fd360:	6d                   	ins    DWORD PTR es:[rdi],dx
  3fd361:	38 1b                	cmp    BYTE PTR [rbx],bl
  3fd363:	5b                   	pop    rbx
  3fd364:	30 3b                	xor    BYTE PTR [rbx],bh
  3fd366:	35 3b 33 30 3b       	xor    eax,0x3b30333b
  3fd36b:	34 30                	xor    al,0x30
  3fd36d:	6d                   	ins    DWORD PTR es:[rdi],dx
  3fd36e:	58                   	pop    rax
  3fd36f:	1b 5b 30             	sbb    ebx,DWORD PTR [rbx+0x30]
  3fd372:	3b 33                	cmp    esi,DWORD PTR [rbx]
  3fd374:	31 3b                	xor    DWORD PTR [rbx],edi
  3fd376:	34 30                	xor    al,0x30
  3fd378:	6d                   	ins    DWORD PTR es:[rdi],dx
  3fd379:	38 1b                	cmp    BYTE PTR [rbx],bl
  3fd37b:	5b                   	pop    rbx
  3fd37c:	30 3b                	xor    BYTE PTR [rbx],bh
  3fd37e:	35 3b 33 30 3b       	xor    eax,0x3b30333b
  3fd383:	34 30                	xor    al,0x30
  3fd385:	6d                   	ins    DWORD PTR es:[rdi],dx
  3fd386:	58                   	pop    rax
  3fd387:	1b 5b 30             	sbb    ebx,DWORD PTR [rbx+0x30]
  3fd38a:	3b 33                	cmp    esi,DWORD PTR [rbx]
  3fd38c:	31 3b                	xor    DWORD PTR [rbx],edi
  3fd38e:	34 30                	xor    al,0x30
  3fd390:	6d                   	ins    DWORD PTR es:[rdi],dx
  3fd391:	38 1b                	cmp    BYTE PTR [rbx],bl
  3fd393:	5b                   	pop    rbx
  3fd394:	30 3b                	xor    BYTE PTR [rbx],bh
  3fd396:	35 3b 33 30 3b       	xor    eax,0x3b30333b
  3fd39b:	34 30                	xor    al,0x30
  3fd39d:	6d                   	ins    DWORD PTR es:[rdi],dx
  3fd39e:	58                   	pop    rax
  3fd39f:	1b 5b 30             	sbb    ebx,DWORD PTR [rbx+0x30]
  3fd3a2:	3b 33                	cmp    esi,DWORD PTR [rbx]
  3fd3a4:	31 3b                	xor    DWORD PTR [rbx],edi
  3fd3a6:	34 30                	xor    al,0x30
  3fd3a8:	6d                   	ins    DWORD PTR es:[rdi],dx
  3fd3a9:	38 1b                	cmp    BYTE PTR [rbx],bl
  3fd3ab:	5b                   	pop    rbx
  3fd3ac:	30 3b                	xor    BYTE PTR [rbx],bh
  3fd3ae:	35 3b 33 30 3b       	xor    eax,0x3b30333b
  3fd3b3:	34 30                	xor    al,0x30
  3fd3b5:	6d                   	ins    DWORD PTR es:[rdi],dx
  3fd3b6:	58                   	pop    rax
  3fd3b7:	1b 5b 30             	sbb    ebx,DWORD PTR [rbx+0x30]
  3fd3ba:	3b 33                	cmp    esi,DWORD PTR [rbx]
  3fd3bc:	31 3b                	xor    DWORD PTR [rbx],edi
  3fd3be:	34 30                	xor    al,0x30
  3fd3c0:	6d                   	ins    DWORD PTR es:[rdi],dx
  3fd3c1:	38 1b                	cmp    BYTE PTR [rbx],bl
  3fd3c3:	5b                   	pop    rbx
  3fd3c4:	30 3b                	xor    BYTE PTR [rbx],bh
  3fd3c6:	35 3b 33 30 3b       	xor    eax,0x3b30333b
  3fd3cb:	34 30                	xor    al,0x30
  3fd3cd:	6d                   	ins    DWORD PTR es:[rdi],dx
  3fd3ce:	58                   	pop    rax
  3fd3cf:	1b 5b 30             	sbb    ebx,DWORD PTR [rbx+0x30]
  3fd3d2:	3b 33                	cmp    esi,DWORD PTR [rbx]
  3fd3d4:	31 3b                	xor    DWORD PTR [rbx],edi
  3fd3d6:	34 30                	xor    al,0x30
  3fd3d8:	6d                   	ins    DWORD PTR es:[rdi],dx
  3fd3d9:	38 1b                	cmp    BYTE PTR [rbx],bl
  3fd3db:	5b                   	pop    rbx
  3fd3dc:	30 6d 0d             	xor    BYTE PTR [rbp+0xd],ch
  3fd3df:	0a 1b                	or     bl,BYTE PTR [rbx]
  3fd3e1:	5b                   	pop    rbx
  3fd3e2:	30 3b                	xor    BYTE PTR [rbx],bh
  3fd3e4:	31 3b                	xor    DWORD PTR [rbx],edi
  3fd3e6:	33 30                	xor    esi,DWORD PTR [rax]
  3fd3e8:	3b 34 30             	cmp    esi,DWORD PTR [rax+rsi*1]
  3fd3eb:	6d                   	ins    DWORD PTR es:[rdi],dx
  3fd3ec:	40 38 1b             	cmp    BYTE PTR [rbx],bl
  3fd3ef:	5b                   	pop    rbx
  3fd3f0:	30 3b                	xor    BYTE PTR [rbx],bh
  3fd3f2:	33 31                	xor    esi,DWORD PTR [rcx]
  3fd3f4:	3b 34 30             	cmp    esi,DWORD PTR [rax+rsi*1]
  3fd3f7:	6d                   	ins    DWORD PTR es:[rdi],dx
  3fd3f8:	38 1b                	cmp    BYTE PTR [rbx],bl
  3fd3fa:	5b                   	pop    rbx
  3fd3fb:	30 3b                	xor    BYTE PTR [rbx],bh
  3fd3fd:	35 3b 33 32 3b       	xor    eax,0x3b32333b
  3fd402:	34 30                	xor    al,0x30
  3fd404:	6d                   	ins    DWORD PTR es:[rdi],dx
  3fd405:	40 1b 5b 30          	rex sbb ebx,DWORD PTR [rbx+0x30]
  3fd409:	3b 33                	cmp    esi,DWORD PTR [rbx]
  3fd40b:	31 3b                	xor    DWORD PTR [rbx],edi
  3fd40d:	34 30                	xor    al,0x30
  3fd40f:	6d                   	ins    DWORD PTR es:[rdi],dx
  3fd410:	40 1b 5b 30          	rex sbb ebx,DWORD PTR [rbx+0x30]
  3fd414:	3b 31                	cmp    esi,DWORD PTR [rcx]
  3fd416:	3b 33                	cmp    esi,DWORD PTR [rbx]
  3fd418:	30 3b                	xor    BYTE PTR [rbx],bh
  3fd41a:	34 30                	xor    al,0x30
  3fd41c:	6d                   	ins    DWORD PTR es:[rdi],dx
  3fd41d:	38 1b                	cmp    BYTE PTR [rbx],bl
  3fd41f:	5b                   	pop    rbx
  3fd420:	30 3b                	xor    BYTE PTR [rbx],bh
  3fd422:	33 31                	xor    esi,DWORD PTR [rcx]
  3fd424:	3b 34 30             	cmp    esi,DWORD PTR [rax+rsi*1]
  3fd427:	6d                   	ins    DWORD PTR es:[rdi],dx
  3fd428:	38 1b                	cmp    BYTE PTR [rbx],bl
  3fd42a:	5b                   	pop    rbx
  3fd42b:	30 3b                	xor    BYTE PTR [rbx],bh
  3fd42d:	35 3b 33 32 3b       	xor    eax,0x3b32333b
  3fd432:	34 30                	xor    al,0x30
  3fd434:	6d                   	ins    DWORD PTR es:[rdi],dx
  3fd435:	38 1b                	cmp    BYTE PTR [rbx],bl
  3fd437:	5b                   	pop    rbx
  3fd438:	30 3b                	xor    BYTE PTR [rbx],bh
  3fd43a:	35 3b 33 31 3b       	xor    eax,0x3b31333b
  3fd43f:	34 30                	xor    al,0x30
  3fd441:	6d                   	ins    DWORD PTR es:[rdi],dx
  3fd442:	40 1b 5b 30          	rex sbb ebx,DWORD PTR [rbx+0x30]
  3fd446:	3b 35 3b 33 33 3b    	cmp    esi,DWORD PTR [rip+0x3b33333b]        # 3b730787 <_end+0x3b32c74f>
  3fd44c:	34 30                	xor    al,0x30
  3fd44e:	6d                   	ins    DWORD PTR es:[rdi],dx
  3fd44f:	38 1b                	cmp    BYTE PTR [rbx],bl
  3fd451:	5b                   	pop    rbx
  3fd452:	30 3b                	xor    BYTE PTR [rbx],bh
  3fd454:	31 3b                	xor    DWORD PTR [rbx],edi
  3fd456:	33 30                	xor    esi,DWORD PTR [rax]
  3fd458:	3b 34 30             	cmp    esi,DWORD PTR [rax+rsi*1]
  3fd45b:	6d                   	ins    DWORD PTR es:[rdi],dx
  3fd45c:	38 1b                	cmp    BYTE PTR [rbx],bl
  3fd45e:	5b                   	pop    rbx
  3fd45f:	30 3b                	xor    BYTE PTR [rbx],bh
  3fd461:	35 3b 33 33 3b       	xor    eax,0x3b33333b
  3fd466:	34 30                	xor    al,0x30
  3fd468:	6d                   	ins    DWORD PTR es:[rdi],dx
  3fd469:	53                   	push   rbx
  3fd46a:	20 1b                	and    BYTE PTR [rbx],bl
  3fd46c:	5b                   	pop    rbx
  3fd46d:	30 3b                	xor    BYTE PTR [rbx],bh
  3fd46f:	31 3b                	xor    DWORD PTR [rbx],edi
  3fd471:	33 30                	xor    esi,DWORD PTR [rax]
  3fd473:	3b 34 37             	cmp    esi,DWORD PTR [rdi+rsi*1]
  3fd476:	6d                   	ins    DWORD PTR es:[rdi],dx
  3fd477:	20 1b                	and    BYTE PTR [rbx],bl
  3fd479:	5b                   	pop    rbx
  3fd47a:	30 3b                	xor    BYTE PTR [rbx],bh
  3fd47c:	31 3b                	xor    DWORD PTR [rbx],edi
  3fd47e:	33 37                	xor    esi,DWORD PTR [rdi]
  3fd480:	3b 34 37             	cmp    esi,DWORD PTR [rdi+rsi*1]
  3fd483:	6d                   	ins    DWORD PTR es:[rdi],dx
  3fd484:	74 1b                	je     3fd4a1 <_init-0x3b5f>
  3fd486:	5b                   	pop    rbx
  3fd487:	30 3b                	xor    BYTE PTR [rbx],bh
  3fd489:	31 3b                	xor    DWORD PTR [rbx],edi
  3fd48b:	33 30                	xor    esi,DWORD PTR [rax]
  3fd48d:	3b 34 37             	cmp    esi,DWORD PTR [rdi+rsi*1]
  3fd490:	6d                   	ins    DWORD PTR es:[rdi],dx
  3fd491:	2e 1b 5b 30          	sbb    ebx,DWORD PTR cs:[rbx+0x30]
  3fd495:	3b 35 3b 33 33 3b    	cmp    esi,DWORD PTR [rip+0x3b33333b]        # 3b7307d6 <_end+0x3b32c79e>
  3fd49b:	34 30                	xor    al,0x30
  3fd49d:	6d                   	ins    DWORD PTR es:[rdi],dx
  3fd49e:	38 1b                	cmp    BYTE PTR [rbx],bl
  3fd4a0:	5b                   	pop    rbx
  3fd4a1:	30 3b                	xor    BYTE PTR [rbx],bh
  3fd4a3:	33 31                	xor    esi,DWORD PTR [rcx]
  3fd4a5:	3b 34 30             	cmp    esi,DWORD PTR [rax+rsi*1]
  3fd4a8:	6d                   	ins    DWORD PTR es:[rdi],dx
  3fd4a9:	25 1b 5b 30 3b       	and    eax,0x3b305b1b
  3fd4ae:	35 3b 33 32 3b       	xor    eax,0x3b32333b
  3fd4b3:	34 30                	xor    al,0x30
  3fd4b5:	6d                   	ins    DWORD PTR es:[rdi],dx
  3fd4b6:	58                   	pop    rax
  3fd4b7:	1b 5b 30             	sbb    ebx,DWORD PTR [rbx+0x30]
  3fd4ba:	3b 31                	cmp    esi,DWORD PTR [rcx]
  3fd4bc:	3b 33                	cmp    esi,DWORD PTR [rbx]
  3fd4be:	37                   	(bad)  
  3fd4bf:	3b 34 37             	cmp    esi,DWORD PTR [rdi+rsi*1]
  3fd4c2:	6d                   	ins    DWORD PTR es:[rdi],dx
  3fd4c3:	53                   	push   rbx
  3fd4c4:	53                   	push   rbx
  3fd4c5:	1b 5b 30             	sbb    ebx,DWORD PTR [rbx+0x30]
  3fd4c8:	3b 31                	cmp    esi,DWORD PTR [rcx]
  3fd4ca:	3b 33                	cmp    esi,DWORD PTR [rbx]
  3fd4cc:	30 3b                	xor    BYTE PTR [rbx],bh
  3fd4ce:	34 37                	xor    al,0x37
  3fd4d0:	6d                   	ins    DWORD PTR es:[rdi],dx
  3fd4d1:	20 1b                	and    BYTE PTR [rbx],bl
  3fd4d3:	5b                   	pop    rbx
  3fd4d4:	30 3b                	xor    BYTE PTR [rbx],bh
  3fd4d6:	35 3b 33 33 3b       	xor    eax,0x3b33333b
  3fd4db:	34 30                	xor    al,0x30
  3fd4dd:	6d                   	ins    DWORD PTR es:[rdi],dx
  3fd4de:	25 1b 5b 30 3b       	and    eax,0x3b305b1b
  3fd4e3:	31 3b                	xor    DWORD PTR [rbx],edi
  3fd4e5:	33 37                	xor    esi,DWORD PTR [rdi]
  3fd4e7:	3b 34 37             	cmp    esi,DWORD PTR [rdi+rsi*1]
  3fd4ea:	6d                   	ins    DWORD PTR es:[rdi],dx
  3fd4eb:	38 1b                	cmp    BYTE PTR [rbx],bl
  3fd4ed:	5b                   	pop    rbx
  3fd4ee:	30 3b                	xor    BYTE PTR [rbx],bh
  3fd4f0:	31 3b                	xor    DWORD PTR [rbx],edi
  3fd4f2:	33 30                	xor    esi,DWORD PTR [rax]
  3fd4f4:	3b 34 37             	cmp    esi,DWORD PTR [rdi+rsi*1]
  3fd4f7:	6d                   	ins    DWORD PTR es:[rdi],dx
  3fd4f8:	20 1b                	and    BYTE PTR [rbx],bl
  3fd4fa:	5b                   	pop    rbx
  3fd4fb:	30 3b                	xor    BYTE PTR [rbx],bh
  3fd4fd:	31 3b                	xor    DWORD PTR [rbx],edi
  3fd4ff:	33 37                	xor    esi,DWORD PTR [rdi]
  3fd501:	3b 34 37             	cmp    esi,DWORD PTR [rdi+rsi*1]
  3fd504:	6d                   	ins    DWORD PTR es:[rdi],dx
  3fd505:	3a 1b                	cmp    bl,BYTE PTR [rbx]
  3fd507:	5b                   	pop    rbx
  3fd508:	30 3b                	xor    BYTE PTR [rbx],bh
  3fd50a:	35 3b 33 33 3b       	xor    eax,0x3b33333b
  3fd50f:	34 30                	xor    al,0x30
  3fd511:	6d                   	ins    DWORD PTR es:[rdi],dx
  3fd512:	2e 1b 5b 30          	sbb    ebx,DWORD PTR cs:[rbx+0x30]
  3fd516:	3b 31                	cmp    esi,DWORD PTR [rcx]
  3fd518:	3b 33                	cmp    esi,DWORD PTR [rbx]
  3fd51a:	37                   	(bad)  
  3fd51b:	3b 34 37             	cmp    esi,DWORD PTR [rdi+rsi*1]
  3fd51e:	6d                   	ins    DWORD PTR es:[rdi],dx
  3fd51f:	20 1b                	and    BYTE PTR [rbx],bl
  3fd521:	5b                   	pop    rbx
  3fd522:	30 3b                	xor    BYTE PTR [rbx],bh
  3fd524:	35 3b 33 37 3b       	xor    eax,0x3b37333b
  3fd529:	34 37                	xor    al,0x37
  3fd52b:	6d                   	ins    DWORD PTR es:[rdi],dx
  3fd52c:	58                   	pop    rax
  3fd52d:	1b 5b 30             	sbb    ebx,DWORD PTR [rbx+0x30]
  3fd530:	3b 31                	cmp    esi,DWORD PTR [rcx]
  3fd532:	3b 33                	cmp    esi,DWORD PTR [rbx]
  3fd534:	37                   	(bad)  
  3fd535:	3b 34 37             	cmp    esi,DWORD PTR [rdi+rsi*1]
  3fd538:	6d                   	ins    DWORD PTR es:[rdi],dx
  3fd539:	2e 1b 5b 30          	sbb    ebx,DWORD PTR cs:[rbx+0x30]
  3fd53d:	3b 35 3b 33 37 3b    	cmp    esi,DWORD PTR [rip+0x3b37333b]        # 3b77087e <_end+0x3b36c846>
  3fd543:	34 30                	xor    al,0x30
  3fd545:	6d                   	ins    DWORD PTR es:[rdi],dx
  3fd546:	40 1b 5b 30          	rex sbb ebx,DWORD PTR [rbx+0x30]
  3fd54a:	3b 35 3b 33 35 3b    	cmp    esi,DWORD PTR [rip+0x3b35333b]        # 3b75088b <_end+0x3b34c853>
  3fd550:	34 30                	xor    al,0x30
  3fd552:	6d                   	ins    DWORD PTR es:[rdi],dx
  3fd553:	25 1b 5b 30 3b       	and    eax,0x3b305b1b
  3fd558:	31 3b                	xor    DWORD PTR [rbx],edi
  3fd55a:	33 30                	xor    esi,DWORD PTR [rax]
  3fd55c:	3b 34 37             	cmp    esi,DWORD PTR [rdi+rsi*1]
  3fd55f:	6d                   	ins    DWORD PTR es:[rdi],dx
  3fd560:	38 1b                	cmp    BYTE PTR [rbx],bl
  3fd562:	5b                   	pop    rbx
  3fd563:	30 3b                	xor    BYTE PTR [rbx],bh
  3fd565:	31 3b                	xor    DWORD PTR [rbx],edi
  3fd567:	33 37                	xor    esi,DWORD PTR [rdi]
  3fd569:	3b 34 37             	cmp    esi,DWORD PTR [rdi+rsi*1]
  3fd56c:	6d                   	ins    DWORD PTR es:[rdi],dx
  3fd56d:	74 1b                	je     3fd58a <_init-0x3a76>
  3fd56f:	5b                   	pop    rbx
  3fd570:	30 3b                	xor    BYTE PTR [rbx],bh
  3fd572:	35 3b 33 33 3b       	xor    eax,0x3b33333b
  3fd577:	34 30                	xor    al,0x30
  3fd579:	6d                   	ins    DWORD PTR es:[rdi],dx
  3fd57a:	3b 1b                	cmp    ebx,DWORD PTR [rbx]
  3fd57c:	5b                   	pop    rbx
  3fd57d:	30 3b                	xor    BYTE PTR [rbx],bh
  3fd57f:	31 3b                	xor    DWORD PTR [rbx],edi
  3fd581:	33 30                	xor    esi,DWORD PTR [rax]
  3fd583:	3b 34 37             	cmp    esi,DWORD PTR [rdi+rsi*1]
  3fd586:	6d                   	ins    DWORD PTR es:[rdi],dx
  3fd587:	53                   	push   rbx
  3fd588:	1b 5b 30             	sbb    ebx,DWORD PTR [rbx+0x30]
  3fd58b:	3b 35 3b 33 33 3b    	cmp    esi,DWORD PTR [rip+0x3b33333b]        # 3b7308cc <_end+0x3b32c894>
  3fd591:	34 30                	xor    al,0x30
  3fd593:	6d                   	ins    DWORD PTR es:[rdi],dx
  3fd594:	38 40 58             	cmp    BYTE PTR [rax+0x58],al
  3fd597:	1b 5b 30             	sbb    ebx,DWORD PTR [rbx+0x30]
  3fd59a:	3b 35 3b 33 30 3b    	cmp    esi,DWORD PTR [rip+0x3b30333b]        # 3b7008db <_end+0x3b2fc8a3>
  3fd5a0:	34 30                	xor    al,0x30
  3fd5a2:	6d                   	ins    DWORD PTR es:[rdi],dx
  3fd5a3:	58                   	pop    rax
  3fd5a4:	40 1b 5b 30          	rex sbb ebx,DWORD PTR [rbx+0x30]
  3fd5a8:	3b 33                	cmp    esi,DWORD PTR [rbx]
  3fd5aa:	31 3b                	xor    DWORD PTR [rbx],edi
  3fd5ac:	34 30                	xor    al,0x30
  3fd5ae:	6d                   	ins    DWORD PTR es:[rdi],dx
  3fd5af:	38 1b                	cmp    BYTE PTR [rbx],bl
  3fd5b1:	5b                   	pop    rbx
  3fd5b2:	30 3b                	xor    BYTE PTR [rbx],bh
  3fd5b4:	31 3b                	xor    DWORD PTR [rbx],edi
  3fd5b6:	33 30                	xor    esi,DWORD PTR [rax]
  3fd5b8:	3b 34 30             	cmp    esi,DWORD PTR [rax+rsi*1]
  3fd5bb:	6d                   	ins    DWORD PTR es:[rdi],dx
  3fd5bc:	38 38                	cmp    BYTE PTR [rax],bh
  3fd5be:	1b 5b 30             	sbb    ebx,DWORD PTR [rbx+0x30]
  3fd5c1:	3b 33                	cmp    esi,DWORD PTR [rbx]
  3fd5c3:	31 3b                	xor    DWORD PTR [rbx],edi
  3fd5c5:	34 30                	xor    al,0x30
  3fd5c7:	6d                   	ins    DWORD PTR es:[rdi],dx
  3fd5c8:	38 1b                	cmp    BYTE PTR [rbx],bl
  3fd5ca:	5b                   	pop    rbx
  3fd5cb:	30 3b                	xor    BYTE PTR [rbx],bh
  3fd5cd:	31 3b                	xor    DWORD PTR [rbx],edi
  3fd5cf:	33 30                	xor    esi,DWORD PTR [rax]
  3fd5d1:	3b 34 32             	cmp    esi,DWORD PTR [rdx+rsi*1]
  3fd5d4:	6d                   	ins    DWORD PTR es:[rdi],dx
  3fd5d5:	38 1b                	cmp    BYTE PTR [rbx],bl
  3fd5d7:	5b                   	pop    rbx
  3fd5d8:	30 3b                	xor    BYTE PTR [rbx],bh
  3fd5da:	33 31                	xor    esi,DWORD PTR [rcx]
  3fd5dc:	3b 34 30             	cmp    esi,DWORD PTR [rax+rsi*1]
  3fd5df:	6d                   	ins    DWORD PTR es:[rdi],dx
  3fd5e0:	38 1b                	cmp    BYTE PTR [rbx],bl
  3fd5e2:	5b                   	pop    rbx
  3fd5e3:	30 3b                	xor    BYTE PTR [rbx],bh
  3fd5e5:	31 3b                	xor    DWORD PTR [rbx],edi
  3fd5e7:	33 30                	xor    esi,DWORD PTR [rax]
  3fd5e9:	3b 34 30             	cmp    esi,DWORD PTR [rax+rsi*1]
  3fd5ec:	6d                   	ins    DWORD PTR es:[rdi],dx
  3fd5ed:	38 1b                	cmp    BYTE PTR [rbx],bl
  3fd5ef:	5b                   	pop    rbx
  3fd5f0:	30 3b                	xor    BYTE PTR [rbx],bh
  3fd5f2:	33 31                	xor    esi,DWORD PTR [rcx]
  3fd5f4:	3b 34 30             	cmp    esi,DWORD PTR [rax+rsi*1]
  3fd5f7:	6d                   	ins    DWORD PTR es:[rdi],dx
  3fd5f8:	38 1b                	cmp    BYTE PTR [rbx],bl
  3fd5fa:	5b                   	pop    rbx
  3fd5fb:	30 3b                	xor    BYTE PTR [rbx],bh
  3fd5fd:	35 3b 33 32 3b       	xor    eax,0x3b32333b
  3fd602:	34 30                	xor    al,0x30
  3fd604:	6d                   	ins    DWORD PTR es:[rdi],dx
  3fd605:	38 1b                	cmp    BYTE PTR [rbx],bl
  3fd607:	5b                   	pop    rbx
  3fd608:	30 6d 0d             	xor    BYTE PTR [rbp+0xd],ch
  3fd60b:	0a 1b                	or     bl,BYTE PTR [rbx]
  3fd60d:	5b                   	pop    rbx
  3fd60e:	30 3b                	xor    BYTE PTR [rbx],bh
  3fd610:	31 3b                	xor    DWORD PTR [rbx],edi
  3fd612:	33 30                	xor    esi,DWORD PTR [rax]
  3fd614:	3b 34 30             	cmp    esi,DWORD PTR [rax+rsi*1]
  3fd617:	6d                   	ins    DWORD PTR es:[rdi],dx
  3fd618:	40 38 1b             	cmp    BYTE PTR [rbx],bl
  3fd61b:	5b                   	pop    rbx
  3fd61c:	30 3b                	xor    BYTE PTR [rbx],bh
  3fd61e:	33 31                	xor    esi,DWORD PTR [rcx]
  3fd620:	3b 34 30             	cmp    esi,DWORD PTR [rax+rsi*1]
  3fd623:	6d                   	ins    DWORD PTR es:[rdi],dx
  3fd624:	38 1b                	cmp    BYTE PTR [rbx],bl
  3fd626:	5b                   	pop    rbx
  3fd627:	30 3b                	xor    BYTE PTR [rbx],bh
  3fd629:	31 3b                	xor    DWORD PTR [rbx],edi
  3fd62b:	33 30                	xor    esi,DWORD PTR [rax]
  3fd62d:	3b 34 30             	cmp    esi,DWORD PTR [rax+rsi*1]
  3fd630:	6d                   	ins    DWORD PTR es:[rdi],dx
  3fd631:	38 38                	cmp    BYTE PTR [rax],bh
  3fd633:	38 1b                	cmp    BYTE PTR [rbx],bl
  3fd635:	5b                   	pop    rbx
  3fd636:	30 3b                	xor    BYTE PTR [rbx],bh
  3fd638:	35 3b 33 31 3b       	xor    eax,0x3b31333b
  3fd63d:	34 30                	xor    al,0x30
  3fd63f:	6d                   	ins    DWORD PTR es:[rdi],dx
  3fd640:	58                   	pop    rax
  3fd641:	1b 5b 30             	sbb    ebx,DWORD PTR [rbx+0x30]
  3fd644:	3b 35 3b 33 33 3b    	cmp    esi,DWORD PTR [rip+0x3b33333b]        # 3b730985 <_end+0x3b32c94d>
  3fd64a:	34 30                	xor    al,0x30
  3fd64c:	6d                   	ins    DWORD PTR es:[rdi],dx
  3fd64d:	40 1b 5b 30          	rex sbb ebx,DWORD PTR [rbx+0x30]
  3fd651:	3b 35 3b 33 35 3b    	cmp    esi,DWORD PTR [rip+0x3b35333b]        # 3b750992 <_end+0x3b34c95a>
  3fd657:	34 30                	xor    al,0x30
  3fd659:	6d                   	ins    DWORD PTR es:[rdi],dx
  3fd65a:	2e 1b 5b 30          	sbb    ebx,DWORD PTR cs:[rbx+0x30]
  3fd65e:	3b 35 3b 33 37 3b    	cmp    esi,DWORD PTR [rip+0x3b37333b]        # 3b77099f <_end+0x3b36c967>
  3fd664:	34 30                	xor    al,0x30
  3fd666:	6d                   	ins    DWORD PTR es:[rdi],dx
  3fd667:	40 1b 5b 30          	rex sbb ebx,DWORD PTR [rbx+0x30]
  3fd66b:	3b 35 3b 33 33 3b    	cmp    esi,DWORD PTR [rip+0x3b33333b]        # 3b7309ac <_end+0x3b32c974>
  3fd671:	34 30                	xor    al,0x30
  3fd673:	6d                   	ins    DWORD PTR es:[rdi],dx
  3fd674:	20 1b                	and    BYTE PTR [rbx],bl
  3fd676:	5b                   	pop    rbx
  3fd677:	30 3b                	xor    BYTE PTR [rbx],bh
  3fd679:	35 3b 33 37 3b       	xor    eax,0x3b37333b
  3fd67e:	34 37                	xor    al,0x37
  3fd680:	6d                   	ins    DWORD PTR es:[rdi],dx
  3fd681:	3b 1b                	cmp    ebx,DWORD PTR [rbx]
  3fd683:	5b                   	pop    rbx
  3fd684:	30 3b                	xor    BYTE PTR [rbx],bh
  3fd686:	31 3b                	xor    DWORD PTR [rbx],edi
  3fd688:	33 30                	xor    esi,DWORD PTR [rax]
  3fd68a:	3b 34 37             	cmp    esi,DWORD PTR [rdi+rsi*1]
  3fd68d:	6d                   	ins    DWORD PTR es:[rdi],dx
  3fd68e:	20 1b                	and    BYTE PTR [rbx],bl
  3fd690:	5b                   	pop    rbx
  3fd691:	30 3b                	xor    BYTE PTR [rbx],bh
  3fd693:	35 3b 33 37 3b       	xor    eax,0x3b37333b
  3fd698:	34 37                	xor    al,0x37
  3fd69a:	6d                   	ins    DWORD PTR es:[rdi],dx
  3fd69b:	25 1b 5b 30 3b       	and    eax,0x3b305b1b
  3fd6a0:	35 3b 33 33 3b       	xor    eax,0x3b33333b
  3fd6a5:	34 30                	xor    al,0x30
  3fd6a7:	6d                   	ins    DWORD PTR es:[rdi],dx
  3fd6a8:	38 1b                	cmp    BYTE PTR [rbx],bl
  3fd6aa:	5b                   	pop    rbx
  3fd6ab:	30 3b                	xor    BYTE PTR [rbx],bh
  3fd6ad:	31 3b                	xor    DWORD PTR [rbx],edi
  3fd6af:	33 37                	xor    esi,DWORD PTR [rdi]
  3fd6b1:	3b 34 37             	cmp    esi,DWORD PTR [rdi+rsi*1]
  3fd6b4:	6d                   	ins    DWORD PTR es:[rdi],dx
  3fd6b5:	74 1b                	je     3fd6d2 <_init-0x392e>
  3fd6b7:	5b                   	pop    rbx
  3fd6b8:	30 3b                	xor    BYTE PTR [rbx],bh
  3fd6ba:	35 3b 33 30 3b       	xor    eax,0x3b30333b
  3fd6bf:	34 30                	xor    al,0x30
  3fd6c1:	6d                   	ins    DWORD PTR es:[rdi],dx
  3fd6c2:	40 1b 5b 30          	rex sbb ebx,DWORD PTR [rbx+0x30]
  3fd6c6:	3b 31                	cmp    esi,DWORD PTR [rcx]
  3fd6c8:	3b 33                	cmp    esi,DWORD PTR [rbx]
  3fd6ca:	30 3b                	xor    BYTE PTR [rbx],bh
  3fd6cc:	34 30                	xor    al,0x30
  3fd6ce:	6d                   	ins    DWORD PTR es:[rdi],dx
  3fd6cf:	38 1b                	cmp    BYTE PTR [rbx],bl
  3fd6d1:	5b                   	pop    rbx
  3fd6d2:	30 3b                	xor    BYTE PTR [rbx],bh
  3fd6d4:	35 3b 33 33 3b       	xor    eax,0x3b33333b
  3fd6d9:	34 30                	xor    al,0x30
  3fd6db:	6d                   	ins    DWORD PTR es:[rdi],dx
  3fd6dc:	2e 1b 5b 30          	sbb    ebx,DWORD PTR cs:[rbx+0x30]
  3fd6e0:	3b 31                	cmp    esi,DWORD PTR [rcx]
  3fd6e2:	3b 33                	cmp    esi,DWORD PTR [rbx]
  3fd6e4:	37                   	(bad)  
  3fd6e5:	3b 34 37             	cmp    esi,DWORD PTR [rdi+rsi*1]
  3fd6e8:	6d                   	ins    DWORD PTR es:[rdi],dx
  3fd6e9:	3a 1b                	cmp    bl,BYTE PTR [rbx]
  3fd6eb:	5b                   	pop    rbx
  3fd6ec:	30 3b                	xor    BYTE PTR [rbx],bh
  3fd6ee:	31 3b                	xor    DWORD PTR [rbx],edi
  3fd6f0:	33 30                	xor    esi,DWORD PTR [rax]
  3fd6f2:	3b 34 37             	cmp    esi,DWORD PTR [rdi+rsi*1]
  3fd6f5:	6d                   	ins    DWORD PTR es:[rdi],dx
  3fd6f6:	53                   	push   rbx
  3fd6f7:	1b 5b 30             	sbb    ebx,DWORD PTR [rbx+0x30]
  3fd6fa:	3b 35 3b 33 37 3b    	cmp    esi,DWORD PTR [rip+0x3b37333b]        # 3b770a3b <_end+0x3b36ca03>
  3fd700:	34 37                	xor    al,0x37
  3fd702:	6d                   	ins    DWORD PTR es:[rdi],dx
  3fd703:	58                   	pop    rax
  3fd704:	1b 5b 30             	sbb    ebx,DWORD PTR [rbx+0x30]
  3fd707:	3b 31                	cmp    esi,DWORD PTR [rcx]
  3fd709:	3b 33                	cmp    esi,DWORD PTR [rbx]
  3fd70b:	30 3b                	xor    BYTE PTR [rbx],bh
  3fd70d:	34 37                	xor    al,0x37
  3fd70f:	6d                   	ins    DWORD PTR es:[rdi],dx
  3fd710:	38 2e                	cmp    BYTE PTR [rsi],ch
  3fd712:	74 1b                	je     3fd72f <_init-0x38d1>
  3fd714:	5b                   	pop    rbx
  3fd715:	30 3b                	xor    BYTE PTR [rbx],bh
  3fd717:	31 3b                	xor    DWORD PTR [rbx],edi
  3fd719:	33 37                	xor    esi,DWORD PTR [rdi]
  3fd71b:	3b 34 37             	cmp    esi,DWORD PTR [rdi+rsi*1]
  3fd71e:	6d                   	ins    DWORD PTR es:[rdi],dx
  3fd71f:	2e 1b 5b 30          	sbb    ebx,DWORD PTR cs:[rbx+0x30]
  3fd723:	3b 31                	cmp    esi,DWORD PTR [rcx]
  3fd725:	3b 33                	cmp    esi,DWORD PTR [rbx]
  3fd727:	30 3b                	xor    BYTE PTR [rbx],bh
  3fd729:	34 37                	xor    al,0x37
  3fd72b:	6d                   	ins    DWORD PTR es:[rdi],dx
  3fd72c:	74 1b                	je     3fd749 <_init-0x38b7>
  3fd72e:	5b                   	pop    rbx
  3fd72f:	30 3b                	xor    BYTE PTR [rbx],bh
  3fd731:	35 3b 33 37 3b       	xor    eax,0x3b37333b
  3fd736:	34 30                	xor    al,0x30
  3fd738:	6d                   	ins    DWORD PTR es:[rdi],dx
  3fd739:	58                   	pop    rax
  3fd73a:	1b 5b 30             	sbb    ebx,DWORD PTR [rbx+0x30]
  3fd73d:	3b 31                	cmp    esi,DWORD PTR [rcx]
  3fd73f:	3b 33                	cmp    esi,DWORD PTR [rbx]
  3fd741:	37                   	(bad)  
  3fd742:	3b 34 37             	cmp    esi,DWORD PTR [rdi+rsi*1]
  3fd745:	6d                   	ins    DWORD PTR es:[rdi],dx
  3fd746:	58                   	pop    rax
  3fd747:	1b 5b 30             	sbb    ebx,DWORD PTR [rbx+0x30]
  3fd74a:	3b 31                	cmp    esi,DWORD PTR [rcx]
  3fd74c:	3b 33                	cmp    esi,DWORD PTR [rbx]
  3fd74e:	30 3b                	xor    BYTE PTR [rbx],bh
  3fd750:	34 37                	xor    al,0x37
  3fd752:	6d                   	ins    DWORD PTR es:[rdi],dx
  3fd753:	38 1b                	cmp    BYTE PTR [rbx],bl
  3fd755:	5b                   	pop    rbx
  3fd756:	30 3b                	xor    BYTE PTR [rbx],bh
  3fd758:	35 3b 33 37 3b       	xor    eax,0x3b37333b
  3fd75d:	34 30                	xor    al,0x30
  3fd75f:	6d                   	ins    DWORD PTR es:[rdi],dx
  3fd760:	58                   	pop    rax
  3fd761:	1b 5b 30             	sbb    ebx,DWORD PTR [rbx+0x30]
  3fd764:	3b 35 3b 33 33 3b    	cmp    esi,DWORD PTR [rip+0x3b33333b]        # 3b730aa5 <_end+0x3b32ca6d>
  3fd76a:	34 30                	xor    al,0x30
  3fd76c:	6d                   	ins    DWORD PTR es:[rdi],dx
  3fd76d:	3b 1b                	cmp    ebx,DWORD PTR [rbx]
  3fd76f:	5b                   	pop    rbx
  3fd770:	30 3b                	xor    BYTE PTR [rbx],bh
  3fd772:	31 3b                	xor    DWORD PTR [rbx],edi
  3fd774:	33 37                	xor    esi,DWORD PTR [rdi]
  3fd776:	3b 34 37             	cmp    esi,DWORD PTR [rdi+rsi*1]
  3fd779:	6d                   	ins    DWORD PTR es:[rdi],dx
  3fd77a:	40 1b 5b 30          	rex sbb ebx,DWORD PTR [rbx+0x30]
  3fd77e:	3b 35 3b 33 37 3b    	cmp    esi,DWORD PTR [rip+0x3b37333b]        # 3b770abf <_end+0x3b36ca87>
  3fd784:	34 37                	xor    al,0x37
  3fd786:	6d                   	ins    DWORD PTR es:[rdi],dx
  3fd787:	58                   	pop    rax
  3fd788:	25 1b 5b 30 3b       	and    eax,0x3b305b1b
  3fd78d:	35 3b 33 31 3b       	xor    eax,0x3b31333b
  3fd792:	34 30                	xor    al,0x30
  3fd794:	6d                   	ins    DWORD PTR es:[rdi],dx
  3fd795:	58                   	pop    rax
  3fd796:	1b 5b 30             	sbb    ebx,DWORD PTR [rbx+0x30]
  3fd799:	3b 35 3b 33 36 3b    	cmp    esi,DWORD PTR [rip+0x3b36333b]        # 3b760ada <_end+0x3b35caa2>
  3fd79f:	34 30                	xor    al,0x30
  3fd7a1:	6d                   	ins    DWORD PTR es:[rdi],dx
  3fd7a2:	25 1b 5b 30 3b       	and    eax,0x3b305b1b
  3fd7a7:	31 3b                	xor    DWORD PTR [rbx],edi
  3fd7a9:	33 30                	xor    esi,DWORD PTR [rax]
  3fd7ab:	3b 34 37             	cmp    esi,DWORD PTR [rdi+rsi*1]
  3fd7ae:	6d                   	ins    DWORD PTR es:[rdi],dx
  3fd7af:	58                   	pop    rax
  3fd7b0:	1b 5b 30             	sbb    ebx,DWORD PTR [rbx+0x30]
  3fd7b3:	3b 35 3b 33 37 3b    	cmp    esi,DWORD PTR [rip+0x3b37333b]        # 3b770af4 <_end+0x3b36cabc>
  3fd7b9:	34 37                	xor    al,0x37
  3fd7bb:	6d                   	ins    DWORD PTR es:[rdi],dx
  3fd7bc:	38 1b                	cmp    BYTE PTR [rbx],bl
  3fd7be:	5b                   	pop    rbx
  3fd7bf:	30 3b                	xor    BYTE PTR [rbx],bh
  3fd7c1:	31 3b                	xor    DWORD PTR [rbx],edi
  3fd7c3:	33 30                	xor    esi,DWORD PTR [rax]
  3fd7c5:	3b 34 37             	cmp    esi,DWORD PTR [rdi+rsi*1]
  3fd7c8:	6d                   	ins    DWORD PTR es:[rdi],dx
  3fd7c9:	20 1b                	and    BYTE PTR [rbx],bl
  3fd7cb:	5b                   	pop    rbx
  3fd7cc:	30 3b                	xor    BYTE PTR [rbx],bh
  3fd7ce:	35 3b 33 33 3b       	xor    eax,0x3b33333b
  3fd7d3:	34 30                	xor    al,0x30
  3fd7d5:	6d                   	ins    DWORD PTR es:[rdi],dx
  3fd7d6:	74 3b                	je     3fd813 <_init-0x37ed>
  3fd7d8:	3a 38                	cmp    bh,BYTE PTR [rax]
  3fd7da:	1b 5b 30             	sbb    ebx,DWORD PTR [rbx+0x30]
  3fd7dd:	3b 33                	cmp    esi,DWORD PTR [rbx]
  3fd7df:	31 3b                	xor    DWORD PTR [rbx],edi
  3fd7e1:	34 30                	xor    al,0x30
  3fd7e3:	6d                   	ins    DWORD PTR es:[rdi],dx
  3fd7e4:	58                   	pop    rax
  3fd7e5:	1b 5b 30             	sbb    ebx,DWORD PTR [rbx+0x30]
  3fd7e8:	3b 31                	cmp    esi,DWORD PTR [rcx]
  3fd7ea:	3b 33                	cmp    esi,DWORD PTR [rbx]
  3fd7ec:	30 3b                	xor    BYTE PTR [rbx],bh
  3fd7ee:	34 30                	xor    al,0x30
  3fd7f0:	6d                   	ins    DWORD PTR es:[rdi],dx
  3fd7f1:	38 38                	cmp    BYTE PTR [rax],bh
  3fd7f3:	38 1b                	cmp    BYTE PTR [rbx],bl
  3fd7f5:	5b                   	pop    rbx
  3fd7f6:	30 3b                	xor    BYTE PTR [rbx],bh
  3fd7f8:	33 31                	xor    esi,DWORD PTR [rcx]
  3fd7fa:	3b 34 30             	cmp    esi,DWORD PTR [rax+rsi*1]
  3fd7fd:	6d                   	ins    DWORD PTR es:[rdi],dx
  3fd7fe:	38 1b                	cmp    BYTE PTR [rbx],bl
  3fd800:	5b                   	pop    rbx
  3fd801:	30 3b                	xor    BYTE PTR [rbx],bh
  3fd803:	31 3b                	xor    DWORD PTR [rbx],edi
  3fd805:	33 30                	xor    esi,DWORD PTR [rax]
  3fd807:	3b 34 30             	cmp    esi,DWORD PTR [rax+rsi*1]
  3fd80a:	6d                   	ins    DWORD PTR es:[rdi],dx
  3fd80b:	38 1b                	cmp    BYTE PTR [rbx],bl
  3fd80d:	5b                   	pop    rbx
  3fd80e:	30 6d 0d             	xor    BYTE PTR [rbp+0xd],ch
  3fd811:	0a 1b                	or     bl,BYTE PTR [rbx]
  3fd813:	5b                   	pop    rbx
  3fd814:	30 3b                	xor    BYTE PTR [rbx],bh
  3fd816:	31 3b                	xor    DWORD PTR [rbx],edi
  3fd818:	33 30                	xor    esi,DWORD PTR [rax]
  3fd81a:	3b 34 30             	cmp    esi,DWORD PTR [rax+rsi*1]
  3fd81d:	6d                   	ins    DWORD PTR es:[rdi],dx
  3fd81e:	40 1b 5b 30          	rex sbb ebx,DWORD PTR [rbx+0x30]
  3fd822:	3b 35 3b 33 30 3b    	cmp    esi,DWORD PTR [rip+0x3b30333b]        # 3b700b63 <_end+0x3b2fcb2b>
  3fd828:	34 30                	xor    al,0x30
  3fd82a:	6d                   	ins    DWORD PTR es:[rdi],dx
  3fd82b:	38 1b                	cmp    BYTE PTR [rbx],bl
  3fd82d:	5b                   	pop    rbx
  3fd82e:	30 3b                	xor    BYTE PTR [rbx],bh
  3fd830:	31 3b                	xor    DWORD PTR [rbx],edi
  3fd832:	33 30                	xor    esi,DWORD PTR [rax]
  3fd834:	3b 34 30             	cmp    esi,DWORD PTR [rax+rsi*1]
  3fd837:	6d                   	ins    DWORD PTR es:[rdi],dx
  3fd838:	38 1b                	cmp    BYTE PTR [rbx],bl
  3fd83a:	5b                   	pop    rbx
  3fd83b:	30 3b                	xor    BYTE PTR [rbx],bh
  3fd83d:	33 30                	xor    esi,DWORD PTR [rax]
  3fd83f:	3b 34 31             	cmp    esi,DWORD PTR [rcx+rsi*1]
  3fd842:	6d                   	ins    DWORD PTR es:[rdi],dx
  3fd843:	38 1b                	cmp    BYTE PTR [rbx],bl
  3fd845:	5b                   	pop    rbx
  3fd846:	30 3b                	xor    BYTE PTR [rbx],bh
  3fd848:	35 3b 33 30 3b       	xor    eax,0x3b30333b
  3fd84d:	34 30                	xor    al,0x30
  3fd84f:	6d                   	ins    DWORD PTR es:[rdi],dx
  3fd850:	58                   	pop    rax
  3fd851:	1b 5b 30             	sbb    ebx,DWORD PTR [rbx+0x30]
  3fd854:	3b 33                	cmp    esi,DWORD PTR [rbx]
  3fd856:	31 3b                	xor    DWORD PTR [rbx],edi
  3fd858:	34 30                	xor    al,0x30
  3fd85a:	6d                   	ins    DWORD PTR es:[rdi],dx
  3fd85b:	40 1b 5b 30          	rex sbb ebx,DWORD PTR [rbx+0x30]
  3fd85f:	3b 35 3b 33 32 3b    	cmp    esi,DWORD PTR [rip+0x3b32333b]        # 3b720ba0 <_end+0x3b31cb68>
  3fd865:	34 30                	xor    al,0x30
  3fd867:	6d                   	ins    DWORD PTR es:[rdi],dx
  3fd868:	58                   	pop    rax
  3fd869:	1b 5b 30             	sbb    ebx,DWORD PTR [rbx+0x30]
  3fd86c:	3b 35 3b 33 37 3b    	cmp    esi,DWORD PTR [rip+0x3b37333b]        # 3b770bad <_end+0x3b36cb75>
  3fd872:	34 30                	xor    al,0x30
  3fd874:	6d                   	ins    DWORD PTR es:[rdi],dx
  3fd875:	38 1b                	cmp    BYTE PTR [rbx],bl
  3fd877:	5b                   	pop    rbx
  3fd878:	30 3b                	xor    BYTE PTR [rbx],bh
  3fd87a:	35 3b 33 37 3b       	xor    eax,0x3b37333b
  3fd87f:	34 37                	xor    al,0x37
  3fd881:	6d                   	ins    DWORD PTR es:[rdi],dx
  3fd882:	25 1b 5b 30 3b       	and    eax,0x3b305b1b
  3fd887:	35 3b 33 33 3b       	xor    eax,0x3b33333b
  3fd88c:	34 30                	xor    al,0x30
  3fd88e:	6d                   	ins    DWORD PTR es:[rdi],dx
  3fd88f:	20 53 1b             	and    BYTE PTR [rbx+0x1b],dl
  3fd892:	5b                   	pop    rbx
  3fd893:	30 3b                	xor    BYTE PTR [rbx],bh
  3fd895:	31 3b                	xor    DWORD PTR [rbx],edi
  3fd897:	33 37                	xor    esi,DWORD PTR [rdi]
  3fd899:	3b 34 37             	cmp    esi,DWORD PTR [rdi+rsi*1]
  3fd89c:	6d                   	ins    DWORD PTR es:[rdi],dx
  3fd89d:	25 20 1b 5b 30       	and    eax,0x305b1b20
  3fd8a2:	3b 35 3b 33 33 3b    	cmp    esi,DWORD PTR [rip+0x3b33333b]        # 3b730be3 <_end+0x3b32cbab>
  3fd8a8:	34 30                	xor    al,0x30
  3fd8aa:	6d                   	ins    DWORD PTR es:[rdi],dx
  3fd8ab:	20 1b                	and    BYTE PTR [rbx],bl
  3fd8ad:	5b                   	pop    rbx
  3fd8ae:	30 3b                	xor    BYTE PTR [rbx],bh
  3fd8b0:	31 3b                	xor    DWORD PTR [rbx],edi
  3fd8b2:	33 30                	xor    esi,DWORD PTR [rax]
  3fd8b4:	3b 34 37             	cmp    esi,DWORD PTR [rdi+rsi*1]
  3fd8b7:	6d                   	ins    DWORD PTR es:[rdi],dx
  3fd8b8:	53                   	push   rbx
  3fd8b9:	1b 5b 30             	sbb    ebx,DWORD PTR [rbx+0x30]
  3fd8bc:	3b 35 3b 33 33 3b    	cmp    esi,DWORD PTR [rip+0x3b33333b]        # 3b730bfd <_end+0x3b32cbc5>
  3fd8c2:	34 30                	xor    al,0x30
  3fd8c4:	6d                   	ins    DWORD PTR es:[rdi],dx
  3fd8c5:	53                   	push   rbx
  3fd8c6:	1b 5b 30             	sbb    ebx,DWORD PTR [rbx+0x30]
  3fd8c9:	3b 35 3b 33 31 3b    	cmp    esi,DWORD PTR [rip+0x3b31333b]        # 3b710c0a <_end+0x3b30cbd2>
  3fd8cf:	34 30                	xor    al,0x30
  3fd8d1:	6d                   	ins    DWORD PTR es:[rdi],dx
  3fd8d2:	38 1b                	cmp    BYTE PTR [rbx],bl
  3fd8d4:	5b                   	pop    rbx
  3fd8d5:	30 3b                	xor    BYTE PTR [rbx],bh
  3fd8d7:	33 31                	xor    esi,DWORD PTR [rcx]
  3fd8d9:	3b 34 30             	cmp    esi,DWORD PTR [rax+rsi*1]
  3fd8dc:	6d                   	ins    DWORD PTR es:[rdi],dx
  3fd8dd:	53                   	push   rbx
  3fd8de:	1b 5b 30             	sbb    ebx,DWORD PTR [rbx+0x30]
  3fd8e1:	3b 35 3b 33 33 3b    	cmp    esi,DWORD PTR [rip+0x3b33333b]        # 3b730c22 <_end+0x3b32cbea>
  3fd8e7:	34 30                	xor    al,0x30
  3fd8e9:	6d                   	ins    DWORD PTR es:[rdi],dx
  3fd8ea:	58                   	pop    rax
  3fd8eb:	1b 5b 30             	sbb    ebx,DWORD PTR [rbx+0x30]
  3fd8ee:	3b 35 3b 33 31 3b    	cmp    esi,DWORD PTR [rip+0x3b31333b]        # 3b710c2f <_end+0x3b30cbf7>
  3fd8f4:	34 30                	xor    al,0x30
  3fd8f6:	6d                   	ins    DWORD PTR es:[rdi],dx
  3fd8f7:	38 1b                	cmp    BYTE PTR [rbx],bl
  3fd8f9:	5b                   	pop    rbx
  3fd8fa:	30 3b                	xor    BYTE PTR [rbx],bh
  3fd8fc:	35 3b 33 33 3b       	xor    eax,0x3b33333b
  3fd901:	34 30                	xor    al,0x30
  3fd903:	6d                   	ins    DWORD PTR es:[rdi],dx
  3fd904:	58                   	pop    rax
  3fd905:	1b 5b 30             	sbb    ebx,DWORD PTR [rbx+0x30]
  3fd908:	3b 35 3b 33 31 3b    	cmp    esi,DWORD PTR [rip+0x3b31333b]        # 3b710c49 <_end+0x3b30cc11>
  3fd90e:	34 30                	xor    al,0x30
  3fd910:	6d                   	ins    DWORD PTR es:[rdi],dx
  3fd911:	38 1b                	cmp    BYTE PTR [rbx],bl
  3fd913:	5b                   	pop    rbx
  3fd914:	30 3b                	xor    BYTE PTR [rbx],bh
  3fd916:	31 3b                	xor    DWORD PTR [rbx],edi
  3fd918:	33 30                	xor    esi,DWORD PTR [rax]
  3fd91a:	3b 34 30             	cmp    esi,DWORD PTR [rax+rsi*1]
  3fd91d:	6d                   	ins    DWORD PTR es:[rdi],dx
  3fd91e:	38 1b                	cmp    BYTE PTR [rbx],bl
  3fd920:	5b                   	pop    rbx
  3fd921:	30 3b                	xor    BYTE PTR [rbx],bh
  3fd923:	35 3b 33 31 3b       	xor    eax,0x3b31333b
  3fd928:	34 30                	xor    al,0x30
  3fd92a:	6d                   	ins    DWORD PTR es:[rdi],dx
  3fd92b:	38 38                	cmp    BYTE PTR [rax],bh
  3fd92d:	1b 5b 30             	sbb    ebx,DWORD PTR [rbx+0x30]
  3fd930:	3b 31                	cmp    esi,DWORD PTR [rcx]
  3fd932:	3b 33                	cmp    esi,DWORD PTR [rbx]
  3fd934:	30 3b                	xor    BYTE PTR [rbx],bh
  3fd936:	34 30                	xor    al,0x30
  3fd938:	6d                   	ins    DWORD PTR es:[rdi],dx
  3fd939:	38 1b                	cmp    BYTE PTR [rbx],bl
  3fd93b:	5b                   	pop    rbx
  3fd93c:	30 3b                	xor    BYTE PTR [rbx],bh
  3fd93e:	35 3b 33 33 3b       	xor    eax,0x3b33333b
  3fd943:	34 30                	xor    al,0x30
  3fd945:	6d                   	ins    DWORD PTR es:[rdi],dx
  3fd946:	38 1b                	cmp    BYTE PTR [rbx],bl
  3fd948:	5b                   	pop    rbx
  3fd949:	30 3b                	xor    BYTE PTR [rbx],bh
  3fd94b:	35 3b 33 35 3b       	xor    eax,0x3b35333b
  3fd950:	34 30                	xor    al,0x30
  3fd952:	6d                   	ins    DWORD PTR es:[rdi],dx
  3fd953:	20 1b                	and    BYTE PTR [rbx],bl
  3fd955:	5b                   	pop    rbx
  3fd956:	30 3b                	xor    BYTE PTR [rbx],bh
  3fd958:	35 3b 33 33 3b       	xor    eax,0x3b33333b
  3fd95d:	34 30                	xor    al,0x30
  3fd95f:	6d                   	ins    DWORD PTR es:[rdi],dx
  3fd960:	20 53 1b             	and    BYTE PTR [rbx+0x1b],dl
  3fd963:	5b                   	pop    rbx
  3fd964:	30 3b                	xor    BYTE PTR [rbx],bh
  3fd966:	35 3b 33 31 3b       	xor    eax,0x3b31333b
  3fd96b:	34 30                	xor    al,0x30
