
./sweet:     file format elf64-x86-64


Disassembly of section .init:

0000000000401000 <_init>:
  401000:	f3 0f 1e fa          	endbr64 
  401004:	48 83 ec 08          	sub    rsp,0x8
  401008:	48 8b 05 e9 2f 00 00 	mov    rax,QWORD PTR [rip+0x2fe9]        # 403ff8 <__gmon_start__>
  40100f:	48 85 c0             	test   rax,rax
  401012:	74 02                	je     401016 <_init+0x16>
  401014:	ff d0                	call   rax
  401016:	48 83 c4 08          	add    rsp,0x8
  40101a:	c3                   	ret    

Disassembly of section .plt:

0000000000401020 <.plt>:
  401020:	ff 35 e2 2f 00 00    	push   QWORD PTR [rip+0x2fe2]        # 404008 <_GLOBAL_OFFSET_TABLE_+0x8>
  401026:	f2 ff 25 e3 2f 00 00 	bnd jmp QWORD PTR [rip+0x2fe3]        # 404010 <_GLOBAL_OFFSET_TABLE_+0x10>
  40102d:	0f 1f 00             	nop    DWORD PTR [rax]
  401030:	f3 0f 1e fa          	endbr64 
  401034:	68 00 00 00 00       	push   0x0
  401039:	f2 e9 e1 ff ff ff    	bnd jmp 401020 <.plt>
  40103f:	90                   	nop

Disassembly of section .plt.sec:

0000000000401040 <printf@plt>:
  401040:	f3 0f 1e fa          	endbr64 
  401044:	f2 ff 25 cd 2f 00 00 	bnd jmp QWORD PTR [rip+0x2fcd]        # 404018 <printf@GLIBC_2.2.5>
  40104b:	0f 1f 44 00 00       	nop    DWORD PTR [rax+rax*1+0x0]

Disassembly of section .text:

00000000003fa040 <_start-0x7010>:
  3fa040:	f3 0f 1e fa          	endbr64 
  3fa044:	55                   	push   rbp
  3fa045:	48 89 e5             	mov    rbp,rsp
  3fa048:	54                   	push   rsp
  3fa049:	55                   	push   rbp
  3fa04a:	50                   	push   rax
  3fa04b:	53                   	push   rbx
  3fa04c:	51                   	push   rcx
  3fa04d:	52                   	push   rdx
  3fa04e:	41 50                	push   r8
  3fa050:	41 51                	push   r9
  3fa052:	41 52                	push   r10
  3fa054:	41 53                	push   r11
  3fa056:	41 54                	push   r12
  3fa058:	41 55                	push   r13
  3fa05a:	41 56                	push   r14
  3fa05c:	41 57                	push   r15
  3fa05e:	e8 e9 1a 00 00       	call   3fbb4c <_init-0x54b4>
  3fa063:	41 5f                	pop    r15
  3fa065:	41 5e                	pop    r14
  3fa067:	41 5d                	pop    r13
  3fa069:	41 5c                	pop    r12
  3fa06b:	41 5b                	pop    r11
  3fa06d:	41 5a                	pop    r10
  3fa06f:	41 59                	pop    r9
  3fa071:	41 58                	pop    r8
  3fa073:	5a                   	pop    rdx
  3fa074:	59                   	pop    rcx
  3fa075:	5b                   	pop    rbx
  3fa076:	58                   	pop    rax
  3fa077:	5d                   	pop    rbp
  3fa078:	5c                   	pop    rsp
  3fa079:	48 83 c4 08          	add    rsp,0x8
  3fa07d:	e9 92 2a 00 00       	jmp    3fcb14 <_init-0x44ec>
  3fa082:	90                   	nop
  3fa083:	5d                   	pop    rbp
  3fa084:	c3                   	ret    
  3fa085:	f3 0f 1e fa          	endbr64 
  3fa089:	55                   	push   rbp
  3fa08a:	48 89 e5             	mov    rbp,rsp
  3fa08d:	48 81 ec 40 04 00 00 	sub    rsp,0x440
  3fa094:	48 89 bd c8 fb ff ff 	mov    QWORD PTR [rbp-0x438],rdi
  3fa09b:	48 8b 85 c8 fb ff ff 	mov    rax,QWORD PTR [rbp-0x438]
  3fa0a2:	48 89 45 f8          	mov    QWORD PTR [rbp-0x8],rax
  3fa0a6:	c7 45 f4 00 00 00 00 	mov    DWORD PTR [rbp-0xc],0x0
  3fa0ad:	c7 45 ec 05 00 00 00 	mov    DWORD PTR [rbp-0x14],0x5
  3fa0b4:	48 8d 85 d0 fb ff ff 	lea    rax,[rbp-0x430]
  3fa0bb:	be 00 00 00 00       	mov    esi,0x0
  3fa0c0:	48 89 c7             	mov    rdi,rax
  3fa0c3:	e8 c9 20 00 00       	call   3fc191 <_init-0x4e6f>
  3fa0c8:	48 8d 85 d0 fb ff ff 	lea    rax,[rbp-0x430]
  3fa0cf:	48 83 c0 08          	add    rax,0x8
  3fa0d3:	48 89 c7             	mov    rdi,rax
  3fa0d6:	e8 e1 01 00 00       	call   3fa2bc <_init-0x6d44>
  3fa0db:	99                   	cdq    
  3fa0dc:	f7 7d ec             	idiv   DWORD PTR [rbp-0x14]
  3fa0df:	89 d0                	mov    eax,edx
  3fa0e1:	89 45 f0             	mov    DWORD PTR [rbp-0x10],eax
  3fa0e4:	83 7d f0 03          	cmp    DWORD PTR [rbp-0x10],0x3
  3fa0e8:	0f 85 2a 01 00 00    	jne    3fa218 <_init-0x6de8>
  3fa0ee:	48 8d 85 e0 fb ff ff 	lea    rax,[rbp-0x420]
  3fa0f5:	ba 00 04 00 00       	mov    edx,0x400
  3fa0fa:	be 00 00 00 00       	mov    esi,0x0
  3fa0ff:	48 89 c7             	mov    rdi,rax
  3fa102:	e8 0b 21 00 00       	call   3fc212 <_init-0x4dee>
  3fa107:	e9 e3 00 00 00       	jmp    3fa1ef <_init-0x6e11>
  3fa10c:	48 8b 45 f8          	mov    rax,QWORD PTR [rbp-0x8]
  3fa110:	0f b6 00             	movzx  eax,BYTE PTR [rax]
  3fa113:	0f be c0             	movsx  eax,al
  3fa116:	89 c7                	mov    edi,eax
  3fa118:	e8 7d 28 00 00       	call   3fc99a <_init-0x4666>
  3fa11d:	0f be c0             	movsx  eax,al
  3fa120:	83 e8 41             	sub    eax,0x41
  3fa123:	83 f8 13             	cmp    eax,0x13
  3fa126:	0f 87 a4 00 00 00    	ja     3fa1d0 <_init-0x6e30>
  3fa12c:	89 c0                	mov    eax,eax
  3fa12e:	48 8d 14 85 00 00 00 	lea    rdx,[rax*4+0x0]
  3fa135:	00 
  3fa136:	48 8d 05 27 2a 00 00 	lea    rax,[rip+0x2a27]        # 3fcb64 <_init-0x449c>
  3fa13d:	8b 04 02             	mov    eax,DWORD PTR [rdx+rax*1]
  3fa140:	48 98                	cdqe   
  3fa142:	48 8d 15 1b 2a 00 00 	lea    rdx,[rip+0x2a1b]        # 3fcb64 <_init-0x449c>
  3fa149:	48 01 d0             	add    rax,rdx
  3fa14c:	3e ff e0             	notrack jmp rax
  3fa14f:	8b 45 f4             	mov    eax,DWORD PTR [rbp-0xc]
  3fa152:	8d 50 01             	lea    edx,[rax+0x1]
  3fa155:	89 55 f4             	mov    DWORD PTR [rbp-0xc],edx
  3fa158:	48 98                	cdqe   
  3fa15a:	c6 84 05 e0 fb ff ff 	mov    BYTE PTR [rbp+rax*1-0x420],0x31
  3fa161:	31 
  3fa162:	e9 83 00 00 00       	jmp    3fa1ea <_init-0x6e16>
  3fa167:	8b 45 f4             	mov    eax,DWORD PTR [rbp-0xc]
  3fa16a:	8d 50 01             	lea    edx,[rax+0x1]
  3fa16d:	89 55 f4             	mov    DWORD PTR [rbp-0xc],edx
  3fa170:	48 98                	cdqe   
  3fa172:	c6 84 05 e0 fb ff ff 	mov    BYTE PTR [rbp+rax*1-0x420],0x33
  3fa179:	33 
  3fa17a:	eb 6e                	jmp    3fa1ea <_init-0x6e16>
  3fa17c:	8b 45 f4             	mov    eax,DWORD PTR [rbp-0xc]
  3fa17f:	8d 50 01             	lea    edx,[rax+0x1]
  3fa182:	89 55 f4             	mov    DWORD PTR [rbp-0xc],edx
  3fa185:	48 98                	cdqe   
  3fa187:	c6 84 05 e0 fb ff ff 	mov    BYTE PTR [rbp+rax*1-0x420],0x35
  3fa18e:	35 
  3fa18f:	eb 59                	jmp    3fa1ea <_init-0x6e16>
  3fa191:	8b 45 f4             	mov    eax,DWORD PTR [rbp-0xc]
  3fa194:	8d 50 01             	lea    edx,[rax+0x1]
  3fa197:	89 55 f4             	mov    DWORD PTR [rbp-0xc],edx
  3fa19a:	48 98                	cdqe   
  3fa19c:	c6 84 05 e0 fb ff ff 	mov    BYTE PTR [rbp+rax*1-0x420],0x37
  3fa1a3:	37 
  3fa1a4:	eb 44                	jmp    3fa1ea <_init-0x6e16>
  3fa1a6:	8b 45 f4             	mov    eax,DWORD PTR [rbp-0xc]
  3fa1a9:	8d 50 01             	lea    edx,[rax+0x1]
  3fa1ac:	89 55 f4             	mov    DWORD PTR [rbp-0xc],edx
  3fa1af:	48 98                	cdqe   
  3fa1b1:	c6 84 05 e0 fb ff ff 	mov    BYTE PTR [rbp+rax*1-0x420],0x30
  3fa1b8:	30 
  3fa1b9:	eb 2f                	jmp    3fa1ea <_init-0x6e16>
  3fa1bb:	8b 45 f4             	mov    eax,DWORD PTR [rbp-0xc]
  3fa1be:	8d 50 01             	lea    edx,[rax+0x1]
  3fa1c1:	89 55 f4             	mov    DWORD PTR [rbp-0xc],edx
  3fa1c4:	48 98                	cdqe   
  3fa1c6:	c6 84 05 e0 fb ff ff 	mov    BYTE PTR [rbp+rax*1-0x420],0x34
  3fa1cd:	34 
  3fa1ce:	eb 1a                	jmp    3fa1ea <_init-0x6e16>
  3fa1d0:	8b 45 f4             	mov    eax,DWORD PTR [rbp-0xc]
  3fa1d3:	8d 50 01             	lea    edx,[rax+0x1]
  3fa1d6:	89 55 f4             	mov    DWORD PTR [rbp-0xc],edx
  3fa1d9:	48 8b 55 f8          	mov    rdx,QWORD PTR [rbp-0x8]
  3fa1dd:	0f b6 12             	movzx  edx,BYTE PTR [rdx]
  3fa1e0:	48 98                	cdqe   
  3fa1e2:	88 94 05 e0 fb ff ff 	mov    BYTE PTR [rbp+rax*1-0x420],dl
  3fa1e9:	90                   	nop
  3fa1ea:	48 83 45 f8 01       	add    QWORD PTR [rbp-0x8],0x1
  3fa1ef:	48 8b 45 f8          	mov    rax,QWORD PTR [rbp-0x8]
  3fa1f3:	0f b6 00             	movzx  eax,BYTE PTR [rax]
  3fa1f6:	84 c0                	test   al,al
  3fa1f8:	74 0d                	je     3fa207 <_init-0x6df9>
  3fa1fa:	81 7d f4 ff 03 00 00 	cmp    DWORD PTR [rbp-0xc],0x3ff
  3fa201:	0f 8e 05 ff ff ff    	jle    3fa10c <_init-0x6ef4>
  3fa207:	48 8d 85 e0 fb ff ff 	lea    rax,[rbp-0x420]
  3fa20e:	48 89 c7             	mov    rdi,rax
  3fa211:	e8 fa 26 00 00       	call   3fc910 <_init-0x46f0>
  3fa216:	eb 14                	jmp    3fa22c <_init-0x6dd4>
  3fa218:	90                   	nop
  3fa219:	f3 0f 1e fa          	endbr64 
  3fa21d:	48 8b 85 c8 fb ff ff 	mov    rax,QWORD PTR [rbp-0x438]
  3fa224:	48 89 c7             	mov    rdi,rax
  3fa227:	e8 e4 26 00 00       	call   3fc910 <_init-0x46f0>
  3fa22c:	c9                   	leave  
  3fa22d:	c3                   	ret    
  3fa22e:	f3 0f 1e fa          	endbr64 
  3fa232:	55                   	push   rbp
  3fa233:	48 89 e5             	mov    rbp,rsp
  3fa236:	48 83 ec 10          	sub    rsp,0x10
  3fa23a:	48 89 7d f8          	mov    QWORD PTR [rbp-0x8],rdi
  3fa23e:	48 89 75 f0          	mov    QWORD PTR [rbp-0x10],rsi
  3fa242:	48 8b 45 f0          	mov    rax,QWORD PTR [rbp-0x10]
  3fa246:	48 8b 00             	mov    rax,QWORD PTR [rax]
  3fa249:	48 85 c0             	test   rax,rax
  3fa24c:	75 46                	jne    3fa294 <_init-0x6d6c>
  3fa24e:	41 b9 00 00 00 00    	mov    r9d,0x0
  3fa254:	49 c7 c0 ff ff ff ff 	mov    r8,0xffffffffffffffff
  3fa25b:	b9 22 00 00 00       	mov    ecx,0x22
  3fa260:	ba 03 00 00 00       	mov    edx,0x3
  3fa265:	be 00 00 20 00       	mov    esi,0x200000
  3fa26a:	bf 00 00 00 00       	mov    edi,0x0
  3fa26f:	e8 a0 1d 00 00       	call   3fc014 <_init-0x4fec>
  3fa274:	48 8b 55 f0          	mov    rdx,QWORD PTR [rbp-0x10]
  3fa278:	48 89 02             	mov    QWORD PTR [rdx],rax
  3fa27b:	48 8b 45 f0          	mov    rax,QWORD PTR [rbp-0x10]
  3fa27f:	48 8b 00             	mov    rax,QWORD PTR [rax]
  3fa282:	48 83 f8 ff          	cmp    rax,0xffffffffffffffff
  3fa286:	75 0c                	jne    3fa294 <_init-0x6d6c>
  3fa288:	48 c7 c7 ff ff ff ff 	mov    rdi,0xffffffffffffffff
  3fa28f:	e8 c5 1b 00 00       	call   3fbe59 <_init-0x51a7>
  3fa294:	48 8b 45 f0          	mov    rax,QWORD PTR [rbp-0x10]
  3fa298:	48 8b 00             	mov    rax,QWORD PTR [rax]
  3fa29b:	48 8d 90 00 01 00 00 	lea    rdx,[rax+0x100]
  3fa2a2:	48 8b 45 f0          	mov    rax,QWORD PTR [rbp-0x10]
  3fa2a6:	48 89 10             	mov    QWORD PTR [rax],rdx
  3fa2a9:	48 8b 45 f0          	mov    rax,QWORD PTR [rbp-0x10]
  3fa2ad:	48 8b 00             	mov    rax,QWORD PTR [rax]
  3fa2b0:	48 8b 55 f8          	mov    rdx,QWORD PTR [rbp-0x8]
  3fa2b4:	48 f7 da             	neg    rdx
  3fa2b7:	48 01 d0             	add    rax,rdx
  3fa2ba:	c9                   	leave  
  3fa2bb:	c3                   	ret    
  3fa2bc:	55                   	push   rbp
  3fa2bd:	48 89 e5             	mov    rbp,rsp
  3fa2c0:	48 89 7d f8          	mov    QWORD PTR [rbp-0x8],rdi
  3fa2c4:	48 8b 45 f8          	mov    rax,QWORD PTR [rbp-0x8]
  3fa2c8:	48 8b 00             	mov    rax,QWORD PTR [rax]
  3fa2cb:	48 69 c0 6d 4e c6 41 	imul   rax,rax,0x41c64e6d
  3fa2d2:	48 8d 90 39 30 00 00 	lea    rdx,[rax+0x3039]
  3fa2d9:	48 8b 45 f8          	mov    rax,QWORD PTR [rbp-0x8]
  3fa2dd:	48 89 10             	mov    QWORD PTR [rax],rdx
  3fa2e0:	48 8b 45 f8          	mov    rax,QWORD PTR [rbp-0x8]
  3fa2e4:	48 8b 00             	mov    rax,QWORD PTR [rax]
  3fa2e7:	48 8d 90 ff ff 00 00 	lea    rdx,[rax+0xffff]
  3fa2ee:	48 85 c0             	test   rax,rax
  3fa2f1:	48 0f 48 c2          	cmovs  rax,rdx
  3fa2f5:	48 c1 f8 10          	sar    rax,0x10
  3fa2f9:	25 ff 7f 00 00       	and    eax,0x7fff
  3fa2fe:	5d                   	pop    rbp
  3fa2ff:	c3                   	ret    
  3fa300:	55                   	push   rbp
  3fa301:	48 89 e5             	mov    rbp,rsp
  3fa304:	48 83 ec 30          	sub    rsp,0x30
  3fa308:	48 89 7d d8          	mov    QWORD PTR [rbp-0x28],rdi
  3fa30c:	c7 45 fc 04 00 00 00 	mov    DWORD PTR [rbp-0x4],0x4
  3fa313:	48 8d 45 e0          	lea    rax,[rbp-0x20]
  3fa317:	be 00 00 00 00       	mov    esi,0x0
  3fa31c:	48 89 c7             	mov    rdi,rax
  3fa31f:	e8 6d 1e 00 00       	call   3fc191 <_init-0x4e6f>
  3fa324:	48 8d 45 e0          	lea    rax,[rbp-0x20]
  3fa328:	48 83 c0 08          	add    rax,0x8
  3fa32c:	48 89 c7             	mov    rdi,rax
  3fa32f:	e8 88 ff ff ff       	call   3fa2bc <_init-0x6d44>
  3fa334:	99                   	cdq    
  3fa335:	f7 7d fc             	idiv   DWORD PTR [rbp-0x4]
  3fa338:	89 d0                	mov    eax,edx
  3fa33a:	89 c0                	mov    eax,eax
  3fa33c:	48 8d 14 c5 00 00 00 	lea    rdx,[rax*8+0x0]
  3fa343:	00 
  3fa344:	48 8b 45 d8          	mov    rax,QWORD PTR [rbp-0x28]
  3fa348:	48 01 d0             	add    rax,rdx
  3fa34b:	48 8b 00             	mov    rax,QWORD PTR [rax]
  3fa34e:	c9                   	leave  
  3fa34f:	c3                   	ret    
  3fa350:	f3 0f 1e fa          	endbr64 
  3fa354:	55                   	push   rbp
  3fa355:	48 89 e5             	mov    rbp,rsp
  3fa358:	53                   	push   rbx
  3fa359:	48 83 ec 38          	sub    rsp,0x38
  3fa35d:	48 89 7d d8          	mov    QWORD PTR [rbp-0x28],rdi
  3fa361:	48 89 75 d0          	mov    QWORD PTR [rbp-0x30],rsi
  3fa365:	48 89 55 c8          	mov    QWORD PTR [rbp-0x38],rdx
  3fa369:	48 8b 45 d8          	mov    rax,QWORD PTR [rbp-0x28]
  3fa36d:	48 89 c7             	mov    rdi,rax
  3fa370:	e8 f2 25 00 00       	call   3fc967 <_init-0x4699>
  3fa375:	48 89 c3             	mov    rbx,rax
  3fa378:	48 8b 45 d0          	mov    rax,QWORD PTR [rbp-0x30]
  3fa37c:	48 89 c7             	mov    rdi,rax
  3fa37f:	e8 e3 25 00 00       	call   3fc967 <_init-0x4699>
  3fa384:	48 01 d8             	add    rax,rbx
  3fa387:	48 8d 50 02          	lea    rdx,[rax+0x2]
  3fa38b:	48 8b 45 c8          	mov    rax,QWORD PTR [rbp-0x38]
  3fa38f:	48 89 c6             	mov    rsi,rax
  3fa392:	48 89 d7             	mov    rdi,rdx
  3fa395:	e8 94 fe ff ff       	call   3fa22e <_init-0x6dd2>
  3fa39a:	48 89 45 e8          	mov    QWORD PTR [rbp-0x18],rax
  3fa39e:	48 8b 45 d8          	mov    rax,QWORD PTR [rbp-0x28]
  3fa3a2:	48 89 c7             	mov    rdi,rax
  3fa3a5:	e8 bd 25 00 00       	call   3fc967 <_init-0x4699>
  3fa3aa:	89 c3                	mov    ebx,eax
  3fa3ac:	48 8b 45 d0          	mov    rax,QWORD PTR [rbp-0x30]
  3fa3b0:	48 89 c7             	mov    rdi,rax
  3fa3b3:	e8 af 25 00 00       	call   3fc967 <_init-0x4699>
  3fa3b8:	8d 14 03             	lea    edx,[rbx+rax*1]
  3fa3bb:	48 8b 45 e8          	mov    rax,QWORD PTR [rbp-0x18]
  3fa3bf:	be 00 00 00 00       	mov    esi,0x0
  3fa3c4:	48 89 c7             	mov    rdi,rax
  3fa3c7:	e8 46 1e 00 00       	call   3fc212 <_init-0x4dee>
  3fa3cc:	48 8b 45 d0          	mov    rax,QWORD PTR [rbp-0x30]
  3fa3d0:	48 89 c7             	mov    rdi,rax
  3fa3d3:	e8 8f 25 00 00       	call   3fc967 <_init-0x4699>
  3fa3d8:	89 c2                	mov    edx,eax
  3fa3da:	48 8b 4d d0          	mov    rcx,QWORD PTR [rbp-0x30]
  3fa3de:	48 8b 45 e8          	mov    rax,QWORD PTR [rbp-0x18]
  3fa3e2:	48 89 ce             	mov    rsi,rcx
  3fa3e5:	48 89 c7             	mov    rdi,rax
  3fa3e8:	e8 d2 1d 00 00       	call   3fc1bf <_init-0x4e41>
  3fa3ed:	48 8b 45 d0          	mov    rax,QWORD PTR [rbp-0x30]
  3fa3f1:	48 89 c7             	mov    rdi,rax
  3fa3f4:	e8 6e 25 00 00       	call   3fc967 <_init-0x4699>
  3fa3f9:	48 8b 55 e8          	mov    rdx,QWORD PTR [rbp-0x18]
  3fa3fd:	48 01 d0             	add    rax,rdx
  3fa400:	c6 00 2f             	mov    BYTE PTR [rax],0x2f
  3fa403:	48 8b 45 d8          	mov    rax,QWORD PTR [rbp-0x28]
  3fa407:	0f b6 00             	movzx  eax,BYTE PTR [rax]
  3fa40a:	3c 2e                	cmp    al,0x2e
  3fa40c:	75 14                	jne    3fa422 <_init-0x6bde>
  3fa40e:	48 8b 45 d8          	mov    rax,QWORD PTR [rbp-0x28]
  3fa412:	48 83 c0 01          	add    rax,0x1
  3fa416:	0f b6 00             	movzx  eax,BYTE PTR [rax]
  3fa419:	3c 2f                	cmp    al,0x2f
  3fa41b:	75 05                	jne    3fa422 <_init-0x6bde>
  3fa41d:	48 83 45 d8 02       	add    QWORD PTR [rbp-0x28],0x2
  3fa422:	48 8b 45 d8          	mov    rax,QWORD PTR [rbp-0x28]
  3fa426:	48 89 c7             	mov    rdi,rax
  3fa429:	e8 39 25 00 00       	call   3fc967 <_init-0x4699>
  3fa42e:	89 c3                	mov    ebx,eax
  3fa430:	48 8b 45 d0          	mov    rax,QWORD PTR [rbp-0x30]
  3fa434:	48 89 c7             	mov    rdi,rax
  3fa437:	e8 2b 25 00 00       	call   3fc967 <_init-0x4699>
  3fa43c:	48 8d 50 01          	lea    rdx,[rax+0x1]
  3fa440:	48 8b 45 e8          	mov    rax,QWORD PTR [rbp-0x18]
  3fa444:	48 8d 0c 02          	lea    rcx,[rdx+rax*1]
  3fa448:	48 8b 45 d8          	mov    rax,QWORD PTR [rbp-0x28]
  3fa44c:	89 da                	mov    edx,ebx
  3fa44e:	48 89 c6             	mov    rsi,rax
  3fa451:	48 89 cf             	mov    rdi,rcx
  3fa454:	e8 66 1d 00 00       	call   3fc1bf <_init-0x4e41>
  3fa459:	48 8b 45 e8          	mov    rax,QWORD PTR [rbp-0x18]
  3fa45d:	48 83 c4 38          	add    rsp,0x38
  3fa461:	5b                   	pop    rbx
  3fa462:	5d                   	pop    rbp
  3fa463:	c3                   	ret    
  3fa464:	f3 0f 1e fa          	endbr64 
  3fa468:	55                   	push   rbp
  3fa469:	48 89 e5             	mov    rbp,rsp
  3fa46c:	48 81 ec 30 01 00 00 	sub    rsp,0x130
  3fa473:	48 89 bd f8 fe ff ff 	mov    QWORD PTR [rbp-0x108],rdi
  3fa47a:	48 89 b5 f0 fe ff ff 	mov    QWORD PTR [rbp-0x110],rsi
  3fa481:	48 89 95 e8 fe ff ff 	mov    QWORD PTR [rbp-0x118],rdx
  3fa488:	48 89 8d e0 fe ff ff 	mov    QWORD PTR [rbp-0x120],rcx
  3fa48f:	4c 89 85 d8 fe ff ff 	mov    QWORD PTR [rbp-0x128],r8
  3fa496:	c7 45 fc 00 00 00 00 	mov    DWORD PTR [rbp-0x4],0x0
  3fa49d:	c7 45 f8 40 00 00 00 	mov    DWORD PTR [rbp-0x8],0x40
  3fa4a4:	48 8b 85 e8 fe ff ff 	mov    rax,QWORD PTR [rbp-0x118]
  3fa4ab:	48 8b 40 50          	mov    rax,QWORD PTR [rax+0x50]
  3fa4af:	48 89 45 f0          	mov    QWORD PTR [rbp-0x10],rax
  3fa4b3:	48 8b 85 e0 fe ff ff 	mov    rax,QWORD PTR [rbp-0x120]
  3fa4ba:	48 8b 40 50          	mov    rax,QWORD PTR [rax+0x50]
  3fa4be:	48 89 45 e8          	mov    QWORD PTR [rbp-0x18],rax
  3fa4c2:	48 8b 85 e8 fe ff ff 	mov    rax,QWORD PTR [rbp-0x118]
  3fa4c9:	48 8b 40 60          	mov    rax,QWORD PTR [rax+0x60]
  3fa4cd:	48 89 45 e0          	mov    QWORD PTR [rbp-0x20],rax
  3fa4d1:	48 8b 85 e8 fe ff ff 	mov    rax,QWORD PTR [rbp-0x118]
  3fa4d8:	48 8d 48 68          	lea    rcx,[rax+0x68]
  3fa4dc:	48 8d 85 10 ff ff ff 	lea    rax,[rbp-0xf0]
  3fa4e3:	ba 90 00 00 00       	mov    edx,0x90
  3fa4e8:	48 89 ce             	mov    rsi,rcx
  3fa4eb:	48 89 c7             	mov    rdi,rax
  3fa4ee:	e8 cc 1c 00 00       	call   3fc1bf <_init-0x4e41>
  3fa4f3:	8b 85 28 ff ff ff    	mov    eax,DWORD PTR [rbp-0xd8]
  3fa4f9:	89 c0                	mov    eax,eax
  3fa4fb:	48 89 c2             	mov    rdx,rax
  3fa4fe:	be 41 02 00 00       	mov    esi,0x241
  3fa503:	48 8d 3d aa 26 00 00 	lea    rdi,[rip+0x26aa]        # 3fcbb4 <_init-0x444c>
  3fa50a:	e8 69 19 00 00       	call   3fbe78 <_init-0x5188>
  3fa50f:	89 45 dc             	mov    DWORD PTR [rbp-0x24],eax
  3fa512:	83 7d dc ff          	cmp    DWORD PTR [rbp-0x24],0xffffffff
  3fa516:	75 0a                	jne    3fa522 <_init-0x6ade>
  3fa518:	b8 ff ff ff ff       	mov    eax,0xffffffff
  3fa51d:	e9 de 01 00 00       	jmp    3fa700 <_init-0x6900>
  3fa522:	8b 45 f8             	mov    eax,DWORD PTR [rbp-0x8]
  3fa525:	48 63 d0             	movsxd rdx,eax
  3fa528:	8b 45 dc             	mov    eax,DWORD PTR [rbp-0x24]
  3fa52b:	48 98                	cdqe   
  3fa52d:	48 8b 4d f0          	mov    rcx,QWORD PTR [rbp-0x10]
  3fa531:	48 89 ce             	mov    rsi,rcx
  3fa534:	48 89 c7             	mov    rdi,rax
  3fa537:	e8 c6 19 00 00       	call   3fbf02 <_init-0x50fe>
  3fa53c:	89 45 d8             	mov    DWORD PTR [rbp-0x28],eax
  3fa53f:	8b 45 f8             	mov    eax,DWORD PTR [rbp-0x8]
  3fa542:	39 45 d8             	cmp    DWORD PTR [rbp-0x28],eax
  3fa545:	74 0a                	je     3fa551 <_init-0x6aaf>
  3fa547:	b8 ff ff ff ff       	mov    eax,0xffffffff
  3fa54c:	e9 af 01 00 00       	jmp    3fa700 <_init-0x6900>
  3fa551:	e8 a3 25 00 00       	call   3fcaf9 <_init-0x4507>
  3fa556:	48 c7 c2 62 2c 40 00 	mov    rdx,0x402c62
  3fa55d:	48 89 d1             	mov    rcx,rdx
  3fa560:	48 c7 c2 70 2c 40 00 	mov    rdx,0x402c70
  3fa567:	48 29 d1             	sub    rcx,rdx
  3fa56a:	48 89 ca             	mov    rdx,rcx
  3fa56d:	48 29 d0             	sub    rax,rdx
  3fa570:	48 89 45 d0          	mov    QWORD PTR [rbp-0x30],rax
  3fa574:	e8 80 25 00 00       	call   3fcaf9 <_init-0x4507>
  3fa579:	48 c7 c2 62 2c 40 00 	mov    rdx,0x402c62
  3fa580:	48 89 d1             	mov    rcx,rdx
  3fa583:	48 c7 c2 85 2c 40 00 	mov    rdx,0x402c85
  3fa58a:	48 29 d1             	sub    rcx,rdx
  3fa58d:	48 89 ca             	mov    rdx,rcx
  3fa590:	48 29 d0             	sub    rax,rdx
  3fa593:	48 89 45 c8          	mov    QWORD PTR [rbp-0x38],rax
  3fa597:	48 8b 45 c8          	mov    rax,QWORD PTR [rbp-0x38]
  3fa59b:	48 2b 45 d0          	sub    rax,QWORD PTR [rbp-0x30]
  3fa59f:	89 45 c4             	mov    DWORD PTR [rbp-0x3c],eax
  3fa5a2:	e8 52 25 00 00       	call   3fcaf9 <_init-0x4507>
  3fa5a7:	48 c7 c2 62 2c 40 00 	mov    rdx,0x402c62
  3fa5ae:	48 89 d1             	mov    rcx,rdx
  3fa5b1:	48 c7 c2 70 2c 40 00 	mov    rdx,0x402c70
  3fa5b8:	48 29 d1             	sub    rcx,rdx
  3fa5bb:	48 89 ca             	mov    rdx,rcx
  3fa5be:	48 29 d0             	sub    rax,rdx
  3fa5c1:	48 89 45 b8          	mov    QWORD PTR [rbp-0x48],rax
  3fa5c5:	c7 85 0a ff ff ff 68 	mov    DWORD PTR [rbp-0xf6],0x68
  3fa5cc:	00 00 00 
  3fa5cf:	66 c7 85 0e ff ff ff 	mov    WORD PTR [rbp-0xf2],0xc300
  3fa5d6:	00 c3 
  3fa5d8:	48 8d 85 0a ff ff ff 	lea    rax,[rbp-0xf6]
  3fa5df:	48 83 c0 01          	add    rax,0x1
  3fa5e3:	48 8b 95 d8 fe ff ff 	mov    rdx,QWORD PTR [rbp-0x128]
  3fa5ea:	89 10                	mov    DWORD PTR [rax],edx
  3fa5ec:	48 8b 85 e0 fe ff ff 	mov    rax,QWORD PTR [rbp-0x120]
  3fa5f3:	48 8b 40 58          	mov    rax,QWORD PTR [rax+0x58]
  3fa5f7:	48 2d 68 42 00 00    	sub    rax,0x4268
  3fa5fd:	48 89 45 b0          	mov    QWORD PTR [rbp-0x50],rax
  3fa601:	8b 45 c4             	mov    eax,DWORD PTR [rbp-0x3c]
  3fa604:	48 98                	cdqe   
  3fa606:	48 29 45 b0          	sub    QWORD PTR [rbp-0x50],rax
  3fa60a:	8b 45 dc             	mov    eax,DWORD PTR [rbp-0x24]
  3fa60d:	48 98                	cdqe   
  3fa60f:	48 8b 55 b0          	mov    rdx,QWORD PTR [rbp-0x50]
  3fa613:	48 8b 4d e8          	mov    rcx,QWORD PTR [rbp-0x18]
  3fa617:	48 89 ce             	mov    rsi,rcx
  3fa61a:	48 89 c7             	mov    rdi,rax
  3fa61d:	e8 e0 18 00 00       	call   3fbf02 <_init-0x50fe>
  3fa622:	89 45 d8             	mov    DWORD PTR [rbp-0x28],eax
  3fa625:	8b 45 d8             	mov    eax,DWORD PTR [rbp-0x28]
  3fa628:	48 39 45 b0          	cmp    QWORD PTR [rbp-0x50],rax
  3fa62c:	74 0a                	je     3fa638 <_init-0x69c8>
  3fa62e:	b8 ff ff ff ff       	mov    eax,0xffffffff
  3fa633:	e9 c8 00 00 00       	jmp    3fa700 <_init-0x6900>
  3fa638:	8b 45 dc             	mov    eax,DWORD PTR [rbp-0x24]
  3fa63b:	48 98                	cdqe   
  3fa63d:	48 8d 8d 0a ff ff ff 	lea    rcx,[rbp-0xf6]
  3fa644:	ba 06 00 00 00       	mov    edx,0x6
  3fa649:	48 89 ce             	mov    rsi,rcx
  3fa64c:	48 89 c7             	mov    rdi,rax
  3fa64f:	e8 ae 18 00 00       	call   3fbf02 <_init-0x50fe>
  3fa654:	8b 45 c4             	mov    eax,DWORD PTR [rbp-0x3c]
  3fa657:	48 98                	cdqe   
  3fa659:	48 8d 90 62 42 00 00 	lea    rdx,[rax+0x4262]
  3fa660:	48 8b 45 b0          	mov    rax,QWORD PTR [rbp-0x50]
  3fa664:	48 8d 48 06          	lea    rcx,[rax+0x6]
  3fa668:	48 8b 45 e8          	mov    rax,QWORD PTR [rbp-0x18]
  3fa66c:	48 01 c1             	add    rcx,rax
  3fa66f:	8b 45 dc             	mov    eax,DWORD PTR [rbp-0x24]
  3fa672:	48 98                	cdqe   
  3fa674:	48 89 ce             	mov    rsi,rcx
  3fa677:	48 89 c7             	mov    rdi,rax
  3fa67a:	e8 83 18 00 00       	call   3fbf02 <_init-0x50fe>
  3fa67f:	48 8b 85 f0 fe ff ff 	mov    rax,QWORD PTR [rbp-0x110]
  3fa686:	83 c0 40             	add    eax,0x40
  3fa689:	89 45 ac             	mov    DWORD PTR [rbp-0x54],eax
  3fa68c:	8b 4d ac             	mov    ecx,DWORD PTR [rbp-0x54]
  3fa68f:	8b 45 dc             	mov    eax,DWORD PTR [rbp-0x24]
  3fa692:	48 98                	cdqe   
  3fa694:	ba 00 00 00 00       	mov    edx,0x0
  3fa699:	48 89 ce             	mov    rsi,rcx
  3fa69c:	48 89 c7             	mov    rdi,rax
  3fa69f:	e8 16 19 00 00       	call   3fbfba <_init-0x5046>
  3fa6a4:	89 45 d8             	mov    DWORD PTR [rbp-0x28],eax
  3fa6a7:	8b 45 d8             	mov    eax,DWORD PTR [rbp-0x28]
  3fa6aa:	3b 45 ac             	cmp    eax,DWORD PTR [rbp-0x54]
  3fa6ad:	74 07                	je     3fa6b6 <_init-0x694a>
  3fa6af:	b8 ff ff ff ff       	mov    eax,0xffffffff
  3fa6b4:	eb 4a                	jmp    3fa700 <_init-0x6900>
  3fa6b6:	48 83 45 f0 40       	add    QWORD PTR [rbp-0x10],0x40
  3fa6bb:	48 8b 85 40 ff ff ff 	mov    rax,QWORD PTR [rbp-0xc0]
  3fa6c2:	83 e8 40             	sub    eax,0x40
  3fa6c5:	89 45 a8             	mov    DWORD PTR [rbp-0x58],eax
  3fa6c8:	8b 55 a8             	mov    edx,DWORD PTR [rbp-0x58]
  3fa6cb:	8b 45 dc             	mov    eax,DWORD PTR [rbp-0x24]
  3fa6ce:	48 98                	cdqe   
  3fa6d0:	48 8b 4d f0          	mov    rcx,QWORD PTR [rbp-0x10]
  3fa6d4:	48 89 ce             	mov    rsi,rcx
  3fa6d7:	48 89 c7             	mov    rdi,rax
  3fa6da:	e8 23 18 00 00       	call   3fbf02 <_init-0x50fe>
  3fa6df:	89 45 d8             	mov    DWORD PTR [rbp-0x28],eax
  3fa6e2:	8b 45 d8             	mov    eax,DWORD PTR [rbp-0x28]
  3fa6e5:	3b 45 a8             	cmp    eax,DWORD PTR [rbp-0x58]
  3fa6e8:	74 07                	je     3fa6f1 <_init-0x690f>
  3fa6ea:	b8 ff ff ff ff       	mov    eax,0xffffffff
  3fa6ef:	eb 0f                	jmp    3fa700 <_init-0x6900>
  3fa6f1:	8b 45 dc             	mov    eax,DWORD PTR [rbp-0x24]
  3fa6f4:	89 c7                	mov    edi,eax
  3fa6f6:	e8 b3 17 00 00       	call   3fbeae <_init-0x5152>
  3fa6fb:	b8 00 00 00 00       	mov    eax,0x0
  3fa700:	c9                   	leave  
  3fa701:	c3                   	ret    
  3fa702:	f3 0f 1e fa          	endbr64 
  3fa706:	55                   	push   rbp
  3fa707:	48 89 e5             	mov    rbp,rsp
  3fa70a:	48 81 ec 00 01 00 00 	sub    rsp,0x100
  3fa711:	48 89 bd 08 ff ff ff 	mov    QWORD PTR [rbp-0xf8],rdi
  3fa718:	48 89 b5 00 ff ff ff 	mov    QWORD PTR [rbp-0x100],rsi
  3fa71f:	c7 45 fc 00 00 00 00 	mov    DWORD PTR [rbp-0x4],0x0
  3fa726:	48 8b 85 00 ff ff ff 	mov    rax,QWORD PTR [rbp-0x100]
  3fa72d:	48 8b 40 60          	mov    rax,QWORD PTR [rax+0x60]
  3fa731:	48 89 45 e0          	mov    QWORD PTR [rbp-0x20],rax
  3fa735:	48 8b 85 08 ff ff ff 	mov    rax,QWORD PTR [rbp-0xf8]
  3fa73c:	48 8b 40 58          	mov    rax,QWORD PTR [rax+0x58]
  3fa740:	48 89 45 d8          	mov    QWORD PTR [rbp-0x28],rax
  3fa744:	48 8b 45 d8          	mov    rax,QWORD PTR [rbp-0x28]
  3fa748:	48 25 00 f0 ff ff    	and    rax,0xfffffffffffff000
  3fa74e:	48 05 00 10 00 00    	add    rax,0x1000
  3fa754:	48 89 45 d0          	mov    QWORD PTR [rbp-0x30],rax
  3fa758:	48 8b 85 00 ff ff ff 	mov    rax,QWORD PTR [rbp-0x100]
  3fa75f:	48 8b 40 50          	mov    rax,QWORD PTR [rax+0x50]
  3fa763:	48 89 45 c8          	mov    QWORD PTR [rbp-0x38],rax
  3fa767:	48 8b 45 c8          	mov    rax,QWORD PTR [rbp-0x38]
  3fa76b:	48 83 c0 09          	add    rax,0x9
  3fa76f:	c7 00 25 5d 01 00    	mov    DWORD PTR [rax],0x15d25
  3fa775:	48 8b 85 00 ff ff ff 	mov    rax,QWORD PTR [rbp-0x100]
  3fa77c:	48 8b 00             	mov    rax,QWORD PTR [rax]
  3fa77f:	48 89 45 c0          	mov    QWORD PTR [rbp-0x40],rax
  3fa783:	48 8b 85 00 ff ff ff 	mov    rax,QWORD PTR [rbp-0x100]
  3fa78a:	48 8b 40 08          	mov    rax,QWORD PTR [rax+0x8]
  3fa78e:	48 89 45 b8          	mov    QWORD PTR [rbp-0x48],rax
  3fa792:	48 8b 85 00 ff ff ff 	mov    rax,QWORD PTR [rbp-0x100]
  3fa799:	48 8b 40 10          	mov    rax,QWORD PTR [rax+0x10]
  3fa79d:	48 89 45 b0          	mov    QWORD PTR [rbp-0x50],rax
  3fa7a1:	48 8b 45 c0          	mov    rax,QWORD PTR [rbp-0x40]
  3fa7a5:	48 8b 40 18          	mov    rax,QWORD PTR [rax+0x18]
  3fa7a9:	48 89 45 a8          	mov    QWORD PTR [rbp-0x58],rax
  3fa7ad:	48 8b 45 b8          	mov    rax,QWORD PTR [rbp-0x48]
  3fa7b1:	48 8b 50 08          	mov    rdx,QWORD PTR [rax+0x8]
  3fa7b5:	48 8b 45 d0          	mov    rax,QWORD PTR [rbp-0x30]
  3fa7b9:	48 01 c2             	add    rdx,rax
  3fa7bc:	48 8b 45 b8          	mov    rax,QWORD PTR [rbp-0x48]
  3fa7c0:	48 89 50 08          	mov    QWORD PTR [rax+0x8],rdx
  3fa7c4:	48 8b 45 b8          	mov    rax,QWORD PTR [rbp-0x48]
  3fa7c8:	48 83 c0 38          	add    rax,0x38
  3fa7cc:	48 8b 48 08          	mov    rcx,QWORD PTR [rax+0x8]
  3fa7d0:	48 8b 45 b8          	mov    rax,QWORD PTR [rbp-0x48]
  3fa7d4:	48 83 c0 38          	add    rax,0x38
  3fa7d8:	48 8b 55 d0          	mov    rdx,QWORD PTR [rbp-0x30]
  3fa7dc:	48 01 ca             	add    rdx,rcx
  3fa7df:	48 89 50 08          	mov    QWORD PTR [rax+0x8],rdx
  3fa7e3:	c7 45 f8 00 00 00 00 	mov    DWORD PTR [rbp-0x8],0x0
  3fa7ea:	e9 ec 02 00 00       	jmp    3faadb <_init-0x6525>
  3fa7ef:	83 7d fc 00          	cmp    DWORD PTR [rbp-0x4],0x0
  3fa7f3:	74 4b                	je     3fa840 <_init-0x67c0>
  3fa7f5:	8b 45 f8             	mov    eax,DWORD PTR [rbp-0x8]
  3fa7f8:	48 63 d0             	movsxd rdx,eax
  3fa7fb:	48 89 d0             	mov    rax,rdx
  3fa7fe:	48 c1 e0 03          	shl    rax,0x3
  3fa802:	48 29 d0             	sub    rax,rdx
  3fa805:	48 c1 e0 03          	shl    rax,0x3
  3fa809:	48 89 c2             	mov    rdx,rax
  3fa80c:	48 8b 45 b8          	mov    rax,QWORD PTR [rbp-0x48]
  3fa810:	48 01 d0             	add    rax,rdx
  3fa813:	48 8b 48 08          	mov    rcx,QWORD PTR [rax+0x8]
  3fa817:	8b 45 f8             	mov    eax,DWORD PTR [rbp-0x8]
  3fa81a:	48 63 d0             	movsxd rdx,eax
  3fa81d:	48 89 d0             	mov    rax,rdx
  3fa820:	48 c1 e0 03          	shl    rax,0x3
  3fa824:	48 29 d0             	sub    rax,rdx
  3fa827:	48 c1 e0 03          	shl    rax,0x3
  3fa82b:	48 89 c2             	mov    rdx,rax
  3fa82e:	48 8b 45 b8          	mov    rax,QWORD PTR [rbp-0x48]
  3fa832:	48 01 d0             	add    rax,rdx
  3fa835:	48 8b 55 d0          	mov    rdx,QWORD PTR [rbp-0x30]
  3fa839:	48 01 ca             	add    rdx,rcx
  3fa83c:	48 89 50 08          	mov    QWORD PTR [rax+0x8],rdx
  3fa840:	8b 45 f8             	mov    eax,DWORD PTR [rbp-0x8]
  3fa843:	48 63 d0             	movsxd rdx,eax
  3fa846:	48 89 d0             	mov    rax,rdx
  3fa849:	48 c1 e0 03          	shl    rax,0x3
  3fa84d:	48 29 d0             	sub    rax,rdx
  3fa850:	48 c1 e0 03          	shl    rax,0x3
  3fa854:	48 89 c2             	mov    rdx,rax
  3fa857:	48 8b 45 b8          	mov    rax,QWORD PTR [rbp-0x48]
  3fa85b:	48 01 d0             	add    rax,rdx
  3fa85e:	8b 00                	mov    eax,DWORD PTR [rax]
  3fa860:	83 f8 01             	cmp    eax,0x1
  3fa863:	0f 85 d4 01 00 00    	jne    3faa3d <_init-0x65c3>
  3fa869:	8b 45 f8             	mov    eax,DWORD PTR [rbp-0x8]
  3fa86c:	48 63 d0             	movsxd rdx,eax
  3fa86f:	48 89 d0             	mov    rax,rdx
  3fa872:	48 c1 e0 03          	shl    rax,0x3
  3fa876:	48 29 d0             	sub    rax,rdx
  3fa879:	48 c1 e0 03          	shl    rax,0x3
  3fa87d:	48 89 c2             	mov    rdx,rax
  3fa880:	48 8b 45 b8          	mov    rax,QWORD PTR [rbp-0x48]
  3fa884:	48 01 d0             	add    rax,rdx
  3fa887:	8b 40 04             	mov    eax,DWORD PTR [rax+0x4]
  3fa88a:	83 f8 05             	cmp    eax,0x5
  3fa88d:	0f 85 aa 01 00 00    	jne    3faa3d <_init-0x65c3>
  3fa893:	8b 45 f8             	mov    eax,DWORD PTR [rbp-0x8]
  3fa896:	48 63 d0             	movsxd rdx,eax
  3fa899:	48 89 d0             	mov    rax,rdx
  3fa89c:	48 c1 e0 03          	shl    rax,0x3
  3fa8a0:	48 29 d0             	sub    rax,rdx
  3fa8a3:	48 c1 e0 03          	shl    rax,0x3
  3fa8a7:	48 89 c2             	mov    rdx,rax
  3fa8aa:	48 8b 45 b8          	mov    rax,QWORD PTR [rbp-0x48]
  3fa8ae:	48 01 d0             	add    rax,rdx
  3fa8b1:	48 8b 40 10          	mov    rax,QWORD PTR [rax+0x10]
  3fa8b5:	48 89 45 f0          	mov    QWORD PTR [rbp-0x10],rax
  3fa8b9:	8b 45 f8             	mov    eax,DWORD PTR [rbp-0x8]
  3fa8bc:	48 63 d0             	movsxd rdx,eax
  3fa8bf:	48 89 d0             	mov    rax,rdx
  3fa8c2:	48 c1 e0 03          	shl    rax,0x3
  3fa8c6:	48 29 d0             	sub    rax,rdx
  3fa8c9:	48 c1 e0 03          	shl    rax,0x3
  3fa8cd:	48 89 c2             	mov    rdx,rax
  3fa8d0:	48 8b 45 b8          	mov    rax,QWORD PTR [rbp-0x48]
  3fa8d4:	48 01 d0             	add    rax,rdx
  3fa8d7:	48 8b 48 10          	mov    rcx,QWORD PTR [rax+0x10]
  3fa8db:	8b 45 f8             	mov    eax,DWORD PTR [rbp-0x8]
  3fa8de:	48 63 d0             	movsxd rdx,eax
  3fa8e1:	48 89 d0             	mov    rax,rdx
  3fa8e4:	48 c1 e0 03          	shl    rax,0x3
  3fa8e8:	48 29 d0             	sub    rax,rdx
  3fa8eb:	48 c1 e0 03          	shl    rax,0x3
  3fa8ef:	48 89 c2             	mov    rdx,rax
  3fa8f2:	48 8b 45 b8          	mov    rax,QWORD PTR [rbp-0x48]
  3fa8f6:	48 01 c2             	add    rdx,rax
  3fa8f9:	48 89 c8             	mov    rax,rcx
  3fa8fc:	48 2b 45 d0          	sub    rax,QWORD PTR [rbp-0x30]
  3fa900:	48 89 42 10          	mov    QWORD PTR [rdx+0x10],rax
  3fa904:	8b 45 f8             	mov    eax,DWORD PTR [rbp-0x8]
  3fa907:	48 63 d0             	movsxd rdx,eax
  3fa90a:	48 89 d0             	mov    rax,rdx
  3fa90d:	48 c1 e0 03          	shl    rax,0x3
  3fa911:	48 29 d0             	sub    rax,rdx
  3fa914:	48 c1 e0 03          	shl    rax,0x3
  3fa918:	48 89 c2             	mov    rdx,rax
  3fa91b:	48 8b 45 b8          	mov    rax,QWORD PTR [rbp-0x48]
  3fa91f:	48 01 d0             	add    rax,rdx
  3fa922:	48 8b 48 18          	mov    rcx,QWORD PTR [rax+0x18]
  3fa926:	8b 45 f8             	mov    eax,DWORD PTR [rbp-0x8]
  3fa929:	48 63 d0             	movsxd rdx,eax
  3fa92c:	48 89 d0             	mov    rax,rdx
  3fa92f:	48 c1 e0 03          	shl    rax,0x3
  3fa933:	48 29 d0             	sub    rax,rdx
  3fa936:	48 c1 e0 03          	shl    rax,0x3
  3fa93a:	48 89 c2             	mov    rdx,rax
  3fa93d:	48 8b 45 b8          	mov    rax,QWORD PTR [rbp-0x48]
  3fa941:	48 01 c2             	add    rdx,rax
  3fa944:	48 89 c8             	mov    rax,rcx
  3fa947:	48 2b 45 d0          	sub    rax,QWORD PTR [rbp-0x30]
  3fa94b:	48 89 42 18          	mov    QWORD PTR [rdx+0x18],rax
  3fa94f:	8b 45 f8             	mov    eax,DWORD PTR [rbp-0x8]
  3fa952:	48 63 d0             	movsxd rdx,eax
  3fa955:	48 89 d0             	mov    rax,rdx
  3fa958:	48 c1 e0 03          	shl    rax,0x3
  3fa95c:	48 29 d0             	sub    rax,rdx
  3fa95f:	48 c1 e0 03          	shl    rax,0x3
  3fa963:	48 89 c2             	mov    rdx,rax
  3fa966:	48 8b 45 b8          	mov    rax,QWORD PTR [rbp-0x48]
  3fa96a:	48 01 d0             	add    rax,rdx
  3fa96d:	48 8b 48 20          	mov    rcx,QWORD PTR [rax+0x20]
  3fa971:	8b 45 f8             	mov    eax,DWORD PTR [rbp-0x8]
  3fa974:	48 63 d0             	movsxd rdx,eax
  3fa977:	48 89 d0             	mov    rax,rdx
  3fa97a:	48 c1 e0 03          	shl    rax,0x3
  3fa97e:	48 29 d0             	sub    rax,rdx
  3fa981:	48 c1 e0 03          	shl    rax,0x3
  3fa985:	48 89 c2             	mov    rdx,rax
  3fa988:	48 8b 45 b8          	mov    rax,QWORD PTR [rbp-0x48]
  3fa98c:	48 01 d0             	add    rax,rdx
  3fa98f:	48 8b 55 d0          	mov    rdx,QWORD PTR [rbp-0x30]
  3fa993:	48 01 ca             	add    rdx,rcx
  3fa996:	48 89 50 20          	mov    QWORD PTR [rax+0x20],rdx
  3fa99a:	8b 45 f8             	mov    eax,DWORD PTR [rbp-0x8]
  3fa99d:	48 63 d0             	movsxd rdx,eax
  3fa9a0:	48 89 d0             	mov    rax,rdx
  3fa9a3:	48 c1 e0 03          	shl    rax,0x3
  3fa9a7:	48 29 d0             	sub    rax,rdx
  3fa9aa:	48 c1 e0 03          	shl    rax,0x3
  3fa9ae:	48 89 c2             	mov    rdx,rax
  3fa9b1:	48 8b 45 b8          	mov    rax,QWORD PTR [rbp-0x48]
  3fa9b5:	48 01 d0             	add    rax,rdx
  3fa9b8:	48 8b 48 28          	mov    rcx,QWORD PTR [rax+0x28]
  3fa9bc:	8b 45 f8             	mov    eax,DWORD PTR [rbp-0x8]
  3fa9bf:	48 63 d0             	movsxd rdx,eax
  3fa9c2:	48 89 d0             	mov    rax,rdx
  3fa9c5:	48 c1 e0 03          	shl    rax,0x3
  3fa9c9:	48 29 d0             	sub    rax,rdx
  3fa9cc:	48 c1 e0 03          	shl    rax,0x3
  3fa9d0:	48 89 c2             	mov    rdx,rax
  3fa9d3:	48 8b 45 b8          	mov    rax,QWORD PTR [rbp-0x48]
  3fa9d7:	48 01 d0             	add    rax,rdx
  3fa9da:	48 8b 55 d0          	mov    rdx,QWORD PTR [rbp-0x30]
  3fa9de:	48 01 ca             	add    rdx,rcx
  3fa9e1:	48 89 50 28          	mov    QWORD PTR [rax+0x28],rdx
  3fa9e5:	8b 45 f8             	mov    eax,DWORD PTR [rbp-0x8]
  3fa9e8:	48 63 d0             	movsxd rdx,eax
  3fa9eb:	48 89 d0             	mov    rax,rdx
  3fa9ee:	48 c1 e0 03          	shl    rax,0x3
  3fa9f2:	48 29 d0             	sub    rax,rdx
  3fa9f5:	48 c1 e0 03          	shl    rax,0x3
  3fa9f9:	48 89 c2             	mov    rdx,rax
  3fa9fc:	48 8b 45 b8          	mov    rax,QWORD PTR [rbp-0x48]
  3faa00:	48 01 d0             	add    rax,rdx
  3faa03:	48 c7 40 30 00 10 00 	mov    QWORD PTR [rax+0x30],0x1000
  3faa0a:	00 
  3faa0b:	8b 45 f8             	mov    eax,DWORD PTR [rbp-0x8]
  3faa0e:	48 63 d0             	movsxd rdx,eax
  3faa11:	48 89 d0             	mov    rax,rdx
  3faa14:	48 c1 e0 03          	shl    rax,0x3
  3faa18:	48 29 d0             	sub    rax,rdx
  3faa1b:	48 c1 e0 03          	shl    rax,0x3
  3faa1f:	48 89 c2             	mov    rdx,rax
  3faa22:	48 8b 45 b8          	mov    rax,QWORD PTR [rbp-0x48]
  3faa26:	48 01 d0             	add    rax,rdx
  3faa29:	48 8b 40 10          	mov    rax,QWORD PTR [rax+0x10]
  3faa2d:	48 89 45 e8          	mov    QWORD PTR [rbp-0x18],rax
  3faa31:	c7 45 fc 01 00 00 00 	mov    DWORD PTR [rbp-0x4],0x1
  3faa38:	e9 9a 00 00 00       	jmp    3faad7 <_init-0x6529>
  3faa3d:	8b 45 f8             	mov    eax,DWORD PTR [rbp-0x8]
  3faa40:	48 63 d0             	movsxd rdx,eax
  3faa43:	48 89 d0             	mov    rax,rdx
  3faa46:	48 c1 e0 03          	shl    rax,0x3
  3faa4a:	48 29 d0             	sub    rax,rdx
  3faa4d:	48 c1 e0 03          	shl    rax,0x3
  3faa51:	48 89 c2             	mov    rdx,rax
  3faa54:	48 8b 45 b8          	mov    rax,QWORD PTR [rbp-0x48]
  3faa58:	48 01 d0             	add    rax,rdx
  3faa5b:	8b 00                	mov    eax,DWORD PTR [rax]
  3faa5d:	83 f8 01             	cmp    eax,0x1
  3faa60:	75 75                	jne    3faad7 <_init-0x6529>
  3faa62:	8b 45 f8             	mov    eax,DWORD PTR [rbp-0x8]
  3faa65:	48 63 d0             	movsxd rdx,eax
  3faa68:	48 89 d0             	mov    rax,rdx
  3faa6b:	48 c1 e0 03          	shl    rax,0x3
  3faa6f:	48 29 d0             	sub    rax,rdx
  3faa72:	48 c1 e0 03          	shl    rax,0x3
  3faa76:	48 89 c2             	mov    rdx,rax
  3faa79:	48 8b 45 b8          	mov    rax,QWORD PTR [rbp-0x48]
  3faa7d:	48 01 d0             	add    rax,rdx
  3faa80:	48 8b 40 08          	mov    rax,QWORD PTR [rax+0x8]
  3faa84:	48 85 c0             	test   rax,rax
  3faa87:	74 4e                	je     3faad7 <_init-0x6529>
  3faa89:	8b 45 f8             	mov    eax,DWORD PTR [rbp-0x8]
  3faa8c:	48 63 d0             	movsxd rdx,eax
  3faa8f:	48 89 d0             	mov    rax,rdx
  3faa92:	48 c1 e0 03          	shl    rax,0x3
  3faa96:	48 29 d0             	sub    rax,rdx
  3faa99:	48 c1 e0 03          	shl    rax,0x3
  3faa9d:	48 89 c2             	mov    rdx,rax
  3faaa0:	48 8b 45 b8          	mov    rax,QWORD PTR [rbp-0x48]
  3faaa4:	48 01 d0             	add    rax,rdx
  3faaa7:	8b 40 04             	mov    eax,DWORD PTR [rax+0x4]
  3faaaa:	83 e0 02             	and    eax,0x2
  3faaad:	85 c0                	test   eax,eax
  3faaaf:	74 26                	je     3faad7 <_init-0x6529>
  3faab1:	8b 45 f8             	mov    eax,DWORD PTR [rbp-0x8]
  3faab4:	48 63 d0             	movsxd rdx,eax
  3faab7:	48 89 d0             	mov    rax,rdx
  3faaba:	48 c1 e0 03          	shl    rax,0x3
  3faabe:	48 29 d0             	sub    rax,rdx
  3faac1:	48 c1 e0 03          	shl    rax,0x3
  3faac5:	48 89 c2             	mov    rdx,rax
  3faac8:	48 8b 45 b8          	mov    rax,QWORD PTR [rbp-0x48]
  3faacc:	48 01 d0             	add    rax,rdx
  3faacf:	48 c7 40 30 00 10 00 	mov    QWORD PTR [rax+0x30],0x1000
  3faad6:	00 
  3faad7:	83 45 f8 01          	add    DWORD PTR [rbp-0x8],0x1
  3faadb:	48 8b 45 c0          	mov    rax,QWORD PTR [rbp-0x40]
  3faadf:	0f b7 40 38          	movzx  eax,WORD PTR [rax+0x38]
  3faae3:	0f b7 c0             	movzx  eax,ax
  3faae6:	39 45 f8             	cmp    DWORD PTR [rbp-0x8],eax
  3faae9:	0f 8c 00 fd ff ff    	jl     3fa7ef <_init-0x6811>
  3faaef:	83 7d fc 00          	cmp    DWORD PTR [rbp-0x4],0x0
  3faaf3:	75 0c                	jne    3fab01 <_init-0x64ff>
  3faaf5:	48 c7 c0 ff ff ff ff 	mov    rax,0xffffffffffffffff
  3faafc:	e9 e3 01 00 00       	jmp    3face4 <_init-0x631c>
  3fab01:	48 8b 45 f0          	mov    rax,QWORD PTR [rbp-0x10]
  3fab05:	48 2b 45 d0          	sub    rax,QWORD PTR [rbp-0x30]
  3fab09:	48 8d 50 40          	lea    rdx,[rax+0x40]
  3fab0d:	48 8b 45 c0          	mov    rax,QWORD PTR [rbp-0x40]
  3fab11:	48 89 50 18          	mov    QWORD PTR [rax+0x18],rdx
  3fab15:	48 8b 45 c0          	mov    rax,QWORD PTR [rbp-0x40]
  3fab19:	48 8b 50 28          	mov    rdx,QWORD PTR [rax+0x28]
  3fab1d:	48 8b 45 c8          	mov    rax,QWORD PTR [rbp-0x38]
  3fab21:	48 01 d0             	add    rax,rdx
  3fab24:	48 89 45 b0          	mov    QWORD PTR [rbp-0x50],rax
  3fab28:	48 8b 45 c0          	mov    rax,QWORD PTR [rbp-0x40]
  3fab2c:	0f b7 40 3e          	movzx  eax,WORD PTR [rax+0x3e]
  3fab30:	0f b7 c0             	movzx  eax,ax
  3fab33:	48 c1 e0 06          	shl    rax,0x6
  3fab37:	48 89 c2             	mov    rdx,rax
  3fab3a:	48 8b 45 b0          	mov    rax,QWORD PTR [rbp-0x50]
  3fab3e:	48 01 d0             	add    rax,rdx
  3fab41:	48 8b 50 18          	mov    rdx,QWORD PTR [rax+0x18]
  3fab45:	48 8b 45 c8          	mov    rax,QWORD PTR [rbp-0x38]
  3fab49:	48 01 d0             	add    rax,rdx
  3fab4c:	48 89 45 a0          	mov    QWORD PTR [rbp-0x60],rax
  3fab50:	c7 45 f8 00 00 00 00 	mov    DWORD PTR [rbp-0x8],0x0
  3fab57:	e9 1d 01 00 00       	jmp    3fac79 <_init-0x6387>
  3fab5c:	8b 45 f8             	mov    eax,DWORD PTR [rbp-0x8]
  3fab5f:	48 98                	cdqe   
  3fab61:	48 c1 e0 06          	shl    rax,0x6
  3fab65:	48 89 c2             	mov    rdx,rax
  3fab68:	48 8b 45 b0          	mov    rax,QWORD PTR [rbp-0x50]
  3fab6c:	48 01 d0             	add    rax,rdx
  3fab6f:	8b 00                	mov    eax,DWORD PTR [rax]
  3fab71:	89 c2                	mov    edx,eax
  3fab73:	48 8b 45 a0          	mov    rax,QWORD PTR [rbp-0x60]
  3fab77:	48 01 d0             	add    rax,rdx
  3fab7a:	ba 05 00 00 00       	mov    edx,0x5
  3fab7f:	48 8d 35 40 20 00 00 	lea    rsi,[rip+0x2040]        # 3fcbc6 <_init-0x443a>
  3fab86:	48 89 c7             	mov    rdi,rax
  3fab89:	e8 3b 1e 00 00       	call   3fc9c9 <_init-0x4637>
  3fab8e:	85 c0                	test   eax,eax
  3fab90:	0f 85 aa 00 00 00    	jne    3fac40 <_init-0x63c0>
  3fab96:	8b 45 f8             	mov    eax,DWORD PTR [rbp-0x8]
  3fab99:	48 98                	cdqe   
  3fab9b:	48 c1 e0 06          	shl    rax,0x6
  3fab9f:	48 89 c2             	mov    rdx,rax
  3faba2:	48 8b 45 b0          	mov    rax,QWORD PTR [rbp-0x50]
  3faba6:	48 01 d0             	add    rax,rdx
  3faba9:	48 c7 40 18 40 00 00 	mov    QWORD PTR [rax+0x18],0x40
  3fabb0:	00 
  3fabb1:	8b 45 f8             	mov    eax,DWORD PTR [rbp-0x8]
  3fabb4:	48 98                	cdqe   
  3fabb6:	48 c1 e0 06          	shl    rax,0x6
  3fabba:	48 89 c2             	mov    rdx,rax
  3fabbd:	48 8b 45 b0          	mov    rax,QWORD PTR [rbp-0x50]
  3fabc1:	48 01 c2             	add    rdx,rax
  3fabc4:	48 8b 45 f0          	mov    rax,QWORD PTR [rbp-0x10]
  3fabc8:	48 2b 45 d0          	sub    rax,QWORD PTR [rbp-0x30]
  3fabcc:	48 89 42 10          	mov    QWORD PTR [rdx+0x10],rax
  3fabd0:	8b 45 f8             	mov    eax,DWORD PTR [rbp-0x8]
  3fabd3:	48 98                	cdqe   
  3fabd5:	48 c1 e0 06          	shl    rax,0x6
  3fabd9:	48 89 c2             	mov    rdx,rax
  3fabdc:	48 8b 45 b0          	mov    rax,QWORD PTR [rbp-0x50]
  3fabe0:	48 01 d0             	add    rax,rdx
  3fabe3:	48 8b 50 10          	mov    rdx,QWORD PTR [rax+0x10]
  3fabe7:	8b 45 f8             	mov    eax,DWORD PTR [rbp-0x8]
  3fabea:	48 98                	cdqe   
  3fabec:	48 c1 e0 06          	shl    rax,0x6
  3fabf0:	48 89 c1             	mov    rcx,rax
  3fabf3:	48 8b 45 b0          	mov    rax,QWORD PTR [rbp-0x50]
  3fabf7:	48 01 c8             	add    rax,rcx
  3fabfa:	48 83 c2 40          	add    rdx,0x40
  3fabfe:	48 89 50 10          	mov    QWORD PTR [rax+0x10],rdx
  3fac02:	8b 45 f8             	mov    eax,DWORD PTR [rbp-0x8]
  3fac05:	48 98                	cdqe   
  3fac07:	48 c1 e0 06          	shl    rax,0x6
  3fac0b:	48 89 c2             	mov    rdx,rax
  3fac0e:	48 8b 45 b0          	mov    rax,QWORD PTR [rbp-0x50]
  3fac12:	48 01 d0             	add    rax,rdx
  3fac15:	48 8b 48 20          	mov    rcx,QWORD PTR [rax+0x20]
  3fac19:	48 8b 85 08 ff ff ff 	mov    rax,QWORD PTR [rbp-0xf8]
  3fac20:	48 8b 50 58          	mov    rdx,QWORD PTR [rax+0x58]
  3fac24:	8b 45 f8             	mov    eax,DWORD PTR [rbp-0x8]
  3fac27:	48 98                	cdqe   
  3fac29:	48 c1 e0 06          	shl    rax,0x6
  3fac2d:	48 89 c6             	mov    rsi,rax
  3fac30:	48 8b 45 b0          	mov    rax,QWORD PTR [rbp-0x50]
  3fac34:	48 01 f0             	add    rax,rsi
  3fac37:	48 01 ca             	add    rdx,rcx
  3fac3a:	48 89 50 20          	mov    QWORD PTR [rax+0x20],rdx
  3fac3e:	eb 35                	jmp    3fac75 <_init-0x638b>
  3fac40:	8b 45 f8             	mov    eax,DWORD PTR [rbp-0x8]
  3fac43:	48 98                	cdqe   
  3fac45:	48 c1 e0 06          	shl    rax,0x6
  3fac49:	48 89 c2             	mov    rdx,rax
  3fac4c:	48 8b 45 b0          	mov    rax,QWORD PTR [rbp-0x50]
  3fac50:	48 01 d0             	add    rax,rdx
  3fac53:	48 8b 48 18          	mov    rcx,QWORD PTR [rax+0x18]
  3fac57:	8b 45 f8             	mov    eax,DWORD PTR [rbp-0x8]
  3fac5a:	48 98                	cdqe   
  3fac5c:	48 c1 e0 06          	shl    rax,0x6
  3fac60:	48 89 c2             	mov    rdx,rax
  3fac63:	48 8b 45 b0          	mov    rax,QWORD PTR [rbp-0x50]
  3fac67:	48 01 d0             	add    rax,rdx
  3fac6a:	48 8b 55 d0          	mov    rdx,QWORD PTR [rbp-0x30]
  3fac6e:	48 01 ca             	add    rdx,rcx
  3fac71:	48 89 50 18          	mov    QWORD PTR [rax+0x18],rdx
  3fac75:	83 45 f8 01          	add    DWORD PTR [rbp-0x8],0x1
  3fac79:	48 8b 45 c0          	mov    rax,QWORD PTR [rbp-0x40]
  3fac7d:	0f b7 40 3c          	movzx  eax,WORD PTR [rax+0x3c]
  3fac81:	0f b7 c0             	movzx  eax,ax
  3fac84:	39 45 f8             	cmp    DWORD PTR [rbp-0x8],eax
  3fac87:	0f 8c cf fe ff ff    	jl     3fab5c <_init-0x64a4>
  3fac8d:	48 8b 45 c0          	mov    rax,QWORD PTR [rbp-0x40]
  3fac91:	48 8b 50 28          	mov    rdx,QWORD PTR [rax+0x28]
  3fac95:	48 8b 45 d0          	mov    rax,QWORD PTR [rbp-0x30]
  3fac99:	48 01 c2             	add    rdx,rax
  3fac9c:	48 8b 45 c0          	mov    rax,QWORD PTR [rbp-0x40]
  3faca0:	48 89 50 28          	mov    QWORD PTR [rax+0x28],rdx
  3faca4:	48 8b 45 c0          	mov    rax,QWORD PTR [rbp-0x40]
  3faca8:	48 8b 50 20          	mov    rdx,QWORD PTR [rax+0x20]
  3facac:	48 8b 45 d0          	mov    rax,QWORD PTR [rbp-0x30]
  3facb0:	48 01 c2             	add    rdx,rax
  3facb3:	48 8b 45 c0          	mov    rax,QWORD PTR [rbp-0x40]
  3facb7:	48 89 50 20          	mov    QWORD PTR [rax+0x20],rdx
  3facbb:	48 8b 7d a8          	mov    rdi,QWORD PTR [rbp-0x58]
  3facbf:	48 8b 8d 08 ff ff ff 	mov    rcx,QWORD PTR [rbp-0xf8]
  3facc6:	48 8b 95 00 ff ff ff 	mov    rdx,QWORD PTR [rbp-0x100]
  3faccd:	48 8b 75 d0          	mov    rsi,QWORD PTR [rbp-0x30]
  3facd1:	48 8b 45 d8          	mov    rax,QWORD PTR [rbp-0x28]
  3facd5:	49 89 f8             	mov    r8,rdi
  3facd8:	48 89 c7             	mov    rdi,rax
  3facdb:	e8 84 f7 ff ff       	call   3fa464 <_init-0x6b9c>
  3face0:	48 8b 45 e8          	mov    rax,QWORD PTR [rbp-0x18]
  3face4:	c9                   	leave  
  3face5:	c3                   	ret    
  3face6:	f3 0f 1e fa          	endbr64 
  3facea:	55                   	push   rbp
  3faceb:	48 89 e5             	mov    rbp,rsp
  3facee:	48 83 ec 30          	sub    rsp,0x30
  3facf2:	48 89 7d d8          	mov    QWORD PTR [rbp-0x28],rdi
  3facf6:	e8 fe 1d 00 00       	call   3fcaf9 <_init-0x4507>
  3facfb:	48 c7 c2 62 2c 40 00 	mov    rdx,0x402c62
  3fad02:	48 89 d1             	mov    rcx,rdx
  3fad05:	48 c7 c2 70 2c 40 00 	mov    rdx,0x402c70
  3fad0c:	48 29 d1             	sub    rcx,rdx
  3fad0f:	48 89 ca             	mov    rdx,rcx
  3fad12:	48 29 d0             	sub    rax,rdx
  3fad15:	48 89 45 f8          	mov    QWORD PTR [rbp-0x8],rax
  3fad19:	e8 db 1d 00 00       	call   3fcaf9 <_init-0x4507>
  3fad1e:	48 c7 c2 62 2c 40 00 	mov    rdx,0x402c62
  3fad25:	48 89 d1             	mov    rcx,rdx
  3fad28:	48 c7 c2 85 2c 40 00 	mov    rdx,0x402c85
  3fad2f:	48 29 d1             	sub    rcx,rdx
  3fad32:	48 89 ca             	mov    rdx,rcx
  3fad35:	48 29 d0             	sub    rax,rdx
  3fad38:	48 89 45 f0          	mov    QWORD PTR [rbp-0x10],rax
  3fad3c:	e8 b8 1d 00 00       	call   3fcaf9 <_init-0x4507>
  3fad41:	48 c7 c2 62 2c 40 00 	mov    rdx,0x402c62
  3fad48:	48 89 d1             	mov    rcx,rdx
  3fad4b:	48 c7 c2 9c 01 40 00 	mov    rdx,0x40019c
  3fad52:	48 29 d1             	sub    rcx,rdx
  3fad55:	48 89 ca             	mov    rdx,rcx
  3fad58:	48 29 d0             	sub    rax,rdx
  3fad5b:	48 89 45 e8          	mov    QWORD PTR [rbp-0x18],rax
  3fad5f:	48 8b 55 e8          	mov    rdx,QWORD PTR [rbp-0x18]
  3fad63:	48 8b 45 d8          	mov    rax,QWORD PTR [rbp-0x28]
  3fad67:	48 89 50 50          	mov    QWORD PTR [rax+0x50],rdx
  3fad6b:	48 c7 c0 70 2c 40 00 	mov    rax,0x402c70
  3fad72:	48 89 c2             	mov    rdx,rax
  3fad75:	48 c7 c0 9c 01 40 00 	mov    rax,0x40019c
  3fad7c:	48 29 c2             	sub    rdx,rax
  3fad7f:	48 89 d0             	mov    rax,rdx
  3fad82:	48 89 c2             	mov    rdx,rax
  3fad85:	48 8b 45 d8          	mov    rax,QWORD PTR [rbp-0x28]
  3fad89:	48 89 50 58          	mov    QWORD PTR [rax+0x58],rdx
  3fad8d:	48 8b 45 d8          	mov    rax,QWORD PTR [rbp-0x28]
  3fad91:	48 8b 50 58          	mov    rdx,QWORD PTR [rax+0x58]
  3fad95:	48 8b 45 f0          	mov    rax,QWORD PTR [rbp-0x10]
  3fad99:	48 2b 45 f8          	sub    rax,QWORD PTR [rbp-0x8]
  3fad9d:	48 98                	cdqe   
  3fad9f:	48 01 c2             	add    rdx,rax
  3fada2:	48 8b 45 d8          	mov    rax,QWORD PTR [rbp-0x28]
  3fada6:	48 89 50 58          	mov    QWORD PTR [rax+0x58],rdx
  3fadaa:	48 8b 45 d8          	mov    rax,QWORD PTR [rbp-0x28]
  3fadae:	48 8b 40 58          	mov    rax,QWORD PTR [rax+0x58]
  3fadb2:	48 8d 90 68 42 00 00 	lea    rdx,[rax+0x4268]
  3fadb9:	48 8b 45 d8          	mov    rax,QWORD PTR [rbp-0x28]
  3fadbd:	48 89 50 58          	mov    QWORD PTR [rax+0x58],rdx
  3fadc1:	b8 00 00 00 00       	mov    eax,0x0
  3fadc6:	c9                   	leave  
  3fadc7:	c3                   	ret    
  3fadc8:	f3 0f 1e fa          	endbr64 
  3fadcc:	55                   	push   rbp
  3fadcd:	48 89 e5             	mov    rbp,rsp
  3fadd0:	48 83 ec 10          	sub    rsp,0x10
  3fadd4:	48 89 7d f8          	mov    QWORD PTR [rbp-0x8],rdi
  3fadd8:	48 8b 45 f8          	mov    rax,QWORD PTR [rbp-0x8]
  3faddc:	48 8b 50 58          	mov    rdx,QWORD PTR [rax+0x58]
  3fade0:	48 8b 45 f8          	mov    rax,QWORD PTR [rbp-0x8]
  3fade4:	48 8b 40 50          	mov    rax,QWORD PTR [rax+0x50]
  3fade8:	48 89 d6             	mov    rsi,rdx
  3fadeb:	48 89 c7             	mov    rdi,rax
  3fadee:	e8 87 12 00 00       	call   3fc07a <_init-0x4f86>
  3fadf3:	48 8b 45 f8          	mov    rax,QWORD PTR [rbp-0x8]
  3fadf7:	8b 80 f8 00 00 00    	mov    eax,DWORD PTR [rax+0xf8]
  3fadfd:	89 c7                	mov    edi,eax
  3fadff:	e8 aa 10 00 00       	call   3fbeae <_init-0x5152>
  3fae04:	90                   	nop
  3fae05:	c9                   	leave  
  3fae06:	c3                   	ret    
  3fae07:	f3 0f 1e fa          	endbr64 
  3fae0b:	55                   	push   rbp
  3fae0c:	48 89 e5             	mov    rbp,rsp
  3fae0f:	53                   	push   rbx
  3fae10:	48 81 ec b8 00 00 00 	sub    rsp,0xb8
  3fae17:	48 89 bd 48 ff ff ff 	mov    QWORD PTR [rbp-0xb8],rdi
  3fae1e:	48 89 b5 40 ff ff ff 	mov    QWORD PTR [rbp-0xc0],rsi
  3fae25:	48 8b 85 40 ff ff ff 	mov    rax,QWORD PTR [rbp-0xc0]
  3fae2c:	48 8b 95 48 ff ff ff 	mov    rdx,QWORD PTR [rbp-0xb8]
  3fae33:	48 89 50 60          	mov    QWORD PTR [rax+0x60],rdx
  3fae37:	48 8b 85 48 ff ff ff 	mov    rax,QWORD PTR [rbp-0xb8]
  3fae3e:	ba 00 00 00 00       	mov    edx,0x0
  3fae43:	be 00 00 00 00       	mov    esi,0x0
  3fae48:	48 89 c7             	mov    rdi,rax
  3fae4b:	e8 28 10 00 00       	call   3fbe78 <_init-0x5188>
  3fae50:	89 45 e8             	mov    DWORD PTR [rbp-0x18],eax
  3fae53:	83 7d e8 00          	cmp    DWORD PTR [rbp-0x18],0x0
  3fae57:	79 0a                	jns    3fae63 <_init-0x619d>
  3fae59:	b8 ff ff ff ff       	mov    eax,0xffffffff
  3fae5e:	e9 b1 03 00 00       	jmp    3fb214 <_init-0x5dec>
  3fae63:	48 8b 85 40 ff ff ff 	mov    rax,QWORD PTR [rbp-0xc0]
  3fae6a:	8b 55 e8             	mov    edx,DWORD PTR [rbp-0x18]
  3fae6d:	89 90 f8 00 00 00    	mov    DWORD PTR [rax+0xf8],edx
  3fae73:	8b 45 e8             	mov    eax,DWORD PTR [rbp-0x18]
  3fae76:	48 98                	cdqe   
  3fae78:	48 8d 95 50 ff ff ff 	lea    rdx,[rbp-0xb0]
  3fae7f:	48 89 d6             	mov    rsi,rdx
  3fae82:	48 89 c7             	mov    rdi,rax
  3fae85:	e8 ae 10 00 00       	call   3fbf38 <_init-0x50c8>
  3fae8a:	85 c0                	test   eax,eax
  3fae8c:	79 0a                	jns    3fae98 <_init-0x6168>
  3fae8e:	b8 ff ff ff ff       	mov    eax,0xffffffff
  3fae93:	e9 7c 03 00 00       	jmp    3fb214 <_init-0x5dec>
  3fae98:	8b 45 e8             	mov    eax,DWORD PTR [rbp-0x18]
  3fae9b:	48 63 d0             	movsxd rdx,eax
  3fae9e:	48 8b 45 80          	mov    rax,QWORD PTR [rbp-0x80]
  3faea2:	41 b9 00 00 00 00    	mov    r9d,0x0
  3faea8:	49 89 d0             	mov    r8,rdx
  3faeab:	b9 02 00 00 00       	mov    ecx,0x2
  3faeb0:	ba 03 00 00 00       	mov    edx,0x3
  3faeb5:	48 89 c6             	mov    rsi,rax
  3faeb8:	bf 00 00 00 00       	mov    edi,0x0
  3faebd:	e8 52 11 00 00       	call   3fc014 <_init-0x4fec>
  3faec2:	48 8b 95 40 ff ff ff 	mov    rdx,QWORD PTR [rbp-0xc0]
  3faec9:	48 89 42 50          	mov    QWORD PTR [rdx+0x50],rax
  3faecd:	48 8b 85 40 ff ff ff 	mov    rax,QWORD PTR [rbp-0xc0]
  3faed4:	48 8b 40 50          	mov    rax,QWORD PTR [rax+0x50]
  3faed8:	48 83 f8 ff          	cmp    rax,0xffffffffffffffff
  3faedc:	75 0a                	jne    3faee8 <_init-0x6118>
  3faede:	b8 ff ff ff ff       	mov    eax,0xffffffff
  3faee3:	e9 2c 03 00 00       	jmp    3fb214 <_init-0x5dec>
  3faee8:	48 8b 85 40 ff ff ff 	mov    rax,QWORD PTR [rbp-0xc0]
  3faeef:	48 8b 50 50          	mov    rdx,QWORD PTR [rax+0x50]
  3faef3:	48 8b 85 40 ff ff ff 	mov    rax,QWORD PTR [rbp-0xc0]
  3faefa:	48 89 10             	mov    QWORD PTR [rax],rdx
  3faefd:	48 8b 85 40 ff ff ff 	mov    rax,QWORD PTR [rbp-0xc0]
  3faf04:	48 8b 50 50          	mov    rdx,QWORD PTR [rax+0x50]
  3faf08:	48 8b 85 40 ff ff ff 	mov    rax,QWORD PTR [rbp-0xc0]
  3faf0f:	48 8b 00             	mov    rax,QWORD PTR [rax]
  3faf12:	48 8b 40 20          	mov    rax,QWORD PTR [rax+0x20]
  3faf16:	48 01 c2             	add    rdx,rax
  3faf19:	48 8b 85 40 ff ff ff 	mov    rax,QWORD PTR [rbp-0xc0]
  3faf20:	48 89 50 08          	mov    QWORD PTR [rax+0x8],rdx
  3faf24:	48 8b 85 40 ff ff ff 	mov    rax,QWORD PTR [rbp-0xc0]
  3faf2b:	48 8b 50 50          	mov    rdx,QWORD PTR [rax+0x50]
  3faf2f:	48 8b 85 40 ff ff ff 	mov    rax,QWORD PTR [rbp-0xc0]
  3faf36:	48 8b 00             	mov    rax,QWORD PTR [rax]
  3faf39:	48 8b 40 28          	mov    rax,QWORD PTR [rax+0x28]
  3faf3d:	48 01 c2             	add    rdx,rax
  3faf40:	48 8b 85 40 ff ff ff 	mov    rax,QWORD PTR [rbp-0xc0]
  3faf47:	48 89 50 10          	mov    QWORD PTR [rax+0x10],rdx
  3faf4b:	c7 45 ec 00 00 00 00 	mov    DWORD PTR [rbp-0x14],0x0
  3faf52:	e9 b6 01 00 00       	jmp    3fb10d <_init-0x5ef3>
  3faf57:	48 8b 85 40 ff ff ff 	mov    rax,QWORD PTR [rbp-0xc0]
  3faf5e:	48 8b 48 08          	mov    rcx,QWORD PTR [rax+0x8]
  3faf62:	8b 45 ec             	mov    eax,DWORD PTR [rbp-0x14]
  3faf65:	48 63 d0             	movsxd rdx,eax
  3faf68:	48 89 d0             	mov    rax,rdx
  3faf6b:	48 c1 e0 03          	shl    rax,0x3
  3faf6f:	48 29 d0             	sub    rax,rdx
  3faf72:	48 c1 e0 03          	shl    rax,0x3
  3faf76:	48 01 c8             	add    rax,rcx
  3faf79:	8b 00                	mov    eax,DWORD PTR [rax]
  3faf7b:	83 f8 01             	cmp    eax,0x1
  3faf7e:	74 0e                	je     3faf8e <_init-0x6072>
  3faf80:	83 f8 02             	cmp    eax,0x2
  3faf83:	0f 84 3f 01 00 00    	je     3fb0c8 <_init-0x5f38>
  3faf89:	e9 7b 01 00 00       	jmp    3fb109 <_init-0x5ef7>
  3faf8e:	48 8b 85 40 ff ff ff 	mov    rax,QWORD PTR [rbp-0xc0]
  3faf95:	48 8b 48 08          	mov    rcx,QWORD PTR [rax+0x8]
  3faf99:	8b 45 ec             	mov    eax,DWORD PTR [rbp-0x14]
  3faf9c:	48 63 d0             	movsxd rdx,eax
  3faf9f:	48 89 d0             	mov    rax,rdx
  3fafa2:	48 c1 e0 03          	shl    rax,0x3
  3fafa6:	48 29 d0             	sub    rax,rdx
  3fafa9:	48 c1 e0 03          	shl    rax,0x3
  3fafad:	48 01 c8             	add    rax,rcx
  3fafb0:	48 8b 40 08          	mov    rax,QWORD PTR [rax+0x8]
  3fafb4:	48 85 c0             	test   rax,rax
  3fafb7:	0f 95 c0             	setne  al
  3fafba:	0f b6 c0             	movzx  eax,al
  3fafbd:	85 c0                	test   eax,eax
  3fafbf:	74 0a                	je     3fafcb <_init-0x6035>
  3fafc1:	83 f8 01             	cmp    eax,0x1
  3fafc4:	74 6c                	je     3fb032 <_init-0x5fce>
  3fafc6:	e9 3e 01 00 00       	jmp    3fb109 <_init-0x5ef7>
  3fafcb:	48 8b 85 40 ff ff ff 	mov    rax,QWORD PTR [rbp-0xc0]
  3fafd2:	48 8b 48 08          	mov    rcx,QWORD PTR [rax+0x8]
  3fafd6:	8b 45 ec             	mov    eax,DWORD PTR [rbp-0x14]
  3fafd9:	48 63 d0             	movsxd rdx,eax
  3fafdc:	48 89 d0             	mov    rax,rdx
  3fafdf:	48 c1 e0 03          	shl    rax,0x3
  3fafe3:	48 29 d0             	sub    rax,rdx
  3fafe6:	48 c1 e0 03          	shl    rax,0x3
  3fafea:	48 01 c8             	add    rax,rcx
  3fafed:	48 8b 50 10          	mov    rdx,QWORD PTR [rax+0x10]
  3faff1:	48 8b 85 40 ff ff ff 	mov    rax,QWORD PTR [rbp-0xc0]
  3faff8:	48 89 50 20          	mov    QWORD PTR [rax+0x20],rdx
  3faffc:	48 8b 85 40 ff ff ff 	mov    rax,QWORD PTR [rbp-0xc0]
  3fb003:	48 8b 48 08          	mov    rcx,QWORD PTR [rax+0x8]
  3fb007:	8b 45 ec             	mov    eax,DWORD PTR [rbp-0x14]
  3fb00a:	48 63 d0             	movsxd rdx,eax
  3fb00d:	48 89 d0             	mov    rax,rdx
  3fb010:	48 c1 e0 03          	shl    rax,0x3
  3fb014:	48 29 d0             	sub    rax,rdx
  3fb017:	48 c1 e0 03          	shl    rax,0x3
  3fb01b:	48 01 c8             	add    rax,rcx
  3fb01e:	48 8b 50 28          	mov    rdx,QWORD PTR [rax+0x28]
  3fb022:	48 8b 85 40 ff ff ff 	mov    rax,QWORD PTR [rbp-0xc0]
  3fb029:	48 89 50 30          	mov    QWORD PTR [rax+0x30],rdx
  3fb02d:	e9 94 00 00 00       	jmp    3fb0c6 <_init-0x5f3a>
  3fb032:	48 8b 85 40 ff ff ff 	mov    rax,QWORD PTR [rbp-0xc0]
  3fb039:	48 8b 48 08          	mov    rcx,QWORD PTR [rax+0x8]
  3fb03d:	8b 45 ec             	mov    eax,DWORD PTR [rbp-0x14]
  3fb040:	48 63 d0             	movsxd rdx,eax
  3fb043:	48 89 d0             	mov    rax,rdx
  3fb046:	48 c1 e0 03          	shl    rax,0x3
  3fb04a:	48 29 d0             	sub    rax,rdx
  3fb04d:	48 c1 e0 03          	shl    rax,0x3
  3fb051:	48 01 c8             	add    rax,rcx
  3fb054:	48 8b 50 10          	mov    rdx,QWORD PTR [rax+0x10]
  3fb058:	48 8b 85 40 ff ff ff 	mov    rax,QWORD PTR [rbp-0xc0]
  3fb05f:	48 89 50 28          	mov    QWORD PTR [rax+0x28],rdx
  3fb063:	48 8b 85 40 ff ff ff 	mov    rax,QWORD PTR [rbp-0xc0]
  3fb06a:	48 8b 48 08          	mov    rcx,QWORD PTR [rax+0x8]
  3fb06e:	8b 45 ec             	mov    eax,DWORD PTR [rbp-0x14]
  3fb071:	48 63 d0             	movsxd rdx,eax
  3fb074:	48 89 d0             	mov    rax,rdx
  3fb077:	48 c1 e0 03          	shl    rax,0x3
  3fb07b:	48 29 d0             	sub    rax,rdx
  3fb07e:	48 c1 e0 03          	shl    rax,0x3
  3fb082:	48 01 c8             	add    rax,rcx
  3fb085:	48 8b 50 28          	mov    rdx,QWORD PTR [rax+0x28]
  3fb089:	48 8b 85 40 ff ff ff 	mov    rax,QWORD PTR [rbp-0xc0]
  3fb090:	48 89 50 38          	mov    QWORD PTR [rax+0x38],rdx
  3fb094:	48 8b 85 40 ff ff ff 	mov    rax,QWORD PTR [rbp-0xc0]
  3fb09b:	48 8b 48 08          	mov    rcx,QWORD PTR [rax+0x8]
  3fb09f:	8b 45 ec             	mov    eax,DWORD PTR [rbp-0x14]
  3fb0a2:	48 63 d0             	movsxd rdx,eax
  3fb0a5:	48 89 d0             	mov    rax,rdx
  3fb0a8:	48 c1 e0 03          	shl    rax,0x3
  3fb0ac:	48 29 d0             	sub    rax,rdx
  3fb0af:	48 c1 e0 03          	shl    rax,0x3
  3fb0b3:	48 01 c8             	add    rax,rcx
  3fb0b6:	48 8b 50 08          	mov    rdx,QWORD PTR [rax+0x8]
  3fb0ba:	48 8b 85 40 ff ff ff 	mov    rax,QWORD PTR [rbp-0xc0]
  3fb0c1:	48 89 50 40          	mov    QWORD PTR [rax+0x40],rdx
  3fb0c5:	90                   	nop
  3fb0c6:	eb 41                	jmp    3fb109 <_init-0x5ef7>
  3fb0c8:	48 8b 85 40 ff ff ff 	mov    rax,QWORD PTR [rbp-0xc0]
  3fb0cf:	48 8b 48 50          	mov    rcx,QWORD PTR [rax+0x50]
  3fb0d3:	48 8b 85 40 ff ff ff 	mov    rax,QWORD PTR [rbp-0xc0]
  3fb0da:	48 8b 70 08          	mov    rsi,QWORD PTR [rax+0x8]
  3fb0de:	8b 45 ec             	mov    eax,DWORD PTR [rbp-0x14]
  3fb0e1:	48 63 d0             	movsxd rdx,eax
  3fb0e4:	48 89 d0             	mov    rax,rdx
  3fb0e7:	48 c1 e0 03          	shl    rax,0x3
  3fb0eb:	48 29 d0             	sub    rax,rdx
  3fb0ee:	48 c1 e0 03          	shl    rax,0x3
  3fb0f2:	48 01 f0             	add    rax,rsi
  3fb0f5:	48 8b 40 08          	mov    rax,QWORD PTR [rax+0x8]
  3fb0f9:	48 8d 14 01          	lea    rdx,[rcx+rax*1]
  3fb0fd:	48 8b 85 40 ff ff ff 	mov    rax,QWORD PTR [rbp-0xc0]
  3fb104:	48 89 50 18          	mov    QWORD PTR [rax+0x18],rdx
  3fb108:	90                   	nop
  3fb109:	83 45 ec 01          	add    DWORD PTR [rbp-0x14],0x1
  3fb10d:	48 8b 85 40 ff ff ff 	mov    rax,QWORD PTR [rbp-0xc0]
  3fb114:	48 8b 00             	mov    rax,QWORD PTR [rax]
  3fb117:	0f b7 40 38          	movzx  eax,WORD PTR [rax+0x38]
  3fb11b:	0f b7 c0             	movzx  eax,ax
  3fb11e:	39 45 ec             	cmp    DWORD PTR [rbp-0x14],eax
  3fb121:	0f 8c 30 fe ff ff    	jl     3faf57 <_init-0x60a9>
  3fb127:	48 8b 85 40 ff ff ff 	mov    rax,QWORD PTR [rbp-0xc0]
  3fb12e:	48 8b 8d 50 ff ff ff 	mov    rcx,QWORD PTR [rbp-0xb0]
  3fb135:	48 8b 9d 58 ff ff ff 	mov    rbx,QWORD PTR [rbp-0xa8]
  3fb13c:	48 89 48 68          	mov    QWORD PTR [rax+0x68],rcx
  3fb140:	48 89 58 70          	mov    QWORD PTR [rax+0x70],rbx
  3fb144:	48 8b 8d 60 ff ff ff 	mov    rcx,QWORD PTR [rbp-0xa0]
  3fb14b:	48 8b 9d 68 ff ff ff 	mov    rbx,QWORD PTR [rbp-0x98]
  3fb152:	48 89 48 78          	mov    QWORD PTR [rax+0x78],rcx
  3fb156:	48 89 98 80 00 00 00 	mov    QWORD PTR [rax+0x80],rbx
  3fb15d:	48 8b 8d 70 ff ff ff 	mov    rcx,QWORD PTR [rbp-0x90]
  3fb164:	48 8b 9d 78 ff ff ff 	mov    rbx,QWORD PTR [rbp-0x88]
  3fb16b:	48 89 88 88 00 00 00 	mov    QWORD PTR [rax+0x88],rcx
  3fb172:	48 89 98 90 00 00 00 	mov    QWORD PTR [rax+0x90],rbx
  3fb179:	48 8b 4d 80          	mov    rcx,QWORD PTR [rbp-0x80]
  3fb17d:	48 8b 5d 88          	mov    rbx,QWORD PTR [rbp-0x78]
  3fb181:	48 89 88 98 00 00 00 	mov    QWORD PTR [rax+0x98],rcx
  3fb188:	48 89 98 a0 00 00 00 	mov    QWORD PTR [rax+0xa0],rbx
  3fb18f:	48 8b 4d 90          	mov    rcx,QWORD PTR [rbp-0x70]
  3fb193:	48 8b 5d 98          	mov    rbx,QWORD PTR [rbp-0x68]
  3fb197:	48 89 88 a8 00 00 00 	mov    QWORD PTR [rax+0xa8],rcx
  3fb19e:	48 89 98 b0 00 00 00 	mov    QWORD PTR [rax+0xb0],rbx
  3fb1a5:	48 8b 4d a0          	mov    rcx,QWORD PTR [rbp-0x60]
  3fb1a9:	48 8b 5d a8          	mov    rbx,QWORD PTR [rbp-0x58]
  3fb1ad:	48 89 88 b8 00 00 00 	mov    QWORD PTR [rax+0xb8],rcx
  3fb1b4:	48 89 98 c0 00 00 00 	mov    QWORD PTR [rax+0xc0],rbx
  3fb1bb:	48 8b 4d b0          	mov    rcx,QWORD PTR [rbp-0x50]
  3fb1bf:	48 8b 5d b8          	mov    rbx,QWORD PTR [rbp-0x48]
  3fb1c3:	48 89 88 c8 00 00 00 	mov    QWORD PTR [rax+0xc8],rcx
  3fb1ca:	48 89 98 d0 00 00 00 	mov    QWORD PTR [rax+0xd0],rbx
  3fb1d1:	48 8b 4d c0          	mov    rcx,QWORD PTR [rbp-0x40]
  3fb1d5:	48 8b 5d c8          	mov    rbx,QWORD PTR [rbp-0x38]
  3fb1d9:	48 89 88 d8 00 00 00 	mov    QWORD PTR [rax+0xd8],rcx
  3fb1e0:	48 89 98 e0 00 00 00 	mov    QWORD PTR [rax+0xe0],rbx
  3fb1e7:	48 8b 4d d0          	mov    rcx,QWORD PTR [rbp-0x30]
  3fb1eb:	48 8b 5d d8          	mov    rbx,QWORD PTR [rbp-0x28]
  3fb1ef:	48 89 88 e8 00 00 00 	mov    QWORD PTR [rax+0xe8],rcx
  3fb1f6:	48 89 98 f0 00 00 00 	mov    QWORD PTR [rax+0xf0],rbx
  3fb1fd:	48 8b 45 80          	mov    rax,QWORD PTR [rbp-0x80]
  3fb201:	48 89 c2             	mov    rdx,rax
  3fb204:	48 8b 85 40 ff ff ff 	mov    rax,QWORD PTR [rbp-0xc0]
  3fb20b:	48 89 50 58          	mov    QWORD PTR [rax+0x58],rdx
  3fb20f:	b8 00 00 00 00       	mov    eax,0x0
  3fb214:	48 81 c4 b8 00 00 00 	add    rsp,0xb8
  3fb21b:	5b                   	pop    rbx
  3fb21c:	5d                   	pop    rbp
  3fb21d:	c3                   	ret    
  3fb21e:	f3 0f 1e fa          	endbr64 
  3fb222:	55                   	push   rbp
  3fb223:	48 89 e5             	mov    rbp,rsp
  3fb226:	53                   	push   rbx
  3fb227:	48 81 ec b8 00 00 00 	sub    rsp,0xb8
  3fb22e:	48 89 bd 48 ff ff ff 	mov    QWORD PTR [rbp-0xb8],rdi
  3fb235:	48 89 b5 40 ff ff ff 	mov    QWORD PTR [rbp-0xc0],rsi
  3fb23c:	48 8b 85 40 ff ff ff 	mov    rax,QWORD PTR [rbp-0xc0]
  3fb243:	48 8b 95 48 ff ff ff 	mov    rdx,QWORD PTR [rbp-0xb8]
  3fb24a:	48 89 50 60          	mov    QWORD PTR [rax+0x60],rdx
  3fb24e:	48 8b 85 48 ff ff ff 	mov    rax,QWORD PTR [rbp-0xb8]
  3fb255:	ba 00 00 00 00       	mov    edx,0x0
  3fb25a:	be 02 00 00 00       	mov    esi,0x2
  3fb25f:	48 89 c7             	mov    rdi,rax
  3fb262:	e8 11 0c 00 00       	call   3fbe78 <_init-0x5188>
  3fb267:	89 45 e8             	mov    DWORD PTR [rbp-0x18],eax
  3fb26a:	83 7d e8 00          	cmp    DWORD PTR [rbp-0x18],0x0
  3fb26e:	79 0a                	jns    3fb27a <_init-0x5d86>
  3fb270:	b8 ff ff ff ff       	mov    eax,0xffffffff
  3fb275:	e9 b1 03 00 00       	jmp    3fb62b <_init-0x59d5>
  3fb27a:	48 8b 85 40 ff ff ff 	mov    rax,QWORD PTR [rbp-0xc0]
  3fb281:	8b 55 e8             	mov    edx,DWORD PTR [rbp-0x18]
  3fb284:	89 90 f8 00 00 00    	mov    DWORD PTR [rax+0xf8],edx
  3fb28a:	8b 45 e8             	mov    eax,DWORD PTR [rbp-0x18]
  3fb28d:	48 98                	cdqe   
  3fb28f:	48 8d 95 50 ff ff ff 	lea    rdx,[rbp-0xb0]
  3fb296:	48 89 d6             	mov    rsi,rdx
  3fb299:	48 89 c7             	mov    rdi,rax
  3fb29c:	e8 97 0c 00 00       	call   3fbf38 <_init-0x50c8>
  3fb2a1:	85 c0                	test   eax,eax
  3fb2a3:	79 0a                	jns    3fb2af <_init-0x5d51>
  3fb2a5:	b8 ff ff ff ff       	mov    eax,0xffffffff
  3fb2aa:	e9 7c 03 00 00       	jmp    3fb62b <_init-0x59d5>
  3fb2af:	8b 45 e8             	mov    eax,DWORD PTR [rbp-0x18]
  3fb2b2:	48 63 d0             	movsxd rdx,eax
  3fb2b5:	48 8b 45 80          	mov    rax,QWORD PTR [rbp-0x80]
  3fb2b9:	41 b9 00 00 00 00    	mov    r9d,0x0
  3fb2bf:	49 89 d0             	mov    r8,rdx
  3fb2c2:	b9 01 00 00 00       	mov    ecx,0x1
  3fb2c7:	ba 03 00 00 00       	mov    edx,0x3
  3fb2cc:	48 89 c6             	mov    rsi,rax
  3fb2cf:	bf 00 00 00 00       	mov    edi,0x0
  3fb2d4:	e8 3b 0d 00 00       	call   3fc014 <_init-0x4fec>
  3fb2d9:	48 8b 95 40 ff ff ff 	mov    rdx,QWORD PTR [rbp-0xc0]
  3fb2e0:	48 89 42 50          	mov    QWORD PTR [rdx+0x50],rax
  3fb2e4:	48 8b 85 40 ff ff ff 	mov    rax,QWORD PTR [rbp-0xc0]
  3fb2eb:	48 8b 40 50          	mov    rax,QWORD PTR [rax+0x50]
  3fb2ef:	48 83 f8 ff          	cmp    rax,0xffffffffffffffff
  3fb2f3:	75 0a                	jne    3fb2ff <_init-0x5d01>
  3fb2f5:	b8 ff ff ff ff       	mov    eax,0xffffffff
  3fb2fa:	e9 2c 03 00 00       	jmp    3fb62b <_init-0x59d5>
  3fb2ff:	48 8b 85 40 ff ff ff 	mov    rax,QWORD PTR [rbp-0xc0]
  3fb306:	48 8b 50 50          	mov    rdx,QWORD PTR [rax+0x50]
  3fb30a:	48 8b 85 40 ff ff ff 	mov    rax,QWORD PTR [rbp-0xc0]
  3fb311:	48 89 10             	mov    QWORD PTR [rax],rdx
  3fb314:	48 8b 85 40 ff ff ff 	mov    rax,QWORD PTR [rbp-0xc0]
  3fb31b:	48 8b 50 50          	mov    rdx,QWORD PTR [rax+0x50]
  3fb31f:	48 8b 85 40 ff ff ff 	mov    rax,QWORD PTR [rbp-0xc0]
  3fb326:	48 8b 00             	mov    rax,QWORD PTR [rax]
  3fb329:	48 8b 40 20          	mov    rax,QWORD PTR [rax+0x20]
  3fb32d:	48 01 c2             	add    rdx,rax
  3fb330:	48 8b 85 40 ff ff ff 	mov    rax,QWORD PTR [rbp-0xc0]
  3fb337:	48 89 50 08          	mov    QWORD PTR [rax+0x8],rdx
  3fb33b:	48 8b 85 40 ff ff ff 	mov    rax,QWORD PTR [rbp-0xc0]
  3fb342:	48 8b 50 50          	mov    rdx,QWORD PTR [rax+0x50]
  3fb346:	48 8b 85 40 ff ff ff 	mov    rax,QWORD PTR [rbp-0xc0]
  3fb34d:	48 8b 00             	mov    rax,QWORD PTR [rax]
  3fb350:	48 8b 40 28          	mov    rax,QWORD PTR [rax+0x28]
  3fb354:	48 01 c2             	add    rdx,rax
  3fb357:	48 8b 85 40 ff ff ff 	mov    rax,QWORD PTR [rbp-0xc0]
  3fb35e:	48 89 50 10          	mov    QWORD PTR [rax+0x10],rdx
  3fb362:	c7 45 ec 00 00 00 00 	mov    DWORD PTR [rbp-0x14],0x0
  3fb369:	e9 b6 01 00 00       	jmp    3fb524 <_init-0x5adc>
  3fb36e:	48 8b 85 40 ff ff ff 	mov    rax,QWORD PTR [rbp-0xc0]
  3fb375:	48 8b 48 08          	mov    rcx,QWORD PTR [rax+0x8]
  3fb379:	8b 45 ec             	mov    eax,DWORD PTR [rbp-0x14]
  3fb37c:	48 63 d0             	movsxd rdx,eax
  3fb37f:	48 89 d0             	mov    rax,rdx
  3fb382:	48 c1 e0 03          	shl    rax,0x3
  3fb386:	48 29 d0             	sub    rax,rdx
  3fb389:	48 c1 e0 03          	shl    rax,0x3
  3fb38d:	48 01 c8             	add    rax,rcx
  3fb390:	8b 00                	mov    eax,DWORD PTR [rax]
  3fb392:	83 f8 01             	cmp    eax,0x1
  3fb395:	74 0e                	je     3fb3a5 <_init-0x5c5b>
  3fb397:	83 f8 02             	cmp    eax,0x2
  3fb39a:	0f 84 3f 01 00 00    	je     3fb4df <_init-0x5b21>
  3fb3a0:	e9 7b 01 00 00       	jmp    3fb520 <_init-0x5ae0>
  3fb3a5:	48 8b 85 40 ff ff ff 	mov    rax,QWORD PTR [rbp-0xc0]
  3fb3ac:	48 8b 48 08          	mov    rcx,QWORD PTR [rax+0x8]
  3fb3b0:	8b 45 ec             	mov    eax,DWORD PTR [rbp-0x14]
  3fb3b3:	48 63 d0             	movsxd rdx,eax
  3fb3b6:	48 89 d0             	mov    rax,rdx
  3fb3b9:	48 c1 e0 03          	shl    rax,0x3
  3fb3bd:	48 29 d0             	sub    rax,rdx
  3fb3c0:	48 c1 e0 03          	shl    rax,0x3
  3fb3c4:	48 01 c8             	add    rax,rcx
  3fb3c7:	48 8b 40 08          	mov    rax,QWORD PTR [rax+0x8]
  3fb3cb:	48 85 c0             	test   rax,rax
  3fb3ce:	0f 95 c0             	setne  al
  3fb3d1:	0f b6 c0             	movzx  eax,al
  3fb3d4:	85 c0                	test   eax,eax
  3fb3d6:	74 0a                	je     3fb3e2 <_init-0x5c1e>
  3fb3d8:	83 f8 01             	cmp    eax,0x1
  3fb3db:	74 6c                	je     3fb449 <_init-0x5bb7>
  3fb3dd:	e9 3e 01 00 00       	jmp    3fb520 <_init-0x5ae0>
  3fb3e2:	48 8b 85 40 ff ff ff 	mov    rax,QWORD PTR [rbp-0xc0]
  3fb3e9:	48 8b 48 08          	mov    rcx,QWORD PTR [rax+0x8]
  3fb3ed:	8b 45 ec             	mov    eax,DWORD PTR [rbp-0x14]
  3fb3f0:	48 63 d0             	movsxd rdx,eax
  3fb3f3:	48 89 d0             	mov    rax,rdx
  3fb3f6:	48 c1 e0 03          	shl    rax,0x3
  3fb3fa:	48 29 d0             	sub    rax,rdx
  3fb3fd:	48 c1 e0 03          	shl    rax,0x3
  3fb401:	48 01 c8             	add    rax,rcx
  3fb404:	48 8b 50 10          	mov    rdx,QWORD PTR [rax+0x10]
  3fb408:	48 8b 85 40 ff ff ff 	mov    rax,QWORD PTR [rbp-0xc0]
  3fb40f:	48 89 50 20          	mov    QWORD PTR [rax+0x20],rdx
  3fb413:	48 8b 85 40 ff ff ff 	mov    rax,QWORD PTR [rbp-0xc0]
  3fb41a:	48 8b 48 08          	mov    rcx,QWORD PTR [rax+0x8]
  3fb41e:	8b 45 ec             	mov    eax,DWORD PTR [rbp-0x14]
  3fb421:	48 63 d0             	movsxd rdx,eax
  3fb424:	48 89 d0             	mov    rax,rdx
  3fb427:	48 c1 e0 03          	shl    rax,0x3
  3fb42b:	48 29 d0             	sub    rax,rdx
  3fb42e:	48 c1 e0 03          	shl    rax,0x3
  3fb432:	48 01 c8             	add    rax,rcx
  3fb435:	48 8b 50 28          	mov    rdx,QWORD PTR [rax+0x28]
  3fb439:	48 8b 85 40 ff ff ff 	mov    rax,QWORD PTR [rbp-0xc0]
  3fb440:	48 89 50 30          	mov    QWORD PTR [rax+0x30],rdx
  3fb444:	e9 94 00 00 00       	jmp    3fb4dd <_init-0x5b23>
  3fb449:	48 8b 85 40 ff ff ff 	mov    rax,QWORD PTR [rbp-0xc0]
  3fb450:	48 8b 48 08          	mov    rcx,QWORD PTR [rax+0x8]
  3fb454:	8b 45 ec             	mov    eax,DWORD PTR [rbp-0x14]
  3fb457:	48 63 d0             	movsxd rdx,eax
  3fb45a:	48 89 d0             	mov    rax,rdx
  3fb45d:	48 c1 e0 03          	shl    rax,0x3
  3fb461:	48 29 d0             	sub    rax,rdx
  3fb464:	48 c1 e0 03          	shl    rax,0x3
  3fb468:	48 01 c8             	add    rax,rcx
  3fb46b:	48 8b 50 10          	mov    rdx,QWORD PTR [rax+0x10]
  3fb46f:	48 8b 85 40 ff ff ff 	mov    rax,QWORD PTR [rbp-0xc0]
  3fb476:	48 89 50 28          	mov    QWORD PTR [rax+0x28],rdx
  3fb47a:	48 8b 85 40 ff ff ff 	mov    rax,QWORD PTR [rbp-0xc0]
  3fb481:	48 8b 48 08          	mov    rcx,QWORD PTR [rax+0x8]
  3fb485:	8b 45 ec             	mov    eax,DWORD PTR [rbp-0x14]
  3fb488:	48 63 d0             	movsxd rdx,eax
  3fb48b:	48 89 d0             	mov    rax,rdx
  3fb48e:	48 c1 e0 03          	shl    rax,0x3
  3fb492:	48 29 d0             	sub    rax,rdx
  3fb495:	48 c1 e0 03          	shl    rax,0x3
  3fb499:	48 01 c8             	add    rax,rcx
  3fb49c:	48 8b 50 28          	mov    rdx,QWORD PTR [rax+0x28]
  3fb4a0:	48 8b 85 40 ff ff ff 	mov    rax,QWORD PTR [rbp-0xc0]
  3fb4a7:	48 89 50 38          	mov    QWORD PTR [rax+0x38],rdx
  3fb4ab:	48 8b 85 40 ff ff ff 	mov    rax,QWORD PTR [rbp-0xc0]
  3fb4b2:	48 8b 48 08          	mov    rcx,QWORD PTR [rax+0x8]
  3fb4b6:	8b 45 ec             	mov    eax,DWORD PTR [rbp-0x14]
  3fb4b9:	48 63 d0             	movsxd rdx,eax
  3fb4bc:	48 89 d0             	mov    rax,rdx
  3fb4bf:	48 c1 e0 03          	shl    rax,0x3
  3fb4c3:	48 29 d0             	sub    rax,rdx
  3fb4c6:	48 c1 e0 03          	shl    rax,0x3
  3fb4ca:	48 01 c8             	add    rax,rcx
  3fb4cd:	48 8b 50 08          	mov    rdx,QWORD PTR [rax+0x8]
  3fb4d1:	48 8b 85 40 ff ff ff 	mov    rax,QWORD PTR [rbp-0xc0]
  3fb4d8:	48 89 50 40          	mov    QWORD PTR [rax+0x40],rdx
  3fb4dc:	90                   	nop
  3fb4dd:	eb 41                	jmp    3fb520 <_init-0x5ae0>
  3fb4df:	48 8b 85 40 ff ff ff 	mov    rax,QWORD PTR [rbp-0xc0]
  3fb4e6:	48 8b 48 50          	mov    rcx,QWORD PTR [rax+0x50]
  3fb4ea:	48 8b 85 40 ff ff ff 	mov    rax,QWORD PTR [rbp-0xc0]
  3fb4f1:	48 8b 70 08          	mov    rsi,QWORD PTR [rax+0x8]
  3fb4f5:	8b 45 ec             	mov    eax,DWORD PTR [rbp-0x14]
  3fb4f8:	48 63 d0             	movsxd rdx,eax
  3fb4fb:	48 89 d0             	mov    rax,rdx
  3fb4fe:	48 c1 e0 03          	shl    rax,0x3
  3fb502:	48 29 d0             	sub    rax,rdx
  3fb505:	48 c1 e0 03          	shl    rax,0x3
  3fb509:	48 01 f0             	add    rax,rsi
  3fb50c:	48 8b 40 08          	mov    rax,QWORD PTR [rax+0x8]
  3fb510:	48 8d 14 01          	lea    rdx,[rcx+rax*1]
  3fb514:	48 8b 85 40 ff ff ff 	mov    rax,QWORD PTR [rbp-0xc0]
  3fb51b:	48 89 50 18          	mov    QWORD PTR [rax+0x18],rdx
  3fb51f:	90                   	nop
  3fb520:	83 45 ec 01          	add    DWORD PTR [rbp-0x14],0x1
  3fb524:	48 8b 85 40 ff ff ff 	mov    rax,QWORD PTR [rbp-0xc0]
  3fb52b:	48 8b 00             	mov    rax,QWORD PTR [rax]
  3fb52e:	0f b7 40 38          	movzx  eax,WORD PTR [rax+0x38]
  3fb532:	0f b7 c0             	movzx  eax,ax
  3fb535:	39 45 ec             	cmp    DWORD PTR [rbp-0x14],eax
  3fb538:	0f 8c 30 fe ff ff    	jl     3fb36e <_init-0x5c92>
  3fb53e:	48 8b 85 40 ff ff ff 	mov    rax,QWORD PTR [rbp-0xc0]
  3fb545:	48 8b 8d 50 ff ff ff 	mov    rcx,QWORD PTR [rbp-0xb0]
  3fb54c:	48 8b 9d 58 ff ff ff 	mov    rbx,QWORD PTR [rbp-0xa8]
  3fb553:	48 89 48 68          	mov    QWORD PTR [rax+0x68],rcx
  3fb557:	48 89 58 70          	mov    QWORD PTR [rax+0x70],rbx
  3fb55b:	48 8b 8d 60 ff ff ff 	mov    rcx,QWORD PTR [rbp-0xa0]
  3fb562:	48 8b 9d 68 ff ff ff 	mov    rbx,QWORD PTR [rbp-0x98]
  3fb569:	48 89 48 78          	mov    QWORD PTR [rax+0x78],rcx
  3fb56d:	48 89 98 80 00 00 00 	mov    QWORD PTR [rax+0x80],rbx
  3fb574:	48 8b 8d 70 ff ff ff 	mov    rcx,QWORD PTR [rbp-0x90]
  3fb57b:	48 8b 9d 78 ff ff ff 	mov    rbx,QWORD PTR [rbp-0x88]
  3fb582:	48 89 88 88 00 00 00 	mov    QWORD PTR [rax+0x88],rcx
  3fb589:	48 89 98 90 00 00 00 	mov    QWORD PTR [rax+0x90],rbx
  3fb590:	48 8b 4d 80          	mov    rcx,QWORD PTR [rbp-0x80]
  3fb594:	48 8b 5d 88          	mov    rbx,QWORD PTR [rbp-0x78]
  3fb598:	48 89 88 98 00 00 00 	mov    QWORD PTR [rax+0x98],rcx
  3fb59f:	48 89 98 a0 00 00 00 	mov    QWORD PTR [rax+0xa0],rbx
  3fb5a6:	48 8b 4d 90          	mov    rcx,QWORD PTR [rbp-0x70]
  3fb5aa:	48 8b 5d 98          	mov    rbx,QWORD PTR [rbp-0x68]
  3fb5ae:	48 89 88 a8 00 00 00 	mov    QWORD PTR [rax+0xa8],rcx
  3fb5b5:	48 89 98 b0 00 00 00 	mov    QWORD PTR [rax+0xb0],rbx
  3fb5bc:	48 8b 4d a0          	mov    rcx,QWORD PTR [rbp-0x60]
  3fb5c0:	48 8b 5d a8          	mov    rbx,QWORD PTR [rbp-0x58]
  3fb5c4:	48 89 88 b8 00 00 00 	mov    QWORD PTR [rax+0xb8],rcx
  3fb5cb:	48 89 98 c0 00 00 00 	mov    QWORD PTR [rax+0xc0],rbx
  3fb5d2:	48 8b 4d b0          	mov    rcx,QWORD PTR [rbp-0x50]
  3fb5d6:	48 8b 5d b8          	mov    rbx,QWORD PTR [rbp-0x48]
  3fb5da:	48 89 88 c8 00 00 00 	mov    QWORD PTR [rax+0xc8],rcx
  3fb5e1:	48 89 98 d0 00 00 00 	mov    QWORD PTR [rax+0xd0],rbx
  3fb5e8:	48 8b 4d c0          	mov    rcx,QWORD PTR [rbp-0x40]
  3fb5ec:	48 8b 5d c8          	mov    rbx,QWORD PTR [rbp-0x38]
  3fb5f0:	48 89 88 d8 00 00 00 	mov    QWORD PTR [rax+0xd8],rcx
  3fb5f7:	48 89 98 e0 00 00 00 	mov    QWORD PTR [rax+0xe0],rbx
  3fb5fe:	48 8b 4d d0          	mov    rcx,QWORD PTR [rbp-0x30]
  3fb602:	48 8b 5d d8          	mov    rbx,QWORD PTR [rbp-0x28]
  3fb606:	48 89 88 e8 00 00 00 	mov    QWORD PTR [rax+0xe8],rcx
  3fb60d:	48 89 98 f0 00 00 00 	mov    QWORD PTR [rax+0xf0],rbx
  3fb614:	48 8b 45 80          	mov    rax,QWORD PTR [rbp-0x80]
  3fb618:	48 89 c2             	mov    rdx,rax
  3fb61b:	48 8b 85 40 ff ff ff 	mov    rax,QWORD PTR [rbp-0xc0]
  3fb622:	48 89 50 58          	mov    QWORD PTR [rax+0x58],rdx
  3fb626:	b8 00 00 00 00       	mov    eax,0x0
  3fb62b:	48 81 c4 b8 00 00 00 	add    rsp,0xb8
  3fb632:	5b                   	pop    rbx
  3fb633:	5d                   	pop    rbp
  3fb634:	c3                   	ret    
  3fb635:	f3 0f 1e fa          	endbr64 
  3fb639:	55                   	push   rbp
  3fb63a:	48 89 e5             	mov    rbp,rsp
  3fb63d:	48 83 ec 70          	sub    rsp,0x70
  3fb641:	48 89 7d 98          	mov    QWORD PTR [rbp-0x68],rdi
  3fb645:	48 89 75 90          	mov    QWORD PTR [rbp-0x70],rsi
  3fb649:	c7 45 b4 00 00 00 00 	mov    DWORD PTR [rbp-0x4c],0x0
  3fb650:	c7 45 f8 ff ff ff ff 	mov    DWORD PTR [rbp-0x8],0xffffffff
  3fb657:	48 8b 45 98          	mov    rax,QWORD PTR [rbp-0x68]
  3fb65b:	48 8b 40 18          	mov    rax,QWORD PTR [rax+0x18]
  3fb65f:	48 89 45 a8          	mov    QWORD PTR [rbp-0x58],rax
  3fb663:	48 c7 45 c0 00 00 00 	mov    QWORD PTR [rbp-0x40],0x0
  3fb66a:	00 
  3fb66b:	48 c7 45 b8 00 00 00 	mov    QWORD PTR [rbp-0x48],0x0
  3fb672:	00 
  3fb673:	c7 45 fc 00 00 00 00 	mov    DWORD PTR [rbp-0x4],0x0
  3fb67a:	e9 67 01 00 00       	jmp    3fb7e6 <_init-0x581a>
  3fb67f:	8b 45 fc             	mov    eax,DWORD PTR [rbp-0x4]
  3fb682:	48 98                	cdqe   
  3fb684:	48 c1 e0 04          	shl    rax,0x4
  3fb688:	48 89 c2             	mov    rdx,rax
  3fb68b:	48 8b 45 a8          	mov    rax,QWORD PTR [rbp-0x58]
  3fb68f:	48 01 d0             	add    rax,rdx
  3fb692:	48 8b 00             	mov    rax,QWORD PTR [rax]
  3fb695:	48 83 f8 17          	cmp    rax,0x17
  3fb699:	0f 87 43 01 00 00    	ja     3fb7e2 <_init-0x581e>
  3fb69f:	48 8d 14 85 00 00 00 	lea    rdx,[rax*4+0x0]
  3fb6a6:	00 
  3fb6a7:	48 8d 05 26 15 00 00 	lea    rax,[rip+0x1526]        # 3fcbd4 <_init-0x442c>
  3fb6ae:	8b 04 02             	mov    eax,DWORD PTR [rdx+rax*1]
  3fb6b1:	48 98                	cdqe   
  3fb6b3:	48 8d 15 1a 15 00 00 	lea    rdx,[rip+0x151a]        # 3fcbd4 <_init-0x442c>
  3fb6ba:	48 01 d0             	add    rax,rdx
  3fb6bd:	3e ff e0             	notrack jmp rax
  3fb6c0:	48 8b 45 98          	mov    rax,QWORD PTR [rbp-0x68]
  3fb6c4:	48 8b 50 50          	mov    rdx,QWORD PTR [rax+0x50]
  3fb6c8:	8b 45 fc             	mov    eax,DWORD PTR [rbp-0x4]
  3fb6cb:	48 98                	cdqe   
  3fb6cd:	48 c1 e0 04          	shl    rax,0x4
  3fb6d1:	48 89 c1             	mov    rcx,rax
  3fb6d4:	48 8b 45 a8          	mov    rax,QWORD PTR [rbp-0x58]
  3fb6d8:	48 01 c8             	add    rax,rcx
  3fb6db:	48 8b 48 08          	mov    rcx,QWORD PTR [rax+0x8]
  3fb6df:	48 8b 45 98          	mov    rax,QWORD PTR [rbp-0x68]
  3fb6e3:	48 8b 40 20          	mov    rax,QWORD PTR [rax+0x20]
  3fb6e7:	48 29 c1             	sub    rcx,rax
  3fb6ea:	48 89 c8             	mov    rax,rcx
  3fb6ed:	48 01 d0             	add    rax,rdx
  3fb6f0:	48 89 45 f0          	mov    QWORD PTR [rbp-0x10],rax
  3fb6f4:	e9 e9 00 00 00       	jmp    3fb7e2 <_init-0x581e>
  3fb6f9:	48 8b 45 98          	mov    rax,QWORD PTR [rbp-0x68]
  3fb6fd:	48 8b 50 50          	mov    rdx,QWORD PTR [rax+0x50]
  3fb701:	48 8b 45 98          	mov    rax,QWORD PTR [rbp-0x68]
  3fb705:	48 8b 48 40          	mov    rcx,QWORD PTR [rax+0x40]
  3fb709:	8b 45 fc             	mov    eax,DWORD PTR [rbp-0x4]
  3fb70c:	48 98                	cdqe   
  3fb70e:	48 c1 e0 04          	shl    rax,0x4
  3fb712:	48 89 c6             	mov    rsi,rax
  3fb715:	48 8b 45 a8          	mov    rax,QWORD PTR [rbp-0x58]
  3fb719:	48 01 f0             	add    rax,rsi
  3fb71c:	48 8b 70 08          	mov    rsi,QWORD PTR [rax+0x8]
  3fb720:	48 8b 45 98          	mov    rax,QWORD PTR [rbp-0x68]
  3fb724:	48 8b 40 28          	mov    rax,QWORD PTR [rax+0x28]
  3fb728:	48 29 c6             	sub    rsi,rax
  3fb72b:	48 89 f0             	mov    rax,rsi
  3fb72e:	48 01 c8             	add    rax,rcx
  3fb731:	48 01 d0             	add    rax,rdx
  3fb734:	48 89 45 e0          	mov    QWORD PTR [rbp-0x20],rax
  3fb738:	e9 a5 00 00 00       	jmp    3fb7e2 <_init-0x581e>
  3fb73d:	48 8b 45 98          	mov    rax,QWORD PTR [rbp-0x68]
  3fb741:	48 8b 50 50          	mov    rdx,QWORD PTR [rax+0x50]
  3fb745:	8b 45 fc             	mov    eax,DWORD PTR [rbp-0x4]
  3fb748:	48 98                	cdqe   
  3fb74a:	48 c1 e0 04          	shl    rax,0x4
  3fb74e:	48 89 c1             	mov    rcx,rax
  3fb751:	48 8b 45 a8          	mov    rax,QWORD PTR [rbp-0x58]
  3fb755:	48 01 c8             	add    rax,rcx
  3fb758:	48 8b 48 08          	mov    rcx,QWORD PTR [rax+0x8]
  3fb75c:	48 8b 45 98          	mov    rax,QWORD PTR [rbp-0x68]
  3fb760:	48 8b 40 20          	mov    rax,QWORD PTR [rax+0x20]
  3fb764:	48 29 c1             	sub    rcx,rax
  3fb767:	48 89 c8             	mov    rax,rcx
  3fb76a:	48 01 d0             	add    rax,rdx
  3fb76d:	48 89 45 d8          	mov    QWORD PTR [rbp-0x28],rax
  3fb771:	eb 6f                	jmp    3fb7e2 <_init-0x581e>
  3fb773:	8b 45 fc             	mov    eax,DWORD PTR [rbp-0x4]
  3fb776:	48 98                	cdqe   
  3fb778:	48 c1 e0 04          	shl    rax,0x4
  3fb77c:	48 89 c2             	mov    rdx,rax
  3fb77f:	48 8b 45 a8          	mov    rax,QWORD PTR [rbp-0x58]
  3fb783:	48 01 d0             	add    rax,rdx
  3fb786:	48 8b 40 08          	mov    rax,QWORD PTR [rax+0x8]
  3fb78a:	48 89 45 d0          	mov    QWORD PTR [rbp-0x30],rax
  3fb78e:	eb 52                	jmp    3fb7e2 <_init-0x581e>
  3fb790:	48 8b 45 98          	mov    rax,QWORD PTR [rbp-0x68]
  3fb794:	48 8b 50 50          	mov    rdx,QWORD PTR [rax+0x50]
  3fb798:	8b 45 fc             	mov    eax,DWORD PTR [rbp-0x4]
  3fb79b:	48 98                	cdqe   
  3fb79d:	48 c1 e0 04          	shl    rax,0x4
  3fb7a1:	48 89 c1             	mov    rcx,rax
  3fb7a4:	48 8b 45 a8          	mov    rax,QWORD PTR [rbp-0x58]
  3fb7a8:	48 01 c8             	add    rax,rcx
  3fb7ab:	48 8b 48 08          	mov    rcx,QWORD PTR [rax+0x8]
  3fb7af:	48 8b 45 98          	mov    rax,QWORD PTR [rbp-0x68]
  3fb7b3:	48 8b 40 20          	mov    rax,QWORD PTR [rax+0x20]
  3fb7b7:	48 29 c1             	sub    rcx,rax
  3fb7ba:	48 89 c8             	mov    rax,rcx
  3fb7bd:	48 01 d0             	add    rax,rdx
  3fb7c0:	48 89 45 e8          	mov    QWORD PTR [rbp-0x18],rax
  3fb7c4:	eb 1c                	jmp    3fb7e2 <_init-0x581e>
  3fb7c6:	8b 45 fc             	mov    eax,DWORD PTR [rbp-0x4]
  3fb7c9:	48 98                	cdqe   
  3fb7cb:	48 c1 e0 04          	shl    rax,0x4
  3fb7cf:	48 89 c2             	mov    rdx,rax
  3fb7d2:	48 8b 45 a8          	mov    rax,QWORD PTR [rbp-0x58]
  3fb7d6:	48 01 d0             	add    rax,rdx
  3fb7d9:	48 8b 40 08          	mov    rax,QWORD PTR [rax+0x8]
  3fb7dd:	48 89 45 c8          	mov    QWORD PTR [rbp-0x38],rax
  3fb7e1:	90                   	nop
  3fb7e2:	83 45 fc 01          	add    DWORD PTR [rbp-0x4],0x1
  3fb7e6:	8b 45 fc             	mov    eax,DWORD PTR [rbp-0x4]
  3fb7e9:	48 98                	cdqe   
  3fb7eb:	48 c1 e0 04          	shl    rax,0x4
  3fb7ef:	48 89 c2             	mov    rdx,rax
  3fb7f2:	48 8b 45 a8          	mov    rax,QWORD PTR [rbp-0x58]
  3fb7f6:	48 01 d0             	add    rax,rdx
  3fb7f9:	48 8b 00             	mov    rax,QWORD PTR [rax]
  3fb7fc:	48 85 c0             	test   rax,rax
  3fb7ff:	0f 85 7a fe ff ff    	jne    3fb67f <_init-0x5981>
  3fb805:	48 83 7d f0 00       	cmp    QWORD PTR [rbp-0x10],0x0
  3fb80a:	74 07                	je     3fb813 <_init-0x57ed>
  3fb80c:	48 83 7d e0 00       	cmp    QWORD PTR [rbp-0x20],0x0
  3fb811:	75 0a                	jne    3fb81d <_init-0x57e3>
  3fb813:	b8 ff ff ff ff       	mov    eax,0xffffffff
  3fb818:	e9 af 01 00 00       	jmp    3fb9cc <_init-0x5634>
  3fb81d:	c7 45 fc 00 00 00 00 	mov    DWORD PTR [rbp-0x4],0x0
  3fb824:	eb 47                	jmp    3fb86d <_init-0x5793>
  3fb826:	8b 45 fc             	mov    eax,DWORD PTR [rbp-0x4]
  3fb829:	48 63 d0             	movsxd rdx,eax
  3fb82c:	48 89 d0             	mov    rax,rdx
  3fb82f:	48 01 c0             	add    rax,rax
  3fb832:	48 01 d0             	add    rax,rdx
  3fb835:	48 c1 e0 03          	shl    rax,0x3
  3fb839:	48 89 c2             	mov    rdx,rax
  3fb83c:	48 8b 45 f0          	mov    rax,QWORD PTR [rbp-0x10]
  3fb840:	48 01 d0             	add    rax,rdx
  3fb843:	8b 00                	mov    eax,DWORD PTR [rax]
  3fb845:	89 c2                	mov    edx,eax
  3fb847:	48 8b 45 d8          	mov    rax,QWORD PTR [rbp-0x28]
  3fb84b:	48 01 d0             	add    rax,rdx
  3fb84e:	48 8d 35 77 13 00 00 	lea    rsi,[rip+0x1377]        # 3fcbcc <_init-0x4434>
  3fb855:	48 89 c7             	mov    rdi,rax
  3fb858:	e8 e3 11 00 00       	call   3fca40 <_init-0x45c0>
  3fb85d:	85 c0                	test   eax,eax
  3fb85f:	75 08                	jne    3fb869 <_init-0x5797>
  3fb861:	8b 45 fc             	mov    eax,DWORD PTR [rbp-0x4]
  3fb864:	89 45 f8             	mov    DWORD PTR [rbp-0x8],eax
  3fb867:	eb 2b                	jmp    3fb894 <_init-0x576c>
  3fb869:	83 45 fc 01          	add    DWORD PTR [rbp-0x4],0x1
  3fb86d:	8b 45 fc             	mov    eax,DWORD PTR [rbp-0x4]
  3fb870:	48 63 d0             	movsxd rdx,eax
  3fb873:	48 89 d0             	mov    rax,rdx
  3fb876:	48 01 c0             	add    rax,rax
  3fb879:	48 01 d0             	add    rax,rdx
  3fb87c:	48 c1 e0 03          	shl    rax,0x3
  3fb880:	48 89 c2             	mov    rdx,rax
  3fb883:	48 8b 45 f0          	mov    rax,QWORD PTR [rbp-0x10]
  3fb887:	48 01 d0             	add    rax,rdx
  3fb88a:	8b 00                	mov    eax,DWORD PTR [rax]
  3fb88c:	89 c0                	mov    eax,eax
  3fb88e:	48 39 45 d0          	cmp    QWORD PTR [rbp-0x30],rax
  3fb892:	73 92                	jae    3fb826 <_init-0x57da>
  3fb894:	83 7d f8 ff          	cmp    DWORD PTR [rbp-0x8],0xffffffff
  3fb898:	75 0a                	jne    3fb8a4 <_init-0x575c>
  3fb89a:	b8 ff ff ff ff       	mov    eax,0xffffffff
  3fb89f:	e9 28 01 00 00       	jmp    3fb9cc <_init-0x5634>
  3fb8a4:	c7 45 fc 00 00 00 00 	mov    DWORD PTR [rbp-0x4],0x0
  3fb8ab:	e9 c4 00 00 00       	jmp    3fb974 <_init-0x568c>
  3fb8b0:	8b 45 fc             	mov    eax,DWORD PTR [rbp-0x4]
  3fb8b3:	48 63 d0             	movsxd rdx,eax
  3fb8b6:	48 89 d0             	mov    rax,rdx
  3fb8b9:	48 01 c0             	add    rax,rax
  3fb8bc:	48 01 d0             	add    rax,rdx
  3fb8bf:	48 c1 e0 03          	shl    rax,0x3
  3fb8c3:	48 89 c2             	mov    rdx,rax
  3fb8c6:	48 8b 45 e8          	mov    rax,QWORD PTR [rbp-0x18]
  3fb8ca:	48 01 d0             	add    rax,rdx
  3fb8cd:	48 8b 40 08          	mov    rax,QWORD PTR [rax+0x8]
  3fb8d1:	48 c1 e8 20          	shr    rax,0x20
  3fb8d5:	48 89 c2             	mov    rdx,rax
  3fb8d8:	48 89 d0             	mov    rax,rdx
  3fb8db:	48 01 c0             	add    rax,rax
  3fb8de:	48 01 d0             	add    rax,rdx
  3fb8e1:	48 c1 e0 03          	shl    rax,0x3
  3fb8e5:	48 89 c2             	mov    rdx,rax
  3fb8e8:	48 8b 45 f0          	mov    rax,QWORD PTR [rbp-0x10]
  3fb8ec:	48 01 d0             	add    rax,rdx
  3fb8ef:	8b 00                	mov    eax,DWORD PTR [rax]
  3fb8f1:	89 c2                	mov    edx,eax
  3fb8f3:	48 8b 45 d8          	mov    rax,QWORD PTR [rbp-0x28]
  3fb8f7:	48 01 d0             	add    rax,rdx
  3fb8fa:	48 8d 35 cb 12 00 00 	lea    rsi,[rip+0x12cb]        # 3fcbcc <_init-0x4434>
  3fb901:	48 89 c7             	mov    rdi,rax
  3fb904:	e8 37 11 00 00       	call   3fca40 <_init-0x45c0>
  3fb909:	85 c0                	test   eax,eax
  3fb90b:	75 63                	jne    3fb970 <_init-0x5690>
  3fb90d:	8b 45 fc             	mov    eax,DWORD PTR [rbp-0x4]
  3fb910:	48 63 d0             	movsxd rdx,eax
  3fb913:	48 89 d0             	mov    rax,rdx
  3fb916:	48 01 c0             	add    rax,rax
  3fb919:	48 01 d0             	add    rax,rdx
  3fb91c:	48 c1 e0 03          	shl    rax,0x3
  3fb920:	48 89 c2             	mov    rdx,rax
  3fb923:	48 8b 45 e8          	mov    rax,QWORD PTR [rbp-0x18]
  3fb927:	48 01 d0             	add    rax,rdx
  3fb92a:	48 8b 00             	mov    rax,QWORD PTR [rax]
  3fb92d:	48 89 45 c0          	mov    QWORD PTR [rbp-0x40],rax
  3fb931:	48 8b 45 98          	mov    rax,QWORD PTR [rbp-0x68]
  3fb935:	48 8b 48 40          	mov    rcx,QWORD PTR [rax+0x40]
  3fb939:	8b 45 fc             	mov    eax,DWORD PTR [rbp-0x4]
  3fb93c:	48 63 d0             	movsxd rdx,eax
  3fb93f:	48 89 d0             	mov    rax,rdx
  3fb942:	48 01 c0             	add    rax,rax
  3fb945:	48 01 d0             	add    rax,rdx
  3fb948:	48 c1 e0 03          	shl    rax,0x3
  3fb94c:	48 89 c2             	mov    rdx,rax
  3fb94f:	48 8b 45 e8          	mov    rax,QWORD PTR [rbp-0x18]
  3fb953:	48 01 d0             	add    rax,rdx
  3fb956:	48 8b 10             	mov    rdx,QWORD PTR [rax]
  3fb959:	48 8b 45 98          	mov    rax,QWORD PTR [rbp-0x68]
  3fb95d:	48 8b 40 28          	mov    rax,QWORD PTR [rax+0x28]
  3fb961:	48 29 c2             	sub    rdx,rax
  3fb964:	48 89 d0             	mov    rax,rdx
  3fb967:	48 01 c8             	add    rax,rcx
  3fb96a:	48 89 45 b8          	mov    QWORD PTR [rbp-0x48],rax
  3fb96e:	eb 2b                	jmp    3fb99b <_init-0x5665>
  3fb970:	83 45 fc 01          	add    DWORD PTR [rbp-0x4],0x1
  3fb974:	8b 45 fc             	mov    eax,DWORD PTR [rbp-0x4]
  3fb977:	48 63 c8             	movsxd rcx,eax
  3fb97a:	48 8b 45 c8          	mov    rax,QWORD PTR [rbp-0x38]
  3fb97e:	48 ba ab aa aa aa aa 	movabs rdx,0xaaaaaaaaaaaaaaab
  3fb985:	aa aa aa 
  3fb988:	48 f7 e2             	mul    rdx
  3fb98b:	48 89 d0             	mov    rax,rdx
  3fb98e:	48 c1 e8 04          	shr    rax,0x4
  3fb992:	48 39 c1             	cmp    rcx,rax
  3fb995:	0f 82 15 ff ff ff    	jb     3fb8b0 <_init-0x5750>
  3fb99b:	48 83 7d c0 00       	cmp    QWORD PTR [rbp-0x40],0x0
  3fb9a0:	75 07                	jne    3fb9a9 <_init-0x5657>
  3fb9a2:	b8 ff ff ff ff       	mov    eax,0xffffffff
  3fb9a7:	eb 23                	jmp    3fb9cc <_init-0x5634>
  3fb9a9:	48 8b 45 98          	mov    rax,QWORD PTR [rbp-0x68]
  3fb9ad:	48 8b 50 50          	mov    rdx,QWORD PTR [rax+0x50]
  3fb9b1:	48 8b 45 b8          	mov    rax,QWORD PTR [rbp-0x48]
  3fb9b5:	48 01 d0             	add    rax,rdx
  3fb9b8:	48 89 45 a0          	mov    QWORD PTR [rbp-0x60],rax
  3fb9bc:	48 8b 45 a0          	mov    rax,QWORD PTR [rbp-0x60]
  3fb9c0:	48 8b 55 90          	mov    rdx,QWORD PTR [rbp-0x70]
  3fb9c4:	48 89 10             	mov    QWORD PTR [rax],rdx
  3fb9c7:	b8 00 00 00 00       	mov    eax,0x0
  3fb9cc:	c9                   	leave  
  3fb9cd:	c3                   	ret    
  3fb9ce:	f3 0f 1e fa          	endbr64 
  3fb9d2:	55                   	push   rbp
  3fb9d3:	48 89 e5             	mov    rbp,rsp
  3fb9d6:	48 81 ec 00 10 00 00 	sub    rsp,0x1000
  3fb9dd:	48 83 0c 24 00       	or     QWORD PTR [rsp],0x0
  3fb9e2:	48 81 ec d0 00 00 00 	sub    rsp,0xd0
  3fb9e9:	48 89 bd 38 ef ff ff 	mov    QWORD PTR [rbp-0x10c8],rdi
  3fb9f0:	c7 45 f4 00 00 00 00 	mov    DWORD PTR [rbp-0xc],0x0
  3fb9f7:	48 8b 85 38 ef ff ff 	mov    rax,QWORD PTR [rbp-0x10c8]
  3fb9fe:	ba 00 00 00 00       	mov    edx,0x0
  3fba03:	be 00 00 00 00       	mov    esi,0x0
  3fba08:	48 89 c7             	mov    rdi,rax
  3fba0b:	e8 68 04 00 00       	call   3fbe78 <_init-0x5188>
  3fba10:	89 45 f0             	mov    DWORD PTR [rbp-0x10],eax
  3fba13:	83 7d f0 00          	cmp    DWORD PTR [rbp-0x10],0x0
  3fba17:	79 0a                	jns    3fba23 <_init-0x55dd>
  3fba19:	b8 ff ff ff ff       	mov    eax,0xffffffff
  3fba1e:	e9 27 01 00 00       	jmp    3fbb4a <_init-0x54b6>
  3fba23:	8b 45 f0             	mov    eax,DWORD PTR [rbp-0x10]
  3fba26:	48 98                	cdqe   
  3fba28:	48 8d 8d 40 ef ff ff 	lea    rcx,[rbp-0x10c0]
  3fba2f:	ba 00 10 00 00       	mov    edx,0x1000
  3fba34:	48 89 ce             	mov    rsi,rcx
  3fba37:	48 89 c7             	mov    rdi,rax
  3fba3a:	e8 8d 04 00 00       	call   3fbecc <_init-0x5134>
  3fba3f:	85 c0                	test   eax,eax
  3fba41:	79 0a                	jns    3fba4d <_init-0x55b3>
  3fba43:	b8 ff ff ff ff       	mov    eax,0xffffffff
  3fba48:	e9 fd 00 00 00       	jmp    3fbb4a <_init-0x54b6>
  3fba4d:	8b 45 f0             	mov    eax,DWORD PTR [rbp-0x10]
  3fba50:	89 c7                	mov    edi,eax
  3fba52:	e8 57 04 00 00       	call   3fbeae <_init-0x5152>
  3fba57:	48 8d 85 40 ef ff ff 	lea    rax,[rbp-0x10c0]
  3fba5e:	48 89 45 e8          	mov    QWORD PTR [rbp-0x18],rax
  3fba62:	48 8b 45 e8          	mov    rax,QWORD PTR [rbp-0x18]
  3fba66:	48 8b 40 20          	mov    rax,QWORD PTR [rax+0x20]
  3fba6a:	48 8d 95 40 ef ff ff 	lea    rdx,[rbp-0x10c0]
  3fba71:	48 01 d0             	add    rax,rdx
  3fba74:	48 89 45 e0          	mov    QWORD PTR [rbp-0x20],rax
  3fba78:	48 8d 85 40 ef ff ff 	lea    rax,[rbp-0x10c0]
  3fba7f:	ba 04 00 00 00       	mov    edx,0x4
  3fba84:	48 89 c6             	mov    rsi,rax
  3fba87:	48 8d 3d a6 11 00 00 	lea    rdi,[rip+0x11a6]        # 3fcc34 <_init-0x43cc>
  3fba8e:	e8 0d 10 00 00       	call   3fcaa0 <_init-0x4560>
  3fba93:	85 c0                	test   eax,eax
  3fba95:	74 0a                	je     3fbaa1 <_init-0x555f>
  3fba97:	b8 ff ff ff ff       	mov    eax,0xffffffff
  3fba9c:	e9 a9 00 00 00       	jmp    3fbb4a <_init-0x54b6>
  3fbaa1:	48 8b 45 e8          	mov    rax,QWORD PTR [rbp-0x18]
  3fbaa5:	48 83 c0 09          	add    rax,0x9
  3fbaa9:	8b 00                	mov    eax,DWORD PTR [rax]
  3fbaab:	89 45 dc             	mov    DWORD PTR [rbp-0x24],eax
  3fbaae:	81 7d dc 25 5d 01 00 	cmp    DWORD PTR [rbp-0x24],0x15d25
  3fbab5:	75 0a                	jne    3fbac1 <_init-0x553f>
  3fbab7:	b8 ff ff ff ff       	mov    eax,0xffffffff
  3fbabc:	e9 89 00 00 00       	jmp    3fbb4a <_init-0x54b6>
  3fbac1:	48 8b 45 e8          	mov    rax,QWORD PTR [rbp-0x18]
  3fbac5:	0f b7 40 10          	movzx  eax,WORD PTR [rax+0x10]
  3fbac9:	66 83 f8 02          	cmp    ax,0x2
  3fbacd:	74 07                	je     3fbad6 <_init-0x552a>
  3fbacf:	b8 ff ff ff ff       	mov    eax,0xffffffff
  3fbad4:	eb 74                	jmp    3fbb4a <_init-0x54b6>
  3fbad6:	48 8b 45 e8          	mov    rax,QWORD PTR [rbp-0x18]
  3fbada:	0f b7 40 12          	movzx  eax,WORD PTR [rax+0x12]
  3fbade:	66 83 f8 3e          	cmp    ax,0x3e
  3fbae2:	74 07                	je     3fbaeb <_init-0x5515>
  3fbae4:	b8 ff ff ff ff       	mov    eax,0xffffffff
  3fbae9:	eb 5f                	jmp    3fbb4a <_init-0x54b6>
  3fbaeb:	c7 45 fc 00 00 00 00 	mov    DWORD PTR [rbp-0x4],0x0
  3fbaf2:	c7 45 f8 00 00 00 00 	mov    DWORD PTR [rbp-0x8],0x0
  3fbaf9:	eb 2d                	jmp    3fbb28 <_init-0x54d8>
  3fbafb:	8b 45 f8             	mov    eax,DWORD PTR [rbp-0x8]
  3fbafe:	48 63 d0             	movsxd rdx,eax
  3fbb01:	48 89 d0             	mov    rax,rdx
  3fbb04:	48 c1 e0 03          	shl    rax,0x3
  3fbb08:	48 29 d0             	sub    rax,rdx
  3fbb0b:	48 c1 e0 03          	shl    rax,0x3
  3fbb0f:	48 89 c2             	mov    rdx,rax
  3fbb12:	48 8b 45 e0          	mov    rax,QWORD PTR [rbp-0x20]
  3fbb16:	48 01 d0             	add    rax,rdx
  3fbb19:	8b 00                	mov    eax,DWORD PTR [rax]
  3fbb1b:	83 f8 02             	cmp    eax,0x2
  3fbb1e:	75 04                	jne    3fbb24 <_init-0x54dc>
  3fbb20:	83 45 fc 01          	add    DWORD PTR [rbp-0x4],0x1
  3fbb24:	83 45 f8 01          	add    DWORD PTR [rbp-0x8],0x1
  3fbb28:	48 8b 45 e8          	mov    rax,QWORD PTR [rbp-0x18]
  3fbb2c:	0f b7 40 38          	movzx  eax,WORD PTR [rax+0x38]
  3fbb30:	0f b7 c0             	movzx  eax,ax
  3fbb33:	39 45 f8             	cmp    DWORD PTR [rbp-0x8],eax
  3fbb36:	7c c3                	jl     3fbafb <_init-0x5505>
  3fbb38:	83 7d fc 00          	cmp    DWORD PTR [rbp-0x4],0x0
  3fbb3c:	75 07                	jne    3fbb45 <_init-0x54bb>
  3fbb3e:	b8 ff ff ff ff       	mov    eax,0xffffffff
  3fbb43:	eb 05                	jmp    3fbb4a <_init-0x54b6>
  3fbb45:	b8 00 00 00 00       	mov    eax,0x0
  3fbb4a:	c9                   	leave  
  3fbb4b:	c3                   	ret    
  3fbb4c:	f3 0f 1e fa          	endbr64 
  3fbb50:	55                   	push   rbp
  3fbb51:	48 89 e5             	mov    rbp,rsp
  3fbb54:	4c 8d 9c 24 00 80 ff 	lea    r11,[rsp-0x8000]
  3fbb5b:	ff 
  3fbb5c:	48 81 ec 00 10 00 00 	sub    rsp,0x1000
  3fbb63:	48 83 0c 24 00       	or     QWORD PTR [rsp],0x0
  3fbb68:	4c 39 dc             	cmp    rsp,r11
  3fbb6b:	75 ef                	jne    3fbb5c <_init-0x54a4>
  3fbb6d:	48 81 ec 50 03 00 00 	sub    rsp,0x350
  3fbb74:	48 89 bd b8 7c ff ff 	mov    QWORD PTR [rbp-0x8348],rdi
  3fbb7b:	48 c7 45 a8 00 00 00 	mov    QWORD PTR [rbp-0x58],0x0
  3fbb82:	00 
  3fbb83:	48 c7 45 e8 00 00 00 	mov    QWORD PTR [rbp-0x18],0x0
  3fbb8a:	00 
  3fbb8b:	c7 45 f8 04 00 00 00 	mov    DWORD PTR [rbp-0x8],0x4
  3fbb92:	c7 45 f4 00 00 00 00 	mov    DWORD PTR [rbp-0xc],0x0
  3fbb99:	48 8d 05 99 10 00 00 	lea    rax,[rip+0x1099]        # 3fcc39 <_init-0x43c7>
  3fbba0:	48 89 85 f0 7c ff ff 	mov    QWORD PTR [rbp-0x8310],rax
  3fbba7:	48 8d 05 91 10 00 00 	lea    rax,[rip+0x1091]        # 3fcc3f <_init-0x43c1>
  3fbbae:	48 89 85 f8 7c ff ff 	mov    QWORD PTR [rbp-0x8308],rax
  3fbbb5:	48 8d 05 8d 10 00 00 	lea    rax,[rip+0x108d]        # 3fcc49 <_init-0x43b7>
  3fbbbc:	48 89 85 00 7d ff ff 	mov    QWORD PTR [rbp-0x8300],rax
  3fbbc3:	48 8d 05 84 10 00 00 	lea    rax,[rip+0x1084]        # 3fcc4e <_init-0x43b2>
  3fbbca:	48 89 85 08 7d ff ff 	mov    QWORD PTR [rbp-0x82f8],rax
  3fbbd1:	66 c7 85 ee 7c ff ff 	mov    WORD PTR [rbp-0x8312],0x2e
  3fbbd8:	2e 00 
  3fbbda:	b8 00 00 00 00       	mov    eax,0x0
  3fbbdf:	e8 57 02 00 00       	call   3fbe3b <_init-0x51c5>
  3fbbe4:	85 c0                	test   eax,eax
  3fbbe6:	74 09                	je     3fbbf1 <_init-0x540f>
  3fbbe8:	48 8d 85 ee 7c ff ff 	lea    rax,[rbp-0x8312]
  3fbbef:	eb 0f                	jmp    3fbc00 <_init-0x5400>
  3fbbf1:	48 8d 85 f0 7c ff ff 	lea    rax,[rbp-0x8310]
  3fbbf8:	48 89 c7             	mov    rdi,rax
  3fbbfb:	e8 00 e7 ff ff       	call   3fa300 <_init-0x6d00>
  3fbc00:	48 89 45 e8          	mov    QWORD PTR [rbp-0x18],rax
  3fbc04:	48 8b 45 e8          	mov    rax,QWORD PTR [rbp-0x18]
  3fbc08:	48 8d 35 48 10 00 00 	lea    rsi,[rip+0x1048]        # 3fcc57 <_init-0x43a9>
  3fbc0f:	48 89 c7             	mov    rdi,rax
  3fbc12:	e8 29 0e 00 00       	call   3fca40 <_init-0x45c0>
  3fbc17:	85 c0                	test   eax,eax
  3fbc19:	75 07                	jne    3fbc22 <_init-0x53de>
  3fbc1b:	c7 45 f8 01 00 00 00 	mov    DWORD PTR [rbp-0x8],0x1
  3fbc22:	48 8b 45 e8          	mov    rax,QWORD PTR [rbp-0x18]
  3fbc26:	ba 00 00 00 00       	mov    edx,0x0
  3fbc2b:	be 00 00 01 00       	mov    esi,0x10000
  3fbc30:	48 89 c7             	mov    rdi,rax
  3fbc33:	e8 40 02 00 00       	call   3fbe78 <_init-0x5188>
  3fbc38:	89 45 e4             	mov    DWORD PTR [rbp-0x1c],eax
  3fbc3b:	83 7d e4 00          	cmp    DWORD PTR [rbp-0x1c],0x0
  3fbc3f:	0f 88 f0 01 00 00    	js     3fbe35 <_init-0x51cb>
  3fbc45:	48 8d 85 10 7e ff ff 	lea    rax,[rbp-0x81f0]
  3fbc4c:	48 89 c7             	mov    rdi,rax
  3fbc4f:	e8 92 f0 ff ff       	call   3face6 <_init-0x631a>
  3fbc54:	8b 45 e4             	mov    eax,DWORD PTR [rbp-0x1c]
  3fbc57:	48 8d 8d a0 7f ff ff 	lea    rcx,[rbp-0x8060]
  3fbc5e:	ba 00 80 00 00       	mov    edx,0x8000
  3fbc63:	48 89 ce             	mov    rsi,rcx
  3fbc66:	89 c7                	mov    edi,eax
  3fbc68:	e8 f0 04 00 00       	call   3fc15d <_init-0x4ea3>
  3fbc6d:	89 45 e0             	mov    DWORD PTR [rbp-0x20],eax
  3fbc70:	83 7d e0 00          	cmp    DWORD PTR [rbp-0x20],0x0
  3fbc74:	0f 88 be 01 00 00    	js     3fbe38 <_init-0x51c8>
  3fbc7a:	83 7d e0 00          	cmp    DWORD PTR [rbp-0x20],0x0
  3fbc7e:	0f 84 59 01 00 00    	je     3fbddd <_init-0x5223>
  3fbc84:	c7 45 dc 00 00 00 00 	mov    DWORD PTR [rbp-0x24],0x0
  3fbc8b:	c7 45 fc 00 00 00 00 	mov    DWORD PTR [rbp-0x4],0x0
  3fbc92:	e9 35 01 00 00       	jmp    3fbdcc <_init-0x5234>
  3fbc97:	8b 45 fc             	mov    eax,DWORD PTR [rbp-0x4]
  3fbc9a:	48 98                	cdqe   
  3fbc9c:	48 8d 95 a0 7f ff ff 	lea    rdx,[rbp-0x8060]
  3fbca3:	48 01 d0             	add    rax,rdx
  3fbca6:	48 89 45 d0          	mov    QWORD PTR [rbp-0x30],rax
  3fbcaa:	48 8b 45 d0          	mov    rax,QWORD PTR [rbp-0x30]
  3fbcae:	0f b7 40 10          	movzx  eax,WORD PTR [rax+0x10]
  3fbcb2:	0f b7 c0             	movzx  eax,ax
  3fbcb5:	83 e8 01             	sub    eax,0x1
  3fbcb8:	01 45 fc             	add    DWORD PTR [rbp-0x4],eax
  3fbcbb:	48 8b 45 d0          	mov    rax,QWORD PTR [rbp-0x30]
  3fbcbf:	48 83 c0 13          	add    rax,0x13
  3fbcc3:	48 8d 35 8f 0f 00 00 	lea    rsi,[rip+0xf8f]        # 3fcc59 <_init-0x43a7>
  3fbcca:	48 89 c7             	mov    rdi,rax
  3fbccd:	e8 6e 0d 00 00       	call   3fca40 <_init-0x45c0>
  3fbcd2:	85 c0                	test   eax,eax
  3fbcd4:	0f 84 e4 00 00 00    	je     3fbdbe <_init-0x5242>
  3fbcda:	48 8b 45 d0          	mov    rax,QWORD PTR [rbp-0x30]
  3fbcde:	0f b6 40 13          	movzx  eax,BYTE PTR [rax+0x13]
  3fbce2:	3c 2e                	cmp    al,0x2e
  3fbce4:	0f 84 d7 00 00 00    	je     3fbdc1 <_init-0x523f>
  3fbcea:	48 8b 45 d0          	mov    rax,QWORD PTR [rbp-0x30]
  3fbcee:	48 8d 48 13          	lea    rcx,[rax+0x13]
  3fbcf2:	48 8d 55 a8          	lea    rdx,[rbp-0x58]
  3fbcf6:	48 8b 45 e8          	mov    rax,QWORD PTR [rbp-0x18]
  3fbcfa:	48 89 c6             	mov    rsi,rax
  3fbcfd:	48 89 cf             	mov    rdi,rcx
  3fbd00:	e8 4b e6 ff ff       	call   3fa350 <_init-0x6cb0>
  3fbd05:	48 89 45 c8          	mov    QWORD PTR [rbp-0x38],rax
  3fbd09:	48 8b 45 c8          	mov    rax,QWORD PTR [rbp-0x38]
  3fbd0d:	48 89 c7             	mov    rdi,rax
  3fbd10:	e8 b9 fc ff ff       	call   3fb9ce <_init-0x5632>
  3fbd15:	85 c0                	test   eax,eax
  3fbd17:	0f 88 a7 00 00 00    	js     3fbdc4 <_init-0x523c>
  3fbd1d:	83 7d f4 00          	cmp    DWORD PTR [rbp-0xc],0x0
  3fbd21:	74 3f                	je     3fbd62 <_init-0x529e>
  3fbd23:	c7 45 b4 0a 00 00 00 	mov    DWORD PTR [rbp-0x4c],0xa
  3fbd2a:	48 8d 85 c0 7c ff ff 	lea    rax,[rbp-0x8340]
  3fbd31:	be 00 00 00 00       	mov    esi,0x0
  3fbd36:	48 89 c7             	mov    rdi,rax
  3fbd39:	e8 53 04 00 00       	call   3fc191 <_init-0x4e6f>
  3fbd3e:	48 8d 85 c0 7c ff ff 	lea    rax,[rbp-0x8340]
  3fbd45:	48 83 c0 08          	add    rax,0x8
  3fbd49:	48 89 c7             	mov    rdi,rax
  3fbd4c:	e8 6b e5 ff ff       	call   3fa2bc <_init-0x6d44>
  3fbd51:	99                   	cdq    
  3fbd52:	f7 7d b4             	idiv   DWORD PTR [rbp-0x4c]
  3fbd55:	89 d0                	mov    eax,edx
  3fbd57:	89 45 c4             	mov    DWORD PTR [rbp-0x3c],eax
  3fbd5a:	83 7d c4 07          	cmp    DWORD PTR [rbp-0x3c],0x7
  3fbd5e:	75 67                	jne    3fbdc7 <_init-0x5239>
  3fbd60:	eb 01                	jmp    3fbd63 <_init-0x529d>
  3fbd62:	90                   	nop
  3fbd63:	48 8d 95 10 7d ff ff 	lea    rdx,[rbp-0x82f0]
  3fbd6a:	48 8b 45 c8          	mov    rax,QWORD PTR [rbp-0x38]
  3fbd6e:	48 89 d6             	mov    rsi,rdx
  3fbd71:	48 89 c7             	mov    rdi,rax
  3fbd74:	e8 8e f0 ff ff       	call   3fae07 <_init-0x61f9>
  3fbd79:	48 8d 95 10 7d ff ff 	lea    rdx,[rbp-0x82f0]
  3fbd80:	48 8d 85 10 7e ff ff 	lea    rax,[rbp-0x81f0]
  3fbd87:	48 89 d6             	mov    rsi,rdx
  3fbd8a:	48 89 c7             	mov    rdi,rax
  3fbd8d:	e8 70 e9 ff ff       	call   3fa702 <_init-0x68fe>
  3fbd92:	48 89 45 b8          	mov    QWORD PTR [rbp-0x48],rax
  3fbd96:	48 8d 85 10 7d ff ff 	lea    rax,[rbp-0x82f0]
  3fbd9d:	48 89 c7             	mov    rdi,rax
  3fbda0:	e8 23 f0 ff ff       	call   3fadc8 <_init-0x6238>
  3fbda5:	48 8b 45 c8          	mov    rax,QWORD PTR [rbp-0x38]
  3fbda9:	48 89 c6             	mov    rsi,rax
  3fbdac:	48 8d 3d 01 0e 00 00 	lea    rdi,[rip+0xe01]        # 3fcbb4 <_init-0x444c>
  3fbdb3:	e8 d4 01 00 00       	call   3fbf8c <_init-0x5074>
  3fbdb8:	83 45 f4 01          	add    DWORD PTR [rbp-0xc],0x1
  3fbdbc:	eb 0a                	jmp    3fbdc8 <_init-0x5238>
  3fbdbe:	90                   	nop
  3fbdbf:	eb 07                	jmp    3fbdc8 <_init-0x5238>
  3fbdc1:	90                   	nop
  3fbdc2:	eb 04                	jmp    3fbdc8 <_init-0x5238>
  3fbdc4:	90                   	nop
  3fbdc5:	eb 01                	jmp    3fbdc8 <_init-0x5238>
  3fbdc7:	90                   	nop
  3fbdc8:	83 45 fc 01          	add    DWORD PTR [rbp-0x4],0x1
  3fbdcc:	8b 45 fc             	mov    eax,DWORD PTR [rbp-0x4]
  3fbdcf:	3b 45 e0             	cmp    eax,DWORD PTR [rbp-0x20]
  3fbdd2:	0f 8c bf fe ff ff    	jl     3fbc97 <_init-0x5369>
  3fbdd8:	e9 77 fe ff ff       	jmp    3fbc54 <_init-0x53ac>
  3fbddd:	90                   	nop
  3fbdde:	83 6d f8 01          	sub    DWORD PTR [rbp-0x8],0x1
  3fbde2:	83 7d f8 00          	cmp    DWORD PTR [rbp-0x8],0x0
  3fbde6:	7e 0f                	jle    3fbdf7 <_init-0x5209>
  3fbde8:	8b 45 e4             	mov    eax,DWORD PTR [rbp-0x1c]
  3fbdeb:	89 c7                	mov    edi,eax
  3fbded:	e8 bc 00 00 00       	call   3fbeae <_init-0x5152>
  3fbdf2:	e9 e3 fd ff ff       	jmp    3fbbda <_init-0x5426>
  3fbdf7:	c7 45 b0 32 00 00 00 	mov    DWORD PTR [rbp-0x50],0x32
  3fbdfe:	48 8d 85 d0 7c ff ff 	lea    rax,[rbp-0x8330]
  3fbe05:	be 00 00 00 00       	mov    esi,0x0
  3fbe0a:	48 89 c7             	mov    rdi,rax
  3fbe0d:	e8 7f 03 00 00       	call   3fc191 <_init-0x4e6f>
  3fbe12:	48 8d 85 d0 7c ff ff 	lea    rax,[rbp-0x8330]
  3fbe19:	48 83 c0 08          	add    rax,0x8
  3fbe1d:	48 89 c7             	mov    rdi,rax
  3fbe20:	e8 97 e4 ff ff       	call   3fa2bc <_init-0x6d44>
  3fbe25:	99                   	cdq    
  3fbe26:	f7 7d b0             	idiv   DWORD PTR [rbp-0x50]
  3fbe29:	89 d0                	mov    eax,edx
  3fbe2b:	89 45 c4             	mov    DWORD PTR [rbp-0x3c],eax
  3fbe2e:	e8 02 0d 00 00       	call   3fcb35 <_init-0x44cb>
  3fbe33:	eb 04                	jmp    3fbe39 <_init-0x51c7>
  3fbe35:	90                   	nop
  3fbe36:	eb 01                	jmp    3fbe39 <_init-0x51c7>
  3fbe38:	90                   	nop
  3fbe39:	c9                   	leave  
  3fbe3a:	c3                   	ret    
  3fbe3b:	f3 0f 1e fa          	endbr64 
  3fbe3f:	55                   	push   rbp
  3fbe40:	48 89 e5             	mov    rbp,rsp
  3fbe43:	48 c7 c0 66 00 00 00 	mov    rax,0x66
  3fbe4a:	0f 05                	syscall 
  3fbe4c:	48 89 c0             	mov    rax,rax
  3fbe4f:	48 89 45 f8          	mov    QWORD PTR [rbp-0x8],rax
  3fbe53:	48 8b 45 f8          	mov    rax,QWORD PTR [rbp-0x8]
  3fbe57:	5d                   	pop    rbp
  3fbe58:	c3                   	ret    
  3fbe59:	f3 0f 1e fa          	endbr64 
  3fbe5d:	55                   	push   rbp
  3fbe5e:	48 89 e5             	mov    rbp,rsp
  3fbe61:	48 89 7d f8          	mov    QWORD PTR [rbp-0x8],rdi
  3fbe65:	48 8b 45 f8          	mov    rax,QWORD PTR [rbp-0x8]
  3fbe69:	48 89 c7             	mov    rdi,rax
  3fbe6c:	48 c7 c0 3c 00 00 00 	mov    rax,0x3c
  3fbe73:	0f 05                	syscall 
  3fbe75:	90                   	nop
  3fbe76:	5d                   	pop    rbp
  3fbe77:	c3                   	ret    
  3fbe78:	f3 0f 1e fa          	endbr64 
  3fbe7c:	55                   	push   rbp
  3fbe7d:	48 89 e5             	mov    rbp,rsp
  3fbe80:	48 89 7d e8          	mov    QWORD PTR [rbp-0x18],rdi
  3fbe84:	48 89 75 e0          	mov    QWORD PTR [rbp-0x20],rsi
  3fbe88:	48 89 55 d8          	mov    QWORD PTR [rbp-0x28],rdx
  3fbe8c:	48 8b 7d e8          	mov    rdi,QWORD PTR [rbp-0x18]
  3fbe90:	48 8b 75 e0          	mov    rsi,QWORD PTR [rbp-0x20]
  3fbe94:	48 8b 55 d8          	mov    rdx,QWORD PTR [rbp-0x28]
  3fbe98:	48 c7 c0 02 00 00 00 	mov    rax,0x2
  3fbe9f:	0f 05                	syscall 
  3fbea1:	48 89 c0             	mov    rax,rax
  3fbea4:	48 89 45 f8          	mov    QWORD PTR [rbp-0x8],rax
  3fbea8:	48 8b 45 f8          	mov    rax,QWORD PTR [rbp-0x8]
  3fbeac:	5d                   	pop    rbp
  3fbead:	c3                   	ret    
  3fbeae:	f3 0f 1e fa          	endbr64 
  3fbeb2:	55                   	push   rbp
  3fbeb3:	48 89 e5             	mov    rbp,rsp
  3fbeb6:	89 7d ec             	mov    DWORD PTR [rbp-0x14],edi
  3fbeb9:	48 8b 7d ec          	mov    rdi,QWORD PTR [rbp-0x14]
  3fbebd:	48 c7 c0 03 00 00 00 	mov    rax,0x3
  3fbec4:	0f 05                	syscall 
  3fbec6:	48 8b 45 f8          	mov    rax,QWORD PTR [rbp-0x8]
  3fbeca:	5d                   	pop    rbp
  3fbecb:	c3                   	ret    
  3fbecc:	f3 0f 1e fa          	endbr64 
  3fbed0:	55                   	push   rbp
  3fbed1:	48 89 e5             	mov    rbp,rsp
  3fbed4:	48 89 7d e8          	mov    QWORD PTR [rbp-0x18],rdi
  3fbed8:	48 89 75 e0          	mov    QWORD PTR [rbp-0x20],rsi
  3fbedc:	48 89 55 d8          	mov    QWORD PTR [rbp-0x28],rdx
  3fbee0:	48 8b 7d e8          	mov    rdi,QWORD PTR [rbp-0x18]
  3fbee4:	48 8b 75 e0          	mov    rsi,QWORD PTR [rbp-0x20]
  3fbee8:	48 8b 55 d8          	mov    rdx,QWORD PTR [rbp-0x28]
  3fbeec:	48 c7 c0 00 00 00 00 	mov    rax,0x0
  3fbef3:	0f 05                	syscall 
  3fbef5:	48 89 c0             	mov    rax,rax
  3fbef8:	48 89 45 f8          	mov    QWORD PTR [rbp-0x8],rax
  3fbefc:	48 8b 45 f8          	mov    rax,QWORD PTR [rbp-0x8]
  3fbf00:	5d                   	pop    rbp
  3fbf01:	c3                   	ret    
  3fbf02:	f3 0f 1e fa          	endbr64 
  3fbf06:	55                   	push   rbp
  3fbf07:	48 89 e5             	mov    rbp,rsp
  3fbf0a:	48 89 7d e8          	mov    QWORD PTR [rbp-0x18],rdi
  3fbf0e:	48 89 75 e0          	mov    QWORD PTR [rbp-0x20],rsi
  3fbf12:	48 89 55 d8          	mov    QWORD PTR [rbp-0x28],rdx
  3fbf16:	48 8b 7d e8          	mov    rdi,QWORD PTR [rbp-0x18]
  3fbf1a:	48 8b 75 e0          	mov    rsi,QWORD PTR [rbp-0x20]
  3fbf1e:	48 8b 55 d8          	mov    rdx,QWORD PTR [rbp-0x28]
  3fbf22:	48 c7 c0 01 00 00 00 	mov    rax,0x1
  3fbf29:	0f 05                	syscall 
  3fbf2b:	48 89 c0             	mov    rax,rax
  3fbf2e:	48 89 45 f8          	mov    QWORD PTR [rbp-0x8],rax
  3fbf32:	48 8b 45 f8          	mov    rax,QWORD PTR [rbp-0x8]
  3fbf36:	5d                   	pop    rbp
  3fbf37:	c3                   	ret    
  3fbf38:	f3 0f 1e fa          	endbr64 
  3fbf3c:	55                   	push   rbp
  3fbf3d:	48 89 e5             	mov    rbp,rsp
  3fbf40:	48 89 7d e8          	mov    QWORD PTR [rbp-0x18],rdi
  3fbf44:	48 89 75 e0          	mov    QWORD PTR [rbp-0x20],rsi
  3fbf48:	48 8b 7d e8          	mov    rdi,QWORD PTR [rbp-0x18]
  3fbf4c:	48 8b 75 e0          	mov    rsi,QWORD PTR [rbp-0x20]
  3fbf50:	48 c7 c0 05 00 00 00 	mov    rax,0x5
  3fbf57:	0f 05                	syscall 
  3fbf59:	48 89 c0             	mov    rax,rax
  3fbf5c:	48 89 45 f8          	mov    QWORD PTR [rbp-0x8],rax
  3fbf60:	48 8b 45 f8          	mov    rax,QWORD PTR [rbp-0x8]
  3fbf64:	5d                   	pop    rbp
  3fbf65:	c3                   	ret    
  3fbf66:	f3 0f 1e fa          	endbr64 
  3fbf6a:	55                   	push   rbp
  3fbf6b:	48 89 e5             	mov    rbp,rsp
  3fbf6e:	48 89 7d e8          	mov    QWORD PTR [rbp-0x18],rdi
  3fbf72:	48 8b 7d e8          	mov    rdi,QWORD PTR [rbp-0x18]
  3fbf76:	48 c7 c0 57 00 00 00 	mov    rax,0x57
  3fbf7d:	0f 05                	syscall 
  3fbf7f:	48 89 c0             	mov    rax,rax
  3fbf82:	48 89 45 f8          	mov    QWORD PTR [rbp-0x8],rax
  3fbf86:	48 8b 45 f8          	mov    rax,QWORD PTR [rbp-0x8]
  3fbf8a:	5d                   	pop    rbp
  3fbf8b:	c3                   	ret    
  3fbf8c:	f3 0f 1e fa          	endbr64 
  3fbf90:	55                   	push   rbp
  3fbf91:	48 89 e5             	mov    rbp,rsp
  3fbf94:	48 89 7d e8          	mov    QWORD PTR [rbp-0x18],rdi
  3fbf98:	48 89 75 e0          	mov    QWORD PTR [rbp-0x20],rsi
  3fbf9c:	48 8b 7d e8          	mov    rdi,QWORD PTR [rbp-0x18]
  3fbfa0:	48 8b 75 e0          	mov    rsi,QWORD PTR [rbp-0x20]
  3fbfa4:	48 c7 c0 52 00 00 00 	mov    rax,0x52
  3fbfab:	0f 05                	syscall 
  3fbfad:	48 89 c0             	mov    rax,rax
  3fbfb0:	48 89 45 f8          	mov    QWORD PTR [rbp-0x8],rax
  3fbfb4:	48 8b 45 f8          	mov    rax,QWORD PTR [rbp-0x8]
  3fbfb8:	5d                   	pop    rbp
  3fbfb9:	c3                   	ret    
  3fbfba:	f3 0f 1e fa          	endbr64 
  3fbfbe:	55                   	push   rbp
  3fbfbf:	48 89 e5             	mov    rbp,rsp
  3fbfc2:	48 89 7d e8          	mov    QWORD PTR [rbp-0x18],rdi
  3fbfc6:	48 89 75 e0          	mov    QWORD PTR [rbp-0x20],rsi
  3fbfca:	89 55 dc             	mov    DWORD PTR [rbp-0x24],edx
  3fbfcd:	48 8b 7d e8          	mov    rdi,QWORD PTR [rbp-0x18]
  3fbfd1:	48 8b 75 e0          	mov    rsi,QWORD PTR [rbp-0x20]
  3fbfd5:	48 8b 55 dc          	mov    rdx,QWORD PTR [rbp-0x24]
  3fbfd9:	48 c7 c0 08 00 00 00 	mov    rax,0x8
  3fbfe0:	0f 05                	syscall 
  3fbfe2:	48 89 c0             	mov    rax,rax
  3fbfe5:	48 89 45 f8          	mov    QWORD PTR [rbp-0x8],rax
  3fbfe9:	48 8b 45 f8          	mov    rax,QWORD PTR [rbp-0x8]
  3fbfed:	5d                   	pop    rbp
  3fbfee:	c3                   	ret    
  3fbfef:	f3 0f 1e fa          	endbr64 
  3fbff3:	55                   	push   rbp
  3fbff4:	48 89 e5             	mov    rbp,rsp
  3fbff7:	89 7d ec             	mov    DWORD PTR [rbp-0x14],edi
  3fbffa:	48 8b 7d ec          	mov    rdi,QWORD PTR [rbp-0x14]
  3fbffe:	48 c7 c0 4a 00 00 00 	mov    rax,0x4a
  3fc005:	0f 05                	syscall 
  3fc007:	48 89 c0             	mov    rax,rax
  3fc00a:	48 89 45 f8          	mov    QWORD PTR [rbp-0x8],rax
  3fc00e:	48 8b 45 f8          	mov    rax,QWORD PTR [rbp-0x8]
  3fc012:	5d                   	pop    rbp
  3fc013:	c3                   	ret    
  3fc014:	f3 0f 1e fa          	endbr64 
  3fc018:	55                   	push   rbp
  3fc019:	48 89 e5             	mov    rbp,rsp
  3fc01c:	48 89 7d d8          	mov    QWORD PTR [rbp-0x28],rdi
  3fc020:	48 89 75 d0          	mov    QWORD PTR [rbp-0x30],rsi
  3fc024:	48 89 55 c8          	mov    QWORD PTR [rbp-0x38],rdx
  3fc028:	48 89 4d c0          	mov    QWORD PTR [rbp-0x40],rcx
  3fc02c:	4c 89 45 b8          	mov    QWORD PTR [rbp-0x48],r8
  3fc030:	4c 89 4d b0          	mov    QWORD PTR [rbp-0x50],r9
  3fc034:	48 8b 45 b8          	mov    rax,QWORD PTR [rbp-0x48]
  3fc038:	48 89 45 f8          	mov    QWORD PTR [rbp-0x8],rax
  3fc03c:	48 8b 45 b0          	mov    rax,QWORD PTR [rbp-0x50]
  3fc040:	48 89 45 f0          	mov    QWORD PTR [rbp-0x10],rax
  3fc044:	48 8b 45 c0          	mov    rax,QWORD PTR [rbp-0x40]
  3fc048:	48 89 45 e8          	mov    QWORD PTR [rbp-0x18],rax
  3fc04c:	48 8b 7d d8          	mov    rdi,QWORD PTR [rbp-0x28]
  3fc050:	48 8b 75 d0          	mov    rsi,QWORD PTR [rbp-0x30]
  3fc054:	48 8b 55 c8          	mov    rdx,QWORD PTR [rbp-0x38]
  3fc058:	4c 8b 55 c0          	mov    r10,QWORD PTR [rbp-0x40]
  3fc05c:	4c 8b 45 f8          	mov    r8,QWORD PTR [rbp-0x8]
  3fc060:	4c 8b 4d f0          	mov    r9,QWORD PTR [rbp-0x10]
  3fc064:	48 c7 c0 09 00 00 00 	mov    rax,0x9
  3fc06b:	0f 05                	syscall 
  3fc06d:	48 89 c0             	mov    rax,rax
  3fc070:	48 89 45 e0          	mov    QWORD PTR [rbp-0x20],rax
  3fc074:	48 8b 45 e0          	mov    rax,QWORD PTR [rbp-0x20]
  3fc078:	5d                   	pop    rbp
  3fc079:	c3                   	ret    
  3fc07a:	f3 0f 1e fa          	endbr64 
  3fc07e:	55                   	push   rbp
  3fc07f:	48 89 e5             	mov    rbp,rsp
  3fc082:	48 89 7d e8          	mov    QWORD PTR [rbp-0x18],rdi
  3fc086:	48 89 75 e0          	mov    QWORD PTR [rbp-0x20],rsi
  3fc08a:	48 8b 7d e8          	mov    rdi,QWORD PTR [rbp-0x18]
  3fc08e:	48 8b 75 e0          	mov    rsi,QWORD PTR [rbp-0x20]
  3fc092:	48 c7 c0 0b 00 00 00 	mov    rax,0xb
  3fc099:	0f 05                	syscall 
  3fc09b:	48 89 c0             	mov    rax,rax
  3fc09e:	48 89 45 f8          	mov    QWORD PTR [rbp-0x8],rax
  3fc0a2:	48 8b 45 f8          	mov    rax,QWORD PTR [rbp-0x8]
  3fc0a6:	5d                   	pop    rbp
  3fc0a7:	c3                   	ret    
  3fc0a8:	f3 0f 1e fa          	endbr64 
  3fc0ac:	55                   	push   rbp
  3fc0ad:	48 89 e5             	mov    rbp,rsp
  3fc0b0:	48 89 7d e8          	mov    QWORD PTR [rbp-0x18],rdi
  3fc0b4:	48 89 75 e0          	mov    QWORD PTR [rbp-0x20],rsi
  3fc0b8:	89 55 dc             	mov    DWORD PTR [rbp-0x24],edx
  3fc0bb:	48 8b 7d e8          	mov    rdi,QWORD PTR [rbp-0x18]
  3fc0bf:	48 8b 75 e0          	mov    rsi,QWORD PTR [rbp-0x20]
  3fc0c3:	48 8b 55 dc          	mov    rdx,QWORD PTR [rbp-0x24]
  3fc0c7:	48 c7 c0 0a 00 00 00 	mov    rax,0xa
  3fc0ce:	0f 05                	syscall 
  3fc0d0:	48 89 c0             	mov    rax,rax
  3fc0d3:	48 89 45 f8          	mov    QWORD PTR [rbp-0x8],rax
  3fc0d7:	48 8b 45 f8          	mov    rax,QWORD PTR [rbp-0x8]
  3fc0db:	5d                   	pop    rbp
  3fc0dc:	c3                   	ret    
  3fc0dd:	f3 0f 1e fa          	endbr64 
  3fc0e1:	55                   	push   rbp
  3fc0e2:	48 89 e5             	mov    rbp,rsp
  3fc0e5:	48 89 7d e8          	mov    QWORD PTR [rbp-0x18],rdi
  3fc0e9:	48 89 75 e0          	mov    QWORD PTR [rbp-0x20],rsi
  3fc0ed:	48 89 55 d8          	mov    QWORD PTR [rbp-0x28],rdx
  3fc0f1:	48 89 4d d0          	mov    QWORD PTR [rbp-0x30],rcx
  3fc0f5:	48 8b 7d e8          	mov    rdi,QWORD PTR [rbp-0x18]
  3fc0f9:	48 8b 75 e0          	mov    rsi,QWORD PTR [rbp-0x20]
  3fc0fd:	48 8b 55 d8          	mov    rdx,QWORD PTR [rbp-0x28]
  3fc101:	4c 8b 55 d0          	mov    r10,QWORD PTR [rbp-0x30]
  3fc105:	48 c7 c0 65 00 00 00 	mov    rax,0x65
  3fc10c:	0f 05                	syscall 
  3fc10e:	48 89 c0             	mov    rax,rax
  3fc111:	48 89 45 f8          	mov    QWORD PTR [rbp-0x8],rax
  3fc115:	48 8b 45 f8          	mov    rax,QWORD PTR [rbp-0x8]
  3fc119:	5d                   	pop    rbp
  3fc11a:	c3                   	ret    
  3fc11b:	f3 0f 1e fa          	endbr64 
  3fc11f:	55                   	push   rbp
  3fc120:	48 89 e5             	mov    rbp,rsp
  3fc123:	48 89 7d e8          	mov    QWORD PTR [rbp-0x18],rdi
  3fc127:	48 89 75 e0          	mov    QWORD PTR [rbp-0x20],rsi
  3fc12b:	48 89 55 d8          	mov    QWORD PTR [rbp-0x28],rdx
  3fc12f:	48 89 4d d0          	mov    QWORD PTR [rbp-0x30],rcx
  3fc133:	4c 89 45 c8          	mov    QWORD PTR [rbp-0x38],r8
  3fc137:	48 8b 7d e8          	mov    rdi,QWORD PTR [rbp-0x18]
  3fc13b:	48 8b 75 e0          	mov    rsi,QWORD PTR [rbp-0x20]
  3fc13f:	48 8b 55 d8          	mov    rdx,QWORD PTR [rbp-0x28]
  3fc143:	4c 8b 55 d0          	mov    r10,QWORD PTR [rbp-0x30]
  3fc147:	48 c7 c0 9d 00 00 00 	mov    rax,0x9d
  3fc14e:	0f 05                	syscall 
  3fc150:	48 89 c0             	mov    rax,rax
  3fc153:	48 89 45 f8          	mov    QWORD PTR [rbp-0x8],rax
  3fc157:	48 8b 45 f8          	mov    rax,QWORD PTR [rbp-0x8]
  3fc15b:	5d                   	pop    rbp
  3fc15c:	c3                   	ret    
  3fc15d:	f3 0f 1e fa          	endbr64 
  3fc161:	55                   	push   rbp
  3fc162:	48 89 e5             	mov    rbp,rsp
  3fc165:	89 7d ec             	mov    DWORD PTR [rbp-0x14],edi
  3fc168:	48 89 75 e0          	mov    QWORD PTR [rbp-0x20],rsi
  3fc16c:	89 55 e8             	mov    DWORD PTR [rbp-0x18],edx
  3fc16f:	48 8b 7d ec          	mov    rdi,QWORD PTR [rbp-0x14]
  3fc173:	48 8b 75 e0          	mov    rsi,QWORD PTR [rbp-0x20]
  3fc177:	48 8b 55 e8          	mov    rdx,QWORD PTR [rbp-0x18]
  3fc17b:	48 c7 c0 d9 00 00 00 	mov    rax,0xd9
  3fc182:	0f 05                	syscall 
  3fc184:	48 89 c0             	mov    rax,rax
  3fc187:	48 89 45 f8          	mov    QWORD PTR [rbp-0x8],rax
  3fc18b:	48 8b 45 f8          	mov    rax,QWORD PTR [rbp-0x8]
  3fc18f:	5d                   	pop    rbp
  3fc190:	c3                   	ret    
  3fc191:	f3 0f 1e fa          	endbr64 
  3fc195:	55                   	push   rbp
  3fc196:	48 89 e5             	mov    rbp,rsp
  3fc199:	48 89 7d e8          	mov    QWORD PTR [rbp-0x18],rdi
  3fc19d:	48 89 75 e0          	mov    QWORD PTR [rbp-0x20],rsi
  3fc1a1:	48 8b 7d e8          	mov    rdi,QWORD PTR [rbp-0x18]
  3fc1a5:	48 8b 75 e0          	mov    rsi,QWORD PTR [rbp-0x20]
  3fc1a9:	48 c7 c0 60 00 00 00 	mov    rax,0x60
  3fc1b0:	0f 05                	syscall 
  3fc1b2:	48 89 c0             	mov    rax,rax
  3fc1b5:	48 89 45 f8          	mov    QWORD PTR [rbp-0x8],rax
  3fc1b9:	48 8b 45 f8          	mov    rax,QWORD PTR [rbp-0x8]
  3fc1bd:	5d                   	pop    rbp
  3fc1be:	c3                   	ret    
  3fc1bf:	f3 0f 1e fa          	endbr64 
  3fc1c3:	55                   	push   rbp
  3fc1c4:	48 89 e5             	mov    rbp,rsp
  3fc1c7:	48 89 7d d8          	mov    QWORD PTR [rbp-0x28],rdi
  3fc1cb:	48 89 75 d0          	mov    QWORD PTR [rbp-0x30],rsi
  3fc1cf:	89 55 cc             	mov    DWORD PTR [rbp-0x34],edx
  3fc1d2:	48 8b 45 d0          	mov    rax,QWORD PTR [rbp-0x30]
  3fc1d6:	48 89 45 f0          	mov    QWORD PTR [rbp-0x10],rax
  3fc1da:	48 8b 45 d8          	mov    rax,QWORD PTR [rbp-0x28]
  3fc1de:	48 89 45 e8          	mov    QWORD PTR [rbp-0x18],rax
  3fc1e2:	c7 45 fc 00 00 00 00 	mov    DWORD PTR [rbp-0x4],0x0
  3fc1e9:	eb 1b                	jmp    3fc206 <_init-0x4dfa>
  3fc1eb:	48 8b 45 f0          	mov    rax,QWORD PTR [rbp-0x10]
  3fc1ef:	0f b6 10             	movzx  edx,BYTE PTR [rax]
  3fc1f2:	48 8b 45 e8          	mov    rax,QWORD PTR [rbp-0x18]
  3fc1f6:	88 10                	mov    BYTE PTR [rax],dl
  3fc1f8:	48 83 45 f0 01       	add    QWORD PTR [rbp-0x10],0x1
  3fc1fd:	48 83 45 e8 01       	add    QWORD PTR [rbp-0x18],0x1
  3fc202:	83 45 fc 01          	add    DWORD PTR [rbp-0x4],0x1
  3fc206:	8b 45 fc             	mov    eax,DWORD PTR [rbp-0x4]
  3fc209:	39 45 cc             	cmp    DWORD PTR [rbp-0x34],eax
  3fc20c:	77 dd                	ja     3fc1eb <_init-0x4e15>
  3fc20e:	90                   	nop
  3fc20f:	90                   	nop
  3fc210:	5d                   	pop    rbp
  3fc211:	c3                   	ret    
  3fc212:	f3 0f 1e fa          	endbr64 
  3fc216:	55                   	push   rbp
  3fc217:	48 89 e5             	mov    rbp,rsp
  3fc21a:	48 89 7d e8          	mov    QWORD PTR [rbp-0x18],rdi
  3fc21e:	89 f0                	mov    eax,esi
  3fc220:	89 55 e0             	mov    DWORD PTR [rbp-0x20],edx
  3fc223:	88 45 e4             	mov    BYTE PTR [rbp-0x1c],al
  3fc226:	48 8b 45 e8          	mov    rax,QWORD PTR [rbp-0x18]
  3fc22a:	48 89 45 f8          	mov    QWORD PTR [rbp-0x8],rax
  3fc22e:	8b 45 e0             	mov    eax,DWORD PTR [rbp-0x20]
  3fc231:	89 45 f4             	mov    DWORD PTR [rbp-0xc],eax
  3fc234:	eb 0f                	jmp    3fc245 <_init-0x4dbb>
  3fc236:	48 8b 45 f8          	mov    rax,QWORD PTR [rbp-0x8]
  3fc23a:	0f b6 55 e4          	movzx  edx,BYTE PTR [rbp-0x1c]
  3fc23e:	88 10                	mov    BYTE PTR [rax],dl
  3fc240:	48 83 45 f8 01       	add    QWORD PTR [rbp-0x8],0x1
  3fc245:	8b 45 f4             	mov    eax,DWORD PTR [rbp-0xc]
  3fc248:	8d 50 ff             	lea    edx,[rax-0x1]
  3fc24b:	89 55 f4             	mov    DWORD PTR [rbp-0xc],edx
  3fc24e:	85 c0                	test   eax,eax
  3fc250:	75 e4                	jne    3fc236 <_init-0x4dca>
  3fc252:	90                   	nop
  3fc253:	90                   	nop
  3fc254:	5d                   	pop    rbp
  3fc255:	c3                   	ret    
  3fc256:	f3 0f 1e fa          	endbr64 
  3fc25a:	55                   	push   rbp
  3fc25b:	48 89 e5             	mov    rbp,rsp
  3fc25e:	48 81 ec 10 01 00 00 	sub    rsp,0x110
  3fc265:	48 89 bd f8 fe ff ff 	mov    QWORD PTR [rbp-0x108],rdi
  3fc26c:	48 89 b5 58 ff ff ff 	mov    QWORD PTR [rbp-0xa8],rsi
  3fc273:	48 89 95 60 ff ff ff 	mov    QWORD PTR [rbp-0xa0],rdx
  3fc27a:	48 89 8d 68 ff ff ff 	mov    QWORD PTR [rbp-0x98],rcx
  3fc281:	4c 89 85 70 ff ff ff 	mov    QWORD PTR [rbp-0x90],r8
  3fc288:	4c 89 8d 78 ff ff ff 	mov    QWORD PTR [rbp-0x88],r9
  3fc28f:	84 c0                	test   al,al
  3fc291:	74 20                	je     3fc2b3 <_init-0x4d4d>
  3fc293:	0f 29 45 80          	movaps XMMWORD PTR [rbp-0x80],xmm0
  3fc297:	0f 29 4d 90          	movaps XMMWORD PTR [rbp-0x70],xmm1
  3fc29b:	0f 29 55 a0          	movaps XMMWORD PTR [rbp-0x60],xmm2
  3fc29f:	0f 29 5d b0          	movaps XMMWORD PTR [rbp-0x50],xmm3
  3fc2a3:	0f 29 65 c0          	movaps XMMWORD PTR [rbp-0x40],xmm4
  3fc2a7:	0f 29 6d d0          	movaps XMMWORD PTR [rbp-0x30],xmm5
  3fc2ab:	0f 29 75 e0          	movaps XMMWORD PTR [rbp-0x20],xmm6
  3fc2af:	0f 29 7d f0          	movaps XMMWORD PTR [rbp-0x10],xmm7
  3fc2b3:	48 c7 85 20 ff ff ff 	mov    QWORD PTR [rbp-0xe0],0x0
  3fc2ba:	00 00 00 00 
  3fc2be:	48 c7 85 28 ff ff ff 	mov    QWORD PTR [rbp-0xd8],0x0
  3fc2c5:	00 00 00 00 
  3fc2c9:	48 c7 85 30 ff ff ff 	mov    QWORD PTR [rbp-0xd0],0x0
  3fc2d0:	00 00 00 00 
  3fc2d4:	66 c7 85 38 ff ff ff 	mov    WORD PTR [rbp-0xc8],0x0
  3fc2db:	00 00 
  3fc2dd:	c7 85 08 ff ff ff 08 	mov    DWORD PTR [rbp-0xf8],0x8
  3fc2e4:	00 00 00 
  3fc2e7:	c7 85 0c ff ff ff 30 	mov    DWORD PTR [rbp-0xf4],0x30
  3fc2ee:	00 00 00 
  3fc2f1:	48 8d 45 10          	lea    rax,[rbp+0x10]
  3fc2f5:	48 89 85 10 ff ff ff 	mov    QWORD PTR [rbp-0xf0],rax
  3fc2fc:	48 8d 85 50 ff ff ff 	lea    rax,[rbp-0xb0]
  3fc303:	48 89 85 18 ff ff ff 	mov    QWORD PTR [rbp-0xe8],rax
  3fc30a:	c7 85 4c ff ff ff 00 	mov    DWORD PTR [rbp-0xb4],0x0
  3fc311:	00 00 00 
  3fc314:	e9 6d 02 00 00       	jmp    3fc586 <_init-0x4a7a>
  3fc319:	48 8b 85 f8 fe ff ff 	mov    rax,QWORD PTR [rbp-0x108]
  3fc320:	0f b6 00             	movzx  eax,BYTE PTR [rax]
  3fc323:	3c 25                	cmp    al,0x25
  3fc325:	74 31                	je     3fc358 <_init-0x4ca8>
  3fc327:	83 bd 4c ff ff ff 00 	cmp    DWORD PTR [rbp-0xb4],0x0
  3fc32e:	75 28                	jne    3fc358 <_init-0x4ca8>
  3fc330:	48 8b 85 f8 fe ff ff 	mov    rax,QWORD PTR [rbp-0x108]
  3fc337:	ba 01 00 00 00       	mov    edx,0x1
  3fc33c:	48 89 c6             	mov    rsi,rax
  3fc33f:	bf 01 00 00 00       	mov    edi,0x1
  3fc344:	e8 b9 fb ff ff       	call   3fbf02 <_init-0x50fe>
  3fc349:	c7 85 4c ff ff ff 00 	mov    DWORD PTR [rbp-0xb4],0x0
  3fc350:	00 00 00 
  3fc353:	e9 26 02 00 00       	jmp    3fc57e <_init-0x4a82>
  3fc358:	48 8b 85 f8 fe ff ff 	mov    rax,QWORD PTR [rbp-0x108]
  3fc35f:	0f b6 00             	movzx  eax,BYTE PTR [rax]
  3fc362:	3c 25                	cmp    al,0x25
  3fc364:	0f 84 0a 02 00 00    	je     3fc574 <_init-0x4a8c>
  3fc36a:	48 8b 85 f8 fe ff ff 	mov    rax,QWORD PTR [rbp-0x108]
  3fc371:	0f b6 00             	movzx  eax,BYTE PTR [rax]
  3fc374:	0f be c0             	movsx  eax,al
  3fc377:	83 f8 78             	cmp    eax,0x78
  3fc37a:	0f 84 61 01 00 00    	je     3fc4e1 <_init-0x4b1f>
  3fc380:	83 f8 78             	cmp    eax,0x78
  3fc383:	0f 8f c5 01 00 00    	jg     3fc54e <_init-0x4ab2>
  3fc389:	83 f8 75             	cmp    eax,0x75
  3fc38c:	74 79                	je     3fc407 <_init-0x4bf9>
  3fc38e:	83 f8 75             	cmp    eax,0x75
  3fc391:	0f 8f b7 01 00 00    	jg     3fc54e <_init-0x4ab2>
  3fc397:	83 f8 64             	cmp    eax,0x64
  3fc39a:	0f 84 d4 00 00 00    	je     3fc474 <_init-0x4b8c>
  3fc3a0:	83 f8 73             	cmp    eax,0x73
  3fc3a3:	0f 85 a5 01 00 00    	jne    3fc54e <_init-0x4ab2>
  3fc3a9:	8b 85 08 ff ff ff    	mov    eax,DWORD PTR [rbp-0xf8]
  3fc3af:	83 f8 2f             	cmp    eax,0x2f
  3fc3b2:	77 23                	ja     3fc3d7 <_init-0x4c29>
  3fc3b4:	48 8b 85 18 ff ff ff 	mov    rax,QWORD PTR [rbp-0xe8]
  3fc3bb:	8b 95 08 ff ff ff    	mov    edx,DWORD PTR [rbp-0xf8]
  3fc3c1:	89 d2                	mov    edx,edx
  3fc3c3:	48 01 d0             	add    rax,rdx
  3fc3c6:	8b 95 08 ff ff ff    	mov    edx,DWORD PTR [rbp-0xf8]
  3fc3cc:	83 c2 08             	add    edx,0x8
  3fc3cf:	89 95 08 ff ff ff    	mov    DWORD PTR [rbp-0xf8],edx
  3fc3d5:	eb 12                	jmp    3fc3e9 <_init-0x4c17>
  3fc3d7:	48 8b 85 10 ff ff ff 	mov    rax,QWORD PTR [rbp-0xf0]
  3fc3de:	48 8d 50 08          	lea    rdx,[rax+0x8]
  3fc3e2:	48 89 95 10 ff ff ff 	mov    QWORD PTR [rbp-0xf0],rdx
  3fc3e9:	48 8b 00             	mov    rax,QWORD PTR [rax]
  3fc3ec:	48 89 85 40 ff ff ff 	mov    QWORD PTR [rbp-0xc0],rax
  3fc3f3:	48 8b 85 40 ff ff ff 	mov    rax,QWORD PTR [rbp-0xc0]
  3fc3fa:	48 89 c7             	mov    rdi,rax
  3fc3fd:	e8 cd 04 00 00       	call   3fc8cf <_init-0x4731>
  3fc402:	e9 61 01 00 00       	jmp    3fc568 <_init-0x4a98>
  3fc407:	8b 85 08 ff ff ff    	mov    eax,DWORD PTR [rbp-0xf8]
  3fc40d:	83 f8 2f             	cmp    eax,0x2f
  3fc410:	77 23                	ja     3fc435 <_init-0x4bcb>
  3fc412:	48 8b 85 18 ff ff ff 	mov    rax,QWORD PTR [rbp-0xe8]
  3fc419:	8b 95 08 ff ff ff    	mov    edx,DWORD PTR [rbp-0xf8]
  3fc41f:	89 d2                	mov    edx,edx
  3fc421:	48 01 d0             	add    rax,rdx
  3fc424:	8b 95 08 ff ff ff    	mov    edx,DWORD PTR [rbp-0xf8]
  3fc42a:	83 c2 08             	add    edx,0x8
  3fc42d:	89 95 08 ff ff ff    	mov    DWORD PTR [rbp-0xf8],edx
  3fc433:	eb 12                	jmp    3fc447 <_init-0x4bb9>
  3fc435:	48 8b 85 10 ff ff ff 	mov    rax,QWORD PTR [rbp-0xf0]
  3fc43c:	48 8d 50 08          	lea    rdx,[rax+0x8]
  3fc440:	48 89 95 10 ff ff ff 	mov    QWORD PTR [rbp-0xf0],rdx
  3fc447:	8b 00                	mov    eax,DWORD PTR [rax]
  3fc449:	89 85 3c ff ff ff    	mov    DWORD PTR [rbp-0xc4],eax
  3fc44f:	8b 85 3c ff ff ff    	mov    eax,DWORD PTR [rbp-0xc4]
  3fc455:	48 8d 95 20 ff ff ff 	lea    rdx,[rbp-0xe0]
  3fc45c:	48 89 d6             	mov    rsi,rdx
  3fc45f:	48 89 c7             	mov    rdi,rax
  3fc462:	e8 38 01 00 00       	call   3fc59f <_init-0x4a61>
  3fc467:	48 89 c7             	mov    rdi,rax
  3fc46a:	e8 60 04 00 00       	call   3fc8cf <_init-0x4731>
  3fc46f:	e9 f4 00 00 00       	jmp    3fc568 <_init-0x4a98>
  3fc474:	8b 85 08 ff ff ff    	mov    eax,DWORD PTR [rbp-0xf8]
  3fc47a:	83 f8 2f             	cmp    eax,0x2f
  3fc47d:	77 23                	ja     3fc4a2 <_init-0x4b5e>
  3fc47f:	48 8b 85 18 ff ff ff 	mov    rax,QWORD PTR [rbp-0xe8]
  3fc486:	8b 95 08 ff ff ff    	mov    edx,DWORD PTR [rbp-0xf8]
  3fc48c:	89 d2                	mov    edx,edx
  3fc48e:	48 01 d0             	add    rax,rdx
  3fc491:	8b 95 08 ff ff ff    	mov    edx,DWORD PTR [rbp-0xf8]
  3fc497:	83 c2 08             	add    edx,0x8
  3fc49a:	89 95 08 ff ff ff    	mov    DWORD PTR [rbp-0xf8],edx
  3fc4a0:	eb 12                	jmp    3fc4b4 <_init-0x4b4c>
  3fc4a2:	48 8b 85 10 ff ff ff 	mov    rax,QWORD PTR [rbp-0xf0]
  3fc4a9:	48 8d 50 08          	lea    rdx,[rax+0x8]
  3fc4ad:	48 89 95 10 ff ff ff 	mov    QWORD PTR [rbp-0xf0],rdx
  3fc4b4:	8b 00                	mov    eax,DWORD PTR [rax]
  3fc4b6:	89 85 3c ff ff ff    	mov    DWORD PTR [rbp-0xc4],eax
  3fc4bc:	8b 85 3c ff ff ff    	mov    eax,DWORD PTR [rbp-0xc4]
  3fc4c2:	48 8d 95 20 ff ff ff 	lea    rdx,[rbp-0xe0]
  3fc4c9:	48 89 d6             	mov    rsi,rdx
  3fc4cc:	48 89 c7             	mov    rdi,rax
  3fc4cf:	e8 cb 00 00 00       	call   3fc59f <_init-0x4a61>
  3fc4d4:	48 89 c7             	mov    rdi,rax
  3fc4d7:	e8 f3 03 00 00       	call   3fc8cf <_init-0x4731>
  3fc4dc:	e9 87 00 00 00       	jmp    3fc568 <_init-0x4a98>
  3fc4e1:	8b 85 08 ff ff ff    	mov    eax,DWORD PTR [rbp-0xf8]
  3fc4e7:	83 f8 2f             	cmp    eax,0x2f
  3fc4ea:	77 23                	ja     3fc50f <_init-0x4af1>
  3fc4ec:	48 8b 85 18 ff ff ff 	mov    rax,QWORD PTR [rbp-0xe8]
  3fc4f3:	8b 95 08 ff ff ff    	mov    edx,DWORD PTR [rbp-0xf8]
  3fc4f9:	89 d2                	mov    edx,edx
  3fc4fb:	48 01 d0             	add    rax,rdx
  3fc4fe:	8b 95 08 ff ff ff    	mov    edx,DWORD PTR [rbp-0xf8]
  3fc504:	83 c2 08             	add    edx,0x8
  3fc507:	89 95 08 ff ff ff    	mov    DWORD PTR [rbp-0xf8],edx
  3fc50d:	eb 12                	jmp    3fc521 <_init-0x4adf>
  3fc50f:	48 8b 85 10 ff ff ff 	mov    rax,QWORD PTR [rbp-0xf0]
  3fc516:	48 8d 50 08          	lea    rdx,[rax+0x8]
  3fc51a:	48 89 95 10 ff ff ff 	mov    QWORD PTR [rbp-0xf0],rdx
  3fc521:	48 8b 00             	mov    rax,QWORD PTR [rax]
  3fc524:	48 89 85 40 ff ff ff 	mov    QWORD PTR [rbp-0xc0],rax
  3fc52b:	48 8b 85 40 ff ff ff 	mov    rax,QWORD PTR [rbp-0xc0]
  3fc532:	48 8d 95 20 ff ff ff 	lea    rdx,[rbp-0xe0]
  3fc539:	48 89 d6             	mov    rsi,rdx
  3fc53c:	48 89 c7             	mov    rdi,rax
  3fc53f:	e8 dd 01 00 00       	call   3fc721 <_init-0x48df>
  3fc544:	48 89 c7             	mov    rdi,rax
  3fc547:	e8 83 03 00 00       	call   3fc8cf <_init-0x4731>
  3fc54c:	eb 1a                	jmp    3fc568 <_init-0x4a98>
  3fc54e:	48 8b 85 f8 fe ff ff 	mov    rax,QWORD PTR [rbp-0x108]
  3fc555:	ba 01 00 00 00       	mov    edx,0x1
  3fc55a:	48 89 c6             	mov    rsi,rax
  3fc55d:	bf 01 00 00 00       	mov    edi,0x1
  3fc562:	e8 9b f9 ff ff       	call   3fbf02 <_init-0x50fe>
  3fc567:	90                   	nop
  3fc568:	c7 85 4c ff ff ff 00 	mov    DWORD PTR [rbp-0xb4],0x0
  3fc56f:	00 00 00 
  3fc572:	eb 0a                	jmp    3fc57e <_init-0x4a82>
  3fc574:	c7 85 4c ff ff ff 01 	mov    DWORD PTR [rbp-0xb4],0x1
  3fc57b:	00 00 00 
  3fc57e:	48 83 85 f8 fe ff ff 	add    QWORD PTR [rbp-0x108],0x1
  3fc585:	01 
  3fc586:	48 8b 85 f8 fe ff ff 	mov    rax,QWORD PTR [rbp-0x108]
  3fc58d:	0f b6 00             	movzx  eax,BYTE PTR [rax]
  3fc590:	84 c0                	test   al,al
  3fc592:	0f 85 81 fd ff ff    	jne    3fc319 <_init-0x4ce7>
  3fc598:	b8 01 00 00 00       	mov    eax,0x1
  3fc59d:	c9                   	leave  
  3fc59e:	c3                   	ret    
  3fc59f:	f3 0f 1e fa          	endbr64 
  3fc5a3:	55                   	push   rbp
  3fc5a4:	48 89 e5             	mov    rbp,rsp
  3fc5a7:	48 89 7d e8          	mov    QWORD PTR [rbp-0x18],rdi
  3fc5ab:	48 89 75 e0          	mov    QWORD PTR [rbp-0x20],rsi
  3fc5af:	c7 45 fc 00 00 00 00 	mov    DWORD PTR [rbp-0x4],0x0
  3fc5b6:	48 8b 4d e8          	mov    rcx,QWORD PTR [rbp-0x18]
  3fc5ba:	48 ba 67 66 66 66 66 	movabs rdx,0x6666666666666667
  3fc5c1:	66 66 66 
  3fc5c4:	48 89 c8             	mov    rax,rcx
  3fc5c7:	48 f7 ea             	imul   rdx
  3fc5ca:	48 c1 fa 02          	sar    rdx,0x2
  3fc5ce:	48 89 c8             	mov    rax,rcx
  3fc5d1:	48 c1 f8 3f          	sar    rax,0x3f
  3fc5d5:	48 29 c2             	sub    rdx,rax
  3fc5d8:	48 89 d0             	mov    rax,rdx
  3fc5db:	48 c1 e0 02          	shl    rax,0x2
  3fc5df:	48 01 d0             	add    rax,rdx
  3fc5e2:	48 01 c0             	add    rax,rax
  3fc5e5:	48 29 c1             	sub    rcx,rax
  3fc5e8:	48 89 ca             	mov    rdx,rcx
  3fc5eb:	89 d0                	mov    eax,edx
  3fc5ed:	8d 48 30             	lea    ecx,[rax+0x30]
  3fc5f0:	8b 45 fc             	mov    eax,DWORD PTR [rbp-0x4]
  3fc5f3:	48 63 d0             	movsxd rdx,eax
  3fc5f6:	48 8b 45 e0          	mov    rax,QWORD PTR [rbp-0x20]
  3fc5fa:	48 01 d0             	add    rax,rdx
  3fc5fd:	89 ca                	mov    edx,ecx
  3fc5ff:	88 10                	mov    BYTE PTR [rax],dl
  3fc601:	48 8b 4d e8          	mov    rcx,QWORD PTR [rbp-0x18]
  3fc605:	48 ba 67 66 66 66 66 	movabs rdx,0x6666666666666667
  3fc60c:	66 66 66 
  3fc60f:	48 89 c8             	mov    rax,rcx
  3fc612:	48 f7 ea             	imul   rdx
  3fc615:	48 c1 fa 02          	sar    rdx,0x2
  3fc619:	48 89 c8             	mov    rax,rcx
  3fc61c:	48 c1 f8 3f          	sar    rax,0x3f
  3fc620:	48 29 c2             	sub    rdx,rax
  3fc623:	48 89 d0             	mov    rax,rdx
  3fc626:	48 89 45 e8          	mov    QWORD PTR [rbp-0x18],rax
  3fc62a:	83 45 fc 01          	add    DWORD PTR [rbp-0x4],0x1
  3fc62e:	48 83 7d e8 00       	cmp    QWORD PTR [rbp-0x18],0x0
  3fc633:	75 81                	jne    3fc5b6 <_init-0x4a4a>
  3fc635:	8b 45 fc             	mov    eax,DWORD PTR [rbp-0x4]
  3fc638:	48 63 d0             	movsxd rdx,eax
  3fc63b:	48 8b 45 e0          	mov    rax,QWORD PTR [rbp-0x20]
  3fc63f:	48 01 d0             	add    rax,rdx
  3fc642:	c6 00 00             	mov    BYTE PTR [rax],0x0
  3fc645:	c7 45 f8 00 00 00 00 	mov    DWORD PTR [rbp-0x8],0x0
  3fc64c:	e9 b5 00 00 00       	jmp    3fc706 <_init-0x48fa>
  3fc651:	8b 45 f8             	mov    eax,DWORD PTR [rbp-0x8]
  3fc654:	48 63 d0             	movsxd rdx,eax
  3fc657:	48 8b 45 e0          	mov    rax,QWORD PTR [rbp-0x20]
  3fc65b:	48 01 d0             	add    rax,rdx
  3fc65e:	0f b6 30             	movzx  esi,BYTE PTR [rax]
  3fc661:	8b 45 fc             	mov    eax,DWORD PTR [rbp-0x4]
  3fc664:	2b 45 f8             	sub    eax,DWORD PTR [rbp-0x8]
  3fc667:	48 98                	cdqe   
  3fc669:	48 8d 50 ff          	lea    rdx,[rax-0x1]
  3fc66d:	48 8b 45 e0          	mov    rax,QWORD PTR [rbp-0x20]
  3fc671:	48 01 d0             	add    rax,rdx
  3fc674:	0f b6 08             	movzx  ecx,BYTE PTR [rax]
  3fc677:	8b 45 f8             	mov    eax,DWORD PTR [rbp-0x8]
  3fc67a:	48 63 d0             	movsxd rdx,eax
  3fc67d:	48 8b 45 e0          	mov    rax,QWORD PTR [rbp-0x20]
  3fc681:	48 01 d0             	add    rax,rdx
  3fc684:	31 ce                	xor    esi,ecx
  3fc686:	89 f2                	mov    edx,esi
  3fc688:	88 10                	mov    BYTE PTR [rax],dl
  3fc68a:	8b 45 fc             	mov    eax,DWORD PTR [rbp-0x4]
  3fc68d:	2b 45 f8             	sub    eax,DWORD PTR [rbp-0x8]
  3fc690:	48 98                	cdqe   
  3fc692:	48 8d 50 ff          	lea    rdx,[rax-0x1]
  3fc696:	48 8b 45 e0          	mov    rax,QWORD PTR [rbp-0x20]
  3fc69a:	48 01 d0             	add    rax,rdx
  3fc69d:	0f b6 30             	movzx  esi,BYTE PTR [rax]
  3fc6a0:	8b 45 f8             	mov    eax,DWORD PTR [rbp-0x8]
  3fc6a3:	48 63 d0             	movsxd rdx,eax
  3fc6a6:	48 8b 45 e0          	mov    rax,QWORD PTR [rbp-0x20]
  3fc6aa:	48 01 d0             	add    rax,rdx
  3fc6ad:	0f b6 08             	movzx  ecx,BYTE PTR [rax]
  3fc6b0:	8b 45 fc             	mov    eax,DWORD PTR [rbp-0x4]
  3fc6b3:	2b 45 f8             	sub    eax,DWORD PTR [rbp-0x8]
  3fc6b6:	48 98                	cdqe   
  3fc6b8:	48 8d 50 ff          	lea    rdx,[rax-0x1]
  3fc6bc:	48 8b 45 e0          	mov    rax,QWORD PTR [rbp-0x20]
  3fc6c0:	48 01 d0             	add    rax,rdx
  3fc6c3:	31 ce                	xor    esi,ecx
  3fc6c5:	89 f2                	mov    edx,esi
  3fc6c7:	88 10                	mov    BYTE PTR [rax],dl
  3fc6c9:	8b 45 f8             	mov    eax,DWORD PTR [rbp-0x8]
  3fc6cc:	48 63 d0             	movsxd rdx,eax
  3fc6cf:	48 8b 45 e0          	mov    rax,QWORD PTR [rbp-0x20]
  3fc6d3:	48 01 d0             	add    rax,rdx
  3fc6d6:	0f b6 30             	movzx  esi,BYTE PTR [rax]
  3fc6d9:	8b 45 fc             	mov    eax,DWORD PTR [rbp-0x4]
  3fc6dc:	2b 45 f8             	sub    eax,DWORD PTR [rbp-0x8]
  3fc6df:	48 98                	cdqe   
  3fc6e1:	48 8d 50 ff          	lea    rdx,[rax-0x1]
  3fc6e5:	48 8b 45 e0          	mov    rax,QWORD PTR [rbp-0x20]
  3fc6e9:	48 01 d0             	add    rax,rdx
  3fc6ec:	0f b6 08             	movzx  ecx,BYTE PTR [rax]
  3fc6ef:	8b 45 f8             	mov    eax,DWORD PTR [rbp-0x8]
  3fc6f2:	48 63 d0             	movsxd rdx,eax
  3fc6f5:	48 8b 45 e0          	mov    rax,QWORD PTR [rbp-0x20]
  3fc6f9:	48 01 d0             	add    rax,rdx
  3fc6fc:	31 ce                	xor    esi,ecx
  3fc6fe:	89 f2                	mov    edx,esi
  3fc700:	88 10                	mov    BYTE PTR [rax],dl
  3fc702:	83 45 f8 01          	add    DWORD PTR [rbp-0x8],0x1
  3fc706:	8b 45 fc             	mov    eax,DWORD PTR [rbp-0x4]
  3fc709:	89 c2                	mov    edx,eax
  3fc70b:	c1 ea 1f             	shr    edx,0x1f
  3fc70e:	01 d0                	add    eax,edx
  3fc710:	d1 f8                	sar    eax,1
  3fc712:	39 45 f8             	cmp    DWORD PTR [rbp-0x8],eax
  3fc715:	0f 8c 36 ff ff ff    	jl     3fc651 <_init-0x49af>
  3fc71b:	48 8b 45 e0          	mov    rax,QWORD PTR [rbp-0x20]
  3fc71f:	5d                   	pop    rbp
  3fc720:	c3                   	ret    
  3fc721:	f3 0f 1e fa          	endbr64 
  3fc725:	55                   	push   rbp
  3fc726:	48 89 e5             	mov    rbp,rsp
  3fc729:	48 89 7d e8          	mov    QWORD PTR [rbp-0x18],rdi
  3fc72d:	48 89 75 e0          	mov    QWORD PTR [rbp-0x20],rsi
  3fc731:	c7 45 fc 00 00 00 00 	mov    DWORD PTR [rbp-0x4],0x0
  3fc738:	48 8b 45 e8          	mov    rax,QWORD PTR [rbp-0x18]
  3fc73c:	48 99                	cqo    
  3fc73e:	48 c1 ea 3c          	shr    rdx,0x3c
  3fc742:	48 01 d0             	add    rax,rdx
  3fc745:	83 e0 0f             	and    eax,0xf
  3fc748:	48 29 d0             	sub    rax,rdx
  3fc74b:	48 89 c1             	mov    rcx,rax
  3fc74e:	8b 45 fc             	mov    eax,DWORD PTR [rbp-0x4]
  3fc751:	48 63 d0             	movsxd rdx,eax
  3fc754:	48 8b 45 e0          	mov    rax,QWORD PTR [rbp-0x20]
  3fc758:	48 01 d0             	add    rax,rdx
  3fc75b:	89 ca                	mov    edx,ecx
  3fc75d:	88 10                	mov    BYTE PTR [rax],dl
  3fc75f:	8b 45 fc             	mov    eax,DWORD PTR [rbp-0x4]
  3fc762:	48 63 d0             	movsxd rdx,eax
  3fc765:	48 8b 45 e0          	mov    rax,QWORD PTR [rbp-0x20]
  3fc769:	48 01 d0             	add    rax,rdx
  3fc76c:	0f b6 00             	movzx  eax,BYTE PTR [rax]
  3fc76f:	3c 09                	cmp    al,0x9
  3fc771:	7e 26                	jle    3fc799 <_init-0x4867>
  3fc773:	8b 45 fc             	mov    eax,DWORD PTR [rbp-0x4]
  3fc776:	48 63 d0             	movsxd rdx,eax
  3fc779:	48 8b 45 e0          	mov    rax,QWORD PTR [rbp-0x20]
  3fc77d:	48 01 d0             	add    rax,rdx
  3fc780:	0f b6 00             	movzx  eax,BYTE PTR [rax]
  3fc783:	8d 48 57             	lea    ecx,[rax+0x57]
  3fc786:	8b 45 fc             	mov    eax,DWORD PTR [rbp-0x4]
  3fc789:	48 63 d0             	movsxd rdx,eax
  3fc78c:	48 8b 45 e0          	mov    rax,QWORD PTR [rbp-0x20]
  3fc790:	48 01 d0             	add    rax,rdx
  3fc793:	89 ca                	mov    edx,ecx
  3fc795:	88 10                	mov    BYTE PTR [rax],dl
  3fc797:	eb 24                	jmp    3fc7bd <_init-0x4843>
  3fc799:	8b 45 fc             	mov    eax,DWORD PTR [rbp-0x4]
  3fc79c:	48 63 d0             	movsxd rdx,eax
  3fc79f:	48 8b 45 e0          	mov    rax,QWORD PTR [rbp-0x20]
  3fc7a3:	48 01 d0             	add    rax,rdx
  3fc7a6:	0f b6 00             	movzx  eax,BYTE PTR [rax]
  3fc7a9:	8d 48 30             	lea    ecx,[rax+0x30]
  3fc7ac:	8b 45 fc             	mov    eax,DWORD PTR [rbp-0x4]
  3fc7af:	48 63 d0             	movsxd rdx,eax
  3fc7b2:	48 8b 45 e0          	mov    rax,QWORD PTR [rbp-0x20]
  3fc7b6:	48 01 d0             	add    rax,rdx
  3fc7b9:	89 ca                	mov    edx,ecx
  3fc7bb:	88 10                	mov    BYTE PTR [rax],dl
  3fc7bd:	48 8b 45 e8          	mov    rax,QWORD PTR [rbp-0x18]
  3fc7c1:	48 8d 50 0f          	lea    rdx,[rax+0xf]
  3fc7c5:	48 85 c0             	test   rax,rax
  3fc7c8:	48 0f 48 c2          	cmovs  rax,rdx
  3fc7cc:	48 c1 f8 04          	sar    rax,0x4
  3fc7d0:	48 89 45 e8          	mov    QWORD PTR [rbp-0x18],rax
  3fc7d4:	83 45 fc 01          	add    DWORD PTR [rbp-0x4],0x1
  3fc7d8:	48 83 7d e8 00       	cmp    QWORD PTR [rbp-0x18],0x0
  3fc7dd:	0f 85 55 ff ff ff    	jne    3fc738 <_init-0x48c8>
  3fc7e3:	8b 45 fc             	mov    eax,DWORD PTR [rbp-0x4]
  3fc7e6:	48 63 d0             	movsxd rdx,eax
  3fc7e9:	48 8b 45 e0          	mov    rax,QWORD PTR [rbp-0x20]
  3fc7ed:	48 01 d0             	add    rax,rdx
  3fc7f0:	c6 00 00             	mov    BYTE PTR [rax],0x0
  3fc7f3:	c7 45 f8 00 00 00 00 	mov    DWORD PTR [rbp-0x8],0x0
  3fc7fa:	e9 b5 00 00 00       	jmp    3fc8b4 <_init-0x474c>
  3fc7ff:	8b 45 f8             	mov    eax,DWORD PTR [rbp-0x8]
  3fc802:	48 63 d0             	movsxd rdx,eax
  3fc805:	48 8b 45 e0          	mov    rax,QWORD PTR [rbp-0x20]
  3fc809:	48 01 d0             	add    rax,rdx
  3fc80c:	0f b6 30             	movzx  esi,BYTE PTR [rax]
  3fc80f:	8b 45 fc             	mov    eax,DWORD PTR [rbp-0x4]
  3fc812:	2b 45 f8             	sub    eax,DWORD PTR [rbp-0x8]
  3fc815:	48 98                	cdqe   
  3fc817:	48 8d 50 ff          	lea    rdx,[rax-0x1]
  3fc81b:	48 8b 45 e0          	mov    rax,QWORD PTR [rbp-0x20]
  3fc81f:	48 01 d0             	add    rax,rdx
  3fc822:	0f b6 08             	movzx  ecx,BYTE PTR [rax]
  3fc825:	8b 45 f8             	mov    eax,DWORD PTR [rbp-0x8]
  3fc828:	48 63 d0             	movsxd rdx,eax
  3fc82b:	48 8b 45 e0          	mov    rax,QWORD PTR [rbp-0x20]
  3fc82f:	48 01 d0             	add    rax,rdx
  3fc832:	31 ce                	xor    esi,ecx
  3fc834:	89 f2                	mov    edx,esi
  3fc836:	88 10                	mov    BYTE PTR [rax],dl
  3fc838:	8b 45 fc             	mov    eax,DWORD PTR [rbp-0x4]
  3fc83b:	2b 45 f8             	sub    eax,DWORD PTR [rbp-0x8]
  3fc83e:	48 98                	cdqe   
  3fc840:	48 8d 50 ff          	lea    rdx,[rax-0x1]
  3fc844:	48 8b 45 e0          	mov    rax,QWORD PTR [rbp-0x20]
  3fc848:	48 01 d0             	add    rax,rdx
  3fc84b:	0f b6 30             	movzx  esi,BYTE PTR [rax]
  3fc84e:	8b 45 f8             	mov    eax,DWORD PTR [rbp-0x8]
  3fc851:	48 63 d0             	movsxd rdx,eax
  3fc854:	48 8b 45 e0          	mov    rax,QWORD PTR [rbp-0x20]
  3fc858:	48 01 d0             	add    rax,rdx
  3fc85b:	0f b6 08             	movzx  ecx,BYTE PTR [rax]
  3fc85e:	8b 45 fc             	mov    eax,DWORD PTR [rbp-0x4]
  3fc861:	2b 45 f8             	sub    eax,DWORD PTR [rbp-0x8]
  3fc864:	48 98                	cdqe   
  3fc866:	48 8d 50 ff          	lea    rdx,[rax-0x1]
  3fc86a:	48 8b 45 e0          	mov    rax,QWORD PTR [rbp-0x20]
  3fc86e:	48 01 d0             	add    rax,rdx
  3fc871:	31 ce                	xor    esi,ecx
  3fc873:	89 f2                	mov    edx,esi
  3fc875:	88 10                	mov    BYTE PTR [rax],dl
  3fc877:	8b 45 f8             	mov    eax,DWORD PTR [rbp-0x8]
  3fc87a:	48 63 d0             	movsxd rdx,eax
  3fc87d:	48 8b 45 e0          	mov    rax,QWORD PTR [rbp-0x20]
  3fc881:	48 01 d0             	add    rax,rdx
  3fc884:	0f b6 30             	movzx  esi,BYTE PTR [rax]
  3fc887:	8b 45 fc             	mov    eax,DWORD PTR [rbp-0x4]
  3fc88a:	2b 45 f8             	sub    eax,DWORD PTR [rbp-0x8]
  3fc88d:	48 98                	cdqe   
  3fc88f:	48 8d 50 ff          	lea    rdx,[rax-0x1]
  3fc893:	48 8b 45 e0          	mov    rax,QWORD PTR [rbp-0x20]
  3fc897:	48 01 d0             	add    rax,rdx
  3fc89a:	0f b6 08             	movzx  ecx,BYTE PTR [rax]
  3fc89d:	8b 45 f8             	mov    eax,DWORD PTR [rbp-0x8]
  3fc8a0:	48 63 d0             	movsxd rdx,eax
  3fc8a3:	48 8b 45 e0          	mov    rax,QWORD PTR [rbp-0x20]
  3fc8a7:	48 01 d0             	add    rax,rdx
  3fc8aa:	31 ce                	xor    esi,ecx
  3fc8ac:	89 f2                	mov    edx,esi
  3fc8ae:	88 10                	mov    BYTE PTR [rax],dl
  3fc8b0:	83 45 f8 01          	add    DWORD PTR [rbp-0x8],0x1
  3fc8b4:	8b 45 fc             	mov    eax,DWORD PTR [rbp-0x4]
  3fc8b7:	89 c2                	mov    edx,eax
  3fc8b9:	c1 ea 1f             	shr    edx,0x1f
  3fc8bc:	01 d0                	add    eax,edx
  3fc8be:	d1 f8                	sar    eax,1
  3fc8c0:	39 45 f8             	cmp    DWORD PTR [rbp-0x8],eax
  3fc8c3:	0f 8c 36 ff ff ff    	jl     3fc7ff <_init-0x4801>
  3fc8c9:	48 8b 45 e0          	mov    rax,QWORD PTR [rbp-0x20]
  3fc8cd:	5d                   	pop    rbp
  3fc8ce:	c3                   	ret    
  3fc8cf:	f3 0f 1e fa          	endbr64 
  3fc8d3:	55                   	push   rbp
  3fc8d4:	48 89 e5             	mov    rbp,rsp
  3fc8d7:	48 83 ec 10          	sub    rsp,0x10
  3fc8db:	48 89 7d f8          	mov    QWORD PTR [rbp-0x8],rdi
  3fc8df:	48 8b 45 f8          	mov    rax,QWORD PTR [rbp-0x8]
  3fc8e3:	48 89 c7             	mov    rdi,rax
  3fc8e6:	e8 7c 00 00 00       	call   3fc967 <_init-0x4699>
  3fc8eb:	48 89 c2             	mov    rdx,rax
  3fc8ee:	48 8b 45 f8          	mov    rax,QWORD PTR [rbp-0x8]
  3fc8f2:	48 89 c6             	mov    rsi,rax
  3fc8f5:	bf 01 00 00 00       	mov    edi,0x1
  3fc8fa:	e8 03 f6 ff ff       	call   3fbf02 <_init-0x50fe>
  3fc8ff:	bf 01 00 00 00       	mov    edi,0x1
  3fc904:	e8 e6 f6 ff ff       	call   3fbfef <_init-0x5011>
  3fc909:	b8 01 00 00 00       	mov    eax,0x1
  3fc90e:	c9                   	leave  
  3fc90f:	c3                   	ret    
  3fc910:	f3 0f 1e fa          	endbr64 
  3fc914:	55                   	push   rbp
  3fc915:	48 89 e5             	mov    rbp,rsp
  3fc918:	48 83 ec 10          	sub    rsp,0x10
  3fc91c:	48 89 7d f8          	mov    QWORD PTR [rbp-0x8],rdi
  3fc920:	48 8b 45 f8          	mov    rax,QWORD PTR [rbp-0x8]
  3fc924:	48 89 c7             	mov    rdi,rax
  3fc927:	e8 3b 00 00 00       	call   3fc967 <_init-0x4699>
  3fc92c:	48 89 c2             	mov    rdx,rax
  3fc92f:	48 8b 45 f8          	mov    rax,QWORD PTR [rbp-0x8]
  3fc933:	48 89 c6             	mov    rsi,rax
  3fc936:	bf 01 00 00 00       	mov    edi,0x1
  3fc93b:	e8 c2 f5 ff ff       	call   3fbf02 <_init-0x50fe>
  3fc940:	ba 01 00 00 00       	mov    edx,0x1
  3fc945:	48 8d 35 13 03 00 00 	lea    rsi,[rip+0x313]        # 3fcc5f <_init-0x43a1>
  3fc94c:	bf 01 00 00 00       	mov    edi,0x1
  3fc951:	e8 ac f5 ff ff       	call   3fbf02 <_init-0x50fe>
  3fc956:	bf 01 00 00 00       	mov    edi,0x1
  3fc95b:	e8 8f f6 ff ff       	call   3fbfef <_init-0x5011>
  3fc960:	b8 01 00 00 00       	mov    eax,0x1
  3fc965:	c9                   	leave  
  3fc966:	c3                   	ret    
  3fc967:	f3 0f 1e fa          	endbr64 
  3fc96b:	55                   	push   rbp
  3fc96c:	48 89 e5             	mov    rbp,rsp
  3fc96f:	48 89 7d e8          	mov    QWORD PTR [rbp-0x18],rdi
  3fc973:	48 c7 45 f8 00 00 00 	mov    QWORD PTR [rbp-0x8],0x0
  3fc97a:	00 
  3fc97b:	eb 05                	jmp    3fc982 <_init-0x467e>
  3fc97d:	48 83 45 f8 01       	add    QWORD PTR [rbp-0x8],0x1
  3fc982:	48 8b 55 e8          	mov    rdx,QWORD PTR [rbp-0x18]
  3fc986:	48 8b 45 f8          	mov    rax,QWORD PTR [rbp-0x8]
  3fc98a:	48 01 d0             	add    rax,rdx
  3fc98d:	0f b6 00             	movzx  eax,BYTE PTR [rax]
  3fc990:	84 c0                	test   al,al
  3fc992:	75 e9                	jne    3fc97d <_init-0x4683>
  3fc994:	48 8b 45 f8          	mov    rax,QWORD PTR [rbp-0x8]
  3fc998:	5d                   	pop    rbp
  3fc999:	c3                   	ret    
  3fc99a:	f3 0f 1e fa          	endbr64 
  3fc99e:	55                   	push   rbp
  3fc99f:	48 89 e5             	mov    rbp,rsp
  3fc9a2:	89 f8                	mov    eax,edi
  3fc9a4:	88 45 fc             	mov    BYTE PTR [rbp-0x4],al
  3fc9a7:	80 7d fc 60          	cmp    BYTE PTR [rbp-0x4],0x60
  3fc9ab:	7e 16                	jle    3fc9c3 <_init-0x463d>
  3fc9ad:	80 7d fc 7a          	cmp    BYTE PTR [rbp-0x4],0x7a
  3fc9b1:	7f 10                	jg     3fc9c3 <_init-0x463d>
  3fc9b3:	0f b6 45 fc          	movzx  eax,BYTE PTR [rbp-0x4]
  3fc9b7:	83 e8 20             	sub    eax,0x20
  3fc9ba:	88 45 fc             	mov    BYTE PTR [rbp-0x4],al
  3fc9bd:	0f b6 45 fc          	movzx  eax,BYTE PTR [rbp-0x4]
  3fc9c1:	eb 04                	jmp    3fc9c7 <_init-0x4639>
  3fc9c3:	0f b6 45 fc          	movzx  eax,BYTE PTR [rbp-0x4]
  3fc9c7:	5d                   	pop    rbp
  3fc9c8:	c3                   	ret    
  3fc9c9:	f3 0f 1e fa          	endbr64 
  3fc9cd:	55                   	push   rbp
  3fc9ce:	48 89 e5             	mov    rbp,rsp
  3fc9d1:	48 89 7d f8          	mov    QWORD PTR [rbp-0x8],rdi
  3fc9d5:	48 89 75 f0          	mov    QWORD PTR [rbp-0x10],rsi
  3fc9d9:	48 89 55 e8          	mov    QWORD PTR [rbp-0x18],rdx
  3fc9dd:	eb 53                	jmp    3fca32 <_init-0x45ce>
  3fc9df:	48 8b 45 f8          	mov    rax,QWORD PTR [rbp-0x8]
  3fc9e3:	0f b6 10             	movzx  edx,BYTE PTR [rax]
  3fc9e6:	48 8b 45 f0          	mov    rax,QWORD PTR [rbp-0x10]
  3fc9ea:	0f b6 00             	movzx  eax,BYTE PTR [rax]
  3fc9ed:	38 c2                	cmp    dl,al
  3fc9ef:	74 20                	je     3fca11 <_init-0x45ef>
  3fc9f1:	48 8b 45 f8          	mov    rax,QWORD PTR [rbp-0x8]
  3fc9f5:	0f b6 10             	movzx  edx,BYTE PTR [rax]
  3fc9f8:	48 8b 45 f0          	mov    rax,QWORD PTR [rbp-0x10]
  3fc9fc:	0f b6 00             	movzx  eax,BYTE PTR [rax]
  3fc9ff:	38 c2                	cmp    dl,al
  3fca01:	73 07                	jae    3fca0a <_init-0x45f6>
  3fca03:	b8 ff ff ff ff       	mov    eax,0xffffffff
  3fca08:	eb 34                	jmp    3fca3e <_init-0x45c2>
  3fca0a:	b8 01 00 00 00       	mov    eax,0x1
  3fca0f:	eb 2d                	jmp    3fca3e <_init-0x45c2>
  3fca11:	48 8b 45 f8          	mov    rax,QWORD PTR [rbp-0x8]
  3fca15:	0f b6 00             	movzx  eax,BYTE PTR [rax]
  3fca18:	84 c0                	test   al,al
  3fca1a:	75 07                	jne    3fca23 <_init-0x45dd>
  3fca1c:	b8 00 00 00 00       	mov    eax,0x0
  3fca21:	eb 1b                	jmp    3fca3e <_init-0x45c2>
  3fca23:	48 83 45 f8 01       	add    QWORD PTR [rbp-0x8],0x1
  3fca28:	48 83 45 f0 01       	add    QWORD PTR [rbp-0x10],0x1
  3fca2d:	48 83 6d e8 01       	sub    QWORD PTR [rbp-0x18],0x1
  3fca32:	48 83 7d e8 00       	cmp    QWORD PTR [rbp-0x18],0x0
  3fca37:	75 a6                	jne    3fc9df <_init-0x4621>
  3fca39:	b8 00 00 00 00       	mov    eax,0x0
  3fca3e:	5d                   	pop    rbp
  3fca3f:	c3                   	ret    
  3fca40:	f3 0f 1e fa          	endbr64 
  3fca44:	55                   	push   rbp
  3fca45:	48 89 e5             	mov    rbp,rsp
  3fca48:	48 89 7d f8          	mov    QWORD PTR [rbp-0x8],rdi
  3fca4c:	48 89 75 f0          	mov    QWORD PTR [rbp-0x10],rsi
  3fca50:	eb 1c                	jmp    3fca6e <_init-0x4592>
  3fca52:	48 8b 45 f8          	mov    rax,QWORD PTR [rbp-0x8]
  3fca56:	0f b6 00             	movzx  eax,BYTE PTR [rax]
  3fca59:	84 c0                	test   al,al
  3fca5b:	75 07                	jne    3fca64 <_init-0x459c>
  3fca5d:	b8 00 00 00 00       	mov    eax,0x0
  3fca62:	eb 3a                	jmp    3fca9e <_init-0x4562>
  3fca64:	48 83 45 f8 01       	add    QWORD PTR [rbp-0x8],0x1
  3fca69:	48 83 45 f0 01       	add    QWORD PTR [rbp-0x10],0x1
  3fca6e:	48 8b 45 f8          	mov    rax,QWORD PTR [rbp-0x8]
  3fca72:	0f b6 10             	movzx  edx,BYTE PTR [rax]
  3fca75:	48 8b 45 f0          	mov    rax,QWORD PTR [rbp-0x10]
  3fca79:	0f b6 00             	movzx  eax,BYTE PTR [rax]
  3fca7c:	38 c2                	cmp    dl,al
  3fca7e:	74 d2                	je     3fca52 <_init-0x45ae>
  3fca80:	48 8b 45 f8          	mov    rax,QWORD PTR [rbp-0x8]
  3fca84:	0f b6 10             	movzx  edx,BYTE PTR [rax]
  3fca87:	48 8b 45 f0          	mov    rax,QWORD PTR [rbp-0x10]
  3fca8b:	0f b6 00             	movzx  eax,BYTE PTR [rax]
  3fca8e:	38 c2                	cmp    dl,al
  3fca90:	73 07                	jae    3fca99 <_init-0x4567>
  3fca92:	b8 ff ff ff ff       	mov    eax,0xffffffff
  3fca97:	eb 05                	jmp    3fca9e <_init-0x4562>
  3fca99:	b8 01 00 00 00       	mov    eax,0x1
  3fca9e:	5d                   	pop    rbp
  3fca9f:	c3                   	ret    
  3fcaa0:	f3 0f 1e fa          	endbr64 
  3fcaa4:	55                   	push   rbp
  3fcaa5:	48 89 e5             	mov    rbp,rsp
  3fcaa8:	48 89 7d e8          	mov    QWORD PTR [rbp-0x18],rdi
  3fcaac:	48 89 75 e0          	mov    QWORD PTR [rbp-0x20],rsi
  3fcab0:	89 55 dc             	mov    DWORD PTR [rbp-0x24],edx
  3fcab3:	eb 35                	jmp    3fcaea <_init-0x4516>
  3fcab5:	48 8b 45 e8          	mov    rax,QWORD PTR [rbp-0x18]
  3fcab9:	0f b6 00             	movzx  eax,BYTE PTR [rax]
  3fcabc:	88 45 ff             	mov    BYTE PTR [rbp-0x1],al
  3fcabf:	48 8b 45 e0          	mov    rax,QWORD PTR [rbp-0x20]
  3fcac3:	0f b6 00             	movzx  eax,BYTE PTR [rax]
  3fcac6:	88 45 fe             	mov    BYTE PTR [rbp-0x2],al
  3fcac9:	0f b6 45 ff          	movzx  eax,BYTE PTR [rbp-0x1]
  3fcacd:	3a 45 fe             	cmp    al,BYTE PTR [rbp-0x2]
  3fcad0:	74 0e                	je     3fcae0 <_init-0x4520>
  3fcad2:	0f b6 55 ff          	movzx  edx,BYTE PTR [rbp-0x1]
  3fcad6:	0f b6 45 fe          	movzx  eax,BYTE PTR [rbp-0x2]
  3fcada:	29 c2                	sub    edx,eax
  3fcadc:	89 d0                	mov    eax,edx
  3fcade:	eb 17                	jmp    3fcaf7 <_init-0x4509>
  3fcae0:	48 83 45 e8 01       	add    QWORD PTR [rbp-0x18],0x1
  3fcae5:	48 83 45 e0 01       	add    QWORD PTR [rbp-0x20],0x1
  3fcaea:	8b 45 dc             	mov    eax,DWORD PTR [rbp-0x24]
  3fcaed:	8d 50 ff             	lea    edx,[rax-0x1]
  3fcaf0:	89 55 dc             	mov    DWORD PTR [rbp-0x24],edx
  3fcaf3:	85 c0                	test   eax,eax
  3fcaf5:	75 be                	jne    3fcab5 <_init-0x454b>
  3fcaf7:	5d                   	pop    rbp
  3fcaf8:	c3                   	ret    
  3fcaf9:	f3 0f 1e fa          	endbr64 
  3fcafd:	55                   	push   rbp
  3fcafe:	48 89 e5             	mov    rbp,rsp
  3fcb01:	e8 00 00 00 00       	call   3fcb06 <_init-0x44fa>
  3fcb06:	58                   	pop    rax
  3fcb07:	48 89 c0             	mov    rax,rax
  3fcb0a:	48 89 45 f8          	mov    QWORD PTR [rbp-0x8],rax
  3fcb0e:	48 8b 45 f8          	mov    rax,QWORD PTR [rbp-0x8]
  3fcb12:	5d                   	pop    rbp
  3fcb13:	c3                   	ret    
  3fcb14:	68 50 10 40 00       	push   0x401050
  3fcb19:	c3                   	ret    
  3fcb1a:	89 e5                	mov    ebp,esp
  3fcb1c:	bf 00 00 00 00       	mov    edi,0x0
  3fcb21:	e8 33 f3 ff ff       	call   3fbe59 <_init-0x51a7>
  3fcb26:	90                   	nop
  3fcb27:	5d                   	pop    rbp
  3fcb28:	c3                   	ret    
  3fcb29:	f3 0f 1e fa          	endbr64 
  3fcb2d:	55                   	push   rbp
  3fcb2e:	48 89 e5             	mov    rbp,rsp
  3fcb31:	90                   	nop
  3fcb32:	90                   	nop
  3fcb33:	5d                   	pop    rbp
  3fcb34:	c3                   	ret    
  3fcb35:	f3 0f 1e fa          	endbr64 
  3fcb39:	55                   	push   rbp
  3fcb3a:	48 89 e5             	mov    rbp,rsp
  3fcb3d:	ba ed 3b 00 00       	mov    edx,0x3bed
  3fcb42:	48 c7 c0 c0 2d 40 00 	mov    rax,0x402dc0
  3fcb49:	48 89 c6             	mov    rsi,rax
  3fcb4c:	bf 01 00 00 00       	mov    edi,0x1
  3fcb51:	e8 ac f3 ff ff       	call   3fbf02 <_init-0x50fe>
  3fcb56:	90                   	nop
  3fcb57:	5d                   	pop    rbp
  3fcb58:	c3                   	ret    
	...
  3fcb61:	00 00                	add    BYTE PTR [rax],al
  3fcb63:	00 57 d6             	add    BYTE PTR [rdi-0x2a],dl
  3fcb66:	ff                   	(bad)  
  3fcb67:	ff 6c d6 ff          	jmp    FWORD PTR [rsi+rdx*8-0x1]
  3fcb6b:	ff 6c d6 ff          	jmp    FWORD PTR [rsi+rdx*8-0x1]
  3fcb6f:	ff 6c d6 ff          	jmp    FWORD PTR [rsi+rdx*8-0x1]
  3fcb73:	ff 03                	inc    DWORD PTR [rbx]
  3fcb75:	d6                   	(bad)  
  3fcb76:	ff                   	(bad)  
  3fcb77:	ff 6c d6 ff          	jmp    FWORD PTR [rsi+rdx*8-0x1]
  3fcb7b:	ff 6c d6 ff          	jmp    FWORD PTR [rsi+rdx*8-0x1]
  3fcb7f:	ff 6c d6 ff          	jmp    FWORD PTR [rsi+rdx*8-0x1]
  3fcb83:	ff                   	(bad)  
  3fcb84:	eb d5                	jmp    3fcb5b <_init-0x44a5>
  3fcb86:	ff                   	(bad)  
  3fcb87:	ff 6c d6 ff          	jmp    FWORD PTR [rsi+rdx*8-0x1]
  3fcb8b:	ff 6c d6 ff          	jmp    FWORD PTR [rsi+rdx*8-0x1]
  3fcb8f:	ff 6c d6 ff          	jmp    FWORD PTR [rsi+rdx*8-0x1]
  3fcb93:	ff 6c d6 ff          	jmp    FWORD PTR [rsi+rdx*8-0x1]
  3fcb97:	ff 6c d6 ff          	jmp    FWORD PTR [rsi+rdx*8-0x1]
  3fcb9b:	ff 42 d6             	inc    DWORD PTR [rdx-0x2a]
  3fcb9e:	ff                   	(bad)  
  3fcb9f:	ff 6c d6 ff          	jmp    FWORD PTR [rsi+rdx*8-0x1]
  3fcba3:	ff 6c d6 ff          	jmp    FWORD PTR [rsi+rdx*8-0x1]
  3fcba7:	ff 6c d6 ff          	jmp    FWORD PTR [rsi+rdx*8-0x1]
  3fcbab:	ff 18                	call   FWORD PTR [rax]
  3fcbad:	d6                   	(bad)  
  3fcbae:	ff                   	(bad)  
  3fcbaf:	ff 2d d6 ff ff 2e    	jmp    FWORD PTR [rip+0x2effffd6]        # 2f3fcb8b <_end+0x2eff8b53>
  3fcbb5:	78 79                	js     3fcc30 <_init-0x43d0>
  3fcbb7:	7a 2e                	jp     3fcbe7 <_init-0x4419>
  3fcbb9:	73 6b                	jae    3fcc26 <_init-0x43da>
  3fcbbb:	65 6b 73 69 2e       	imul   esi,DWORD PTR gs:[rbx+0x69],0x2e
  3fcbc0:	65 6c                	gs ins BYTE PTR es:[rdi],dx
  3fcbc2:	66 36 34 00          	data16 ss xor al,0x0
  3fcbc6:	2e 74 65             	cs je  3fcc2e <_init-0x43d2>
  3fcbc9:	78 74                	js     3fcc3f <_init-0x43c1>
  3fcbcb:	00 70 75             	add    BYTE PTR [rax+0x75],dh
  3fcbce:	74 73                	je     3fcc43 <_init-0x43bd>
  3fcbd0:	00 00                	add    BYTE PTR [rax],al
  3fcbd2:	00 00                	add    BYTE PTR [rax],al
  3fcbd4:	0e                   	(bad)  
  3fcbd5:	ec                   	in     al,dx
  3fcbd6:	ff                   	(bad)  
  3fcbd7:	ff 0e                	dec    DWORD PTR [rsi]
  3fcbd9:	ec                   	in     al,dx
  3fcbda:	ff                   	(bad)  
  3fcbdb:	ff f2                	push   rdx
  3fcbdd:	eb ff                	jmp    3fcbde <_init-0x4422>
  3fcbdf:	ff 25 eb ff ff 0e    	jmp    QWORD PTR [rip+0xeffffeb]        # f3fcbd0 <_end+0xeff8b98>
  3fcbe5:	ec                   	in     al,dx
  3fcbe6:	ff                   	(bad)  
  3fcbe7:	ff 69 eb             	jmp    FWORD PTR [rcx-0x15]
  3fcbea:	ff                   	(bad)  
  3fcbeb:	ff                   	(bad)  
  3fcbec:	ec                   	in     al,dx
  3fcbed:	ea                   	(bad)  
  3fcbee:	ff                   	(bad)  
  3fcbef:	ff 0e                	dec    DWORD PTR [rsi]
  3fcbf1:	ec                   	in     al,dx
  3fcbf2:	ff                   	(bad)  
  3fcbf3:	ff 0e                	dec    DWORD PTR [rsi]
  3fcbf5:	ec                   	in     al,dx
  3fcbf6:	ff                   	(bad)  
  3fcbf7:	ff 0e                	dec    DWORD PTR [rsi]
  3fcbf9:	ec                   	in     al,dx
  3fcbfa:	ff                   	(bad)  
  3fcbfb:	ff 9f eb ff ff 0e    	call   FWORD PTR [rdi+0xeffffeb]
  3fcc01:	ec                   	in     al,dx
  3fcc02:	ff                   	(bad)  
  3fcc03:	ff 0e                	dec    DWORD PTR [rsi]
  3fcc05:	ec                   	in     al,dx
  3fcc06:	ff                   	(bad)  
  3fcc07:	ff 0e                	dec    DWORD PTR [rsi]
  3fcc09:	ec                   	in     al,dx
  3fcc0a:	ff                   	(bad)  
  3fcc0b:	ff 0e                	dec    DWORD PTR [rsi]
  3fcc0d:	ec                   	in     al,dx
  3fcc0e:	ff                   	(bad)  
  3fcc0f:	ff 0e                	dec    DWORD PTR [rsi]
  3fcc11:	ec                   	in     al,dx
  3fcc12:	ff                   	(bad)  
  3fcc13:	ff 0e                	dec    DWORD PTR [rsi]
  3fcc15:	ec                   	in     al,dx
  3fcc16:	ff                   	(bad)  
  3fcc17:	ff 0e                	dec    DWORD PTR [rsi]
  3fcc19:	ec                   	in     al,dx
  3fcc1a:	ff                   	(bad)  
  3fcc1b:	ff 0e                	dec    DWORD PTR [rsi]
  3fcc1d:	ec                   	in     al,dx
  3fcc1e:	ff                   	(bad)  
  3fcc1f:	ff 0e                	dec    DWORD PTR [rsi]
  3fcc21:	ec                   	in     al,dx
  3fcc22:	ff                   	(bad)  
  3fcc23:	ff 0e                	dec    DWORD PTR [rsi]
  3fcc25:	ec                   	in     al,dx
  3fcc26:	ff                   	(bad)  
  3fcc27:	ff 0e                	dec    DWORD PTR [rsi]
  3fcc29:	ec                   	in     al,dx
  3fcc2a:	ff                   	(bad)  
  3fcc2b:	ff 0e                	dec    DWORD PTR [rsi]
  3fcc2d:	ec                   	in     al,dx
  3fcc2e:	ff                   	(bad)  
  3fcc2f:	ff                   	(bad)  
  3fcc30:	bc eb ff ff 7f       	mov    esp,0x7fffffeb
  3fcc35:	45                   	rex.RB
  3fcc36:	4c                   	rex.WR
  3fcc37:	46 00 2f             	rex.RX add BYTE PTR [rdi],r13b
  3fcc3a:	73 62                	jae    3fcc9e <_init-0x4362>
  3fcc3c:	69 6e 00 2f 75 73 72 	imul   ebp,DWORD PTR [rsi+0x0],0x7273752f
  3fcc43:	2f                   	(bad)  
  3fcc44:	73 62                	jae    3fcca8 <_init-0x4358>
  3fcc46:	69 6e 00 2f 62 69 6e 	imul   ebp,DWORD PTR [rsi+0x0],0x6e69622f
  3fcc4d:	00 2f                	add    BYTE PTR [rdi],ch
  3fcc4f:	75 73                	jne    3fccc4 <_init-0x433c>
  3fcc51:	72 2f                	jb     3fcc82 <_init-0x437e>
  3fcc53:	62                   	(bad)  
  3fcc54:	69 6e 00 2e 00 76 69 	imul   ebp,DWORD PTR [rsi+0x0],0x6976002e
  3fcc5b:	72 75                	jb     3fccd2 <_init-0x432e>
  3fcc5d:	73 00                	jae    3fcc5f <_init-0x43a1>
  3fcc5f:	0a 00                	or     al,BYTE PTR [rax]
  3fcc61:	00 00                	add    BYTE PTR [rax],al
  3fcc63:	00 1b                	add    BYTE PTR [rbx],bl
  3fcc65:	5b                   	pop    rbx
  3fcc66:	30 3b                	xor    BYTE PTR [rbx],bh
  3fcc68:	31 3b                	xor    DWORD PTR [rbx],edi
  3fcc6a:	33 30                	xor    esi,DWORD PTR [rax]
  3fcc6c:	3b 34 30             	cmp    esi,DWORD PTR [rax+rsi*1]
  3fcc6f:	6d                   	ins    DWORD PTR es:[rdi],dx
  3fcc70:	40 1b 5b 30          	rex sbb ebx,DWORD PTR [rbx+0x30]
  3fcc74:	3b 33                	cmp    esi,DWORD PTR [rbx]
  3fcc76:	31 3b                	xor    DWORD PTR [rbx],edi
  3fcc78:	34 30                	xor    al,0x30
  3fcc7a:	6d                   	ins    DWORD PTR es:[rdi],dx
  3fcc7b:	38 1b                	cmp    BYTE PTR [rbx],bl
  3fcc7d:	5b                   	pop    rbx
  3fcc7e:	30 3b                	xor    BYTE PTR [rbx],bh
  3fcc80:	35 3b 33 30 3b       	xor    eax,0x3b30333b
  3fcc85:	34 30                	xor    al,0x30
  3fcc87:	6d                   	ins    DWORD PTR es:[rdi],dx
  3fcc88:	38 1b                	cmp    BYTE PTR [rbx],bl
  3fcc8a:	5b                   	pop    rbx
  3fcc8b:	30 3b                	xor    BYTE PTR [rbx],bh
  3fcc8d:	33 31                	xor    esi,DWORD PTR [rcx]
  3fcc8f:	3b 34 30             	cmp    esi,DWORD PTR [rax+rsi*1]
  3fcc92:	6d                   	ins    DWORD PTR es:[rdi],dx
  3fcc93:	40 1b 5b 30          	rex sbb ebx,DWORD PTR [rbx+0x30]
  3fcc97:	3b 35 3b 33 30 3b    	cmp    esi,DWORD PTR [rip+0x3b30333b]        # 3b6fffd8 <_end+0x3b2fbfa0>
  3fcc9d:	34 30                	xor    al,0x30
  3fcc9f:	6d                   	ins    DWORD PTR es:[rdi],dx
  3fcca0:	38 1b                	cmp    BYTE PTR [rbx],bl
  3fcca2:	5b                   	pop    rbx
  3fcca3:	30 3b                	xor    BYTE PTR [rbx],bh
  3fcca5:	33 31                	xor    esi,DWORD PTR [rcx]
  3fcca7:	3b 34 30             	cmp    esi,DWORD PTR [rax+rsi*1]
  3fccaa:	6d                   	ins    DWORD PTR es:[rdi],dx
  3fccab:	40 1b 5b 30          	rex sbb ebx,DWORD PTR [rbx+0x30]
  3fccaf:	3b 35 3b 33 30 3b    	cmp    esi,DWORD PTR [rip+0x3b30333b]        # 3b6ffff0 <_end+0x3b2fbfb8>
  3fccb5:	34 30                	xor    al,0x30
  3fccb7:	6d                   	ins    DWORD PTR es:[rdi],dx
  3fccb8:	38 1b                	cmp    BYTE PTR [rbx],bl
  3fccba:	5b                   	pop    rbx
  3fccbb:	30 3b                	xor    BYTE PTR [rbx],bh
  3fccbd:	33 31                	xor    esi,DWORD PTR [rcx]
  3fccbf:	3b 34 30             	cmp    esi,DWORD PTR [rax+rsi*1]
  3fccc2:	6d                   	ins    DWORD PTR es:[rdi],dx
  3fccc3:	40 1b 5b 30          	rex sbb ebx,DWORD PTR [rbx+0x30]
  3fccc7:	3b 35 3b 33 30 3b    	cmp    esi,DWORD PTR [rip+0x3b30333b]        # 3b700008 <_end+0x3b2fbfd0>
  3fcccd:	34 30                	xor    al,0x30
  3fcccf:	6d                   	ins    DWORD PTR es:[rdi],dx
  3fccd0:	38 1b                	cmp    BYTE PTR [rbx],bl
  3fccd2:	5b                   	pop    rbx
  3fccd3:	30 3b                	xor    BYTE PTR [rbx],bh
  3fccd5:	33 31                	xor    esi,DWORD PTR [rcx]
  3fccd7:	3b 34 30             	cmp    esi,DWORD PTR [rax+rsi*1]
  3fccda:	6d                   	ins    DWORD PTR es:[rdi],dx
  3fccdb:	40 1b 5b 30          	rex sbb ebx,DWORD PTR [rbx+0x30]
  3fccdf:	3b 35 3b 33 30 3b    	cmp    esi,DWORD PTR [rip+0x3b30333b]        # 3b700020 <_end+0x3b2fbfe8>
  3fcce5:	34 30                	xor    al,0x30
  3fcce7:	6d                   	ins    DWORD PTR es:[rdi],dx
  3fcce8:	38 1b                	cmp    BYTE PTR [rbx],bl
  3fccea:	5b                   	pop    rbx
  3fcceb:	30 3b                	xor    BYTE PTR [rbx],bh
  3fcced:	33 31                	xor    esi,DWORD PTR [rcx]
  3fccef:	3b 34 30             	cmp    esi,DWORD PTR [rax+rsi*1]
  3fccf2:	6d                   	ins    DWORD PTR es:[rdi],dx
  3fccf3:	40 1b 5b 30          	rex sbb ebx,DWORD PTR [rbx+0x30]
  3fccf7:	3b 35 3b 33 30 3b    	cmp    esi,DWORD PTR [rip+0x3b30333b]        # 3b700038 <_end+0x3b2fc000>
  3fccfd:	34 30                	xor    al,0x30
  3fccff:	6d                   	ins    DWORD PTR es:[rdi],dx
  3fcd00:	38 1b                	cmp    BYTE PTR [rbx],bl
  3fcd02:	5b                   	pop    rbx
  3fcd03:	30 3b                	xor    BYTE PTR [rbx],bh
  3fcd05:	33 31                	xor    esi,DWORD PTR [rcx]
  3fcd07:	3b 34 30             	cmp    esi,DWORD PTR [rax+rsi*1]
  3fcd0a:	6d                   	ins    DWORD PTR es:[rdi],dx
  3fcd0b:	40 1b 5b 30          	rex sbb ebx,DWORD PTR [rbx+0x30]
  3fcd0f:	3b 35 3b 33 30 3b    	cmp    esi,DWORD PTR [rip+0x3b30333b]        # 3b700050 <_end+0x3b2fc018>
  3fcd15:	34 30                	xor    al,0x30
  3fcd17:	6d                   	ins    DWORD PTR es:[rdi],dx
  3fcd18:	38 1b                	cmp    BYTE PTR [rbx],bl
  3fcd1a:	5b                   	pop    rbx
  3fcd1b:	30 3b                	xor    BYTE PTR [rbx],bh
  3fcd1d:	33 31                	xor    esi,DWORD PTR [rcx]
  3fcd1f:	3b 34 30             	cmp    esi,DWORD PTR [rax+rsi*1]
  3fcd22:	6d                   	ins    DWORD PTR es:[rdi],dx
  3fcd23:	40 1b 5b 30          	rex sbb ebx,DWORD PTR [rbx+0x30]
  3fcd27:	3b 35 3b 33 30 3b    	cmp    esi,DWORD PTR [rip+0x3b30333b]        # 3b700068 <_end+0x3b2fc030>
  3fcd2d:	34 30                	xor    al,0x30
  3fcd2f:	6d                   	ins    DWORD PTR es:[rdi],dx
  3fcd30:	38 1b                	cmp    BYTE PTR [rbx],bl
  3fcd32:	5b                   	pop    rbx
  3fcd33:	30 3b                	xor    BYTE PTR [rbx],bh
  3fcd35:	33 31                	xor    esi,DWORD PTR [rcx]
  3fcd37:	3b 34 30             	cmp    esi,DWORD PTR [rax+rsi*1]
  3fcd3a:	6d                   	ins    DWORD PTR es:[rdi],dx
  3fcd3b:	40 1b 5b 30          	rex sbb ebx,DWORD PTR [rbx+0x30]
  3fcd3f:	3b 35 3b 33 30 3b    	cmp    esi,DWORD PTR [rip+0x3b30333b]        # 3b700080 <_end+0x3b2fc048>
  3fcd45:	34 30                	xor    al,0x30
  3fcd47:	6d                   	ins    DWORD PTR es:[rdi],dx
  3fcd48:	38 1b                	cmp    BYTE PTR [rbx],bl
  3fcd4a:	5b                   	pop    rbx
  3fcd4b:	30 3b                	xor    BYTE PTR [rbx],bh
  3fcd4d:	33 31                	xor    esi,DWORD PTR [rcx]
  3fcd4f:	3b 34 30             	cmp    esi,DWORD PTR [rax+rsi*1]
  3fcd52:	6d                   	ins    DWORD PTR es:[rdi],dx
  3fcd53:	40 1b 5b 30          	rex sbb ebx,DWORD PTR [rbx+0x30]
  3fcd57:	3b 35 3b 33 30 3b    	cmp    esi,DWORD PTR [rip+0x3b30333b]        # 3b700098 <_end+0x3b2fc060>
  3fcd5d:	34 30                	xor    al,0x30
  3fcd5f:	6d                   	ins    DWORD PTR es:[rdi],dx
  3fcd60:	38 1b                	cmp    BYTE PTR [rbx],bl
  3fcd62:	5b                   	pop    rbx
  3fcd63:	30 3b                	xor    BYTE PTR [rbx],bh
  3fcd65:	33 31                	xor    esi,DWORD PTR [rcx]
  3fcd67:	3b 34 30             	cmp    esi,DWORD PTR [rax+rsi*1]
  3fcd6a:	6d                   	ins    DWORD PTR es:[rdi],dx
  3fcd6b:	40 1b 5b 30          	rex sbb ebx,DWORD PTR [rbx+0x30]
  3fcd6f:	3b 35 3b 33 30 3b    	cmp    esi,DWORD PTR [rip+0x3b30333b]        # 3b7000b0 <_end+0x3b2fc078>
  3fcd75:	34 30                	xor    al,0x30
  3fcd77:	6d                   	ins    DWORD PTR es:[rdi],dx
  3fcd78:	38 1b                	cmp    BYTE PTR [rbx],bl
  3fcd7a:	5b                   	pop    rbx
  3fcd7b:	30 3b                	xor    BYTE PTR [rbx],bh
  3fcd7d:	33 31                	xor    esi,DWORD PTR [rcx]
  3fcd7f:	3b 34 30             	cmp    esi,DWORD PTR [rax+rsi*1]
  3fcd82:	6d                   	ins    DWORD PTR es:[rdi],dx
  3fcd83:	40 1b 5b 30          	rex sbb ebx,DWORD PTR [rbx+0x30]
  3fcd87:	3b 35 3b 33 30 3b    	cmp    esi,DWORD PTR [rip+0x3b30333b]        # 3b7000c8 <_end+0x3b2fc090>
  3fcd8d:	34 30                	xor    al,0x30
  3fcd8f:	6d                   	ins    DWORD PTR es:[rdi],dx
  3fcd90:	38 1b                	cmp    BYTE PTR [rbx],bl
  3fcd92:	5b                   	pop    rbx
  3fcd93:	30 3b                	xor    BYTE PTR [rbx],bh
  3fcd95:	33 31                	xor    esi,DWORD PTR [rcx]
  3fcd97:	3b 34 30             	cmp    esi,DWORD PTR [rax+rsi*1]
  3fcd9a:	6d                   	ins    DWORD PTR es:[rdi],dx
  3fcd9b:	40 1b 5b 30          	rex sbb ebx,DWORD PTR [rbx+0x30]
  3fcd9f:	3b 35 3b 33 30 3b    	cmp    esi,DWORD PTR [rip+0x3b30333b]        # 3b7000e0 <_end+0x3b2fc0a8>
  3fcda5:	34 30                	xor    al,0x30
  3fcda7:	6d                   	ins    DWORD PTR es:[rdi],dx
  3fcda8:	38 1b                	cmp    BYTE PTR [rbx],bl
  3fcdaa:	5b                   	pop    rbx
  3fcdab:	30 3b                	xor    BYTE PTR [rbx],bh
  3fcdad:	33 31                	xor    esi,DWORD PTR [rcx]
  3fcdaf:	3b 34 30             	cmp    esi,DWORD PTR [rax+rsi*1]
  3fcdb2:	6d                   	ins    DWORD PTR es:[rdi],dx
  3fcdb3:	40 1b 5b 30          	rex sbb ebx,DWORD PTR [rbx+0x30]
  3fcdb7:	3b 35 3b 33 30 3b    	cmp    esi,DWORD PTR [rip+0x3b30333b]        # 3b7000f8 <_end+0x3b2fc0c0>
  3fcdbd:	34 30                	xor    al,0x30
  3fcdbf:	6d                   	ins    DWORD PTR es:[rdi],dx
  3fcdc0:	38 1b                	cmp    BYTE PTR [rbx],bl
  3fcdc2:	5b                   	pop    rbx
  3fcdc3:	30 3b                	xor    BYTE PTR [rbx],bh
  3fcdc5:	33 31                	xor    esi,DWORD PTR [rcx]
  3fcdc7:	3b 34 30             	cmp    esi,DWORD PTR [rax+rsi*1]
  3fcdca:	6d                   	ins    DWORD PTR es:[rdi],dx
  3fcdcb:	40 1b 5b 30          	rex sbb ebx,DWORD PTR [rbx+0x30]
  3fcdcf:	3b 35 3b 33 30 3b    	cmp    esi,DWORD PTR [rip+0x3b30333b]        # 3b700110 <_end+0x3b2fc0d8>
  3fcdd5:	34 30                	xor    al,0x30
  3fcdd7:	6d                   	ins    DWORD PTR es:[rdi],dx
  3fcdd8:	38 1b                	cmp    BYTE PTR [rbx],bl
  3fcdda:	5b                   	pop    rbx
  3fcddb:	30 3b                	xor    BYTE PTR [rbx],bh
  3fcddd:	33 31                	xor    esi,DWORD PTR [rcx]
  3fcddf:	3b 34 30             	cmp    esi,DWORD PTR [rax+rsi*1]
  3fcde2:	6d                   	ins    DWORD PTR es:[rdi],dx
  3fcde3:	40 1b 5b 30          	rex sbb ebx,DWORD PTR [rbx+0x30]
  3fcde7:	3b 35 3b 33 30 3b    	cmp    esi,DWORD PTR [rip+0x3b30333b]        # 3b700128 <_end+0x3b2fc0f0>
  3fcded:	34 30                	xor    al,0x30
  3fcdef:	6d                   	ins    DWORD PTR es:[rdi],dx
  3fcdf0:	38 1b                	cmp    BYTE PTR [rbx],bl
  3fcdf2:	5b                   	pop    rbx
  3fcdf3:	30 3b                	xor    BYTE PTR [rbx],bh
  3fcdf5:	33 31                	xor    esi,DWORD PTR [rcx]
  3fcdf7:	3b 34 30             	cmp    esi,DWORD PTR [rax+rsi*1]
  3fcdfa:	6d                   	ins    DWORD PTR es:[rdi],dx
  3fcdfb:	40 1b 5b 30          	rex sbb ebx,DWORD PTR [rbx+0x30]
  3fcdff:	3b 35 3b 33 30 3b    	cmp    esi,DWORD PTR [rip+0x3b30333b]        # 3b700140 <_end+0x3b2fc108>
  3fce05:	34 30                	xor    al,0x30
  3fce07:	6d                   	ins    DWORD PTR es:[rdi],dx
  3fce08:	38 1b                	cmp    BYTE PTR [rbx],bl
  3fce0a:	5b                   	pop    rbx
  3fce0b:	30 3b                	xor    BYTE PTR [rbx],bh
  3fce0d:	33 31                	xor    esi,DWORD PTR [rcx]
  3fce0f:	3b 34 30             	cmp    esi,DWORD PTR [rax+rsi*1]
  3fce12:	6d                   	ins    DWORD PTR es:[rdi],dx
  3fce13:	40 1b 5b 30          	rex sbb ebx,DWORD PTR [rbx+0x30]
  3fce17:	3b 35 3b 33 30 3b    	cmp    esi,DWORD PTR [rip+0x3b30333b]        # 3b700158 <_end+0x3b2fc120>
  3fce1d:	34 30                	xor    al,0x30
  3fce1f:	6d                   	ins    DWORD PTR es:[rdi],dx
  3fce20:	38 1b                	cmp    BYTE PTR [rbx],bl
  3fce22:	5b                   	pop    rbx
  3fce23:	30 3b                	xor    BYTE PTR [rbx],bh
  3fce25:	33 31                	xor    esi,DWORD PTR [rcx]
  3fce27:	3b 34 30             	cmp    esi,DWORD PTR [rax+rsi*1]
  3fce2a:	6d                   	ins    DWORD PTR es:[rdi],dx
  3fce2b:	40 1b 5b 30          	rex sbb ebx,DWORD PTR [rbx+0x30]
  3fce2f:	3b 35 3b 33 30 3b    	cmp    esi,DWORD PTR [rip+0x3b30333b]        # 3b700170 <_end+0x3b2fc138>
  3fce35:	34 30                	xor    al,0x30
  3fce37:	6d                   	ins    DWORD PTR es:[rdi],dx
  3fce38:	38 1b                	cmp    BYTE PTR [rbx],bl
  3fce3a:	5b                   	pop    rbx
  3fce3b:	30 3b                	xor    BYTE PTR [rbx],bh
  3fce3d:	33 31                	xor    esi,DWORD PTR [rcx]
  3fce3f:	3b 34 30             	cmp    esi,DWORD PTR [rax+rsi*1]
  3fce42:	6d                   	ins    DWORD PTR es:[rdi],dx
  3fce43:	40 1b 5b 30          	rex sbb ebx,DWORD PTR [rbx+0x30]
  3fce47:	3b 35 3b 33 30 3b    	cmp    esi,DWORD PTR [rip+0x3b30333b]        # 3b700188 <_end+0x3b2fc150>
  3fce4d:	34 30                	xor    al,0x30
  3fce4f:	6d                   	ins    DWORD PTR es:[rdi],dx
  3fce50:	38 1b                	cmp    BYTE PTR [rbx],bl
  3fce52:	5b                   	pop    rbx
  3fce53:	30 3b                	xor    BYTE PTR [rbx],bh
  3fce55:	33 31                	xor    esi,DWORD PTR [rcx]
  3fce57:	3b 34 30             	cmp    esi,DWORD PTR [rax+rsi*1]
  3fce5a:	6d                   	ins    DWORD PTR es:[rdi],dx
  3fce5b:	40 1b 5b 30          	rex sbb ebx,DWORD PTR [rbx+0x30]
  3fce5f:	3b 35 3b 33 30 3b    	cmp    esi,DWORD PTR [rip+0x3b30333b]        # 3b7001a0 <_end+0x3b2fc168>
  3fce65:	34 30                	xor    al,0x30
  3fce67:	6d                   	ins    DWORD PTR es:[rdi],dx
  3fce68:	38 1b                	cmp    BYTE PTR [rbx],bl
  3fce6a:	5b                   	pop    rbx
  3fce6b:	30 3b                	xor    BYTE PTR [rbx],bh
  3fce6d:	33 31                	xor    esi,DWORD PTR [rcx]
  3fce6f:	3b 34 30             	cmp    esi,DWORD PTR [rax+rsi*1]
  3fce72:	6d                   	ins    DWORD PTR es:[rdi],dx
  3fce73:	40 1b 5b 30          	rex sbb ebx,DWORD PTR [rbx+0x30]
  3fce77:	3b 35 3b 33 30 3b    	cmp    esi,DWORD PTR [rip+0x3b30333b]        # 3b7001b8 <_end+0x3b2fc180>
  3fce7d:	34 30                	xor    al,0x30
  3fce7f:	6d                   	ins    DWORD PTR es:[rdi],dx
  3fce80:	38 1b                	cmp    BYTE PTR [rbx],bl
  3fce82:	5b                   	pop    rbx
  3fce83:	30 3b                	xor    BYTE PTR [rbx],bh
  3fce85:	33 31                	xor    esi,DWORD PTR [rcx]
  3fce87:	3b 34 30             	cmp    esi,DWORD PTR [rax+rsi*1]
  3fce8a:	6d                   	ins    DWORD PTR es:[rdi],dx
  3fce8b:	40 1b 5b 30          	rex sbb ebx,DWORD PTR [rbx+0x30]
  3fce8f:	3b 35 3b 33 30 3b    	cmp    esi,DWORD PTR [rip+0x3b30333b]        # 3b7001d0 <_end+0x3b2fc198>
  3fce95:	34 30                	xor    al,0x30
  3fce97:	6d                   	ins    DWORD PTR es:[rdi],dx
  3fce98:	38 1b                	cmp    BYTE PTR [rbx],bl
  3fce9a:	5b                   	pop    rbx
  3fce9b:	30 3b                	xor    BYTE PTR [rbx],bh
  3fce9d:	33 31                	xor    esi,DWORD PTR [rcx]
  3fce9f:	3b 34 30             	cmp    esi,DWORD PTR [rax+rsi*1]
  3fcea2:	6d                   	ins    DWORD PTR es:[rdi],dx
  3fcea3:	40 1b 5b 30          	rex sbb ebx,DWORD PTR [rbx+0x30]
  3fcea7:	3b 35 3b 33 30 3b    	cmp    esi,DWORD PTR [rip+0x3b30333b]        # 3b7001e8 <_end+0x3b2fc1b0>
  3fcead:	34 30                	xor    al,0x30
  3fceaf:	6d                   	ins    DWORD PTR es:[rdi],dx
  3fceb0:	38 1b                	cmp    BYTE PTR [rbx],bl
  3fceb2:	5b                   	pop    rbx
  3fceb3:	30 3b                	xor    BYTE PTR [rbx],bh
  3fceb5:	33 31                	xor    esi,DWORD PTR [rcx]
  3fceb7:	3b 34 30             	cmp    esi,DWORD PTR [rax+rsi*1]
  3fceba:	6d                   	ins    DWORD PTR es:[rdi],dx
  3fcebb:	40 1b 5b 30          	rex sbb ebx,DWORD PTR [rbx+0x30]
  3fcebf:	6d                   	ins    DWORD PTR es:[rdi],dx
  3fcec0:	0d 0a 1b 5b 30       	or     eax,0x305b1b0a
  3fcec5:	3b 31                	cmp    esi,DWORD PTR [rcx]
  3fcec7:	3b 33                	cmp    esi,DWORD PTR [rbx]
  3fcec9:	30 3b                	xor    BYTE PTR [rbx],bh
  3fcecb:	34 30                	xor    al,0x30
  3fcecd:	6d                   	ins    DWORD PTR es:[rdi],dx
  3fcece:	40 38 38             	cmp    BYTE PTR [rax],dil
  3fced1:	38 38                	cmp    BYTE PTR [rax],bh
  3fced3:	38 38                	cmp    BYTE PTR [rax],bh
  3fced5:	38 38                	cmp    BYTE PTR [rax],bh
  3fced7:	38 38                	cmp    BYTE PTR [rax],bh
  3fced9:	38 38                	cmp    BYTE PTR [rax],bh
  3fcedb:	38 38                	cmp    BYTE PTR [rax],bh
  3fcedd:	38 38                	cmp    BYTE PTR [rax],bh
  3fcedf:	38 38                	cmp    BYTE PTR [rax],bh
  3fcee1:	38 38                	cmp    BYTE PTR [rax],bh
  3fcee3:	38 1b                	cmp    BYTE PTR [rbx],bl
  3fcee5:	5b                   	pop    rbx
  3fcee6:	30 3b                	xor    BYTE PTR [rbx],bh
  3fcee8:	33 31                	xor    esi,DWORD PTR [rcx]
  3fceea:	3b 34 30             	cmp    esi,DWORD PTR [rax+rsi*1]
  3fceed:	6d                   	ins    DWORD PTR es:[rdi],dx
  3fceee:	38 1b                	cmp    BYTE PTR [rbx],bl
  3fcef0:	5b                   	pop    rbx
  3fcef1:	30 3b                	xor    BYTE PTR [rbx],bh
  3fcef3:	35 3b 33 30 3b       	xor    eax,0x3b30333b
  3fcef8:	34 30                	xor    al,0x30
  3fcefa:	6d                   	ins    DWORD PTR es:[rdi],dx
  3fcefb:	38 1b                	cmp    BYTE PTR [rbx],bl
  3fcefd:	5b                   	pop    rbx
  3fcefe:	30 3b                	xor    BYTE PTR [rbx],bh
  3fcf00:	31 3b                	xor    DWORD PTR [rbx],edi
  3fcf02:	33 30                	xor    esi,DWORD PTR [rax]
  3fcf04:	3b 34 30             	cmp    esi,DWORD PTR [rax+rsi*1]
  3fcf07:	6d                   	ins    DWORD PTR es:[rdi],dx
  3fcf08:	38 38                	cmp    BYTE PTR [rax],bh
  3fcf0a:	38 38                	cmp    BYTE PTR [rax],bh
  3fcf0c:	1b 5b 30             	sbb    ebx,DWORD PTR [rbx+0x30]
  3fcf0f:	3b 35 3b 33 30 3b    	cmp    esi,DWORD PTR [rip+0x3b30333b]        # 3b700250 <_end+0x3b2fc218>
  3fcf15:	34 30                	xor    al,0x30
  3fcf17:	6d                   	ins    DWORD PTR es:[rdi],dx
  3fcf18:	40 1b 5b 30          	rex sbb ebx,DWORD PTR [rbx+0x30]
  3fcf1c:	3b 35 3b 33 31 3b    	cmp    esi,DWORD PTR [rip+0x3b31333b]        # 3b71025d <_end+0x3b30c225>
  3fcf22:	34 30                	xor    al,0x30
  3fcf24:	6d                   	ins    DWORD PTR es:[rdi],dx
  3fcf25:	58                   	pop    rax
  3fcf26:	1b 5b 30             	sbb    ebx,DWORD PTR [rbx+0x30]
  3fcf29:	3b 33                	cmp    esi,DWORD PTR [rbx]
  3fcf2b:	32 3b                	xor    bh,BYTE PTR [rbx]
  3fcf2d:	34 30                	xor    al,0x30
  3fcf2f:	6d                   	ins    DWORD PTR es:[rdi],dx
  3fcf30:	58                   	pop    rax
  3fcf31:	1b 5b 30             	sbb    ebx,DWORD PTR [rbx+0x30]
  3fcf34:	3b 35 3b 33 30 3b    	cmp    esi,DWORD PTR [rip+0x3b30333b]        # 3b700275 <_end+0x3b2fc23d>
  3fcf3a:	34 30                	xor    al,0x30
  3fcf3c:	6d                   	ins    DWORD PTR es:[rdi],dx
  3fcf3d:	38 1b                	cmp    BYTE PTR [rbx],bl
  3fcf3f:	5b                   	pop    rbx
  3fcf40:	30 3b                	xor    BYTE PTR [rbx],bh
  3fcf42:	33 31                	xor    esi,DWORD PTR [rcx]
  3fcf44:	3b 34 30             	cmp    esi,DWORD PTR [rax+rsi*1]
  3fcf47:	6d                   	ins    DWORD PTR es:[rdi],dx
  3fcf48:	38 1b                	cmp    BYTE PTR [rbx],bl
  3fcf4a:	5b                   	pop    rbx
  3fcf4b:	30 3b                	xor    BYTE PTR [rbx],bh
  3fcf4d:	35 3b 33 30 3b       	xor    eax,0x3b30333b
  3fcf52:	34 30                	xor    al,0x30
  3fcf54:	6d                   	ins    DWORD PTR es:[rdi],dx
  3fcf55:	38 1b                	cmp    BYTE PTR [rbx],bl
  3fcf57:	5b                   	pop    rbx
  3fcf58:	30 3b                	xor    BYTE PTR [rbx],bh
  3fcf5a:	31 3b                	xor    DWORD PTR [rbx],edi
  3fcf5c:	33 30                	xor    esi,DWORD PTR [rax]
  3fcf5e:	3b 34 30             	cmp    esi,DWORD PTR [rax+rsi*1]
  3fcf61:	6d                   	ins    DWORD PTR es:[rdi],dx
  3fcf62:	38 38                	cmp    BYTE PTR [rax],bh
  3fcf64:	38 38                	cmp    BYTE PTR [rax],bh
  3fcf66:	38 38                	cmp    BYTE PTR [rax],bh
  3fcf68:	38 38                	cmp    BYTE PTR [rax],bh
  3fcf6a:	38 38                	cmp    BYTE PTR [rax],bh
  3fcf6c:	38 38                	cmp    BYTE PTR [rax],bh
  3fcf6e:	38 38                	cmp    BYTE PTR [rax],bh
  3fcf70:	38 38                	cmp    BYTE PTR [rax],bh
  3fcf72:	1b 5b 30             	sbb    ebx,DWORD PTR [rbx+0x30]
  3fcf75:	6d                   	ins    DWORD PTR es:[rdi],dx
  3fcf76:	0d 0a 1b 5b 30       	or     eax,0x305b1b0a
  3fcf7b:	3b 31                	cmp    esi,DWORD PTR [rcx]
  3fcf7d:	3b 33                	cmp    esi,DWORD PTR [rbx]
  3fcf7f:	30 3b                	xor    BYTE PTR [rbx],bh
  3fcf81:	34 30                	xor    al,0x30
  3fcf83:	6d                   	ins    DWORD PTR es:[rdi],dx
  3fcf84:	40 1b 5b 30          	rex sbb ebx,DWORD PTR [rbx+0x30]
  3fcf88:	3b 33                	cmp    esi,DWORD PTR [rbx]
  3fcf8a:	31 3b                	xor    DWORD PTR [rbx],edi
  3fcf8c:	34 30                	xor    al,0x30
  3fcf8e:	6d                   	ins    DWORD PTR es:[rdi],dx
  3fcf8f:	38 1b                	cmp    BYTE PTR [rbx],bl
  3fcf91:	5b                   	pop    rbx
  3fcf92:	30 3b                	xor    BYTE PTR [rbx],bh
  3fcf94:	35 3b 33 30 3b       	xor    eax,0x3b30333b
  3fcf99:	34 30                	xor    al,0x30
  3fcf9b:	6d                   	ins    DWORD PTR es:[rdi],dx
  3fcf9c:	58                   	pop    rax
  3fcf9d:	1b 5b 30             	sbb    ebx,DWORD PTR [rbx+0x30]
  3fcfa0:	3b 33                	cmp    esi,DWORD PTR [rbx]
  3fcfa2:	31 3b                	xor    DWORD PTR [rbx],edi
  3fcfa4:	34 30                	xor    al,0x30
  3fcfa6:	6d                   	ins    DWORD PTR es:[rdi],dx
  3fcfa7:	38 1b                	cmp    BYTE PTR [rbx],bl
  3fcfa9:	5b                   	pop    rbx
  3fcfaa:	30 3b                	xor    BYTE PTR [rbx],bh
  3fcfac:	35 3b 33 30 3b       	xor    eax,0x3b30333b
  3fcfb1:	34 30                	xor    al,0x30
  3fcfb3:	6d                   	ins    DWORD PTR es:[rdi],dx
  3fcfb4:	58                   	pop    rax
  3fcfb5:	1b 5b 30             	sbb    ebx,DWORD PTR [rbx+0x30]
  3fcfb8:	3b 33                	cmp    esi,DWORD PTR [rbx]
  3fcfba:	31 3b                	xor    DWORD PTR [rbx],edi
  3fcfbc:	34 30                	xor    al,0x30
  3fcfbe:	6d                   	ins    DWORD PTR es:[rdi],dx
  3fcfbf:	38 1b                	cmp    BYTE PTR [rbx],bl
  3fcfc1:	5b                   	pop    rbx
  3fcfc2:	30 3b                	xor    BYTE PTR [rbx],bh
  3fcfc4:	35 3b 33 30 3b       	xor    eax,0x3b30333b
  3fcfc9:	34 30                	xor    al,0x30
  3fcfcb:	6d                   	ins    DWORD PTR es:[rdi],dx
  3fcfcc:	58                   	pop    rax
  3fcfcd:	1b 5b 30             	sbb    ebx,DWORD PTR [rbx+0x30]
  3fcfd0:	3b 33                	cmp    esi,DWORD PTR [rbx]
  3fcfd2:	31 3b                	xor    DWORD PTR [rbx],edi
  3fcfd4:	34 30                	xor    al,0x30
  3fcfd6:	6d                   	ins    DWORD PTR es:[rdi],dx
  3fcfd7:	38 1b                	cmp    BYTE PTR [rbx],bl
  3fcfd9:	5b                   	pop    rbx
  3fcfda:	30 3b                	xor    BYTE PTR [rbx],bh
  3fcfdc:	35 3b 33 30 3b       	xor    eax,0x3b30333b
  3fcfe1:	34 30                	xor    al,0x30
  3fcfe3:	6d                   	ins    DWORD PTR es:[rdi],dx
  3fcfe4:	58                   	pop    rax
  3fcfe5:	1b 5b 30             	sbb    ebx,DWORD PTR [rbx+0x30]
  3fcfe8:	3b 33                	cmp    esi,DWORD PTR [rbx]
  3fcfea:	31 3b                	xor    DWORD PTR [rbx],edi
  3fcfec:	34 30                	xor    al,0x30
  3fcfee:	6d                   	ins    DWORD PTR es:[rdi],dx
  3fcfef:	38 1b                	cmp    BYTE PTR [rbx],bl
  3fcff1:	5b                   	pop    rbx
  3fcff2:	30 3b                	xor    BYTE PTR [rbx],bh
  3fcff4:	35 3b 33 30 3b       	xor    eax,0x3b30333b
  3fcff9:	34 30                	xor    al,0x30
  3fcffb:	6d                   	ins    DWORD PTR es:[rdi],dx
  3fcffc:	58                   	pop    rax
  3fcffd:	1b 5b 30             	sbb    ebx,DWORD PTR [rbx+0x30]
  3fd000:	3b 33                	cmp    esi,DWORD PTR [rbx]
  3fd002:	31 3b                	xor    DWORD PTR [rbx],edi
  3fd004:	34 30                	xor    al,0x30
  3fd006:	6d                   	ins    DWORD PTR es:[rdi],dx
  3fd007:	38 1b                	cmp    BYTE PTR [rbx],bl
  3fd009:	5b                   	pop    rbx
  3fd00a:	30 3b                	xor    BYTE PTR [rbx],bh
  3fd00c:	31 3b                	xor    DWORD PTR [rbx],edi
  3fd00e:	33 30                	xor    esi,DWORD PTR [rax]
  3fd010:	3b 34 30             	cmp    esi,DWORD PTR [rax+rsi*1]
  3fd013:	6d                   	ins    DWORD PTR es:[rdi],dx
  3fd014:	38 1b                	cmp    BYTE PTR [rbx],bl
  3fd016:	5b                   	pop    rbx
  3fd017:	30 3b                	xor    BYTE PTR [rbx],bh
  3fd019:	33 30                	xor    esi,DWORD PTR [rax]
  3fd01b:	3b 34 31             	cmp    esi,DWORD PTR [rcx+rsi*1]
  3fd01e:	6d                   	ins    DWORD PTR es:[rdi],dx
  3fd01f:	38 1b                	cmp    BYTE PTR [rbx],bl
  3fd021:	5b                   	pop    rbx
  3fd022:	30 3b                	xor    BYTE PTR [rbx],bh
  3fd024:	35 3b 33 32 3b       	xor    eax,0x3b32333b
  3fd029:	34 30                	xor    al,0x30
  3fd02b:	6d                   	ins    DWORD PTR es:[rdi],dx
  3fd02c:	53                   	push   rbx
  3fd02d:	1b 5b 30             	sbb    ebx,DWORD PTR [rbx+0x30]
  3fd030:	3b 31                	cmp    esi,DWORD PTR [rcx]
  3fd032:	3b 33                	cmp    esi,DWORD PTR [rbx]
  3fd034:	30 3b                	xor    BYTE PTR [rbx],bh
  3fd036:	34 31                	xor    al,0x31
  3fd038:	6d                   	ins    DWORD PTR es:[rdi],dx
  3fd039:	38 1b                	cmp    BYTE PTR [rbx],bl
  3fd03b:	5b                   	pop    rbx
  3fd03c:	30 3b                	xor    BYTE PTR [rbx],bh
  3fd03e:	33 31                	xor    esi,DWORD PTR [rcx]
  3fd040:	3b 34 30             	cmp    esi,DWORD PTR [rax+rsi*1]
  3fd043:	6d                   	ins    DWORD PTR es:[rdi],dx
  3fd044:	58                   	pop    rax
  3fd045:	1b 5b 30             	sbb    ebx,DWORD PTR [rbx+0x30]
  3fd048:	3b 35 3b 33 30 3b    	cmp    esi,DWORD PTR [rip+0x3b30333b]        # 3b700389 <_end+0x3b2fc351>
  3fd04e:	34 30                	xor    al,0x30
  3fd050:	6d                   	ins    DWORD PTR es:[rdi],dx
  3fd051:	58                   	pop    rax
  3fd052:	1b 5b 30             	sbb    ebx,DWORD PTR [rbx+0x30]
  3fd055:	3b 31                	cmp    esi,DWORD PTR [rcx]
  3fd057:	3b 33                	cmp    esi,DWORD PTR [rbx]
  3fd059:	30 3b                	xor    BYTE PTR [rbx],bh
  3fd05b:	34 31                	xor    al,0x31
  3fd05d:	6d                   	ins    DWORD PTR es:[rdi],dx
  3fd05e:	38 1b                	cmp    BYTE PTR [rbx],bl
  3fd060:	5b                   	pop    rbx
  3fd061:	30 3b                	xor    BYTE PTR [rbx],bh
  3fd063:	35 3b 33 33 3b       	xor    eax,0x3b33333b
  3fd068:	34 30                	xor    al,0x30
  3fd06a:	6d                   	ins    DWORD PTR es:[rdi],dx
  3fd06b:	25 1b 5b 30 3b       	and    eax,0x3b305b1b
  3fd070:	31 3b                	xor    DWORD PTR [rbx],edi
  3fd072:	33 30                	xor    esi,DWORD PTR [rax]
  3fd074:	3b 34 37             	cmp    esi,DWORD PTR [rdi+rsi*1]
  3fd077:	6d                   	ins    DWORD PTR es:[rdi],dx
  3fd078:	53                   	push   rbx
  3fd079:	1b 5b 30             	sbb    ebx,DWORD PTR [rbx+0x30]
  3fd07c:	3b 35 3b 33 37 3b    	cmp    esi,DWORD PTR [rip+0x3b37333b]        # 3b7703bd <_end+0x3b36c385>
  3fd082:	34 30                	xor    al,0x30
  3fd084:	6d                   	ins    DWORD PTR es:[rdi],dx
  3fd085:	38 1b                	cmp    BYTE PTR [rbx],bl
  3fd087:	5b                   	pop    rbx
  3fd088:	30 3b                	xor    BYTE PTR [rbx],bh
  3fd08a:	35 3b 33 33 3b       	xor    eax,0x3b33333b
  3fd08f:	34 30                	xor    al,0x30
  3fd091:	6d                   	ins    DWORD PTR es:[rdi],dx
  3fd092:	3a 1b                	cmp    bl,BYTE PTR [rbx]
  3fd094:	5b                   	pop    rbx
  3fd095:	30 3b                	xor    BYTE PTR [rbx],bh
  3fd097:	31 3b                	xor    DWORD PTR [rbx],edi
  3fd099:	33 37                	xor    esi,DWORD PTR [rdi]
  3fd09b:	3b 34 37             	cmp    esi,DWORD PTR [rdi+rsi*1]
  3fd09e:	6d                   	ins    DWORD PTR es:[rdi],dx
  3fd09f:	53                   	push   rbx
  3fd0a0:	1b 5b 30             	sbb    ebx,DWORD PTR [rbx+0x30]
  3fd0a3:	3b 35 3b 33 33 3b    	cmp    esi,DWORD PTR [rip+0x3b33333b]        # 3b7303e4 <_end+0x3b32c3ac>
  3fd0a9:	34 30                	xor    al,0x30
  3fd0ab:	6d                   	ins    DWORD PTR es:[rdi],dx
  3fd0ac:	3b 74 2e 38          	cmp    esi,DWORD PTR [rsi+rbp*1+0x38]
  3fd0b0:	3a 20                	cmp    ah,BYTE PTR [rax]
  3fd0b2:	1b 5b 30             	sbb    ebx,DWORD PTR [rbx+0x30]
  3fd0b5:	3b 31                	cmp    esi,DWORD PTR [rcx]
  3fd0b7:	3b 33                	cmp    esi,DWORD PTR [rbx]
  3fd0b9:	37                   	(bad)  
  3fd0ba:	3b 34 37             	cmp    esi,DWORD PTR [rdi+rsi*1]
  3fd0bd:	6d                   	ins    DWORD PTR es:[rdi],dx
  3fd0be:	20 1b                	and    BYTE PTR [rbx],bl
  3fd0c0:	5b                   	pop    rbx
  3fd0c1:	30 3b                	xor    BYTE PTR [rbx],bh
  3fd0c3:	35 3b 33 33 3b       	xor    eax,0x3b33333b
  3fd0c8:	34 30                	xor    al,0x30
  3fd0ca:	6d                   	ins    DWORD PTR es:[rdi],dx
  3fd0cb:	40 25 1b 5b 30 3b    	rex and eax,0x3b305b1b
  3fd0d1:	35 3b 33 30 3b       	xor    eax,0x3b30333b
  3fd0d6:	34 30                	xor    al,0x30
  3fd0d8:	6d                   	ins    DWORD PTR es:[rdi],dx
  3fd0d9:	58                   	pop    rax
  3fd0da:	1b 5b 30             	sbb    ebx,DWORD PTR [rbx+0x30]
  3fd0dd:	3b 35 3b 33 31 3b    	cmp    esi,DWORD PTR [rip+0x3b31333b]        # 3b71041e <_end+0x3b30c3e6>
  3fd0e3:	34 30                	xor    al,0x30
  3fd0e5:	6d                   	ins    DWORD PTR es:[rdi],dx
  3fd0e6:	38 1b                	cmp    BYTE PTR [rbx],bl
  3fd0e8:	5b                   	pop    rbx
  3fd0e9:	30 3b                	xor    BYTE PTR [rbx],bh
  3fd0eb:	33 31                	xor    esi,DWORD PTR [rcx]
  3fd0ed:	3b 34 30             	cmp    esi,DWORD PTR [rax+rsi*1]
  3fd0f0:	6d                   	ins    DWORD PTR es:[rdi],dx
  3fd0f1:	58                   	pop    rax
  3fd0f2:	1b 5b 30             	sbb    ebx,DWORD PTR [rbx+0x30]
  3fd0f5:	3b 35 3b 33 30 3b    	cmp    esi,DWORD PTR [rip+0x3b30333b]        # 3b700436 <_end+0x3b2fc3fe>
  3fd0fb:	34 30                	xor    al,0x30
  3fd0fd:	6d                   	ins    DWORD PTR es:[rdi],dx
  3fd0fe:	58                   	pop    rax
  3fd0ff:	1b 5b 30             	sbb    ebx,DWORD PTR [rbx+0x30]
  3fd102:	3b 33                	cmp    esi,DWORD PTR [rbx]
  3fd104:	31 3b                	xor    DWORD PTR [rbx],edi
  3fd106:	34 30                	xor    al,0x30
  3fd108:	6d                   	ins    DWORD PTR es:[rdi],dx
  3fd109:	38 1b                	cmp    BYTE PTR [rbx],bl
  3fd10b:	5b                   	pop    rbx
  3fd10c:	30 3b                	xor    BYTE PTR [rbx],bh
  3fd10e:	35 3b 33 30 3b       	xor    eax,0x3b30333b
  3fd113:	34 30                	xor    al,0x30
  3fd115:	6d                   	ins    DWORD PTR es:[rdi],dx
  3fd116:	58                   	pop    rax
  3fd117:	1b 5b 30             	sbb    ebx,DWORD PTR [rbx+0x30]
  3fd11a:	3b 33                	cmp    esi,DWORD PTR [rbx]
  3fd11c:	31 3b                	xor    DWORD PTR [rbx],edi
  3fd11e:	34 30                	xor    al,0x30
  3fd120:	6d                   	ins    DWORD PTR es:[rdi],dx
  3fd121:	38 1b                	cmp    BYTE PTR [rbx],bl
  3fd123:	5b                   	pop    rbx
  3fd124:	30 3b                	xor    BYTE PTR [rbx],bh
  3fd126:	35 3b 33 30 3b       	xor    eax,0x3b30333b
  3fd12b:	34 30                	xor    al,0x30
  3fd12d:	6d                   	ins    DWORD PTR es:[rdi],dx
  3fd12e:	58                   	pop    rax
  3fd12f:	1b 5b 30             	sbb    ebx,DWORD PTR [rbx+0x30]
  3fd132:	3b 33                	cmp    esi,DWORD PTR [rbx]
  3fd134:	31 3b                	xor    DWORD PTR [rbx],edi
  3fd136:	34 30                	xor    al,0x30
  3fd138:	6d                   	ins    DWORD PTR es:[rdi],dx
  3fd139:	38 1b                	cmp    BYTE PTR [rbx],bl
  3fd13b:	5b                   	pop    rbx
  3fd13c:	30 3b                	xor    BYTE PTR [rbx],bh
  3fd13e:	35 3b 33 30 3b       	xor    eax,0x3b30333b
  3fd143:	34 30                	xor    al,0x30
  3fd145:	6d                   	ins    DWORD PTR es:[rdi],dx
  3fd146:	58                   	pop    rax
  3fd147:	1b 5b 30             	sbb    ebx,DWORD PTR [rbx+0x30]
  3fd14a:	3b 33                	cmp    esi,DWORD PTR [rbx]
  3fd14c:	31 3b                	xor    DWORD PTR [rbx],edi
  3fd14e:	34 30                	xor    al,0x30
  3fd150:	6d                   	ins    DWORD PTR es:[rdi],dx
  3fd151:	38 1b                	cmp    BYTE PTR [rbx],bl
  3fd153:	5b                   	pop    rbx
  3fd154:	30 3b                	xor    BYTE PTR [rbx],bh
  3fd156:	35 3b 33 30 3b       	xor    eax,0x3b30333b
  3fd15b:	34 30                	xor    al,0x30
  3fd15d:	6d                   	ins    DWORD PTR es:[rdi],dx
  3fd15e:	58                   	pop    rax
  3fd15f:	1b 5b 30             	sbb    ebx,DWORD PTR [rbx+0x30]
  3fd162:	3b 33                	cmp    esi,DWORD PTR [rbx]
  3fd164:	31 3b                	xor    DWORD PTR [rbx],edi
  3fd166:	34 30                	xor    al,0x30
  3fd168:	6d                   	ins    DWORD PTR es:[rdi],dx
  3fd169:	38 1b                	cmp    BYTE PTR [rbx],bl
  3fd16b:	5b                   	pop    rbx
  3fd16c:	30 3b                	xor    BYTE PTR [rbx],bh
  3fd16e:	35 3b 33 30 3b       	xor    eax,0x3b30333b
  3fd173:	34 30                	xor    al,0x30
  3fd175:	6d                   	ins    DWORD PTR es:[rdi],dx
  3fd176:	58                   	pop    rax
  3fd177:	1b 5b 30             	sbb    ebx,DWORD PTR [rbx+0x30]
  3fd17a:	3b 33                	cmp    esi,DWORD PTR [rbx]
  3fd17c:	31 3b                	xor    DWORD PTR [rbx],edi
  3fd17e:	34 30                	xor    al,0x30
  3fd180:	6d                   	ins    DWORD PTR es:[rdi],dx
  3fd181:	38 1b                	cmp    BYTE PTR [rbx],bl
  3fd183:	5b                   	pop    rbx
  3fd184:	30 3b                	xor    BYTE PTR [rbx],bh
  3fd186:	35 3b 33 30 3b       	xor    eax,0x3b30333b
  3fd18b:	34 30                	xor    al,0x30
  3fd18d:	6d                   	ins    DWORD PTR es:[rdi],dx
  3fd18e:	58                   	pop    rax
  3fd18f:	1b 5b 30             	sbb    ebx,DWORD PTR [rbx+0x30]
  3fd192:	3b 33                	cmp    esi,DWORD PTR [rbx]
  3fd194:	31 3b                	xor    DWORD PTR [rbx],edi
  3fd196:	34 30                	xor    al,0x30
  3fd198:	6d                   	ins    DWORD PTR es:[rdi],dx
  3fd199:	38 1b                	cmp    BYTE PTR [rbx],bl
  3fd19b:	5b                   	pop    rbx
  3fd19c:	30 6d 0d             	xor    BYTE PTR [rbp+0xd],ch
  3fd19f:	0a 1b                	or     bl,BYTE PTR [rbx]
  3fd1a1:	5b                   	pop    rbx
  3fd1a2:	30 3b                	xor    BYTE PTR [rbx],bh
  3fd1a4:	31 3b                	xor    DWORD PTR [rbx],edi
  3fd1a6:	33 30                	xor    esi,DWORD PTR [rax]
  3fd1a8:	3b 34 30             	cmp    esi,DWORD PTR [rax+rsi*1]
  3fd1ab:	6d                   	ins    DWORD PTR es:[rdi],dx
  3fd1ac:	40 38 1b             	cmp    BYTE PTR [rbx],bl
  3fd1af:	5b                   	pop    rbx
  3fd1b0:	30 3b                	xor    BYTE PTR [rbx],bh
  3fd1b2:	33 31                	xor    esi,DWORD PTR [rcx]
  3fd1b4:	3b 34 30             	cmp    esi,DWORD PTR [rax+rsi*1]
  3fd1b7:	6d                   	ins    DWORD PTR es:[rdi],dx
  3fd1b8:	38 1b                	cmp    BYTE PTR [rbx],bl
  3fd1ba:	5b                   	pop    rbx
  3fd1bb:	30 3b                	xor    BYTE PTR [rbx],bh
  3fd1bd:	35 3b 33 32 3b       	xor    eax,0x3b32333b
  3fd1c2:	34 30                	xor    al,0x30
  3fd1c4:	6d                   	ins    DWORD PTR es:[rdi],dx
  3fd1c5:	40 1b 5b 30          	rex sbb ebx,DWORD PTR [rbx+0x30]
  3fd1c9:	3b 33                	cmp    esi,DWORD PTR [rbx]
  3fd1cb:	31 3b                	xor    DWORD PTR [rbx],edi
  3fd1cd:	34 30                	xor    al,0x30
  3fd1cf:	6d                   	ins    DWORD PTR es:[rdi],dx
  3fd1d0:	40 1b 5b 30          	rex sbb ebx,DWORD PTR [rbx+0x30]
  3fd1d4:	3b 31                	cmp    esi,DWORD PTR [rcx]
  3fd1d6:	3b 33                	cmp    esi,DWORD PTR [rbx]
  3fd1d8:	30 3b                	xor    BYTE PTR [rbx],bh
  3fd1da:	34 30                	xor    al,0x30
  3fd1dc:	6d                   	ins    DWORD PTR es:[rdi],dx
  3fd1dd:	38 1b                	cmp    BYTE PTR [rbx],bl
  3fd1df:	5b                   	pop    rbx
  3fd1e0:	30 3b                	xor    BYTE PTR [rbx],bh
  3fd1e2:	33 31                	xor    esi,DWORD PTR [rcx]
  3fd1e4:	3b 34 30             	cmp    esi,DWORD PTR [rax+rsi*1]
  3fd1e7:	6d                   	ins    DWORD PTR es:[rdi],dx
  3fd1e8:	38 1b                	cmp    BYTE PTR [rbx],bl
  3fd1ea:	5b                   	pop    rbx
  3fd1eb:	30 3b                	xor    BYTE PTR [rbx],bh
  3fd1ed:	35 3b 33 32 3b       	xor    eax,0x3b32333b
  3fd1f2:	34 30                	xor    al,0x30
  3fd1f4:	6d                   	ins    DWORD PTR es:[rdi],dx
  3fd1f5:	38 1b                	cmp    BYTE PTR [rbx],bl
  3fd1f7:	5b                   	pop    rbx
  3fd1f8:	30 3b                	xor    BYTE PTR [rbx],bh
  3fd1fa:	35 3b 33 31 3b       	xor    eax,0x3b31333b
  3fd1ff:	34 30                	xor    al,0x30
  3fd201:	6d                   	ins    DWORD PTR es:[rdi],dx
  3fd202:	40 1b 5b 30          	rex sbb ebx,DWORD PTR [rbx+0x30]
  3fd206:	3b 35 3b 33 33 3b    	cmp    esi,DWORD PTR [rip+0x3b33333b]        # 3b730547 <_end+0x3b32c50f>
  3fd20c:	34 30                	xor    al,0x30
  3fd20e:	6d                   	ins    DWORD PTR es:[rdi],dx
  3fd20f:	38 1b                	cmp    BYTE PTR [rbx],bl
  3fd211:	5b                   	pop    rbx
  3fd212:	30 3b                	xor    BYTE PTR [rbx],bh
  3fd214:	31 3b                	xor    DWORD PTR [rbx],edi
  3fd216:	33 30                	xor    esi,DWORD PTR [rax]
  3fd218:	3b 34 30             	cmp    esi,DWORD PTR [rax+rsi*1]
  3fd21b:	6d                   	ins    DWORD PTR es:[rdi],dx
  3fd21c:	38 1b                	cmp    BYTE PTR [rbx],bl
  3fd21e:	5b                   	pop    rbx
  3fd21f:	30 3b                	xor    BYTE PTR [rbx],bh
  3fd221:	35 3b 33 33 3b       	xor    eax,0x3b33333b
  3fd226:	34 30                	xor    al,0x30
  3fd228:	6d                   	ins    DWORD PTR es:[rdi],dx
  3fd229:	53                   	push   rbx
  3fd22a:	20 1b                	and    BYTE PTR [rbx],bl
  3fd22c:	5b                   	pop    rbx
  3fd22d:	30 3b                	xor    BYTE PTR [rbx],bh
  3fd22f:	31 3b                	xor    DWORD PTR [rbx],edi
  3fd231:	33 30                	xor    esi,DWORD PTR [rax]
  3fd233:	3b 34 37             	cmp    esi,DWORD PTR [rdi+rsi*1]
  3fd236:	6d                   	ins    DWORD PTR es:[rdi],dx
  3fd237:	20 1b                	and    BYTE PTR [rbx],bl
  3fd239:	5b                   	pop    rbx
  3fd23a:	30 3b                	xor    BYTE PTR [rbx],bh
  3fd23c:	31 3b                	xor    DWORD PTR [rbx],edi
  3fd23e:	33 37                	xor    esi,DWORD PTR [rdi]
  3fd240:	3b 34 37             	cmp    esi,DWORD PTR [rdi+rsi*1]
  3fd243:	6d                   	ins    DWORD PTR es:[rdi],dx
  3fd244:	74 1b                	je     3fd261 <_init-0x3d9f>
  3fd246:	5b                   	pop    rbx
  3fd247:	30 3b                	xor    BYTE PTR [rbx],bh
  3fd249:	31 3b                	xor    DWORD PTR [rbx],edi
  3fd24b:	33 30                	xor    esi,DWORD PTR [rax]
  3fd24d:	3b 34 37             	cmp    esi,DWORD PTR [rdi+rsi*1]
  3fd250:	6d                   	ins    DWORD PTR es:[rdi],dx
  3fd251:	2e 1b 5b 30          	sbb    ebx,DWORD PTR cs:[rbx+0x30]
  3fd255:	3b 35 3b 33 33 3b    	cmp    esi,DWORD PTR [rip+0x3b33333b]        # 3b730596 <_end+0x3b32c55e>
  3fd25b:	34 30                	xor    al,0x30
  3fd25d:	6d                   	ins    DWORD PTR es:[rdi],dx
  3fd25e:	38 1b                	cmp    BYTE PTR [rbx],bl
  3fd260:	5b                   	pop    rbx
  3fd261:	30 3b                	xor    BYTE PTR [rbx],bh
  3fd263:	33 31                	xor    esi,DWORD PTR [rcx]
  3fd265:	3b 34 30             	cmp    esi,DWORD PTR [rax+rsi*1]
  3fd268:	6d                   	ins    DWORD PTR es:[rdi],dx
  3fd269:	25 1b 5b 30 3b       	and    eax,0x3b305b1b
  3fd26e:	35 3b 33 32 3b       	xor    eax,0x3b32333b
  3fd273:	34 30                	xor    al,0x30
  3fd275:	6d                   	ins    DWORD PTR es:[rdi],dx
  3fd276:	58                   	pop    rax
  3fd277:	1b 5b 30             	sbb    ebx,DWORD PTR [rbx+0x30]
  3fd27a:	3b 31                	cmp    esi,DWORD PTR [rcx]
  3fd27c:	3b 33                	cmp    esi,DWORD PTR [rbx]
  3fd27e:	37                   	(bad)  
  3fd27f:	3b 34 37             	cmp    esi,DWORD PTR [rdi+rsi*1]
  3fd282:	6d                   	ins    DWORD PTR es:[rdi],dx
  3fd283:	53                   	push   rbx
  3fd284:	53                   	push   rbx
  3fd285:	1b 5b 30             	sbb    ebx,DWORD PTR [rbx+0x30]
  3fd288:	3b 31                	cmp    esi,DWORD PTR [rcx]
  3fd28a:	3b 33                	cmp    esi,DWORD PTR [rbx]
  3fd28c:	30 3b                	xor    BYTE PTR [rbx],bh
  3fd28e:	34 37                	xor    al,0x37
  3fd290:	6d                   	ins    DWORD PTR es:[rdi],dx
  3fd291:	20 1b                	and    BYTE PTR [rbx],bl
  3fd293:	5b                   	pop    rbx
  3fd294:	30 3b                	xor    BYTE PTR [rbx],bh
  3fd296:	35 3b 33 33 3b       	xor    eax,0x3b33333b
  3fd29b:	34 30                	xor    al,0x30
  3fd29d:	6d                   	ins    DWORD PTR es:[rdi],dx
  3fd29e:	25 1b 5b 30 3b       	and    eax,0x3b305b1b
  3fd2a3:	31 3b                	xor    DWORD PTR [rbx],edi
  3fd2a5:	33 37                	xor    esi,DWORD PTR [rdi]
  3fd2a7:	3b 34 37             	cmp    esi,DWORD PTR [rdi+rsi*1]
  3fd2aa:	6d                   	ins    DWORD PTR es:[rdi],dx
  3fd2ab:	38 1b                	cmp    BYTE PTR [rbx],bl
  3fd2ad:	5b                   	pop    rbx
  3fd2ae:	30 3b                	xor    BYTE PTR [rbx],bh
  3fd2b0:	31 3b                	xor    DWORD PTR [rbx],edi
  3fd2b2:	33 30                	xor    esi,DWORD PTR [rax]
  3fd2b4:	3b 34 37             	cmp    esi,DWORD PTR [rdi+rsi*1]
  3fd2b7:	6d                   	ins    DWORD PTR es:[rdi],dx
  3fd2b8:	20 1b                	and    BYTE PTR [rbx],bl
  3fd2ba:	5b                   	pop    rbx
  3fd2bb:	30 3b                	xor    BYTE PTR [rbx],bh
  3fd2bd:	31 3b                	xor    DWORD PTR [rbx],edi
  3fd2bf:	33 37                	xor    esi,DWORD PTR [rdi]
  3fd2c1:	3b 34 37             	cmp    esi,DWORD PTR [rdi+rsi*1]
  3fd2c4:	6d                   	ins    DWORD PTR es:[rdi],dx
  3fd2c5:	3a 1b                	cmp    bl,BYTE PTR [rbx]
  3fd2c7:	5b                   	pop    rbx
  3fd2c8:	30 3b                	xor    BYTE PTR [rbx],bh
  3fd2ca:	35 3b 33 33 3b       	xor    eax,0x3b33333b
  3fd2cf:	34 30                	xor    al,0x30
  3fd2d1:	6d                   	ins    DWORD PTR es:[rdi],dx
  3fd2d2:	2e 1b 5b 30          	sbb    ebx,DWORD PTR cs:[rbx+0x30]
  3fd2d6:	3b 31                	cmp    esi,DWORD PTR [rcx]
  3fd2d8:	3b 33                	cmp    esi,DWORD PTR [rbx]
  3fd2da:	37                   	(bad)  
  3fd2db:	3b 34 37             	cmp    esi,DWORD PTR [rdi+rsi*1]
  3fd2de:	6d                   	ins    DWORD PTR es:[rdi],dx
  3fd2df:	20 1b                	and    BYTE PTR [rbx],bl
  3fd2e1:	5b                   	pop    rbx
  3fd2e2:	30 3b                	xor    BYTE PTR [rbx],bh
  3fd2e4:	35 3b 33 37 3b       	xor    eax,0x3b37333b
  3fd2e9:	34 37                	xor    al,0x37
  3fd2eb:	6d                   	ins    DWORD PTR es:[rdi],dx
  3fd2ec:	58                   	pop    rax
  3fd2ed:	1b 5b 30             	sbb    ebx,DWORD PTR [rbx+0x30]
  3fd2f0:	3b 31                	cmp    esi,DWORD PTR [rcx]
  3fd2f2:	3b 33                	cmp    esi,DWORD PTR [rbx]
  3fd2f4:	37                   	(bad)  
  3fd2f5:	3b 34 37             	cmp    esi,DWORD PTR [rdi+rsi*1]
  3fd2f8:	6d                   	ins    DWORD PTR es:[rdi],dx
  3fd2f9:	2e 1b 5b 30          	sbb    ebx,DWORD PTR cs:[rbx+0x30]
  3fd2fd:	3b 35 3b 33 37 3b    	cmp    esi,DWORD PTR [rip+0x3b37333b]        # 3b77063e <_end+0x3b36c606>
  3fd303:	34 30                	xor    al,0x30
  3fd305:	6d                   	ins    DWORD PTR es:[rdi],dx
  3fd306:	40 1b 5b 30          	rex sbb ebx,DWORD PTR [rbx+0x30]
  3fd30a:	3b 35 3b 33 35 3b    	cmp    esi,DWORD PTR [rip+0x3b35333b]        # 3b75064b <_end+0x3b34c613>
  3fd310:	34 30                	xor    al,0x30
  3fd312:	6d                   	ins    DWORD PTR es:[rdi],dx
  3fd313:	25 1b 5b 30 3b       	and    eax,0x3b305b1b
  3fd318:	31 3b                	xor    DWORD PTR [rbx],edi
  3fd31a:	33 30                	xor    esi,DWORD PTR [rax]
  3fd31c:	3b 34 37             	cmp    esi,DWORD PTR [rdi+rsi*1]
  3fd31f:	6d                   	ins    DWORD PTR es:[rdi],dx
  3fd320:	38 1b                	cmp    BYTE PTR [rbx],bl
  3fd322:	5b                   	pop    rbx
  3fd323:	30 3b                	xor    BYTE PTR [rbx],bh
  3fd325:	31 3b                	xor    DWORD PTR [rbx],edi
  3fd327:	33 37                	xor    esi,DWORD PTR [rdi]
  3fd329:	3b 34 37             	cmp    esi,DWORD PTR [rdi+rsi*1]
  3fd32c:	6d                   	ins    DWORD PTR es:[rdi],dx
  3fd32d:	74 1b                	je     3fd34a <_init-0x3cb6>
  3fd32f:	5b                   	pop    rbx
  3fd330:	30 3b                	xor    BYTE PTR [rbx],bh
  3fd332:	35 3b 33 33 3b       	xor    eax,0x3b33333b
  3fd337:	34 30                	xor    al,0x30
  3fd339:	6d                   	ins    DWORD PTR es:[rdi],dx
  3fd33a:	3b 1b                	cmp    ebx,DWORD PTR [rbx]
  3fd33c:	5b                   	pop    rbx
  3fd33d:	30 3b                	xor    BYTE PTR [rbx],bh
  3fd33f:	31 3b                	xor    DWORD PTR [rbx],edi
  3fd341:	33 30                	xor    esi,DWORD PTR [rax]
  3fd343:	3b 34 37             	cmp    esi,DWORD PTR [rdi+rsi*1]
  3fd346:	6d                   	ins    DWORD PTR es:[rdi],dx
  3fd347:	53                   	push   rbx
  3fd348:	1b 5b 30             	sbb    ebx,DWORD PTR [rbx+0x30]
  3fd34b:	3b 35 3b 33 33 3b    	cmp    esi,DWORD PTR [rip+0x3b33333b]        # 3b73068c <_end+0x3b32c654>
  3fd351:	34 30                	xor    al,0x30
  3fd353:	6d                   	ins    DWORD PTR es:[rdi],dx
  3fd354:	38 40 58             	cmp    BYTE PTR [rax+0x58],al
  3fd357:	1b 5b 30             	sbb    ebx,DWORD PTR [rbx+0x30]
  3fd35a:	3b 35 3b 33 30 3b    	cmp    esi,DWORD PTR [rip+0x3b30333b]        # 3b70069b <_end+0x3b2fc663>
  3fd360:	34 30                	xor    al,0x30
  3fd362:	6d                   	ins    DWORD PTR es:[rdi],dx
  3fd363:	58                   	pop    rax
  3fd364:	40 1b 5b 30          	rex sbb ebx,DWORD PTR [rbx+0x30]
  3fd368:	3b 33                	cmp    esi,DWORD PTR [rbx]
  3fd36a:	31 3b                	xor    DWORD PTR [rbx],edi
  3fd36c:	34 30                	xor    al,0x30
  3fd36e:	6d                   	ins    DWORD PTR es:[rdi],dx
  3fd36f:	38 1b                	cmp    BYTE PTR [rbx],bl
  3fd371:	5b                   	pop    rbx
  3fd372:	30 3b                	xor    BYTE PTR [rbx],bh
  3fd374:	31 3b                	xor    DWORD PTR [rbx],edi
  3fd376:	33 30                	xor    esi,DWORD PTR [rax]
  3fd378:	3b 34 30             	cmp    esi,DWORD PTR [rax+rsi*1]
  3fd37b:	6d                   	ins    DWORD PTR es:[rdi],dx
  3fd37c:	38 38                	cmp    BYTE PTR [rax],bh
  3fd37e:	1b 5b 30             	sbb    ebx,DWORD PTR [rbx+0x30]
  3fd381:	3b 33                	cmp    esi,DWORD PTR [rbx]
  3fd383:	31 3b                	xor    DWORD PTR [rbx],edi
  3fd385:	34 30                	xor    al,0x30
  3fd387:	6d                   	ins    DWORD PTR es:[rdi],dx
  3fd388:	38 1b                	cmp    BYTE PTR [rbx],bl
  3fd38a:	5b                   	pop    rbx
  3fd38b:	30 3b                	xor    BYTE PTR [rbx],bh
  3fd38d:	31 3b                	xor    DWORD PTR [rbx],edi
  3fd38f:	33 30                	xor    esi,DWORD PTR [rax]
  3fd391:	3b 34 32             	cmp    esi,DWORD PTR [rdx+rsi*1]
  3fd394:	6d                   	ins    DWORD PTR es:[rdi],dx
  3fd395:	38 1b                	cmp    BYTE PTR [rbx],bl
  3fd397:	5b                   	pop    rbx
  3fd398:	30 3b                	xor    BYTE PTR [rbx],bh
  3fd39a:	33 31                	xor    esi,DWORD PTR [rcx]
  3fd39c:	3b 34 30             	cmp    esi,DWORD PTR [rax+rsi*1]
  3fd39f:	6d                   	ins    DWORD PTR es:[rdi],dx
  3fd3a0:	38 1b                	cmp    BYTE PTR [rbx],bl
  3fd3a2:	5b                   	pop    rbx
  3fd3a3:	30 3b                	xor    BYTE PTR [rbx],bh
  3fd3a5:	31 3b                	xor    DWORD PTR [rbx],edi
  3fd3a7:	33 30                	xor    esi,DWORD PTR [rax]
  3fd3a9:	3b 34 30             	cmp    esi,DWORD PTR [rax+rsi*1]
  3fd3ac:	6d                   	ins    DWORD PTR es:[rdi],dx
  3fd3ad:	38 1b                	cmp    BYTE PTR [rbx],bl
  3fd3af:	5b                   	pop    rbx
  3fd3b0:	30 3b                	xor    BYTE PTR [rbx],bh
  3fd3b2:	33 31                	xor    esi,DWORD PTR [rcx]
  3fd3b4:	3b 34 30             	cmp    esi,DWORD PTR [rax+rsi*1]
  3fd3b7:	6d                   	ins    DWORD PTR es:[rdi],dx
  3fd3b8:	38 1b                	cmp    BYTE PTR [rbx],bl
  3fd3ba:	5b                   	pop    rbx
  3fd3bb:	30 3b                	xor    BYTE PTR [rbx],bh
  3fd3bd:	35 3b 33 32 3b       	xor    eax,0x3b32333b
  3fd3c2:	34 30                	xor    al,0x30
  3fd3c4:	6d                   	ins    DWORD PTR es:[rdi],dx
  3fd3c5:	38 1b                	cmp    BYTE PTR [rbx],bl
  3fd3c7:	5b                   	pop    rbx
  3fd3c8:	30 6d 0d             	xor    BYTE PTR [rbp+0xd],ch
  3fd3cb:	0a 1b                	or     bl,BYTE PTR [rbx]
  3fd3cd:	5b                   	pop    rbx
  3fd3ce:	30 3b                	xor    BYTE PTR [rbx],bh
  3fd3d0:	31 3b                	xor    DWORD PTR [rbx],edi
  3fd3d2:	33 30                	xor    esi,DWORD PTR [rax]
  3fd3d4:	3b 34 30             	cmp    esi,DWORD PTR [rax+rsi*1]
  3fd3d7:	6d                   	ins    DWORD PTR es:[rdi],dx
  3fd3d8:	40 38 1b             	cmp    BYTE PTR [rbx],bl
  3fd3db:	5b                   	pop    rbx
  3fd3dc:	30 3b                	xor    BYTE PTR [rbx],bh
  3fd3de:	33 31                	xor    esi,DWORD PTR [rcx]
  3fd3e0:	3b 34 30             	cmp    esi,DWORD PTR [rax+rsi*1]
  3fd3e3:	6d                   	ins    DWORD PTR es:[rdi],dx
  3fd3e4:	38 1b                	cmp    BYTE PTR [rbx],bl
  3fd3e6:	5b                   	pop    rbx
  3fd3e7:	30 3b                	xor    BYTE PTR [rbx],bh
  3fd3e9:	31 3b                	xor    DWORD PTR [rbx],edi
  3fd3eb:	33 30                	xor    esi,DWORD PTR [rax]
  3fd3ed:	3b 34 30             	cmp    esi,DWORD PTR [rax+rsi*1]
  3fd3f0:	6d                   	ins    DWORD PTR es:[rdi],dx
  3fd3f1:	38 38                	cmp    BYTE PTR [rax],bh
  3fd3f3:	38 1b                	cmp    BYTE PTR [rbx],bl
  3fd3f5:	5b                   	pop    rbx
  3fd3f6:	30 3b                	xor    BYTE PTR [rbx],bh
  3fd3f8:	35 3b 33 31 3b       	xor    eax,0x3b31333b
  3fd3fd:	34 30                	xor    al,0x30
  3fd3ff:	6d                   	ins    DWORD PTR es:[rdi],dx
  3fd400:	58                   	pop    rax
  3fd401:	1b 5b 30             	sbb    ebx,DWORD PTR [rbx+0x30]
  3fd404:	3b 35 3b 33 33 3b    	cmp    esi,DWORD PTR [rip+0x3b33333b]        # 3b730745 <_end+0x3b32c70d>
  3fd40a:	34 30                	xor    al,0x30
  3fd40c:	6d                   	ins    DWORD PTR es:[rdi],dx
  3fd40d:	40 1b 5b 30          	rex sbb ebx,DWORD PTR [rbx+0x30]
  3fd411:	3b 35 3b 33 35 3b    	cmp    esi,DWORD PTR [rip+0x3b35333b]        # 3b750752 <_end+0x3b34c71a>
  3fd417:	34 30                	xor    al,0x30
  3fd419:	6d                   	ins    DWORD PTR es:[rdi],dx
  3fd41a:	2e 1b 5b 30          	sbb    ebx,DWORD PTR cs:[rbx+0x30]
  3fd41e:	3b 35 3b 33 37 3b    	cmp    esi,DWORD PTR [rip+0x3b37333b]        # 3b77075f <_end+0x3b36c727>
  3fd424:	34 30                	xor    al,0x30
  3fd426:	6d                   	ins    DWORD PTR es:[rdi],dx
  3fd427:	40 1b 5b 30          	rex sbb ebx,DWORD PTR [rbx+0x30]
  3fd42b:	3b 35 3b 33 33 3b    	cmp    esi,DWORD PTR [rip+0x3b33333b]        # 3b73076c <_end+0x3b32c734>
  3fd431:	34 30                	xor    al,0x30
  3fd433:	6d                   	ins    DWORD PTR es:[rdi],dx
  3fd434:	20 1b                	and    BYTE PTR [rbx],bl
  3fd436:	5b                   	pop    rbx
  3fd437:	30 3b                	xor    BYTE PTR [rbx],bh
  3fd439:	35 3b 33 37 3b       	xor    eax,0x3b37333b
  3fd43e:	34 37                	xor    al,0x37
  3fd440:	6d                   	ins    DWORD PTR es:[rdi],dx
  3fd441:	3b 1b                	cmp    ebx,DWORD PTR [rbx]
  3fd443:	5b                   	pop    rbx
  3fd444:	30 3b                	xor    BYTE PTR [rbx],bh
  3fd446:	31 3b                	xor    DWORD PTR [rbx],edi
  3fd448:	33 30                	xor    esi,DWORD PTR [rax]
  3fd44a:	3b 34 37             	cmp    esi,DWORD PTR [rdi+rsi*1]
  3fd44d:	6d                   	ins    DWORD PTR es:[rdi],dx
  3fd44e:	20 1b                	and    BYTE PTR [rbx],bl
  3fd450:	5b                   	pop    rbx
  3fd451:	30 3b                	xor    BYTE PTR [rbx],bh
  3fd453:	35 3b 33 37 3b       	xor    eax,0x3b37333b
  3fd458:	34 37                	xor    al,0x37
  3fd45a:	6d                   	ins    DWORD PTR es:[rdi],dx
  3fd45b:	25 1b 5b 30 3b       	and    eax,0x3b305b1b
  3fd460:	35 3b 33 33 3b       	xor    eax,0x3b33333b
  3fd465:	34 30                	xor    al,0x30
  3fd467:	6d                   	ins    DWORD PTR es:[rdi],dx
  3fd468:	38 1b                	cmp    BYTE PTR [rbx],bl
  3fd46a:	5b                   	pop    rbx
  3fd46b:	30 3b                	xor    BYTE PTR [rbx],bh
  3fd46d:	31 3b                	xor    DWORD PTR [rbx],edi
  3fd46f:	33 37                	xor    esi,DWORD PTR [rdi]
  3fd471:	3b 34 37             	cmp    esi,DWORD PTR [rdi+rsi*1]
  3fd474:	6d                   	ins    DWORD PTR es:[rdi],dx
  3fd475:	74 1b                	je     3fd492 <_init-0x3b6e>
  3fd477:	5b                   	pop    rbx
  3fd478:	30 3b                	xor    BYTE PTR [rbx],bh
  3fd47a:	35 3b 33 30 3b       	xor    eax,0x3b30333b
  3fd47f:	34 30                	xor    al,0x30
  3fd481:	6d                   	ins    DWORD PTR es:[rdi],dx
  3fd482:	40 1b 5b 30          	rex sbb ebx,DWORD PTR [rbx+0x30]
  3fd486:	3b 31                	cmp    esi,DWORD PTR [rcx]
  3fd488:	3b 33                	cmp    esi,DWORD PTR [rbx]
  3fd48a:	30 3b                	xor    BYTE PTR [rbx],bh
  3fd48c:	34 30                	xor    al,0x30
  3fd48e:	6d                   	ins    DWORD PTR es:[rdi],dx
  3fd48f:	38 1b                	cmp    BYTE PTR [rbx],bl
  3fd491:	5b                   	pop    rbx
  3fd492:	30 3b                	xor    BYTE PTR [rbx],bh
  3fd494:	35 3b 33 33 3b       	xor    eax,0x3b33333b
  3fd499:	34 30                	xor    al,0x30
  3fd49b:	6d                   	ins    DWORD PTR es:[rdi],dx
  3fd49c:	2e 1b 5b 30          	sbb    ebx,DWORD PTR cs:[rbx+0x30]
  3fd4a0:	3b 31                	cmp    esi,DWORD PTR [rcx]
  3fd4a2:	3b 33                	cmp    esi,DWORD PTR [rbx]
  3fd4a4:	37                   	(bad)  
  3fd4a5:	3b 34 37             	cmp    esi,DWORD PTR [rdi+rsi*1]
  3fd4a8:	6d                   	ins    DWORD PTR es:[rdi],dx
  3fd4a9:	3a 1b                	cmp    bl,BYTE PTR [rbx]
  3fd4ab:	5b                   	pop    rbx
  3fd4ac:	30 3b                	xor    BYTE PTR [rbx],bh
  3fd4ae:	31 3b                	xor    DWORD PTR [rbx],edi
  3fd4b0:	33 30                	xor    esi,DWORD PTR [rax]
  3fd4b2:	3b 34 37             	cmp    esi,DWORD PTR [rdi+rsi*1]
  3fd4b5:	6d                   	ins    DWORD PTR es:[rdi],dx
  3fd4b6:	53                   	push   rbx
  3fd4b7:	1b 5b 30             	sbb    ebx,DWORD PTR [rbx+0x30]
  3fd4ba:	3b 35 3b 33 37 3b    	cmp    esi,DWORD PTR [rip+0x3b37333b]        # 3b7707fb <_end+0x3b36c7c3>
  3fd4c0:	34 37                	xor    al,0x37
  3fd4c2:	6d                   	ins    DWORD PTR es:[rdi],dx
  3fd4c3:	58                   	pop    rax
  3fd4c4:	1b 5b 30             	sbb    ebx,DWORD PTR [rbx+0x30]
  3fd4c7:	3b 31                	cmp    esi,DWORD PTR [rcx]
  3fd4c9:	3b 33                	cmp    esi,DWORD PTR [rbx]
  3fd4cb:	30 3b                	xor    BYTE PTR [rbx],bh
  3fd4cd:	34 37                	xor    al,0x37
  3fd4cf:	6d                   	ins    DWORD PTR es:[rdi],dx
  3fd4d0:	38 2e                	cmp    BYTE PTR [rsi],ch
  3fd4d2:	74 1b                	je     3fd4ef <_init-0x3b11>
  3fd4d4:	5b                   	pop    rbx
  3fd4d5:	30 3b                	xor    BYTE PTR [rbx],bh
  3fd4d7:	31 3b                	xor    DWORD PTR [rbx],edi
  3fd4d9:	33 37                	xor    esi,DWORD PTR [rdi]
  3fd4db:	3b 34 37             	cmp    esi,DWORD PTR [rdi+rsi*1]
  3fd4de:	6d                   	ins    DWORD PTR es:[rdi],dx
  3fd4df:	2e 1b 5b 30          	sbb    ebx,DWORD PTR cs:[rbx+0x30]
  3fd4e3:	3b 31                	cmp    esi,DWORD PTR [rcx]
  3fd4e5:	3b 33                	cmp    esi,DWORD PTR [rbx]
  3fd4e7:	30 3b                	xor    BYTE PTR [rbx],bh
  3fd4e9:	34 37                	xor    al,0x37
  3fd4eb:	6d                   	ins    DWORD PTR es:[rdi],dx
  3fd4ec:	74 1b                	je     3fd509 <_init-0x3af7>
  3fd4ee:	5b                   	pop    rbx
  3fd4ef:	30 3b                	xor    BYTE PTR [rbx],bh
  3fd4f1:	35 3b 33 37 3b       	xor    eax,0x3b37333b
  3fd4f6:	34 30                	xor    al,0x30
  3fd4f8:	6d                   	ins    DWORD PTR es:[rdi],dx
  3fd4f9:	58                   	pop    rax
  3fd4fa:	1b 5b 30             	sbb    ebx,DWORD PTR [rbx+0x30]
  3fd4fd:	3b 31                	cmp    esi,DWORD PTR [rcx]
  3fd4ff:	3b 33                	cmp    esi,DWORD PTR [rbx]
  3fd501:	37                   	(bad)  
  3fd502:	3b 34 37             	cmp    esi,DWORD PTR [rdi+rsi*1]
  3fd505:	6d                   	ins    DWORD PTR es:[rdi],dx
  3fd506:	58                   	pop    rax
  3fd507:	1b 5b 30             	sbb    ebx,DWORD PTR [rbx+0x30]
  3fd50a:	3b 31                	cmp    esi,DWORD PTR [rcx]
  3fd50c:	3b 33                	cmp    esi,DWORD PTR [rbx]
  3fd50e:	30 3b                	xor    BYTE PTR [rbx],bh
  3fd510:	34 37                	xor    al,0x37
  3fd512:	6d                   	ins    DWORD PTR es:[rdi],dx
  3fd513:	38 1b                	cmp    BYTE PTR [rbx],bl
  3fd515:	5b                   	pop    rbx
  3fd516:	30 3b                	xor    BYTE PTR [rbx],bh
  3fd518:	35 3b 33 37 3b       	xor    eax,0x3b37333b
  3fd51d:	34 30                	xor    al,0x30
  3fd51f:	6d                   	ins    DWORD PTR es:[rdi],dx
  3fd520:	58                   	pop    rax
  3fd521:	1b 5b 30             	sbb    ebx,DWORD PTR [rbx+0x30]
  3fd524:	3b 35 3b 33 33 3b    	cmp    esi,DWORD PTR [rip+0x3b33333b]        # 3b730865 <_end+0x3b32c82d>
  3fd52a:	34 30                	xor    al,0x30
  3fd52c:	6d                   	ins    DWORD PTR es:[rdi],dx
  3fd52d:	3b 1b                	cmp    ebx,DWORD PTR [rbx]
  3fd52f:	5b                   	pop    rbx
  3fd530:	30 3b                	xor    BYTE PTR [rbx],bh
  3fd532:	31 3b                	xor    DWORD PTR [rbx],edi
  3fd534:	33 37                	xor    esi,DWORD PTR [rdi]
  3fd536:	3b 34 37             	cmp    esi,DWORD PTR [rdi+rsi*1]
  3fd539:	6d                   	ins    DWORD PTR es:[rdi],dx
  3fd53a:	40 1b 5b 30          	rex sbb ebx,DWORD PTR [rbx+0x30]
  3fd53e:	3b 35 3b 33 37 3b    	cmp    esi,DWORD PTR [rip+0x3b37333b]        # 3b77087f <_end+0x3b36c847>
  3fd544:	34 37                	xor    al,0x37
  3fd546:	6d                   	ins    DWORD PTR es:[rdi],dx
  3fd547:	58                   	pop    rax
  3fd548:	25 1b 5b 30 3b       	and    eax,0x3b305b1b
  3fd54d:	35 3b 33 31 3b       	xor    eax,0x3b31333b
  3fd552:	34 30                	xor    al,0x30
  3fd554:	6d                   	ins    DWORD PTR es:[rdi],dx
  3fd555:	58                   	pop    rax
  3fd556:	1b 5b 30             	sbb    ebx,DWORD PTR [rbx+0x30]
  3fd559:	3b 35 3b 33 36 3b    	cmp    esi,DWORD PTR [rip+0x3b36333b]        # 3b76089a <_end+0x3b35c862>
  3fd55f:	34 30                	xor    al,0x30
  3fd561:	6d                   	ins    DWORD PTR es:[rdi],dx
  3fd562:	25 1b 5b 30 3b       	and    eax,0x3b305b1b
  3fd567:	31 3b                	xor    DWORD PTR [rbx],edi
  3fd569:	33 30                	xor    esi,DWORD PTR [rax]
  3fd56b:	3b 34 37             	cmp    esi,DWORD PTR [rdi+rsi*1]
  3fd56e:	6d                   	ins    DWORD PTR es:[rdi],dx
  3fd56f:	58                   	pop    rax
  3fd570:	1b 5b 30             	sbb    ebx,DWORD PTR [rbx+0x30]
  3fd573:	3b 35 3b 33 37 3b    	cmp    esi,DWORD PTR [rip+0x3b37333b]        # 3b7708b4 <_end+0x3b36c87c>
  3fd579:	34 37                	xor    al,0x37
  3fd57b:	6d                   	ins    DWORD PTR es:[rdi],dx
  3fd57c:	38 1b                	cmp    BYTE PTR [rbx],bl
  3fd57e:	5b                   	pop    rbx
  3fd57f:	30 3b                	xor    BYTE PTR [rbx],bh
  3fd581:	31 3b                	xor    DWORD PTR [rbx],edi
  3fd583:	33 30                	xor    esi,DWORD PTR [rax]
  3fd585:	3b 34 37             	cmp    esi,DWORD PTR [rdi+rsi*1]
  3fd588:	6d                   	ins    DWORD PTR es:[rdi],dx
  3fd589:	20 1b                	and    BYTE PTR [rbx],bl
  3fd58b:	5b                   	pop    rbx
  3fd58c:	30 3b                	xor    BYTE PTR [rbx],bh
  3fd58e:	35 3b 33 33 3b       	xor    eax,0x3b33333b
  3fd593:	34 30                	xor    al,0x30
  3fd595:	6d                   	ins    DWORD PTR es:[rdi],dx
  3fd596:	74 3b                	je     3fd5d3 <_init-0x3a2d>
  3fd598:	3a 38                	cmp    bh,BYTE PTR [rax]
  3fd59a:	1b 5b 30             	sbb    ebx,DWORD PTR [rbx+0x30]
  3fd59d:	3b 33                	cmp    esi,DWORD PTR [rbx]
  3fd59f:	31 3b                	xor    DWORD PTR [rbx],edi
  3fd5a1:	34 30                	xor    al,0x30
  3fd5a3:	6d                   	ins    DWORD PTR es:[rdi],dx
  3fd5a4:	58                   	pop    rax
  3fd5a5:	1b 5b 30             	sbb    ebx,DWORD PTR [rbx+0x30]
  3fd5a8:	3b 31                	cmp    esi,DWORD PTR [rcx]
  3fd5aa:	3b 33                	cmp    esi,DWORD PTR [rbx]
  3fd5ac:	30 3b                	xor    BYTE PTR [rbx],bh
  3fd5ae:	34 30                	xor    al,0x30
  3fd5b0:	6d                   	ins    DWORD PTR es:[rdi],dx
  3fd5b1:	38 38                	cmp    BYTE PTR [rax],bh
  3fd5b3:	38 1b                	cmp    BYTE PTR [rbx],bl
  3fd5b5:	5b                   	pop    rbx
  3fd5b6:	30 3b                	xor    BYTE PTR [rbx],bh
  3fd5b8:	33 31                	xor    esi,DWORD PTR [rcx]
  3fd5ba:	3b 34 30             	cmp    esi,DWORD PTR [rax+rsi*1]
  3fd5bd:	6d                   	ins    DWORD PTR es:[rdi],dx
  3fd5be:	38 1b                	cmp    BYTE PTR [rbx],bl
  3fd5c0:	5b                   	pop    rbx
  3fd5c1:	30 3b                	xor    BYTE PTR [rbx],bh
  3fd5c3:	31 3b                	xor    DWORD PTR [rbx],edi
  3fd5c5:	33 30                	xor    esi,DWORD PTR [rax]
  3fd5c7:	3b 34 30             	cmp    esi,DWORD PTR [rax+rsi*1]
  3fd5ca:	6d                   	ins    DWORD PTR es:[rdi],dx
  3fd5cb:	38 1b                	cmp    BYTE PTR [rbx],bl
  3fd5cd:	5b                   	pop    rbx
  3fd5ce:	30 6d 0d             	xor    BYTE PTR [rbp+0xd],ch
  3fd5d1:	0a 1b                	or     bl,BYTE PTR [rbx]
  3fd5d3:	5b                   	pop    rbx
  3fd5d4:	30 3b                	xor    BYTE PTR [rbx],bh
  3fd5d6:	31 3b                	xor    DWORD PTR [rbx],edi
  3fd5d8:	33 30                	xor    esi,DWORD PTR [rax]
  3fd5da:	3b 34 30             	cmp    esi,DWORD PTR [rax+rsi*1]
  3fd5dd:	6d                   	ins    DWORD PTR es:[rdi],dx
  3fd5de:	40 1b 5b 30          	rex sbb ebx,DWORD PTR [rbx+0x30]
  3fd5e2:	3b 35 3b 33 30 3b    	cmp    esi,DWORD PTR [rip+0x3b30333b]        # 3b700923 <_end+0x3b2fc8eb>
  3fd5e8:	34 30                	xor    al,0x30
  3fd5ea:	6d                   	ins    DWORD PTR es:[rdi],dx
  3fd5eb:	38 1b                	cmp    BYTE PTR [rbx],bl
  3fd5ed:	5b                   	pop    rbx
  3fd5ee:	30 3b                	xor    BYTE PTR [rbx],bh
  3fd5f0:	31 3b                	xor    DWORD PTR [rbx],edi
  3fd5f2:	33 30                	xor    esi,DWORD PTR [rax]
  3fd5f4:	3b 34 30             	cmp    esi,DWORD PTR [rax+rsi*1]
  3fd5f7:	6d                   	ins    DWORD PTR es:[rdi],dx
  3fd5f8:	38 1b                	cmp    BYTE PTR [rbx],bl
  3fd5fa:	5b                   	pop    rbx
  3fd5fb:	30 3b                	xor    BYTE PTR [rbx],bh
  3fd5fd:	33 30                	xor    esi,DWORD PTR [rax]
  3fd5ff:	3b 34 31             	cmp    esi,DWORD PTR [rcx+rsi*1]
  3fd602:	6d                   	ins    DWORD PTR es:[rdi],dx
  3fd603:	38 1b                	cmp    BYTE PTR [rbx],bl
  3fd605:	5b                   	pop    rbx
  3fd606:	30 3b                	xor    BYTE PTR [rbx],bh
  3fd608:	35 3b 33 30 3b       	xor    eax,0x3b30333b
  3fd60d:	34 30                	xor    al,0x30
  3fd60f:	6d                   	ins    DWORD PTR es:[rdi],dx
  3fd610:	58                   	pop    rax
  3fd611:	1b 5b 30             	sbb    ebx,DWORD PTR [rbx+0x30]
  3fd614:	3b 33                	cmp    esi,DWORD PTR [rbx]
  3fd616:	31 3b                	xor    DWORD PTR [rbx],edi
  3fd618:	34 30                	xor    al,0x30
  3fd61a:	6d                   	ins    DWORD PTR es:[rdi],dx
  3fd61b:	40 1b 5b 30          	rex sbb ebx,DWORD PTR [rbx+0x30]
  3fd61f:	3b 35 3b 33 32 3b    	cmp    esi,DWORD PTR [rip+0x3b32333b]        # 3b720960 <_end+0x3b31c928>
  3fd625:	34 30                	xor    al,0x30
  3fd627:	6d                   	ins    DWORD PTR es:[rdi],dx
  3fd628:	58                   	pop    rax
  3fd629:	1b 5b 30             	sbb    ebx,DWORD PTR [rbx+0x30]
  3fd62c:	3b 35 3b 33 37 3b    	cmp    esi,DWORD PTR [rip+0x3b37333b]        # 3b77096d <_end+0x3b36c935>
  3fd632:	34 30                	xor    al,0x30
  3fd634:	6d                   	ins    DWORD PTR es:[rdi],dx
  3fd635:	38 1b                	cmp    BYTE PTR [rbx],bl
  3fd637:	5b                   	pop    rbx
  3fd638:	30 3b                	xor    BYTE PTR [rbx],bh
  3fd63a:	35 3b 33 37 3b       	xor    eax,0x3b37333b
  3fd63f:	34 37                	xor    al,0x37
  3fd641:	6d                   	ins    DWORD PTR es:[rdi],dx
  3fd642:	25 1b 5b 30 3b       	and    eax,0x3b305b1b
  3fd647:	35 3b 33 33 3b       	xor    eax,0x3b33333b
  3fd64c:	34 30                	xor    al,0x30
  3fd64e:	6d                   	ins    DWORD PTR es:[rdi],dx
  3fd64f:	20 53 1b             	and    BYTE PTR [rbx+0x1b],dl
  3fd652:	5b                   	pop    rbx
  3fd653:	30 3b                	xor    BYTE PTR [rbx],bh
  3fd655:	31 3b                	xor    DWORD PTR [rbx],edi
  3fd657:	33 37                	xor    esi,DWORD PTR [rdi]
  3fd659:	3b 34 37             	cmp    esi,DWORD PTR [rdi+rsi*1]
  3fd65c:	6d                   	ins    DWORD PTR es:[rdi],dx
  3fd65d:	25 20 1b 5b 30       	and    eax,0x305b1b20
  3fd662:	3b 35 3b 33 33 3b    	cmp    esi,DWORD PTR [rip+0x3b33333b]        # 3b7309a3 <_end+0x3b32c96b>
  3fd668:	34 30                	xor    al,0x30
  3fd66a:	6d                   	ins    DWORD PTR es:[rdi],dx
  3fd66b:	20 1b                	and    BYTE PTR [rbx],bl
  3fd66d:	5b                   	pop    rbx
  3fd66e:	30 3b                	xor    BYTE PTR [rbx],bh
  3fd670:	31 3b                	xor    DWORD PTR [rbx],edi
  3fd672:	33 30                	xor    esi,DWORD PTR [rax]
  3fd674:	3b 34 37             	cmp    esi,DWORD PTR [rdi+rsi*1]
  3fd677:	6d                   	ins    DWORD PTR es:[rdi],dx
  3fd678:	53                   	push   rbx
  3fd679:	1b 5b 30             	sbb    ebx,DWORD PTR [rbx+0x30]
  3fd67c:	3b 35 3b 33 33 3b    	cmp    esi,DWORD PTR [rip+0x3b33333b]        # 3b7309bd <_end+0x3b32c985>
  3fd682:	34 30                	xor    al,0x30
  3fd684:	6d                   	ins    DWORD PTR es:[rdi],dx
  3fd685:	53                   	push   rbx
  3fd686:	1b 5b 30             	sbb    ebx,DWORD PTR [rbx+0x30]
  3fd689:	3b 35 3b 33 31 3b    	cmp    esi,DWORD PTR [rip+0x3b31333b]        # 3b7109ca <_end+0x3b30c992>
  3fd68f:	34 30                	xor    al,0x30
  3fd691:	6d                   	ins    DWORD PTR es:[rdi],dx
  3fd692:	38 1b                	cmp    BYTE PTR [rbx],bl
  3fd694:	5b                   	pop    rbx
  3fd695:	30 3b                	xor    BYTE PTR [rbx],bh
  3fd697:	33 31                	xor    esi,DWORD PTR [rcx]
  3fd699:	3b 34 30             	cmp    esi,DWORD PTR [rax+rsi*1]
  3fd69c:	6d                   	ins    DWORD PTR es:[rdi],dx
  3fd69d:	53                   	push   rbx
  3fd69e:	1b 5b 30             	sbb    ebx,DWORD PTR [rbx+0x30]
  3fd6a1:	3b 35 3b 33 33 3b    	cmp    esi,DWORD PTR [rip+0x3b33333b]        # 3b7309e2 <_end+0x3b32c9aa>
  3fd6a7:	34 30                	xor    al,0x30
  3fd6a9:	6d                   	ins    DWORD PTR es:[rdi],dx
  3fd6aa:	58                   	pop    rax
  3fd6ab:	1b 5b 30             	sbb    ebx,DWORD PTR [rbx+0x30]
  3fd6ae:	3b 35 3b 33 31 3b    	cmp    esi,DWORD PTR [rip+0x3b31333b]        # 3b7109ef <_end+0x3b30c9b7>
  3fd6b4:	34 30                	xor    al,0x30
  3fd6b6:	6d                   	ins    DWORD PTR es:[rdi],dx
  3fd6b7:	38 1b                	cmp    BYTE PTR [rbx],bl
  3fd6b9:	5b                   	pop    rbx
  3fd6ba:	30 3b                	xor    BYTE PTR [rbx],bh
  3fd6bc:	35 3b 33 33 3b       	xor    eax,0x3b33333b
  3fd6c1:	34 30                	xor    al,0x30
  3fd6c3:	6d                   	ins    DWORD PTR es:[rdi],dx
  3fd6c4:	58                   	pop    rax
  3fd6c5:	1b 5b 30             	sbb    ebx,DWORD PTR [rbx+0x30]
  3fd6c8:	3b 35 3b 33 31 3b    	cmp    esi,DWORD PTR [rip+0x3b31333b]        # 3b710a09 <_end+0x3b30c9d1>
  3fd6ce:	34 30                	xor    al,0x30
  3fd6d0:	6d                   	ins    DWORD PTR es:[rdi],dx
  3fd6d1:	38 1b                	cmp    BYTE PTR [rbx],bl
  3fd6d3:	5b                   	pop    rbx
  3fd6d4:	30 3b                	xor    BYTE PTR [rbx],bh
  3fd6d6:	31 3b                	xor    DWORD PTR [rbx],edi
  3fd6d8:	33 30                	xor    esi,DWORD PTR [rax]
  3fd6da:	3b 34 30             	cmp    esi,DWORD PTR [rax+rsi*1]
  3fd6dd:	6d                   	ins    DWORD PTR es:[rdi],dx
  3fd6de:	38 1b                	cmp    BYTE PTR [rbx],bl
  3fd6e0:	5b                   	pop    rbx
  3fd6e1:	30 3b                	xor    BYTE PTR [rbx],bh
  3fd6e3:	35 3b 33 31 3b       	xor    eax,0x3b31333b
  3fd6e8:	34 30                	xor    al,0x30
  3fd6ea:	6d                   	ins    DWORD PTR es:[rdi],dx
  3fd6eb:	38 38                	cmp    BYTE PTR [rax],bh
  3fd6ed:	1b 5b 30             	sbb    ebx,DWORD PTR [rbx+0x30]
  3fd6f0:	3b 31                	cmp    esi,DWORD PTR [rcx]
  3fd6f2:	3b 33                	cmp    esi,DWORD PTR [rbx]
  3fd6f4:	30 3b                	xor    BYTE PTR [rbx],bh
  3fd6f6:	34 30                	xor    al,0x30
  3fd6f8:	6d                   	ins    DWORD PTR es:[rdi],dx
  3fd6f9:	38 1b                	cmp    BYTE PTR [rbx],bl
  3fd6fb:	5b                   	pop    rbx
  3fd6fc:	30 3b                	xor    BYTE PTR [rbx],bh
  3fd6fe:	35 3b 33 33 3b       	xor    eax,0x3b33333b
  3fd703:	34 30                	xor    al,0x30
  3fd705:	6d                   	ins    DWORD PTR es:[rdi],dx
  3fd706:	38 1b                	cmp    BYTE PTR [rbx],bl
  3fd708:	5b                   	pop    rbx
  3fd709:	30 3b                	xor    BYTE PTR [rbx],bh
  3fd70b:	35 3b 33 35 3b       	xor    eax,0x3b35333b
  3fd710:	34 30                	xor    al,0x30
  3fd712:	6d                   	ins    DWORD PTR es:[rdi],dx
  3fd713:	20 1b                	and    BYTE PTR [rbx],bl
  3fd715:	5b                   	pop    rbx
  3fd716:	30 3b                	xor    BYTE PTR [rbx],bh
  3fd718:	35 3b 33 33 3b       	xor    eax,0x3b33333b
  3fd71d:	34 30                	xor    al,0x30
  3fd71f:	6d                   	ins    DWORD PTR es:[rdi],dx
  3fd720:	20 53 1b             	and    BYTE PTR [rbx+0x1b],dl
  3fd723:	5b                   	pop    rbx
  3fd724:	30 3b                	xor    BYTE PTR [rbx],bh
  3fd726:	35 3b 33 31 3b       	xor    eax,0x3b31333b
  3fd72b:	34 30                	xor    al,0x30
  3fd72d:	6d                   	ins    DWORD PTR es:[rdi],dx
  3fd72e:	38 40 1b             	cmp    BYTE PTR [rax+0x1b],al
  3fd731:	5b                   	pop    rbx
  3fd732:	30 3b                	xor    BYTE PTR [rbx],bh
  3fd734:	35 3b 33 33 3b       	xor    eax,0x3b33333b
  3fd739:	34 30                	xor    al,0x30
  3fd73b:	6d                   	ins    DWORD PTR es:[rdi],dx
  3fd73c:	20 3a                	and    BYTE PTR [rdx],bh
  3fd73e:	1b 5b 30             	sbb    ebx,DWORD PTR [rbx+0x30]
  3fd741:	3b 31                	cmp    esi,DWORD PTR [rcx]
  3fd743:	3b 33                	cmp    esi,DWORD PTR [rbx]
  3fd745:	30 3b                	xor    BYTE PTR [rbx],bh
  3fd747:	34 37                	xor    al,0x37
  3fd749:	6d                   	ins    DWORD PTR es:[rdi],dx
  3fd74a:	53                   	push   rbx
  3fd74b:	40 38 25 1b 5b 30 3b 	cmp    BYTE PTR [rip+0x3b305b1b],spl        # 3b70326d <_end+0x3b2ff235>
  3fd752:	31 3b                	xor    DWORD PTR [rbx],edi
  3fd754:	33 37                	xor    esi,DWORD PTR [rdi]
  3fd756:	3b 34 37             	cmp    esi,DWORD PTR [rdi+rsi*1]
  3fd759:	6d                   	ins    DWORD PTR es:[rdi],dx
  3fd75a:	25 1b 5b 30 3b       	and    eax,0x3b305b1b
  3fd75f:	35 3b 33 37 3b       	xor    eax,0x3b37333b
  3fd764:	34 37                	xor    al,0x37
  3fd766:	6d                   	ins    DWORD PTR es:[rdi],dx
  3fd767:	38 1b                	cmp    BYTE PTR [rbx],bl
  3fd769:	5b                   	pop    rbx
  3fd76a:	30 3b                	xor    BYTE PTR [rbx],bh
  3fd76c:	35 3b 33 33 3b       	xor    eax,0x3b33333b
  3fd771:	34 30                	xor    al,0x30
  3fd773:	6d                   	ins    DWORD PTR es:[rdi],dx
  3fd774:	25 1b 5b 30 3b       	and    eax,0x3b305b1b
  3fd779:	31 3b                	xor    DWORD PTR [rbx],edi
  3fd77b:	33 37                	xor    esi,DWORD PTR [rdi]
  3fd77d:	3b 34 37             	cmp    esi,DWORD PTR [rdi+rsi*1]
  3fd780:	6d                   	ins    DWORD PTR es:[rdi],dx
  3fd781:	3b 25 1b 5b 30 3b    	cmp    esp,DWORD PTR [rip+0x3b305b1b]        # 3b7032a2 <_end+0x3b2ff26a>
  3fd787:	35 3b 33 31 3b       	xor    eax,0x3b31333b
  3fd78c:	34 30                	xor    al,0x30
  3fd78e:	6d                   	ins    DWORD PTR es:[rdi],dx
  3fd78f:	38 1b                	cmp    BYTE PTR [rbx],bl
  3fd791:	5b                   	pop    rbx
  3fd792:	30 3b                	xor    BYTE PTR [rbx],bh
  3fd794:	31 3b                	xor    DWORD PTR [rbx],edi
  3fd796:	33 30                	xor    esi,DWORD PTR [rax]
  3fd798:	3b 34 30             	cmp    esi,DWORD PTR [rax+rsi*1]
  3fd79b:	6d                   	ins    DWORD PTR es:[rdi],dx
  3fd79c:	40 1b 5b 30          	rex sbb ebx,DWORD PTR [rbx+0x30]
  3fd7a0:	3b 33                	cmp    esi,DWORD PTR [rbx]
  3fd7a2:	31 3b                	xor    DWORD PTR [rbx],edi
  3fd7a4:	34 30                	xor    al,0x30
  3fd7a6:	6d                   	ins    DWORD PTR es:[rdi],dx
  3fd7a7:	38 1b                	cmp    BYTE PTR [rbx],bl
  3fd7a9:	5b                   	pop    rbx
  3fd7aa:	30 3b                	xor    BYTE PTR [rbx],bh
  3fd7ac:	35 3b 33 30 3b       	xor    eax,0x3b30333b
  3fd7b1:	34 30                	xor    al,0x30
  3fd7b3:	6d                   	ins    DWORD PTR es:[rdi],dx
  3fd7b4:	58                   	pop    rax
  3fd7b5:	1b 5b 30             	sbb    ebx,DWORD PTR [rbx+0x30]
  3fd7b8:	3b 33                	cmp    esi,DWORD PTR [rbx]
  3fd7ba:	31 3b                	xor    DWORD PTR [rbx],edi
  3fd7bc:	34 30                	xor    al,0x30
  3fd7be:	6d                   	ins    DWORD PTR es:[rdi],dx
  3fd7bf:	38 1b                	cmp    BYTE PTR [rbx],bl
  3fd7c1:	5b                   	pop    rbx
  3fd7c2:	30 3b                	xor    BYTE PTR [rbx],bh
  3fd7c4:	35 3b 33 32 3b       	xor    eax,0x3b32333b
  3fd7c9:	34 30                	xor    al,0x30
  3fd7cb:	6d                   	ins    DWORD PTR es:[rdi],dx
  3fd7cc:	40 1b 5b 30          	rex sbb ebx,DWORD PTR [rbx+0x30]
  3fd7d0:	3b 33                	cmp    esi,DWORD PTR [rbx]
  3fd7d2:	31 3b                	xor    DWORD PTR [rbx],edi
  3fd7d4:	34 30                	xor    al,0x30
  3fd7d6:	6d                   	ins    DWORD PTR es:[rdi],dx
  3fd7d7:	38 1b                	cmp    BYTE PTR [rbx],bl
  3fd7d9:	5b                   	pop    rbx
  3fd7da:	30 6d 0d             	xor    BYTE PTR [rbp+0xd],ch
  3fd7dd:	0a 1b                	or     bl,BYTE PTR [rbx]
  3fd7df:	5b                   	pop    rbx
  3fd7e0:	30 3b                	xor    BYTE PTR [rbx],bh
  3fd7e2:	31 3b                	xor    DWORD PTR [rbx],edi
  3fd7e4:	33 30                	xor    esi,DWORD PTR [rax]
  3fd7e6:	3b 34 30             	cmp    esi,DWORD PTR [rax+rsi*1]
  3fd7e9:	6d                   	ins    DWORD PTR es:[rdi],dx
  3fd7ea:	40 1b 5b 30          	rex sbb ebx,DWORD PTR [rbx+0x30]
  3fd7ee:	3b 33                	cmp    esi,DWORD PTR [rbx]
  3fd7f0:	31 3b                	xor    DWORD PTR [rbx],edi
  3fd7f2:	34 30                	xor    al,0x30
  3fd7f4:	6d                   	ins    DWORD PTR es:[rdi],dx
  3fd7f5:	38 1b                	cmp    BYTE PTR [rbx],bl
  3fd7f7:	5b                   	pop    rbx
  3fd7f8:	30 3b                	xor    BYTE PTR [rbx],bh
  3fd7fa:	35 3b 33 30 3b       	xor    eax,0x3b30333b
  3fd7ff:	34 30                	xor    al,0x30
  3fd801:	6d                   	ins    DWORD PTR es:[rdi],dx
  3fd802:	58                   	pop    rax
  3fd803:	1b 5b 30             	sbb    ebx,DWORD PTR [rbx+0x30]
  3fd806:	3b 33                	cmp    esi,DWORD PTR [rbx]
  3fd808:	32 3b                	xor    bh,BYTE PTR [rbx]
  3fd80a:	34 30                	xor    al,0x30
  3fd80c:	6d                   	ins    DWORD PTR es:[rdi],dx
  3fd80d:	40 1b 5b 30          	rex sbb ebx,DWORD PTR [rbx+0x30]
  3fd811:	3b 33                	cmp    esi,DWORD PTR [rbx]
  3fd813:	30 3b                	xor    BYTE PTR [rbx],bh
  3fd815:	34 31                	xor    al,0x31
  3fd817:	6d                   	ins    DWORD PTR es:[rdi],dx
  3fd818:	38 1b                	cmp    BYTE PTR [rbx],bl
  3fd81a:	5b                   	pop    rbx
  3fd81b:	30 3b                	xor    BYTE PTR [rbx],bh
  3fd81d:	35 3b 33 30 3b       	xor    eax,0x3b30333b
  3fd822:	34 30                	xor    al,0x30
  3fd824:	6d                   	ins    DWORD PTR es:[rdi],dx
  3fd825:	38 1b                	cmp    BYTE PTR [rbx],bl
  3fd827:	5b                   	pop    rbx
  3fd828:	30 3b                	xor    BYTE PTR [rbx],bh
  3fd82a:	33 31                	xor    esi,DWORD PTR [rcx]
  3fd82c:	3b 34 30             	cmp    esi,DWORD PTR [rax+rsi*1]
  3fd82f:	6d                   	ins    DWORD PTR es:[rdi],dx
  3fd830:	40 1b 5b 30          	rex sbb ebx,DWORD PTR [rbx+0x30]
  3fd834:	3b 35 3b 33 31 3b    	cmp    esi,DWORD PTR [rip+0x3b31333b]        # 3b710b75 <_end+0x3b30cb3d>
  3fd83a:	34 30                	xor    al,0x30
  3fd83c:	6d                   	ins    DWORD PTR es:[rdi],dx
  3fd83d:	58                   	pop    rax
  3fd83e:	1b 5b 30             	sbb    ebx,DWORD PTR [rbx+0x30]
  3fd841:	3b 31                	cmp    esi,DWORD PTR [rcx]
  3fd843:	3b 33                	cmp    esi,DWORD PTR [rbx]
  3fd845:	30 3b                	xor    BYTE PTR [rbx],bh
  3fd847:	34 37                	xor    al,0x37
