
./sweet:     file format elf64-x86-64


Disassembly of section .init:

0000000000401000 <_init>:
  401000:	f3 0f 1e fa          	endbr64 
  401004:	48 83 ec 08          	sub    rsp,0x8
  401008:	48 8b 05 e9 2f 00 00 	mov    rax,QWORD PTR [rip+0x2fe9]        # 403ff8 <__gmon_start__>
  40100f:	48 85 c0             	test   rax,rax
  401012:	74 02                	je     401016 <_init+0x16>
  401014:	ff d0                	call   rax
  401016:	48 83 c4 08          	add    rsp,0x8
  40101a:	c3                   	ret    

Disassembly of section .plt:

0000000000401020 <.plt>:
  401020:	ff 35 e2 2f 00 00    	push   QWORD PTR [rip+0x2fe2]        # 404008 <_GLOBAL_OFFSET_TABLE_+0x8>
  401026:	f2 ff 25 e3 2f 00 00 	bnd jmp QWORD PTR [rip+0x2fe3]        # 404010 <_GLOBAL_OFFSET_TABLE_+0x10>
  40102d:	0f 1f 00             	nop    DWORD PTR [rax]
  401030:	f3 0f 1e fa          	endbr64 
  401034:	68 00 00 00 00       	push   0x0
  401039:	f2 e9 e1 ff ff ff    	bnd jmp 401020 <.plt>
  40103f:	90                   	nop

Disassembly of section .plt.sec:

0000000000401040 <printf@plt>:
  401040:	f3 0f 1e fa          	endbr64 
  401044:	f2 ff 25 cd 2f 00 00 	bnd jmp QWORD PTR [rip+0x2fcd]        # 404018 <printf@GLIBC_2.2.5>
  40104b:	0f 1f 44 00 00       	nop    DWORD PTR [rax+rax*1+0x0]

Disassembly of section .text:

00000000003fa040 <_start-0x7010>:
  3fa040:	f3 0f 1e fa          	endbr64 
  3fa044:	55                   	push   rbp
  3fa045:	48 89 e5             	mov    rbp,rsp
  3fa048:	54                   	push   rsp
  3fa049:	e8 d4 1a 00 00       	call   3fbb22 <_init-0x54de>
  3fa04e:	5c                   	pop    rsp
  3fa04f:	48 83 c4 08          	add    rsp,0x8
  3fa053:	e9 92 2a 00 00       	jmp    3fcaea <_init-0x4516>
  3fa058:	90                   	nop
  3fa059:	5d                   	pop    rbp
  3fa05a:	c3                   	ret    
  3fa05b:	f3 0f 1e fa          	endbr64 
  3fa05f:	55                   	push   rbp
  3fa060:	48 89 e5             	mov    rbp,rsp
  3fa063:	48 81 ec 40 04 00 00 	sub    rsp,0x440
  3fa06a:	48 89 bd c8 fb ff ff 	mov    QWORD PTR [rbp-0x438],rdi
  3fa071:	48 8b 85 c8 fb ff ff 	mov    rax,QWORD PTR [rbp-0x438]
  3fa078:	48 89 45 f8          	mov    QWORD PTR [rbp-0x8],rax
  3fa07c:	c7 45 f4 00 00 00 00 	mov    DWORD PTR [rbp-0xc],0x0
  3fa083:	c7 45 ec 05 00 00 00 	mov    DWORD PTR [rbp-0x14],0x5
  3fa08a:	48 8d 85 d0 fb ff ff 	lea    rax,[rbp-0x430]
  3fa091:	be 00 00 00 00       	mov    esi,0x0
  3fa096:	48 89 c7             	mov    rdi,rax
  3fa099:	e8 c9 20 00 00       	call   3fc167 <_init-0x4e99>
  3fa09e:	48 8d 85 d0 fb ff ff 	lea    rax,[rbp-0x430]
  3fa0a5:	48 83 c0 08          	add    rax,0x8
  3fa0a9:	48 89 c7             	mov    rdi,rax
  3fa0ac:	e8 e1 01 00 00       	call   3fa292 <_init-0x6d6e>
  3fa0b1:	99                   	cdq    
  3fa0b2:	f7 7d ec             	idiv   DWORD PTR [rbp-0x14]
  3fa0b5:	89 d0                	mov    eax,edx
  3fa0b7:	89 45 f0             	mov    DWORD PTR [rbp-0x10],eax
  3fa0ba:	83 7d f0 03          	cmp    DWORD PTR [rbp-0x10],0x3
  3fa0be:	0f 85 2a 01 00 00    	jne    3fa1ee <_init-0x6e12>
  3fa0c4:	48 8d 85 e0 fb ff ff 	lea    rax,[rbp-0x420]
  3fa0cb:	ba 00 04 00 00       	mov    edx,0x400
  3fa0d0:	be 00 00 00 00       	mov    esi,0x0
  3fa0d5:	48 89 c7             	mov    rdi,rax
  3fa0d8:	e8 0b 21 00 00       	call   3fc1e8 <_init-0x4e18>
  3fa0dd:	e9 e3 00 00 00       	jmp    3fa1c5 <_init-0x6e3b>
  3fa0e2:	48 8b 45 f8          	mov    rax,QWORD PTR [rbp-0x8]
  3fa0e6:	0f b6 00             	movzx  eax,BYTE PTR [rax]
  3fa0e9:	0f be c0             	movsx  eax,al
  3fa0ec:	89 c7                	mov    edi,eax
  3fa0ee:	e8 7d 28 00 00       	call   3fc970 <_init-0x4690>
  3fa0f3:	0f be c0             	movsx  eax,al
  3fa0f6:	83 e8 41             	sub    eax,0x41
  3fa0f9:	83 f8 13             	cmp    eax,0x13
  3fa0fc:	0f 87 a4 00 00 00    	ja     3fa1a6 <_init-0x6e5a>
  3fa102:	89 c0                	mov    eax,eax
  3fa104:	48 8d 14 85 00 00 00 	lea    rdx,[rax*4+0x0]
  3fa10b:	00 
  3fa10c:	48 8d 05 31 2a 00 00 	lea    rax,[rip+0x2a31]        # 3fcb44 <_init-0x44bc>
  3fa113:	8b 04 02             	mov    eax,DWORD PTR [rdx+rax*1]
  3fa116:	48 98                	cdqe   
  3fa118:	48 8d 15 25 2a 00 00 	lea    rdx,[rip+0x2a25]        # 3fcb44 <_init-0x44bc>
  3fa11f:	48 01 d0             	add    rax,rdx
  3fa122:	3e ff e0             	notrack jmp rax
  3fa125:	8b 45 f4             	mov    eax,DWORD PTR [rbp-0xc]
  3fa128:	8d 50 01             	lea    edx,[rax+0x1]
  3fa12b:	89 55 f4             	mov    DWORD PTR [rbp-0xc],edx
  3fa12e:	48 98                	cdqe   
  3fa130:	c6 84 05 e0 fb ff ff 	mov    BYTE PTR [rbp+rax*1-0x420],0x31
  3fa137:	31 
  3fa138:	e9 83 00 00 00       	jmp    3fa1c0 <_init-0x6e40>
  3fa13d:	8b 45 f4             	mov    eax,DWORD PTR [rbp-0xc]
  3fa140:	8d 50 01             	lea    edx,[rax+0x1]
  3fa143:	89 55 f4             	mov    DWORD PTR [rbp-0xc],edx
  3fa146:	48 98                	cdqe   
  3fa148:	c6 84 05 e0 fb ff ff 	mov    BYTE PTR [rbp+rax*1-0x420],0x33
  3fa14f:	33 
  3fa150:	eb 6e                	jmp    3fa1c0 <_init-0x6e40>
  3fa152:	8b 45 f4             	mov    eax,DWORD PTR [rbp-0xc]
  3fa155:	8d 50 01             	lea    edx,[rax+0x1]
  3fa158:	89 55 f4             	mov    DWORD PTR [rbp-0xc],edx
  3fa15b:	48 98                	cdqe   
  3fa15d:	c6 84 05 e0 fb ff ff 	mov    BYTE PTR [rbp+rax*1-0x420],0x35
  3fa164:	35 
  3fa165:	eb 59                	jmp    3fa1c0 <_init-0x6e40>
  3fa167:	8b 45 f4             	mov    eax,DWORD PTR [rbp-0xc]
  3fa16a:	8d 50 01             	lea    edx,[rax+0x1]
  3fa16d:	89 55 f4             	mov    DWORD PTR [rbp-0xc],edx
  3fa170:	48 98                	cdqe   
  3fa172:	c6 84 05 e0 fb ff ff 	mov    BYTE PTR [rbp+rax*1-0x420],0x37
  3fa179:	37 
  3fa17a:	eb 44                	jmp    3fa1c0 <_init-0x6e40>
  3fa17c:	8b 45 f4             	mov    eax,DWORD PTR [rbp-0xc]
  3fa17f:	8d 50 01             	lea    edx,[rax+0x1]
  3fa182:	89 55 f4             	mov    DWORD PTR [rbp-0xc],edx
  3fa185:	48 98                	cdqe   
  3fa187:	c6 84 05 e0 fb ff ff 	mov    BYTE PTR [rbp+rax*1-0x420],0x30
  3fa18e:	30 
  3fa18f:	eb 2f                	jmp    3fa1c0 <_init-0x6e40>
  3fa191:	8b 45 f4             	mov    eax,DWORD PTR [rbp-0xc]
  3fa194:	8d 50 01             	lea    edx,[rax+0x1]
  3fa197:	89 55 f4             	mov    DWORD PTR [rbp-0xc],edx
  3fa19a:	48 98                	cdqe   
  3fa19c:	c6 84 05 e0 fb ff ff 	mov    BYTE PTR [rbp+rax*1-0x420],0x34
  3fa1a3:	34 
  3fa1a4:	eb 1a                	jmp    3fa1c0 <_init-0x6e40>
  3fa1a6:	8b 45 f4             	mov    eax,DWORD PTR [rbp-0xc]
  3fa1a9:	8d 50 01             	lea    edx,[rax+0x1]
  3fa1ac:	89 55 f4             	mov    DWORD PTR [rbp-0xc],edx
  3fa1af:	48 8b 55 f8          	mov    rdx,QWORD PTR [rbp-0x8]
  3fa1b3:	0f b6 12             	movzx  edx,BYTE PTR [rdx]
  3fa1b6:	48 98                	cdqe   
  3fa1b8:	88 94 05 e0 fb ff ff 	mov    BYTE PTR [rbp+rax*1-0x420],dl
  3fa1bf:	90                   	nop
  3fa1c0:	48 83 45 f8 01       	add    QWORD PTR [rbp-0x8],0x1
  3fa1c5:	48 8b 45 f8          	mov    rax,QWORD PTR [rbp-0x8]
  3fa1c9:	0f b6 00             	movzx  eax,BYTE PTR [rax]
  3fa1cc:	84 c0                	test   al,al
  3fa1ce:	74 0d                	je     3fa1dd <_init-0x6e23>
  3fa1d0:	81 7d f4 ff 03 00 00 	cmp    DWORD PTR [rbp-0xc],0x3ff
  3fa1d7:	0f 8e 05 ff ff ff    	jle    3fa0e2 <_init-0x6f1e>
  3fa1dd:	48 8d 85 e0 fb ff ff 	lea    rax,[rbp-0x420]
  3fa1e4:	48 89 c7             	mov    rdi,rax
  3fa1e7:	e8 fa 26 00 00       	call   3fc8e6 <_init-0x471a>
  3fa1ec:	eb 14                	jmp    3fa202 <_init-0x6dfe>
  3fa1ee:	90                   	nop
  3fa1ef:	f3 0f 1e fa          	endbr64 
  3fa1f3:	48 8b 85 c8 fb ff ff 	mov    rax,QWORD PTR [rbp-0x438]
  3fa1fa:	48 89 c7             	mov    rdi,rax
  3fa1fd:	e8 e4 26 00 00       	call   3fc8e6 <_init-0x471a>
  3fa202:	c9                   	leave  
  3fa203:	c3                   	ret    
  3fa204:	f3 0f 1e fa          	endbr64 
  3fa208:	55                   	push   rbp
  3fa209:	48 89 e5             	mov    rbp,rsp
  3fa20c:	48 83 ec 10          	sub    rsp,0x10
  3fa210:	48 89 7d f8          	mov    QWORD PTR [rbp-0x8],rdi
  3fa214:	48 89 75 f0          	mov    QWORD PTR [rbp-0x10],rsi
  3fa218:	48 8b 45 f0          	mov    rax,QWORD PTR [rbp-0x10]
  3fa21c:	48 8b 00             	mov    rax,QWORD PTR [rax]
  3fa21f:	48 85 c0             	test   rax,rax
  3fa222:	75 46                	jne    3fa26a <_init-0x6d96>
  3fa224:	41 b9 00 00 00 00    	mov    r9d,0x0
  3fa22a:	49 c7 c0 ff ff ff ff 	mov    r8,0xffffffffffffffff
  3fa231:	b9 22 00 00 00       	mov    ecx,0x22
  3fa236:	ba 03 00 00 00       	mov    edx,0x3
  3fa23b:	be 00 00 20 00       	mov    esi,0x200000
  3fa240:	bf 00 00 00 00       	mov    edi,0x0
  3fa245:	e8 a0 1d 00 00       	call   3fbfea <_init-0x5016>
  3fa24a:	48 8b 55 f0          	mov    rdx,QWORD PTR [rbp-0x10]
  3fa24e:	48 89 02             	mov    QWORD PTR [rdx],rax
  3fa251:	48 8b 45 f0          	mov    rax,QWORD PTR [rbp-0x10]
  3fa255:	48 8b 00             	mov    rax,QWORD PTR [rax]
  3fa258:	48 83 f8 ff          	cmp    rax,0xffffffffffffffff
  3fa25c:	75 0c                	jne    3fa26a <_init-0x6d96>
  3fa25e:	48 c7 c7 ff ff ff ff 	mov    rdi,0xffffffffffffffff
  3fa265:	e8 c5 1b 00 00       	call   3fbe2f <_init-0x51d1>
  3fa26a:	48 8b 45 f0          	mov    rax,QWORD PTR [rbp-0x10]
  3fa26e:	48 8b 00             	mov    rax,QWORD PTR [rax]
  3fa271:	48 8d 90 00 01 00 00 	lea    rdx,[rax+0x100]
  3fa278:	48 8b 45 f0          	mov    rax,QWORD PTR [rbp-0x10]
  3fa27c:	48 89 10             	mov    QWORD PTR [rax],rdx
  3fa27f:	48 8b 45 f0          	mov    rax,QWORD PTR [rbp-0x10]
  3fa283:	48 8b 00             	mov    rax,QWORD PTR [rax]
  3fa286:	48 8b 55 f8          	mov    rdx,QWORD PTR [rbp-0x8]
  3fa28a:	48 f7 da             	neg    rdx
  3fa28d:	48 01 d0             	add    rax,rdx
  3fa290:	c9                   	leave  
  3fa291:	c3                   	ret    
  3fa292:	55                   	push   rbp
  3fa293:	48 89 e5             	mov    rbp,rsp
  3fa296:	48 89 7d f8          	mov    QWORD PTR [rbp-0x8],rdi
  3fa29a:	48 8b 45 f8          	mov    rax,QWORD PTR [rbp-0x8]
  3fa29e:	48 8b 00             	mov    rax,QWORD PTR [rax]
  3fa2a1:	48 69 c0 6d 4e c6 41 	imul   rax,rax,0x41c64e6d
  3fa2a8:	48 8d 90 39 30 00 00 	lea    rdx,[rax+0x3039]
  3fa2af:	48 8b 45 f8          	mov    rax,QWORD PTR [rbp-0x8]
  3fa2b3:	48 89 10             	mov    QWORD PTR [rax],rdx
  3fa2b6:	48 8b 45 f8          	mov    rax,QWORD PTR [rbp-0x8]
  3fa2ba:	48 8b 00             	mov    rax,QWORD PTR [rax]
  3fa2bd:	48 8d 90 ff ff 00 00 	lea    rdx,[rax+0xffff]
  3fa2c4:	48 85 c0             	test   rax,rax
  3fa2c7:	48 0f 48 c2          	cmovs  rax,rdx
  3fa2cb:	48 c1 f8 10          	sar    rax,0x10
  3fa2cf:	25 ff 7f 00 00       	and    eax,0x7fff
  3fa2d4:	5d                   	pop    rbp
  3fa2d5:	c3                   	ret    
  3fa2d6:	55                   	push   rbp
  3fa2d7:	48 89 e5             	mov    rbp,rsp
  3fa2da:	48 83 ec 30          	sub    rsp,0x30
  3fa2de:	48 89 7d d8          	mov    QWORD PTR [rbp-0x28],rdi
  3fa2e2:	c7 45 fc 04 00 00 00 	mov    DWORD PTR [rbp-0x4],0x4
  3fa2e9:	48 8d 45 e0          	lea    rax,[rbp-0x20]
  3fa2ed:	be 00 00 00 00       	mov    esi,0x0
  3fa2f2:	48 89 c7             	mov    rdi,rax
  3fa2f5:	e8 6d 1e 00 00       	call   3fc167 <_init-0x4e99>
  3fa2fa:	48 8d 45 e0          	lea    rax,[rbp-0x20]
  3fa2fe:	48 83 c0 08          	add    rax,0x8
  3fa302:	48 89 c7             	mov    rdi,rax
  3fa305:	e8 88 ff ff ff       	call   3fa292 <_init-0x6d6e>
  3fa30a:	99                   	cdq    
  3fa30b:	f7 7d fc             	idiv   DWORD PTR [rbp-0x4]
  3fa30e:	89 d0                	mov    eax,edx
  3fa310:	89 c0                	mov    eax,eax
  3fa312:	48 8d 14 c5 00 00 00 	lea    rdx,[rax*8+0x0]
  3fa319:	00 
  3fa31a:	48 8b 45 d8          	mov    rax,QWORD PTR [rbp-0x28]
  3fa31e:	48 01 d0             	add    rax,rdx
  3fa321:	48 8b 00             	mov    rax,QWORD PTR [rax]
  3fa324:	c9                   	leave  
  3fa325:	c3                   	ret    
  3fa326:	f3 0f 1e fa          	endbr64 
  3fa32a:	55                   	push   rbp
  3fa32b:	48 89 e5             	mov    rbp,rsp
  3fa32e:	53                   	push   rbx
  3fa32f:	48 83 ec 38          	sub    rsp,0x38
  3fa333:	48 89 7d d8          	mov    QWORD PTR [rbp-0x28],rdi
  3fa337:	48 89 75 d0          	mov    QWORD PTR [rbp-0x30],rsi
  3fa33b:	48 89 55 c8          	mov    QWORD PTR [rbp-0x38],rdx
  3fa33f:	48 8b 45 d8          	mov    rax,QWORD PTR [rbp-0x28]
  3fa343:	48 89 c7             	mov    rdi,rax
  3fa346:	e8 f2 25 00 00       	call   3fc93d <_init-0x46c3>
  3fa34b:	48 89 c3             	mov    rbx,rax
  3fa34e:	48 8b 45 d0          	mov    rax,QWORD PTR [rbp-0x30]
  3fa352:	48 89 c7             	mov    rdi,rax
  3fa355:	e8 e3 25 00 00       	call   3fc93d <_init-0x46c3>
  3fa35a:	48 01 d8             	add    rax,rbx
  3fa35d:	48 8d 50 02          	lea    rdx,[rax+0x2]
  3fa361:	48 8b 45 c8          	mov    rax,QWORD PTR [rbp-0x38]
  3fa365:	48 89 c6             	mov    rsi,rax
  3fa368:	48 89 d7             	mov    rdi,rdx
  3fa36b:	e8 94 fe ff ff       	call   3fa204 <_init-0x6dfc>
  3fa370:	48 89 45 e8          	mov    QWORD PTR [rbp-0x18],rax
  3fa374:	48 8b 45 d8          	mov    rax,QWORD PTR [rbp-0x28]
  3fa378:	48 89 c7             	mov    rdi,rax
  3fa37b:	e8 bd 25 00 00       	call   3fc93d <_init-0x46c3>
  3fa380:	89 c3                	mov    ebx,eax
  3fa382:	48 8b 45 d0          	mov    rax,QWORD PTR [rbp-0x30]
  3fa386:	48 89 c7             	mov    rdi,rax
  3fa389:	e8 af 25 00 00       	call   3fc93d <_init-0x46c3>
  3fa38e:	8d 14 03             	lea    edx,[rbx+rax*1]
  3fa391:	48 8b 45 e8          	mov    rax,QWORD PTR [rbp-0x18]
  3fa395:	be 00 00 00 00       	mov    esi,0x0
  3fa39a:	48 89 c7             	mov    rdi,rax
  3fa39d:	e8 46 1e 00 00       	call   3fc1e8 <_init-0x4e18>
  3fa3a2:	48 8b 45 d0          	mov    rax,QWORD PTR [rbp-0x30]
  3fa3a6:	48 89 c7             	mov    rdi,rax
  3fa3a9:	e8 8f 25 00 00       	call   3fc93d <_init-0x46c3>
  3fa3ae:	89 c2                	mov    edx,eax
  3fa3b0:	48 8b 4d d0          	mov    rcx,QWORD PTR [rbp-0x30]
  3fa3b4:	48 8b 45 e8          	mov    rax,QWORD PTR [rbp-0x18]
  3fa3b8:	48 89 ce             	mov    rsi,rcx
  3fa3bb:	48 89 c7             	mov    rdi,rax
  3fa3be:	e8 d2 1d 00 00       	call   3fc195 <_init-0x4e6b>
  3fa3c3:	48 8b 45 d0          	mov    rax,QWORD PTR [rbp-0x30]
  3fa3c7:	48 89 c7             	mov    rdi,rax
  3fa3ca:	e8 6e 25 00 00       	call   3fc93d <_init-0x46c3>
  3fa3cf:	48 8b 55 e8          	mov    rdx,QWORD PTR [rbp-0x18]
  3fa3d3:	48 01 d0             	add    rax,rdx
  3fa3d6:	c6 00 2f             	mov    BYTE PTR [rax],0x2f
  3fa3d9:	48 8b 45 d8          	mov    rax,QWORD PTR [rbp-0x28]
  3fa3dd:	0f b6 00             	movzx  eax,BYTE PTR [rax]
  3fa3e0:	3c 2e                	cmp    al,0x2e
  3fa3e2:	75 14                	jne    3fa3f8 <_init-0x6c08>
  3fa3e4:	48 8b 45 d8          	mov    rax,QWORD PTR [rbp-0x28]
  3fa3e8:	48 83 c0 01          	add    rax,0x1
  3fa3ec:	0f b6 00             	movzx  eax,BYTE PTR [rax]
  3fa3ef:	3c 2f                	cmp    al,0x2f
  3fa3f1:	75 05                	jne    3fa3f8 <_init-0x6c08>
  3fa3f3:	48 83 45 d8 02       	add    QWORD PTR [rbp-0x28],0x2
  3fa3f8:	48 8b 45 d8          	mov    rax,QWORD PTR [rbp-0x28]
  3fa3fc:	48 89 c7             	mov    rdi,rax
  3fa3ff:	e8 39 25 00 00       	call   3fc93d <_init-0x46c3>
  3fa404:	89 c3                	mov    ebx,eax
  3fa406:	48 8b 45 d0          	mov    rax,QWORD PTR [rbp-0x30]
  3fa40a:	48 89 c7             	mov    rdi,rax
  3fa40d:	e8 2b 25 00 00       	call   3fc93d <_init-0x46c3>
  3fa412:	48 8d 50 01          	lea    rdx,[rax+0x1]
  3fa416:	48 8b 45 e8          	mov    rax,QWORD PTR [rbp-0x18]
  3fa41a:	48 8d 0c 02          	lea    rcx,[rdx+rax*1]
  3fa41e:	48 8b 45 d8          	mov    rax,QWORD PTR [rbp-0x28]
  3fa422:	89 da                	mov    edx,ebx
  3fa424:	48 89 c6             	mov    rsi,rax
  3fa427:	48 89 cf             	mov    rdi,rcx
  3fa42a:	e8 66 1d 00 00       	call   3fc195 <_init-0x4e6b>
  3fa42f:	48 8b 45 e8          	mov    rax,QWORD PTR [rbp-0x18]
  3fa433:	48 83 c4 38          	add    rsp,0x38
  3fa437:	5b                   	pop    rbx
  3fa438:	5d                   	pop    rbp
  3fa439:	c3                   	ret    
  3fa43a:	f3 0f 1e fa          	endbr64 
  3fa43e:	55                   	push   rbp
  3fa43f:	48 89 e5             	mov    rbp,rsp
  3fa442:	48 81 ec 30 01 00 00 	sub    rsp,0x130
  3fa449:	48 89 bd f8 fe ff ff 	mov    QWORD PTR [rbp-0x108],rdi
  3fa450:	48 89 b5 f0 fe ff ff 	mov    QWORD PTR [rbp-0x110],rsi
  3fa457:	48 89 95 e8 fe ff ff 	mov    QWORD PTR [rbp-0x118],rdx
  3fa45e:	48 89 8d e0 fe ff ff 	mov    QWORD PTR [rbp-0x120],rcx
  3fa465:	4c 89 85 d8 fe ff ff 	mov    QWORD PTR [rbp-0x128],r8
  3fa46c:	c7 45 fc 00 00 00 00 	mov    DWORD PTR [rbp-0x4],0x0
  3fa473:	c7 45 f8 40 00 00 00 	mov    DWORD PTR [rbp-0x8],0x40
  3fa47a:	48 8b 85 e8 fe ff ff 	mov    rax,QWORD PTR [rbp-0x118]
  3fa481:	48 8b 40 50          	mov    rax,QWORD PTR [rax+0x50]
  3fa485:	48 89 45 f0          	mov    QWORD PTR [rbp-0x10],rax
  3fa489:	48 8b 85 e0 fe ff ff 	mov    rax,QWORD PTR [rbp-0x120]
  3fa490:	48 8b 40 50          	mov    rax,QWORD PTR [rax+0x50]
  3fa494:	48 89 45 e8          	mov    QWORD PTR [rbp-0x18],rax
  3fa498:	48 8b 85 e8 fe ff ff 	mov    rax,QWORD PTR [rbp-0x118]
  3fa49f:	48 8b 40 60          	mov    rax,QWORD PTR [rax+0x60]
  3fa4a3:	48 89 45 e0          	mov    QWORD PTR [rbp-0x20],rax
  3fa4a7:	48 8b 85 e8 fe ff ff 	mov    rax,QWORD PTR [rbp-0x118]
  3fa4ae:	48 8d 48 68          	lea    rcx,[rax+0x68]
  3fa4b2:	48 8d 85 10 ff ff ff 	lea    rax,[rbp-0xf0]
  3fa4b9:	ba 90 00 00 00       	mov    edx,0x90
  3fa4be:	48 89 ce             	mov    rsi,rcx
  3fa4c1:	48 89 c7             	mov    rdi,rax
  3fa4c4:	e8 cc 1c 00 00       	call   3fc195 <_init-0x4e6b>
  3fa4c9:	8b 85 28 ff ff ff    	mov    eax,DWORD PTR [rbp-0xd8]
  3fa4cf:	89 c0                	mov    eax,eax
  3fa4d1:	48 89 c2             	mov    rdx,rax
  3fa4d4:	be 41 02 00 00       	mov    esi,0x241
  3fa4d9:	48 8d 3d b4 26 00 00 	lea    rdi,[rip+0x26b4]        # 3fcb94 <_init-0x446c>
  3fa4e0:	e8 69 19 00 00       	call   3fbe4e <_init-0x51b2>
  3fa4e5:	89 45 dc             	mov    DWORD PTR [rbp-0x24],eax
  3fa4e8:	83 7d dc ff          	cmp    DWORD PTR [rbp-0x24],0xffffffff
  3fa4ec:	75 0a                	jne    3fa4f8 <_init-0x6b08>
  3fa4ee:	b8 ff ff ff ff       	mov    eax,0xffffffff
  3fa4f3:	e9 de 01 00 00       	jmp    3fa6d6 <_init-0x692a>
  3fa4f8:	8b 45 f8             	mov    eax,DWORD PTR [rbp-0x8]
  3fa4fb:	48 63 d0             	movsxd rdx,eax
  3fa4fe:	8b 45 dc             	mov    eax,DWORD PTR [rbp-0x24]
  3fa501:	48 98                	cdqe   
  3fa503:	48 8b 4d f0          	mov    rcx,QWORD PTR [rbp-0x10]
  3fa507:	48 89 ce             	mov    rsi,rcx
  3fa50a:	48 89 c7             	mov    rdi,rax
  3fa50d:	e8 c6 19 00 00       	call   3fbed8 <_init-0x5128>
  3fa512:	89 45 d8             	mov    DWORD PTR [rbp-0x28],eax
  3fa515:	8b 45 f8             	mov    eax,DWORD PTR [rbp-0x8]
  3fa518:	39 45 d8             	cmp    DWORD PTR [rbp-0x28],eax
  3fa51b:	74 0a                	je     3fa527 <_init-0x6ad9>
  3fa51d:	b8 ff ff ff ff       	mov    eax,0xffffffff
  3fa522:	e9 af 01 00 00       	jmp    3fa6d6 <_init-0x692a>
  3fa527:	e8 a3 25 00 00       	call   3fcacf <_init-0x4531>
  3fa52c:	48 c7 c2 38 2c 40 00 	mov    rdx,0x402c38
  3fa533:	48 89 d1             	mov    rcx,rdx
  3fa536:	48 c7 c2 46 2c 40 00 	mov    rdx,0x402c46
  3fa53d:	48 29 d1             	sub    rcx,rdx
  3fa540:	48 89 ca             	mov    rdx,rcx
  3fa543:	48 29 d0             	sub    rax,rdx
  3fa546:	48 89 45 d0          	mov    QWORD PTR [rbp-0x30],rax
  3fa54a:	e8 80 25 00 00       	call   3fcacf <_init-0x4531>
  3fa54f:	48 c7 c2 38 2c 40 00 	mov    rdx,0x402c38
  3fa556:	48 89 d1             	mov    rcx,rdx
  3fa559:	48 c7 c2 5b 2c 40 00 	mov    rdx,0x402c5b
  3fa560:	48 29 d1             	sub    rcx,rdx
  3fa563:	48 89 ca             	mov    rdx,rcx
  3fa566:	48 29 d0             	sub    rax,rdx
  3fa569:	48 89 45 c8          	mov    QWORD PTR [rbp-0x38],rax
  3fa56d:	48 8b 45 c8          	mov    rax,QWORD PTR [rbp-0x38]
  3fa571:	48 2b 45 d0          	sub    rax,QWORD PTR [rbp-0x30]
  3fa575:	89 45 c4             	mov    DWORD PTR [rbp-0x3c],eax
  3fa578:	e8 52 25 00 00       	call   3fcacf <_init-0x4531>
  3fa57d:	48 c7 c2 38 2c 40 00 	mov    rdx,0x402c38
  3fa584:	48 89 d1             	mov    rcx,rdx
  3fa587:	48 c7 c2 46 2c 40 00 	mov    rdx,0x402c46
  3fa58e:	48 29 d1             	sub    rcx,rdx
  3fa591:	48 89 ca             	mov    rdx,rcx
  3fa594:	48 29 d0             	sub    rax,rdx
  3fa597:	48 89 45 b8          	mov    QWORD PTR [rbp-0x48],rax
  3fa59b:	c7 85 0a ff ff ff 68 	mov    DWORD PTR [rbp-0xf6],0x68
  3fa5a2:	00 00 00 
  3fa5a5:	66 c7 85 0e ff ff ff 	mov    WORD PTR [rbp-0xf2],0xc300
  3fa5ac:	00 c3 
  3fa5ae:	48 8d 85 0a ff ff ff 	lea    rax,[rbp-0xf6]
  3fa5b5:	48 83 c0 01          	add    rax,0x1
  3fa5b9:	48 8b 95 d8 fe ff ff 	mov    rdx,QWORD PTR [rbp-0x128]
  3fa5c0:	89 10                	mov    DWORD PTR [rax],edx
  3fa5c2:	48 8b 85 e0 fe ff ff 	mov    rax,QWORD PTR [rbp-0x120]
  3fa5c9:	48 8b 40 58          	mov    rax,QWORD PTR [rax+0x58]
  3fa5cd:	48 2d 68 42 00 00    	sub    rax,0x4268
  3fa5d3:	48 89 45 b0          	mov    QWORD PTR [rbp-0x50],rax
  3fa5d7:	8b 45 c4             	mov    eax,DWORD PTR [rbp-0x3c]
  3fa5da:	48 98                	cdqe   
  3fa5dc:	48 29 45 b0          	sub    QWORD PTR [rbp-0x50],rax
  3fa5e0:	8b 45 dc             	mov    eax,DWORD PTR [rbp-0x24]
  3fa5e3:	48 98                	cdqe   
  3fa5e5:	48 8b 55 b0          	mov    rdx,QWORD PTR [rbp-0x50]
  3fa5e9:	48 8b 4d e8          	mov    rcx,QWORD PTR [rbp-0x18]
  3fa5ed:	48 89 ce             	mov    rsi,rcx
  3fa5f0:	48 89 c7             	mov    rdi,rax
  3fa5f3:	e8 e0 18 00 00       	call   3fbed8 <_init-0x5128>
  3fa5f8:	89 45 d8             	mov    DWORD PTR [rbp-0x28],eax
  3fa5fb:	8b 45 d8             	mov    eax,DWORD PTR [rbp-0x28]
  3fa5fe:	48 39 45 b0          	cmp    QWORD PTR [rbp-0x50],rax
  3fa602:	74 0a                	je     3fa60e <_init-0x69f2>
  3fa604:	b8 ff ff ff ff       	mov    eax,0xffffffff
  3fa609:	e9 c8 00 00 00       	jmp    3fa6d6 <_init-0x692a>
  3fa60e:	8b 45 dc             	mov    eax,DWORD PTR [rbp-0x24]
  3fa611:	48 98                	cdqe   
  3fa613:	48 8d 8d 0a ff ff ff 	lea    rcx,[rbp-0xf6]
  3fa61a:	ba 06 00 00 00       	mov    edx,0x6
  3fa61f:	48 89 ce             	mov    rsi,rcx
  3fa622:	48 89 c7             	mov    rdi,rax
  3fa625:	e8 ae 18 00 00       	call   3fbed8 <_init-0x5128>
  3fa62a:	8b 45 c4             	mov    eax,DWORD PTR [rbp-0x3c]
  3fa62d:	48 98                	cdqe   
  3fa62f:	48 8d 90 62 42 00 00 	lea    rdx,[rax+0x4262]
  3fa636:	48 8b 45 b0          	mov    rax,QWORD PTR [rbp-0x50]
  3fa63a:	48 8d 48 06          	lea    rcx,[rax+0x6]
  3fa63e:	48 8b 45 e8          	mov    rax,QWORD PTR [rbp-0x18]
  3fa642:	48 01 c1             	add    rcx,rax
  3fa645:	8b 45 dc             	mov    eax,DWORD PTR [rbp-0x24]
  3fa648:	48 98                	cdqe   
  3fa64a:	48 89 ce             	mov    rsi,rcx
  3fa64d:	48 89 c7             	mov    rdi,rax
  3fa650:	e8 83 18 00 00       	call   3fbed8 <_init-0x5128>
  3fa655:	48 8b 85 f0 fe ff ff 	mov    rax,QWORD PTR [rbp-0x110]
  3fa65c:	83 c0 40             	add    eax,0x40
  3fa65f:	89 45 ac             	mov    DWORD PTR [rbp-0x54],eax
  3fa662:	8b 4d ac             	mov    ecx,DWORD PTR [rbp-0x54]
  3fa665:	8b 45 dc             	mov    eax,DWORD PTR [rbp-0x24]
  3fa668:	48 98                	cdqe   
  3fa66a:	ba 00 00 00 00       	mov    edx,0x0
  3fa66f:	48 89 ce             	mov    rsi,rcx
  3fa672:	48 89 c7             	mov    rdi,rax
  3fa675:	e8 16 19 00 00       	call   3fbf90 <_init-0x5070>
  3fa67a:	89 45 d8             	mov    DWORD PTR [rbp-0x28],eax
  3fa67d:	8b 45 d8             	mov    eax,DWORD PTR [rbp-0x28]
  3fa680:	3b 45 ac             	cmp    eax,DWORD PTR [rbp-0x54]
  3fa683:	74 07                	je     3fa68c <_init-0x6974>
  3fa685:	b8 ff ff ff ff       	mov    eax,0xffffffff
  3fa68a:	eb 4a                	jmp    3fa6d6 <_init-0x692a>
  3fa68c:	48 83 45 f0 40       	add    QWORD PTR [rbp-0x10],0x40
  3fa691:	48 8b 85 40 ff ff ff 	mov    rax,QWORD PTR [rbp-0xc0]
  3fa698:	83 e8 40             	sub    eax,0x40
  3fa69b:	89 45 a8             	mov    DWORD PTR [rbp-0x58],eax
  3fa69e:	8b 55 a8             	mov    edx,DWORD PTR [rbp-0x58]
  3fa6a1:	8b 45 dc             	mov    eax,DWORD PTR [rbp-0x24]
  3fa6a4:	48 98                	cdqe   
  3fa6a6:	48 8b 4d f0          	mov    rcx,QWORD PTR [rbp-0x10]
  3fa6aa:	48 89 ce             	mov    rsi,rcx
  3fa6ad:	48 89 c7             	mov    rdi,rax
  3fa6b0:	e8 23 18 00 00       	call   3fbed8 <_init-0x5128>
  3fa6b5:	89 45 d8             	mov    DWORD PTR [rbp-0x28],eax
  3fa6b8:	8b 45 d8             	mov    eax,DWORD PTR [rbp-0x28]
  3fa6bb:	3b 45 a8             	cmp    eax,DWORD PTR [rbp-0x58]
  3fa6be:	74 07                	je     3fa6c7 <_init-0x6939>
  3fa6c0:	b8 ff ff ff ff       	mov    eax,0xffffffff
  3fa6c5:	eb 0f                	jmp    3fa6d6 <_init-0x692a>
  3fa6c7:	8b 45 dc             	mov    eax,DWORD PTR [rbp-0x24]
  3fa6ca:	89 c7                	mov    edi,eax
  3fa6cc:	e8 b3 17 00 00       	call   3fbe84 <_init-0x517c>
  3fa6d1:	b8 00 00 00 00       	mov    eax,0x0
  3fa6d6:	c9                   	leave  
  3fa6d7:	c3                   	ret    
  3fa6d8:	f3 0f 1e fa          	endbr64 
  3fa6dc:	55                   	push   rbp
  3fa6dd:	48 89 e5             	mov    rbp,rsp
  3fa6e0:	48 81 ec 00 01 00 00 	sub    rsp,0x100
  3fa6e7:	48 89 bd 08 ff ff ff 	mov    QWORD PTR [rbp-0xf8],rdi
  3fa6ee:	48 89 b5 00 ff ff ff 	mov    QWORD PTR [rbp-0x100],rsi
  3fa6f5:	c7 45 fc 00 00 00 00 	mov    DWORD PTR [rbp-0x4],0x0
  3fa6fc:	48 8b 85 00 ff ff ff 	mov    rax,QWORD PTR [rbp-0x100]
  3fa703:	48 8b 40 60          	mov    rax,QWORD PTR [rax+0x60]
  3fa707:	48 89 45 e0          	mov    QWORD PTR [rbp-0x20],rax
  3fa70b:	48 8b 85 08 ff ff ff 	mov    rax,QWORD PTR [rbp-0xf8]
  3fa712:	48 8b 40 58          	mov    rax,QWORD PTR [rax+0x58]
  3fa716:	48 89 45 d8          	mov    QWORD PTR [rbp-0x28],rax
  3fa71a:	48 8b 45 d8          	mov    rax,QWORD PTR [rbp-0x28]
  3fa71e:	48 25 00 f0 ff ff    	and    rax,0xfffffffffffff000
  3fa724:	48 05 00 10 00 00    	add    rax,0x1000
  3fa72a:	48 89 45 d0          	mov    QWORD PTR [rbp-0x30],rax
  3fa72e:	48 8b 85 00 ff ff ff 	mov    rax,QWORD PTR [rbp-0x100]
  3fa735:	48 8b 40 50          	mov    rax,QWORD PTR [rax+0x50]
  3fa739:	48 89 45 c8          	mov    QWORD PTR [rbp-0x38],rax
  3fa73d:	48 8b 45 c8          	mov    rax,QWORD PTR [rbp-0x38]
  3fa741:	48 83 c0 09          	add    rax,0x9
  3fa745:	c7 00 25 5d 01 00    	mov    DWORD PTR [rax],0x15d25
  3fa74b:	48 8b 85 00 ff ff ff 	mov    rax,QWORD PTR [rbp-0x100]
  3fa752:	48 8b 00             	mov    rax,QWORD PTR [rax]
  3fa755:	48 89 45 c0          	mov    QWORD PTR [rbp-0x40],rax
  3fa759:	48 8b 85 00 ff ff ff 	mov    rax,QWORD PTR [rbp-0x100]
  3fa760:	48 8b 40 08          	mov    rax,QWORD PTR [rax+0x8]
  3fa764:	48 89 45 b8          	mov    QWORD PTR [rbp-0x48],rax
  3fa768:	48 8b 85 00 ff ff ff 	mov    rax,QWORD PTR [rbp-0x100]
  3fa76f:	48 8b 40 10          	mov    rax,QWORD PTR [rax+0x10]
  3fa773:	48 89 45 b0          	mov    QWORD PTR [rbp-0x50],rax
  3fa777:	48 8b 45 c0          	mov    rax,QWORD PTR [rbp-0x40]
  3fa77b:	48 8b 40 18          	mov    rax,QWORD PTR [rax+0x18]
  3fa77f:	48 89 45 a8          	mov    QWORD PTR [rbp-0x58],rax
  3fa783:	48 8b 45 b8          	mov    rax,QWORD PTR [rbp-0x48]
  3fa787:	48 8b 50 08          	mov    rdx,QWORD PTR [rax+0x8]
  3fa78b:	48 8b 45 d0          	mov    rax,QWORD PTR [rbp-0x30]
  3fa78f:	48 01 c2             	add    rdx,rax
  3fa792:	48 8b 45 b8          	mov    rax,QWORD PTR [rbp-0x48]
  3fa796:	48 89 50 08          	mov    QWORD PTR [rax+0x8],rdx
  3fa79a:	48 8b 45 b8          	mov    rax,QWORD PTR [rbp-0x48]
  3fa79e:	48 83 c0 38          	add    rax,0x38
  3fa7a2:	48 8b 48 08          	mov    rcx,QWORD PTR [rax+0x8]
  3fa7a6:	48 8b 45 b8          	mov    rax,QWORD PTR [rbp-0x48]
  3fa7aa:	48 83 c0 38          	add    rax,0x38
  3fa7ae:	48 8b 55 d0          	mov    rdx,QWORD PTR [rbp-0x30]
  3fa7b2:	48 01 ca             	add    rdx,rcx
  3fa7b5:	48 89 50 08          	mov    QWORD PTR [rax+0x8],rdx
  3fa7b9:	c7 45 f8 00 00 00 00 	mov    DWORD PTR [rbp-0x8],0x0
  3fa7c0:	e9 ec 02 00 00       	jmp    3faab1 <_init-0x654f>
  3fa7c5:	83 7d fc 00          	cmp    DWORD PTR [rbp-0x4],0x0
  3fa7c9:	74 4b                	je     3fa816 <_init-0x67ea>
  3fa7cb:	8b 45 f8             	mov    eax,DWORD PTR [rbp-0x8]
  3fa7ce:	48 63 d0             	movsxd rdx,eax
  3fa7d1:	48 89 d0             	mov    rax,rdx
  3fa7d4:	48 c1 e0 03          	shl    rax,0x3
  3fa7d8:	48 29 d0             	sub    rax,rdx
  3fa7db:	48 c1 e0 03          	shl    rax,0x3
  3fa7df:	48 89 c2             	mov    rdx,rax
  3fa7e2:	48 8b 45 b8          	mov    rax,QWORD PTR [rbp-0x48]
  3fa7e6:	48 01 d0             	add    rax,rdx
  3fa7e9:	48 8b 48 08          	mov    rcx,QWORD PTR [rax+0x8]
  3fa7ed:	8b 45 f8             	mov    eax,DWORD PTR [rbp-0x8]
  3fa7f0:	48 63 d0             	movsxd rdx,eax
  3fa7f3:	48 89 d0             	mov    rax,rdx
  3fa7f6:	48 c1 e0 03          	shl    rax,0x3
  3fa7fa:	48 29 d0             	sub    rax,rdx
  3fa7fd:	48 c1 e0 03          	shl    rax,0x3
  3fa801:	48 89 c2             	mov    rdx,rax
  3fa804:	48 8b 45 b8          	mov    rax,QWORD PTR [rbp-0x48]
  3fa808:	48 01 d0             	add    rax,rdx
  3fa80b:	48 8b 55 d0          	mov    rdx,QWORD PTR [rbp-0x30]
  3fa80f:	48 01 ca             	add    rdx,rcx
  3fa812:	48 89 50 08          	mov    QWORD PTR [rax+0x8],rdx
  3fa816:	8b 45 f8             	mov    eax,DWORD PTR [rbp-0x8]
  3fa819:	48 63 d0             	movsxd rdx,eax
  3fa81c:	48 89 d0             	mov    rax,rdx
  3fa81f:	48 c1 e0 03          	shl    rax,0x3
  3fa823:	48 29 d0             	sub    rax,rdx
  3fa826:	48 c1 e0 03          	shl    rax,0x3
  3fa82a:	48 89 c2             	mov    rdx,rax
  3fa82d:	48 8b 45 b8          	mov    rax,QWORD PTR [rbp-0x48]
  3fa831:	48 01 d0             	add    rax,rdx
  3fa834:	8b 00                	mov    eax,DWORD PTR [rax]
  3fa836:	83 f8 01             	cmp    eax,0x1
  3fa839:	0f 85 d4 01 00 00    	jne    3faa13 <_init-0x65ed>
  3fa83f:	8b 45 f8             	mov    eax,DWORD PTR [rbp-0x8]
  3fa842:	48 63 d0             	movsxd rdx,eax
  3fa845:	48 89 d0             	mov    rax,rdx
  3fa848:	48 c1 e0 03          	shl    rax,0x3
  3fa84c:	48 29 d0             	sub    rax,rdx
  3fa84f:	48 c1 e0 03          	shl    rax,0x3
  3fa853:	48 89 c2             	mov    rdx,rax
  3fa856:	48 8b 45 b8          	mov    rax,QWORD PTR [rbp-0x48]
  3fa85a:	48 01 d0             	add    rax,rdx
  3fa85d:	8b 40 04             	mov    eax,DWORD PTR [rax+0x4]
  3fa860:	83 f8 05             	cmp    eax,0x5
  3fa863:	0f 85 aa 01 00 00    	jne    3faa13 <_init-0x65ed>
  3fa869:	8b 45 f8             	mov    eax,DWORD PTR [rbp-0x8]
  3fa86c:	48 63 d0             	movsxd rdx,eax
  3fa86f:	48 89 d0             	mov    rax,rdx
  3fa872:	48 c1 e0 03          	shl    rax,0x3
  3fa876:	48 29 d0             	sub    rax,rdx
  3fa879:	48 c1 e0 03          	shl    rax,0x3
  3fa87d:	48 89 c2             	mov    rdx,rax
  3fa880:	48 8b 45 b8          	mov    rax,QWORD PTR [rbp-0x48]
  3fa884:	48 01 d0             	add    rax,rdx
  3fa887:	48 8b 40 10          	mov    rax,QWORD PTR [rax+0x10]
  3fa88b:	48 89 45 f0          	mov    QWORD PTR [rbp-0x10],rax
  3fa88f:	8b 45 f8             	mov    eax,DWORD PTR [rbp-0x8]
  3fa892:	48 63 d0             	movsxd rdx,eax
  3fa895:	48 89 d0             	mov    rax,rdx
  3fa898:	48 c1 e0 03          	shl    rax,0x3
  3fa89c:	48 29 d0             	sub    rax,rdx
  3fa89f:	48 c1 e0 03          	shl    rax,0x3
  3fa8a3:	48 89 c2             	mov    rdx,rax
  3fa8a6:	48 8b 45 b8          	mov    rax,QWORD PTR [rbp-0x48]
  3fa8aa:	48 01 d0             	add    rax,rdx
  3fa8ad:	48 8b 48 10          	mov    rcx,QWORD PTR [rax+0x10]
  3fa8b1:	8b 45 f8             	mov    eax,DWORD PTR [rbp-0x8]
  3fa8b4:	48 63 d0             	movsxd rdx,eax
  3fa8b7:	48 89 d0             	mov    rax,rdx
  3fa8ba:	48 c1 e0 03          	shl    rax,0x3
  3fa8be:	48 29 d0             	sub    rax,rdx
  3fa8c1:	48 c1 e0 03          	shl    rax,0x3
  3fa8c5:	48 89 c2             	mov    rdx,rax
  3fa8c8:	48 8b 45 b8          	mov    rax,QWORD PTR [rbp-0x48]
  3fa8cc:	48 01 c2             	add    rdx,rax
  3fa8cf:	48 89 c8             	mov    rax,rcx
  3fa8d2:	48 2b 45 d0          	sub    rax,QWORD PTR [rbp-0x30]
  3fa8d6:	48 89 42 10          	mov    QWORD PTR [rdx+0x10],rax
  3fa8da:	8b 45 f8             	mov    eax,DWORD PTR [rbp-0x8]
  3fa8dd:	48 63 d0             	movsxd rdx,eax
  3fa8e0:	48 89 d0             	mov    rax,rdx
  3fa8e3:	48 c1 e0 03          	shl    rax,0x3
  3fa8e7:	48 29 d0             	sub    rax,rdx
  3fa8ea:	48 c1 e0 03          	shl    rax,0x3
  3fa8ee:	48 89 c2             	mov    rdx,rax
  3fa8f1:	48 8b 45 b8          	mov    rax,QWORD PTR [rbp-0x48]
  3fa8f5:	48 01 d0             	add    rax,rdx
  3fa8f8:	48 8b 48 18          	mov    rcx,QWORD PTR [rax+0x18]
  3fa8fc:	8b 45 f8             	mov    eax,DWORD PTR [rbp-0x8]
  3fa8ff:	48 63 d0             	movsxd rdx,eax
  3fa902:	48 89 d0             	mov    rax,rdx
  3fa905:	48 c1 e0 03          	shl    rax,0x3
  3fa909:	48 29 d0             	sub    rax,rdx
  3fa90c:	48 c1 e0 03          	shl    rax,0x3
  3fa910:	48 89 c2             	mov    rdx,rax
  3fa913:	48 8b 45 b8          	mov    rax,QWORD PTR [rbp-0x48]
  3fa917:	48 01 c2             	add    rdx,rax
  3fa91a:	48 89 c8             	mov    rax,rcx
  3fa91d:	48 2b 45 d0          	sub    rax,QWORD PTR [rbp-0x30]
  3fa921:	48 89 42 18          	mov    QWORD PTR [rdx+0x18],rax
  3fa925:	8b 45 f8             	mov    eax,DWORD PTR [rbp-0x8]
  3fa928:	48 63 d0             	movsxd rdx,eax
  3fa92b:	48 89 d0             	mov    rax,rdx
  3fa92e:	48 c1 e0 03          	shl    rax,0x3
  3fa932:	48 29 d0             	sub    rax,rdx
  3fa935:	48 c1 e0 03          	shl    rax,0x3
  3fa939:	48 89 c2             	mov    rdx,rax
  3fa93c:	48 8b 45 b8          	mov    rax,QWORD PTR [rbp-0x48]
  3fa940:	48 01 d0             	add    rax,rdx
  3fa943:	48 8b 48 20          	mov    rcx,QWORD PTR [rax+0x20]
  3fa947:	8b 45 f8             	mov    eax,DWORD PTR [rbp-0x8]
  3fa94a:	48 63 d0             	movsxd rdx,eax
  3fa94d:	48 89 d0             	mov    rax,rdx
  3fa950:	48 c1 e0 03          	shl    rax,0x3
  3fa954:	48 29 d0             	sub    rax,rdx
  3fa957:	48 c1 e0 03          	shl    rax,0x3
  3fa95b:	48 89 c2             	mov    rdx,rax
  3fa95e:	48 8b 45 b8          	mov    rax,QWORD PTR [rbp-0x48]
  3fa962:	48 01 d0             	add    rax,rdx
  3fa965:	48 8b 55 d0          	mov    rdx,QWORD PTR [rbp-0x30]
  3fa969:	48 01 ca             	add    rdx,rcx
  3fa96c:	48 89 50 20          	mov    QWORD PTR [rax+0x20],rdx
  3fa970:	8b 45 f8             	mov    eax,DWORD PTR [rbp-0x8]
  3fa973:	48 63 d0             	movsxd rdx,eax
  3fa976:	48 89 d0             	mov    rax,rdx
  3fa979:	48 c1 e0 03          	shl    rax,0x3
  3fa97d:	48 29 d0             	sub    rax,rdx
  3fa980:	48 c1 e0 03          	shl    rax,0x3
  3fa984:	48 89 c2             	mov    rdx,rax
  3fa987:	48 8b 45 b8          	mov    rax,QWORD PTR [rbp-0x48]
  3fa98b:	48 01 d0             	add    rax,rdx
  3fa98e:	48 8b 48 28          	mov    rcx,QWORD PTR [rax+0x28]
  3fa992:	8b 45 f8             	mov    eax,DWORD PTR [rbp-0x8]
  3fa995:	48 63 d0             	movsxd rdx,eax
  3fa998:	48 89 d0             	mov    rax,rdx
  3fa99b:	48 c1 e0 03          	shl    rax,0x3
  3fa99f:	48 29 d0             	sub    rax,rdx
  3fa9a2:	48 c1 e0 03          	shl    rax,0x3
  3fa9a6:	48 89 c2             	mov    rdx,rax
  3fa9a9:	48 8b 45 b8          	mov    rax,QWORD PTR [rbp-0x48]
  3fa9ad:	48 01 d0             	add    rax,rdx
  3fa9b0:	48 8b 55 d0          	mov    rdx,QWORD PTR [rbp-0x30]
  3fa9b4:	48 01 ca             	add    rdx,rcx
  3fa9b7:	48 89 50 28          	mov    QWORD PTR [rax+0x28],rdx
  3fa9bb:	8b 45 f8             	mov    eax,DWORD PTR [rbp-0x8]
  3fa9be:	48 63 d0             	movsxd rdx,eax
  3fa9c1:	48 89 d0             	mov    rax,rdx
  3fa9c4:	48 c1 e0 03          	shl    rax,0x3
  3fa9c8:	48 29 d0             	sub    rax,rdx
  3fa9cb:	48 c1 e0 03          	shl    rax,0x3
  3fa9cf:	48 89 c2             	mov    rdx,rax
  3fa9d2:	48 8b 45 b8          	mov    rax,QWORD PTR [rbp-0x48]
  3fa9d6:	48 01 d0             	add    rax,rdx
  3fa9d9:	48 c7 40 30 00 10 00 	mov    QWORD PTR [rax+0x30],0x1000
  3fa9e0:	00 
  3fa9e1:	8b 45 f8             	mov    eax,DWORD PTR [rbp-0x8]
  3fa9e4:	48 63 d0             	movsxd rdx,eax
  3fa9e7:	48 89 d0             	mov    rax,rdx
  3fa9ea:	48 c1 e0 03          	shl    rax,0x3
  3fa9ee:	48 29 d0             	sub    rax,rdx
  3fa9f1:	48 c1 e0 03          	shl    rax,0x3
  3fa9f5:	48 89 c2             	mov    rdx,rax
  3fa9f8:	48 8b 45 b8          	mov    rax,QWORD PTR [rbp-0x48]
  3fa9fc:	48 01 d0             	add    rax,rdx
  3fa9ff:	48 8b 40 10          	mov    rax,QWORD PTR [rax+0x10]
  3faa03:	48 89 45 e8          	mov    QWORD PTR [rbp-0x18],rax
  3faa07:	c7 45 fc 01 00 00 00 	mov    DWORD PTR [rbp-0x4],0x1
  3faa0e:	e9 9a 00 00 00       	jmp    3faaad <_init-0x6553>
  3faa13:	8b 45 f8             	mov    eax,DWORD PTR [rbp-0x8]
  3faa16:	48 63 d0             	movsxd rdx,eax
  3faa19:	48 89 d0             	mov    rax,rdx
  3faa1c:	48 c1 e0 03          	shl    rax,0x3
  3faa20:	48 29 d0             	sub    rax,rdx
  3faa23:	48 c1 e0 03          	shl    rax,0x3
  3faa27:	48 89 c2             	mov    rdx,rax
  3faa2a:	48 8b 45 b8          	mov    rax,QWORD PTR [rbp-0x48]
  3faa2e:	48 01 d0             	add    rax,rdx
  3faa31:	8b 00                	mov    eax,DWORD PTR [rax]
  3faa33:	83 f8 01             	cmp    eax,0x1
  3faa36:	75 75                	jne    3faaad <_init-0x6553>
  3faa38:	8b 45 f8             	mov    eax,DWORD PTR [rbp-0x8]
  3faa3b:	48 63 d0             	movsxd rdx,eax
  3faa3e:	48 89 d0             	mov    rax,rdx
  3faa41:	48 c1 e0 03          	shl    rax,0x3
  3faa45:	48 29 d0             	sub    rax,rdx
  3faa48:	48 c1 e0 03          	shl    rax,0x3
  3faa4c:	48 89 c2             	mov    rdx,rax
  3faa4f:	48 8b 45 b8          	mov    rax,QWORD PTR [rbp-0x48]
  3faa53:	48 01 d0             	add    rax,rdx
  3faa56:	48 8b 40 08          	mov    rax,QWORD PTR [rax+0x8]
  3faa5a:	48 85 c0             	test   rax,rax
  3faa5d:	74 4e                	je     3faaad <_init-0x6553>
  3faa5f:	8b 45 f8             	mov    eax,DWORD PTR [rbp-0x8]
  3faa62:	48 63 d0             	movsxd rdx,eax
  3faa65:	48 89 d0             	mov    rax,rdx
  3faa68:	48 c1 e0 03          	shl    rax,0x3
  3faa6c:	48 29 d0             	sub    rax,rdx
  3faa6f:	48 c1 e0 03          	shl    rax,0x3
  3faa73:	48 89 c2             	mov    rdx,rax
  3faa76:	48 8b 45 b8          	mov    rax,QWORD PTR [rbp-0x48]
  3faa7a:	48 01 d0             	add    rax,rdx
  3faa7d:	8b 40 04             	mov    eax,DWORD PTR [rax+0x4]
  3faa80:	83 e0 02             	and    eax,0x2
  3faa83:	85 c0                	test   eax,eax
  3faa85:	74 26                	je     3faaad <_init-0x6553>
  3faa87:	8b 45 f8             	mov    eax,DWORD PTR [rbp-0x8]
  3faa8a:	48 63 d0             	movsxd rdx,eax
  3faa8d:	48 89 d0             	mov    rax,rdx
  3faa90:	48 c1 e0 03          	shl    rax,0x3
  3faa94:	48 29 d0             	sub    rax,rdx
  3faa97:	48 c1 e0 03          	shl    rax,0x3
  3faa9b:	48 89 c2             	mov    rdx,rax
  3faa9e:	48 8b 45 b8          	mov    rax,QWORD PTR [rbp-0x48]
  3faaa2:	48 01 d0             	add    rax,rdx
  3faaa5:	48 c7 40 30 00 10 00 	mov    QWORD PTR [rax+0x30],0x1000
  3faaac:	00 
  3faaad:	83 45 f8 01          	add    DWORD PTR [rbp-0x8],0x1
  3faab1:	48 8b 45 c0          	mov    rax,QWORD PTR [rbp-0x40]
  3faab5:	0f b7 40 38          	movzx  eax,WORD PTR [rax+0x38]
  3faab9:	0f b7 c0             	movzx  eax,ax
  3faabc:	39 45 f8             	cmp    DWORD PTR [rbp-0x8],eax
  3faabf:	0f 8c 00 fd ff ff    	jl     3fa7c5 <_init-0x683b>
  3faac5:	83 7d fc 00          	cmp    DWORD PTR [rbp-0x4],0x0
  3faac9:	75 0c                	jne    3faad7 <_init-0x6529>
  3faacb:	48 c7 c0 ff ff ff ff 	mov    rax,0xffffffffffffffff
  3faad2:	e9 e3 01 00 00       	jmp    3facba <_init-0x6346>
  3faad7:	48 8b 45 f0          	mov    rax,QWORD PTR [rbp-0x10]
  3faadb:	48 2b 45 d0          	sub    rax,QWORD PTR [rbp-0x30]
  3faadf:	48 8d 50 40          	lea    rdx,[rax+0x40]
  3faae3:	48 8b 45 c0          	mov    rax,QWORD PTR [rbp-0x40]
  3faae7:	48 89 50 18          	mov    QWORD PTR [rax+0x18],rdx
  3faaeb:	48 8b 45 c0          	mov    rax,QWORD PTR [rbp-0x40]
  3faaef:	48 8b 50 28          	mov    rdx,QWORD PTR [rax+0x28]
  3faaf3:	48 8b 45 c8          	mov    rax,QWORD PTR [rbp-0x38]
  3faaf7:	48 01 d0             	add    rax,rdx
  3faafa:	48 89 45 b0          	mov    QWORD PTR [rbp-0x50],rax
  3faafe:	48 8b 45 c0          	mov    rax,QWORD PTR [rbp-0x40]
  3fab02:	0f b7 40 3e          	movzx  eax,WORD PTR [rax+0x3e]
  3fab06:	0f b7 c0             	movzx  eax,ax
  3fab09:	48 c1 e0 06          	shl    rax,0x6
  3fab0d:	48 89 c2             	mov    rdx,rax
  3fab10:	48 8b 45 b0          	mov    rax,QWORD PTR [rbp-0x50]
  3fab14:	48 01 d0             	add    rax,rdx
  3fab17:	48 8b 50 18          	mov    rdx,QWORD PTR [rax+0x18]
  3fab1b:	48 8b 45 c8          	mov    rax,QWORD PTR [rbp-0x38]
  3fab1f:	48 01 d0             	add    rax,rdx
  3fab22:	48 89 45 a0          	mov    QWORD PTR [rbp-0x60],rax
  3fab26:	c7 45 f8 00 00 00 00 	mov    DWORD PTR [rbp-0x8],0x0
  3fab2d:	e9 1d 01 00 00       	jmp    3fac4f <_init-0x63b1>
  3fab32:	8b 45 f8             	mov    eax,DWORD PTR [rbp-0x8]
  3fab35:	48 98                	cdqe   
  3fab37:	48 c1 e0 06          	shl    rax,0x6
  3fab3b:	48 89 c2             	mov    rdx,rax
  3fab3e:	48 8b 45 b0          	mov    rax,QWORD PTR [rbp-0x50]
  3fab42:	48 01 d0             	add    rax,rdx
  3fab45:	8b 00                	mov    eax,DWORD PTR [rax]
  3fab47:	89 c2                	mov    edx,eax
  3fab49:	48 8b 45 a0          	mov    rax,QWORD PTR [rbp-0x60]
  3fab4d:	48 01 d0             	add    rax,rdx
  3fab50:	ba 05 00 00 00       	mov    edx,0x5
  3fab55:	48 8d 35 4a 20 00 00 	lea    rsi,[rip+0x204a]        # 3fcba6 <_init-0x445a>
  3fab5c:	48 89 c7             	mov    rdi,rax
  3fab5f:	e8 3b 1e 00 00       	call   3fc99f <_init-0x4661>
  3fab64:	85 c0                	test   eax,eax
  3fab66:	0f 85 aa 00 00 00    	jne    3fac16 <_init-0x63ea>
  3fab6c:	8b 45 f8             	mov    eax,DWORD PTR [rbp-0x8]
  3fab6f:	48 98                	cdqe   
  3fab71:	48 c1 e0 06          	shl    rax,0x6
  3fab75:	48 89 c2             	mov    rdx,rax
  3fab78:	48 8b 45 b0          	mov    rax,QWORD PTR [rbp-0x50]
  3fab7c:	48 01 d0             	add    rax,rdx
  3fab7f:	48 c7 40 18 40 00 00 	mov    QWORD PTR [rax+0x18],0x40
  3fab86:	00 
  3fab87:	8b 45 f8             	mov    eax,DWORD PTR [rbp-0x8]
  3fab8a:	48 98                	cdqe   
  3fab8c:	48 c1 e0 06          	shl    rax,0x6
  3fab90:	48 89 c2             	mov    rdx,rax
  3fab93:	48 8b 45 b0          	mov    rax,QWORD PTR [rbp-0x50]
  3fab97:	48 01 c2             	add    rdx,rax
  3fab9a:	48 8b 45 f0          	mov    rax,QWORD PTR [rbp-0x10]
  3fab9e:	48 2b 45 d0          	sub    rax,QWORD PTR [rbp-0x30]
  3faba2:	48 89 42 10          	mov    QWORD PTR [rdx+0x10],rax
  3faba6:	8b 45 f8             	mov    eax,DWORD PTR [rbp-0x8]
  3faba9:	48 98                	cdqe   
  3fabab:	48 c1 e0 06          	shl    rax,0x6
  3fabaf:	48 89 c2             	mov    rdx,rax
  3fabb2:	48 8b 45 b0          	mov    rax,QWORD PTR [rbp-0x50]
  3fabb6:	48 01 d0             	add    rax,rdx
  3fabb9:	48 8b 50 10          	mov    rdx,QWORD PTR [rax+0x10]
  3fabbd:	8b 45 f8             	mov    eax,DWORD PTR [rbp-0x8]
  3fabc0:	48 98                	cdqe   
  3fabc2:	48 c1 e0 06          	shl    rax,0x6
  3fabc6:	48 89 c1             	mov    rcx,rax
  3fabc9:	48 8b 45 b0          	mov    rax,QWORD PTR [rbp-0x50]
  3fabcd:	48 01 c8             	add    rax,rcx
  3fabd0:	48 83 c2 40          	add    rdx,0x40
  3fabd4:	48 89 50 10          	mov    QWORD PTR [rax+0x10],rdx
  3fabd8:	8b 45 f8             	mov    eax,DWORD PTR [rbp-0x8]
  3fabdb:	48 98                	cdqe   
  3fabdd:	48 c1 e0 06          	shl    rax,0x6
  3fabe1:	48 89 c2             	mov    rdx,rax
  3fabe4:	48 8b 45 b0          	mov    rax,QWORD PTR [rbp-0x50]
  3fabe8:	48 01 d0             	add    rax,rdx
  3fabeb:	48 8b 48 20          	mov    rcx,QWORD PTR [rax+0x20]
  3fabef:	48 8b 85 08 ff ff ff 	mov    rax,QWORD PTR [rbp-0xf8]
  3fabf6:	48 8b 50 58          	mov    rdx,QWORD PTR [rax+0x58]
  3fabfa:	8b 45 f8             	mov    eax,DWORD PTR [rbp-0x8]
  3fabfd:	48 98                	cdqe   
  3fabff:	48 c1 e0 06          	shl    rax,0x6
  3fac03:	48 89 c6             	mov    rsi,rax
  3fac06:	48 8b 45 b0          	mov    rax,QWORD PTR [rbp-0x50]
  3fac0a:	48 01 f0             	add    rax,rsi
  3fac0d:	48 01 ca             	add    rdx,rcx
  3fac10:	48 89 50 20          	mov    QWORD PTR [rax+0x20],rdx
  3fac14:	eb 35                	jmp    3fac4b <_init-0x63b5>
  3fac16:	8b 45 f8             	mov    eax,DWORD PTR [rbp-0x8]
  3fac19:	48 98                	cdqe   
  3fac1b:	48 c1 e0 06          	shl    rax,0x6
  3fac1f:	48 89 c2             	mov    rdx,rax
  3fac22:	48 8b 45 b0          	mov    rax,QWORD PTR [rbp-0x50]
  3fac26:	48 01 d0             	add    rax,rdx
  3fac29:	48 8b 48 18          	mov    rcx,QWORD PTR [rax+0x18]
  3fac2d:	8b 45 f8             	mov    eax,DWORD PTR [rbp-0x8]
  3fac30:	48 98                	cdqe   
  3fac32:	48 c1 e0 06          	shl    rax,0x6
  3fac36:	48 89 c2             	mov    rdx,rax
  3fac39:	48 8b 45 b0          	mov    rax,QWORD PTR [rbp-0x50]
  3fac3d:	48 01 d0             	add    rax,rdx
  3fac40:	48 8b 55 d0          	mov    rdx,QWORD PTR [rbp-0x30]
  3fac44:	48 01 ca             	add    rdx,rcx
  3fac47:	48 89 50 18          	mov    QWORD PTR [rax+0x18],rdx
  3fac4b:	83 45 f8 01          	add    DWORD PTR [rbp-0x8],0x1
  3fac4f:	48 8b 45 c0          	mov    rax,QWORD PTR [rbp-0x40]
  3fac53:	0f b7 40 3c          	movzx  eax,WORD PTR [rax+0x3c]
  3fac57:	0f b7 c0             	movzx  eax,ax
  3fac5a:	39 45 f8             	cmp    DWORD PTR [rbp-0x8],eax
  3fac5d:	0f 8c cf fe ff ff    	jl     3fab32 <_init-0x64ce>
  3fac63:	48 8b 45 c0          	mov    rax,QWORD PTR [rbp-0x40]
  3fac67:	48 8b 50 28          	mov    rdx,QWORD PTR [rax+0x28]
  3fac6b:	48 8b 45 d0          	mov    rax,QWORD PTR [rbp-0x30]
  3fac6f:	48 01 c2             	add    rdx,rax
  3fac72:	48 8b 45 c0          	mov    rax,QWORD PTR [rbp-0x40]
  3fac76:	48 89 50 28          	mov    QWORD PTR [rax+0x28],rdx
  3fac7a:	48 8b 45 c0          	mov    rax,QWORD PTR [rbp-0x40]
  3fac7e:	48 8b 50 20          	mov    rdx,QWORD PTR [rax+0x20]
  3fac82:	48 8b 45 d0          	mov    rax,QWORD PTR [rbp-0x30]
  3fac86:	48 01 c2             	add    rdx,rax
  3fac89:	48 8b 45 c0          	mov    rax,QWORD PTR [rbp-0x40]
  3fac8d:	48 89 50 20          	mov    QWORD PTR [rax+0x20],rdx
  3fac91:	48 8b 7d a8          	mov    rdi,QWORD PTR [rbp-0x58]
  3fac95:	48 8b 8d 08 ff ff ff 	mov    rcx,QWORD PTR [rbp-0xf8]
  3fac9c:	48 8b 95 00 ff ff ff 	mov    rdx,QWORD PTR [rbp-0x100]
  3faca3:	48 8b 75 d0          	mov    rsi,QWORD PTR [rbp-0x30]
  3faca7:	48 8b 45 d8          	mov    rax,QWORD PTR [rbp-0x28]
  3facab:	49 89 f8             	mov    r8,rdi
  3facae:	48 89 c7             	mov    rdi,rax
  3facb1:	e8 84 f7 ff ff       	call   3fa43a <_init-0x6bc6>
  3facb6:	48 8b 45 e8          	mov    rax,QWORD PTR [rbp-0x18]
  3facba:	c9                   	leave  
  3facbb:	c3                   	ret    
  3facbc:	f3 0f 1e fa          	endbr64 
  3facc0:	55                   	push   rbp
  3facc1:	48 89 e5             	mov    rbp,rsp
  3facc4:	48 83 ec 30          	sub    rsp,0x30
  3facc8:	48 89 7d d8          	mov    QWORD PTR [rbp-0x28],rdi
  3faccc:	e8 fe 1d 00 00       	call   3fcacf <_init-0x4531>
  3facd1:	48 c7 c2 38 2c 40 00 	mov    rdx,0x402c38
  3facd8:	48 89 d1             	mov    rcx,rdx
  3facdb:	48 c7 c2 46 2c 40 00 	mov    rdx,0x402c46
  3face2:	48 29 d1             	sub    rcx,rdx
  3face5:	48 89 ca             	mov    rdx,rcx
  3face8:	48 29 d0             	sub    rax,rdx
  3faceb:	48 89 45 f8          	mov    QWORD PTR [rbp-0x8],rax
  3facef:	e8 db 1d 00 00       	call   3fcacf <_init-0x4531>
  3facf4:	48 c7 c2 38 2c 40 00 	mov    rdx,0x402c38
  3facfb:	48 89 d1             	mov    rcx,rdx
  3facfe:	48 c7 c2 5b 2c 40 00 	mov    rdx,0x402c5b
  3fad05:	48 29 d1             	sub    rcx,rdx
  3fad08:	48 89 ca             	mov    rdx,rcx
  3fad0b:	48 29 d0             	sub    rax,rdx
  3fad0e:	48 89 45 f0          	mov    QWORD PTR [rbp-0x10],rax
  3fad12:	e8 b8 1d 00 00       	call   3fcacf <_init-0x4531>
  3fad17:	48 c7 c2 38 2c 40 00 	mov    rdx,0x402c38
  3fad1e:	48 89 d1             	mov    rcx,rdx
  3fad21:	48 c7 c2 9c 01 40 00 	mov    rdx,0x40019c
  3fad28:	48 29 d1             	sub    rcx,rdx
  3fad2b:	48 89 ca             	mov    rdx,rcx
  3fad2e:	48 29 d0             	sub    rax,rdx
  3fad31:	48 89 45 e8          	mov    QWORD PTR [rbp-0x18],rax
  3fad35:	48 8b 55 e8          	mov    rdx,QWORD PTR [rbp-0x18]
  3fad39:	48 8b 45 d8          	mov    rax,QWORD PTR [rbp-0x28]
  3fad3d:	48 89 50 50          	mov    QWORD PTR [rax+0x50],rdx
  3fad41:	48 c7 c0 46 2c 40 00 	mov    rax,0x402c46
  3fad48:	48 89 c2             	mov    rdx,rax
  3fad4b:	48 c7 c0 9c 01 40 00 	mov    rax,0x40019c
  3fad52:	48 29 c2             	sub    rdx,rax
  3fad55:	48 89 d0             	mov    rax,rdx
  3fad58:	48 89 c2             	mov    rdx,rax
  3fad5b:	48 8b 45 d8          	mov    rax,QWORD PTR [rbp-0x28]
  3fad5f:	48 89 50 58          	mov    QWORD PTR [rax+0x58],rdx
  3fad63:	48 8b 45 d8          	mov    rax,QWORD PTR [rbp-0x28]
  3fad67:	48 8b 50 58          	mov    rdx,QWORD PTR [rax+0x58]
  3fad6b:	48 8b 45 f0          	mov    rax,QWORD PTR [rbp-0x10]
  3fad6f:	48 2b 45 f8          	sub    rax,QWORD PTR [rbp-0x8]
  3fad73:	48 98                	cdqe   
  3fad75:	48 01 c2             	add    rdx,rax
  3fad78:	48 8b 45 d8          	mov    rax,QWORD PTR [rbp-0x28]
  3fad7c:	48 89 50 58          	mov    QWORD PTR [rax+0x58],rdx
  3fad80:	48 8b 45 d8          	mov    rax,QWORD PTR [rbp-0x28]
  3fad84:	48 8b 40 58          	mov    rax,QWORD PTR [rax+0x58]
  3fad88:	48 8d 90 68 42 00 00 	lea    rdx,[rax+0x4268]
  3fad8f:	48 8b 45 d8          	mov    rax,QWORD PTR [rbp-0x28]
  3fad93:	48 89 50 58          	mov    QWORD PTR [rax+0x58],rdx
  3fad97:	b8 00 00 00 00       	mov    eax,0x0
  3fad9c:	c9                   	leave  
  3fad9d:	c3                   	ret    
  3fad9e:	f3 0f 1e fa          	endbr64 
  3fada2:	55                   	push   rbp
  3fada3:	48 89 e5             	mov    rbp,rsp
  3fada6:	48 83 ec 10          	sub    rsp,0x10
  3fadaa:	48 89 7d f8          	mov    QWORD PTR [rbp-0x8],rdi
  3fadae:	48 8b 45 f8          	mov    rax,QWORD PTR [rbp-0x8]
  3fadb2:	48 8b 50 58          	mov    rdx,QWORD PTR [rax+0x58]
  3fadb6:	48 8b 45 f8          	mov    rax,QWORD PTR [rbp-0x8]
  3fadba:	48 8b 40 50          	mov    rax,QWORD PTR [rax+0x50]
  3fadbe:	48 89 d6             	mov    rsi,rdx
  3fadc1:	48 89 c7             	mov    rdi,rax
  3fadc4:	e8 87 12 00 00       	call   3fc050 <_init-0x4fb0>
  3fadc9:	48 8b 45 f8          	mov    rax,QWORD PTR [rbp-0x8]
  3fadcd:	8b 80 f8 00 00 00    	mov    eax,DWORD PTR [rax+0xf8]
  3fadd3:	89 c7                	mov    edi,eax
  3fadd5:	e8 aa 10 00 00       	call   3fbe84 <_init-0x517c>
  3fadda:	90                   	nop
  3faddb:	c9                   	leave  
  3faddc:	c3                   	ret    
  3faddd:	f3 0f 1e fa          	endbr64 
  3fade1:	55                   	push   rbp
  3fade2:	48 89 e5             	mov    rbp,rsp
  3fade5:	53                   	push   rbx
  3fade6:	48 81 ec b8 00 00 00 	sub    rsp,0xb8
  3faded:	48 89 bd 48 ff ff ff 	mov    QWORD PTR [rbp-0xb8],rdi
  3fadf4:	48 89 b5 40 ff ff ff 	mov    QWORD PTR [rbp-0xc0],rsi
  3fadfb:	48 8b 85 40 ff ff ff 	mov    rax,QWORD PTR [rbp-0xc0]
  3fae02:	48 8b 95 48 ff ff ff 	mov    rdx,QWORD PTR [rbp-0xb8]
  3fae09:	48 89 50 60          	mov    QWORD PTR [rax+0x60],rdx
  3fae0d:	48 8b 85 48 ff ff ff 	mov    rax,QWORD PTR [rbp-0xb8]
  3fae14:	ba 00 00 00 00       	mov    edx,0x0
  3fae19:	be 00 00 00 00       	mov    esi,0x0
  3fae1e:	48 89 c7             	mov    rdi,rax
  3fae21:	e8 28 10 00 00       	call   3fbe4e <_init-0x51b2>
  3fae26:	89 45 e8             	mov    DWORD PTR [rbp-0x18],eax
  3fae29:	83 7d e8 00          	cmp    DWORD PTR [rbp-0x18],0x0
  3fae2d:	79 0a                	jns    3fae39 <_init-0x61c7>
  3fae2f:	b8 ff ff ff ff       	mov    eax,0xffffffff
  3fae34:	e9 b1 03 00 00       	jmp    3fb1ea <_init-0x5e16>
  3fae39:	48 8b 85 40 ff ff ff 	mov    rax,QWORD PTR [rbp-0xc0]
  3fae40:	8b 55 e8             	mov    edx,DWORD PTR [rbp-0x18]
  3fae43:	89 90 f8 00 00 00    	mov    DWORD PTR [rax+0xf8],edx
  3fae49:	8b 45 e8             	mov    eax,DWORD PTR [rbp-0x18]
  3fae4c:	48 98                	cdqe   
  3fae4e:	48 8d 95 50 ff ff ff 	lea    rdx,[rbp-0xb0]
  3fae55:	48 89 d6             	mov    rsi,rdx
  3fae58:	48 89 c7             	mov    rdi,rax
  3fae5b:	e8 ae 10 00 00       	call   3fbf0e <_init-0x50f2>
  3fae60:	85 c0                	test   eax,eax
  3fae62:	79 0a                	jns    3fae6e <_init-0x6192>
  3fae64:	b8 ff ff ff ff       	mov    eax,0xffffffff
  3fae69:	e9 7c 03 00 00       	jmp    3fb1ea <_init-0x5e16>
  3fae6e:	8b 45 e8             	mov    eax,DWORD PTR [rbp-0x18]
  3fae71:	48 63 d0             	movsxd rdx,eax
  3fae74:	48 8b 45 80          	mov    rax,QWORD PTR [rbp-0x80]
  3fae78:	41 b9 00 00 00 00    	mov    r9d,0x0
  3fae7e:	49 89 d0             	mov    r8,rdx
  3fae81:	b9 02 00 00 00       	mov    ecx,0x2
  3fae86:	ba 03 00 00 00       	mov    edx,0x3
  3fae8b:	48 89 c6             	mov    rsi,rax
  3fae8e:	bf 00 00 00 00       	mov    edi,0x0
  3fae93:	e8 52 11 00 00       	call   3fbfea <_init-0x5016>
  3fae98:	48 8b 95 40 ff ff ff 	mov    rdx,QWORD PTR [rbp-0xc0]
  3fae9f:	48 89 42 50          	mov    QWORD PTR [rdx+0x50],rax
  3faea3:	48 8b 85 40 ff ff ff 	mov    rax,QWORD PTR [rbp-0xc0]
  3faeaa:	48 8b 40 50          	mov    rax,QWORD PTR [rax+0x50]
  3faeae:	48 83 f8 ff          	cmp    rax,0xffffffffffffffff
  3faeb2:	75 0a                	jne    3faebe <_init-0x6142>
  3faeb4:	b8 ff ff ff ff       	mov    eax,0xffffffff
  3faeb9:	e9 2c 03 00 00       	jmp    3fb1ea <_init-0x5e16>
  3faebe:	48 8b 85 40 ff ff ff 	mov    rax,QWORD PTR [rbp-0xc0]
  3faec5:	48 8b 50 50          	mov    rdx,QWORD PTR [rax+0x50]
  3faec9:	48 8b 85 40 ff ff ff 	mov    rax,QWORD PTR [rbp-0xc0]
  3faed0:	48 89 10             	mov    QWORD PTR [rax],rdx
  3faed3:	48 8b 85 40 ff ff ff 	mov    rax,QWORD PTR [rbp-0xc0]
  3faeda:	48 8b 50 50          	mov    rdx,QWORD PTR [rax+0x50]
  3faede:	48 8b 85 40 ff ff ff 	mov    rax,QWORD PTR [rbp-0xc0]
  3faee5:	48 8b 00             	mov    rax,QWORD PTR [rax]
  3faee8:	48 8b 40 20          	mov    rax,QWORD PTR [rax+0x20]
  3faeec:	48 01 c2             	add    rdx,rax
  3faeef:	48 8b 85 40 ff ff ff 	mov    rax,QWORD PTR [rbp-0xc0]
  3faef6:	48 89 50 08          	mov    QWORD PTR [rax+0x8],rdx
  3faefa:	48 8b 85 40 ff ff ff 	mov    rax,QWORD PTR [rbp-0xc0]
  3faf01:	48 8b 50 50          	mov    rdx,QWORD PTR [rax+0x50]
  3faf05:	48 8b 85 40 ff ff ff 	mov    rax,QWORD PTR [rbp-0xc0]
  3faf0c:	48 8b 00             	mov    rax,QWORD PTR [rax]
  3faf0f:	48 8b 40 28          	mov    rax,QWORD PTR [rax+0x28]
  3faf13:	48 01 c2             	add    rdx,rax
  3faf16:	48 8b 85 40 ff ff ff 	mov    rax,QWORD PTR [rbp-0xc0]
  3faf1d:	48 89 50 10          	mov    QWORD PTR [rax+0x10],rdx
  3faf21:	c7 45 ec 00 00 00 00 	mov    DWORD PTR [rbp-0x14],0x0
  3faf28:	e9 b6 01 00 00       	jmp    3fb0e3 <_init-0x5f1d>
  3faf2d:	48 8b 85 40 ff ff ff 	mov    rax,QWORD PTR [rbp-0xc0]
  3faf34:	48 8b 48 08          	mov    rcx,QWORD PTR [rax+0x8]
  3faf38:	8b 45 ec             	mov    eax,DWORD PTR [rbp-0x14]
  3faf3b:	48 63 d0             	movsxd rdx,eax
  3faf3e:	48 89 d0             	mov    rax,rdx
  3faf41:	48 c1 e0 03          	shl    rax,0x3
  3faf45:	48 29 d0             	sub    rax,rdx
  3faf48:	48 c1 e0 03          	shl    rax,0x3
  3faf4c:	48 01 c8             	add    rax,rcx
  3faf4f:	8b 00                	mov    eax,DWORD PTR [rax]
  3faf51:	83 f8 01             	cmp    eax,0x1
  3faf54:	74 0e                	je     3faf64 <_init-0x609c>
  3faf56:	83 f8 02             	cmp    eax,0x2
  3faf59:	0f 84 3f 01 00 00    	je     3fb09e <_init-0x5f62>
  3faf5f:	e9 7b 01 00 00       	jmp    3fb0df <_init-0x5f21>
  3faf64:	48 8b 85 40 ff ff ff 	mov    rax,QWORD PTR [rbp-0xc0]
  3faf6b:	48 8b 48 08          	mov    rcx,QWORD PTR [rax+0x8]
  3faf6f:	8b 45 ec             	mov    eax,DWORD PTR [rbp-0x14]
  3faf72:	48 63 d0             	movsxd rdx,eax
  3faf75:	48 89 d0             	mov    rax,rdx
  3faf78:	48 c1 e0 03          	shl    rax,0x3
  3faf7c:	48 29 d0             	sub    rax,rdx
  3faf7f:	48 c1 e0 03          	shl    rax,0x3
  3faf83:	48 01 c8             	add    rax,rcx
  3faf86:	48 8b 40 08          	mov    rax,QWORD PTR [rax+0x8]
  3faf8a:	48 85 c0             	test   rax,rax
  3faf8d:	0f 95 c0             	setne  al
  3faf90:	0f b6 c0             	movzx  eax,al
  3faf93:	85 c0                	test   eax,eax
  3faf95:	74 0a                	je     3fafa1 <_init-0x605f>
  3faf97:	83 f8 01             	cmp    eax,0x1
  3faf9a:	74 6c                	je     3fb008 <_init-0x5ff8>
  3faf9c:	e9 3e 01 00 00       	jmp    3fb0df <_init-0x5f21>
  3fafa1:	48 8b 85 40 ff ff ff 	mov    rax,QWORD PTR [rbp-0xc0]
  3fafa8:	48 8b 48 08          	mov    rcx,QWORD PTR [rax+0x8]
  3fafac:	8b 45 ec             	mov    eax,DWORD PTR [rbp-0x14]
  3fafaf:	48 63 d0             	movsxd rdx,eax
  3fafb2:	48 89 d0             	mov    rax,rdx
  3fafb5:	48 c1 e0 03          	shl    rax,0x3
  3fafb9:	48 29 d0             	sub    rax,rdx
  3fafbc:	48 c1 e0 03          	shl    rax,0x3
  3fafc0:	48 01 c8             	add    rax,rcx
  3fafc3:	48 8b 50 10          	mov    rdx,QWORD PTR [rax+0x10]
  3fafc7:	48 8b 85 40 ff ff ff 	mov    rax,QWORD PTR [rbp-0xc0]
  3fafce:	48 89 50 20          	mov    QWORD PTR [rax+0x20],rdx
  3fafd2:	48 8b 85 40 ff ff ff 	mov    rax,QWORD PTR [rbp-0xc0]
  3fafd9:	48 8b 48 08          	mov    rcx,QWORD PTR [rax+0x8]
  3fafdd:	8b 45 ec             	mov    eax,DWORD PTR [rbp-0x14]
  3fafe0:	48 63 d0             	movsxd rdx,eax
  3fafe3:	48 89 d0             	mov    rax,rdx
  3fafe6:	48 c1 e0 03          	shl    rax,0x3
  3fafea:	48 29 d0             	sub    rax,rdx
  3fafed:	48 c1 e0 03          	shl    rax,0x3
  3faff1:	48 01 c8             	add    rax,rcx
  3faff4:	48 8b 50 28          	mov    rdx,QWORD PTR [rax+0x28]
  3faff8:	48 8b 85 40 ff ff ff 	mov    rax,QWORD PTR [rbp-0xc0]
  3fafff:	48 89 50 30          	mov    QWORD PTR [rax+0x30],rdx
  3fb003:	e9 94 00 00 00       	jmp    3fb09c <_init-0x5f64>
  3fb008:	48 8b 85 40 ff ff ff 	mov    rax,QWORD PTR [rbp-0xc0]
  3fb00f:	48 8b 48 08          	mov    rcx,QWORD PTR [rax+0x8]
  3fb013:	8b 45 ec             	mov    eax,DWORD PTR [rbp-0x14]
  3fb016:	48 63 d0             	movsxd rdx,eax
  3fb019:	48 89 d0             	mov    rax,rdx
  3fb01c:	48 c1 e0 03          	shl    rax,0x3
  3fb020:	48 29 d0             	sub    rax,rdx
  3fb023:	48 c1 e0 03          	shl    rax,0x3
  3fb027:	48 01 c8             	add    rax,rcx
  3fb02a:	48 8b 50 10          	mov    rdx,QWORD PTR [rax+0x10]
  3fb02e:	48 8b 85 40 ff ff ff 	mov    rax,QWORD PTR [rbp-0xc0]
  3fb035:	48 89 50 28          	mov    QWORD PTR [rax+0x28],rdx
  3fb039:	48 8b 85 40 ff ff ff 	mov    rax,QWORD PTR [rbp-0xc0]
  3fb040:	48 8b 48 08          	mov    rcx,QWORD PTR [rax+0x8]
  3fb044:	8b 45 ec             	mov    eax,DWORD PTR [rbp-0x14]
  3fb047:	48 63 d0             	movsxd rdx,eax
  3fb04a:	48 89 d0             	mov    rax,rdx
  3fb04d:	48 c1 e0 03          	shl    rax,0x3
  3fb051:	48 29 d0             	sub    rax,rdx
  3fb054:	48 c1 e0 03          	shl    rax,0x3
  3fb058:	48 01 c8             	add    rax,rcx
  3fb05b:	48 8b 50 28          	mov    rdx,QWORD PTR [rax+0x28]
  3fb05f:	48 8b 85 40 ff ff ff 	mov    rax,QWORD PTR [rbp-0xc0]
  3fb066:	48 89 50 38          	mov    QWORD PTR [rax+0x38],rdx
  3fb06a:	48 8b 85 40 ff ff ff 	mov    rax,QWORD PTR [rbp-0xc0]
  3fb071:	48 8b 48 08          	mov    rcx,QWORD PTR [rax+0x8]
  3fb075:	8b 45 ec             	mov    eax,DWORD PTR [rbp-0x14]
  3fb078:	48 63 d0             	movsxd rdx,eax
  3fb07b:	48 89 d0             	mov    rax,rdx
  3fb07e:	48 c1 e0 03          	shl    rax,0x3
  3fb082:	48 29 d0             	sub    rax,rdx
  3fb085:	48 c1 e0 03          	shl    rax,0x3
  3fb089:	48 01 c8             	add    rax,rcx
  3fb08c:	48 8b 50 08          	mov    rdx,QWORD PTR [rax+0x8]
  3fb090:	48 8b 85 40 ff ff ff 	mov    rax,QWORD PTR [rbp-0xc0]
  3fb097:	48 89 50 40          	mov    QWORD PTR [rax+0x40],rdx
  3fb09b:	90                   	nop
  3fb09c:	eb 41                	jmp    3fb0df <_init-0x5f21>
  3fb09e:	48 8b 85 40 ff ff ff 	mov    rax,QWORD PTR [rbp-0xc0]
  3fb0a5:	48 8b 48 50          	mov    rcx,QWORD PTR [rax+0x50]
  3fb0a9:	48 8b 85 40 ff ff ff 	mov    rax,QWORD PTR [rbp-0xc0]
  3fb0b0:	48 8b 70 08          	mov    rsi,QWORD PTR [rax+0x8]
  3fb0b4:	8b 45 ec             	mov    eax,DWORD PTR [rbp-0x14]
  3fb0b7:	48 63 d0             	movsxd rdx,eax
  3fb0ba:	48 89 d0             	mov    rax,rdx
  3fb0bd:	48 c1 e0 03          	shl    rax,0x3
  3fb0c1:	48 29 d0             	sub    rax,rdx
  3fb0c4:	48 c1 e0 03          	shl    rax,0x3
  3fb0c8:	48 01 f0             	add    rax,rsi
  3fb0cb:	48 8b 40 08          	mov    rax,QWORD PTR [rax+0x8]
  3fb0cf:	48 8d 14 01          	lea    rdx,[rcx+rax*1]
  3fb0d3:	48 8b 85 40 ff ff ff 	mov    rax,QWORD PTR [rbp-0xc0]
  3fb0da:	48 89 50 18          	mov    QWORD PTR [rax+0x18],rdx
  3fb0de:	90                   	nop
  3fb0df:	83 45 ec 01          	add    DWORD PTR [rbp-0x14],0x1
  3fb0e3:	48 8b 85 40 ff ff ff 	mov    rax,QWORD PTR [rbp-0xc0]
  3fb0ea:	48 8b 00             	mov    rax,QWORD PTR [rax]
  3fb0ed:	0f b7 40 38          	movzx  eax,WORD PTR [rax+0x38]
  3fb0f1:	0f b7 c0             	movzx  eax,ax
  3fb0f4:	39 45 ec             	cmp    DWORD PTR [rbp-0x14],eax
  3fb0f7:	0f 8c 30 fe ff ff    	jl     3faf2d <_init-0x60d3>
  3fb0fd:	48 8b 85 40 ff ff ff 	mov    rax,QWORD PTR [rbp-0xc0]
  3fb104:	48 8b 8d 50 ff ff ff 	mov    rcx,QWORD PTR [rbp-0xb0]
  3fb10b:	48 8b 9d 58 ff ff ff 	mov    rbx,QWORD PTR [rbp-0xa8]
  3fb112:	48 89 48 68          	mov    QWORD PTR [rax+0x68],rcx
  3fb116:	48 89 58 70          	mov    QWORD PTR [rax+0x70],rbx
  3fb11a:	48 8b 8d 60 ff ff ff 	mov    rcx,QWORD PTR [rbp-0xa0]
  3fb121:	48 8b 9d 68 ff ff ff 	mov    rbx,QWORD PTR [rbp-0x98]
  3fb128:	48 89 48 78          	mov    QWORD PTR [rax+0x78],rcx
  3fb12c:	48 89 98 80 00 00 00 	mov    QWORD PTR [rax+0x80],rbx
  3fb133:	48 8b 8d 70 ff ff ff 	mov    rcx,QWORD PTR [rbp-0x90]
  3fb13a:	48 8b 9d 78 ff ff ff 	mov    rbx,QWORD PTR [rbp-0x88]
  3fb141:	48 89 88 88 00 00 00 	mov    QWORD PTR [rax+0x88],rcx
  3fb148:	48 89 98 90 00 00 00 	mov    QWORD PTR [rax+0x90],rbx
  3fb14f:	48 8b 4d 80          	mov    rcx,QWORD PTR [rbp-0x80]
  3fb153:	48 8b 5d 88          	mov    rbx,QWORD PTR [rbp-0x78]
  3fb157:	48 89 88 98 00 00 00 	mov    QWORD PTR [rax+0x98],rcx
  3fb15e:	48 89 98 a0 00 00 00 	mov    QWORD PTR [rax+0xa0],rbx
  3fb165:	48 8b 4d 90          	mov    rcx,QWORD PTR [rbp-0x70]
  3fb169:	48 8b 5d 98          	mov    rbx,QWORD PTR [rbp-0x68]
  3fb16d:	48 89 88 a8 00 00 00 	mov    QWORD PTR [rax+0xa8],rcx
  3fb174:	48 89 98 b0 00 00 00 	mov    QWORD PTR [rax+0xb0],rbx
  3fb17b:	48 8b 4d a0          	mov    rcx,QWORD PTR [rbp-0x60]
  3fb17f:	48 8b 5d a8          	mov    rbx,QWORD PTR [rbp-0x58]
  3fb183:	48 89 88 b8 00 00 00 	mov    QWORD PTR [rax+0xb8],rcx
  3fb18a:	48 89 98 c0 00 00 00 	mov    QWORD PTR [rax+0xc0],rbx
  3fb191:	48 8b 4d b0          	mov    rcx,QWORD PTR [rbp-0x50]
  3fb195:	48 8b 5d b8          	mov    rbx,QWORD PTR [rbp-0x48]
  3fb199:	48 89 88 c8 00 00 00 	mov    QWORD PTR [rax+0xc8],rcx
  3fb1a0:	48 89 98 d0 00 00 00 	mov    QWORD PTR [rax+0xd0],rbx
  3fb1a7:	48 8b 4d c0          	mov    rcx,QWORD PTR [rbp-0x40]
  3fb1ab:	48 8b 5d c8          	mov    rbx,QWORD PTR [rbp-0x38]
  3fb1af:	48 89 88 d8 00 00 00 	mov    QWORD PTR [rax+0xd8],rcx
  3fb1b6:	48 89 98 e0 00 00 00 	mov    QWORD PTR [rax+0xe0],rbx
  3fb1bd:	48 8b 4d d0          	mov    rcx,QWORD PTR [rbp-0x30]
  3fb1c1:	48 8b 5d d8          	mov    rbx,QWORD PTR [rbp-0x28]
  3fb1c5:	48 89 88 e8 00 00 00 	mov    QWORD PTR [rax+0xe8],rcx
  3fb1cc:	48 89 98 f0 00 00 00 	mov    QWORD PTR [rax+0xf0],rbx
  3fb1d3:	48 8b 45 80          	mov    rax,QWORD PTR [rbp-0x80]
  3fb1d7:	48 89 c2             	mov    rdx,rax
  3fb1da:	48 8b 85 40 ff ff ff 	mov    rax,QWORD PTR [rbp-0xc0]
  3fb1e1:	48 89 50 58          	mov    QWORD PTR [rax+0x58],rdx
  3fb1e5:	b8 00 00 00 00       	mov    eax,0x0
  3fb1ea:	48 81 c4 b8 00 00 00 	add    rsp,0xb8
  3fb1f1:	5b                   	pop    rbx
  3fb1f2:	5d                   	pop    rbp
  3fb1f3:	c3                   	ret    
  3fb1f4:	f3 0f 1e fa          	endbr64 
  3fb1f8:	55                   	push   rbp
  3fb1f9:	48 89 e5             	mov    rbp,rsp
  3fb1fc:	53                   	push   rbx
  3fb1fd:	48 81 ec b8 00 00 00 	sub    rsp,0xb8
  3fb204:	48 89 bd 48 ff ff ff 	mov    QWORD PTR [rbp-0xb8],rdi
  3fb20b:	48 89 b5 40 ff ff ff 	mov    QWORD PTR [rbp-0xc0],rsi
  3fb212:	48 8b 85 40 ff ff ff 	mov    rax,QWORD PTR [rbp-0xc0]
  3fb219:	48 8b 95 48 ff ff ff 	mov    rdx,QWORD PTR [rbp-0xb8]
  3fb220:	48 89 50 60          	mov    QWORD PTR [rax+0x60],rdx
  3fb224:	48 8b 85 48 ff ff ff 	mov    rax,QWORD PTR [rbp-0xb8]
  3fb22b:	ba 00 00 00 00       	mov    edx,0x0
  3fb230:	be 02 00 00 00       	mov    esi,0x2
  3fb235:	48 89 c7             	mov    rdi,rax
  3fb238:	e8 11 0c 00 00       	call   3fbe4e <_init-0x51b2>
  3fb23d:	89 45 e8             	mov    DWORD PTR [rbp-0x18],eax
  3fb240:	83 7d e8 00          	cmp    DWORD PTR [rbp-0x18],0x0
  3fb244:	79 0a                	jns    3fb250 <_init-0x5db0>
  3fb246:	b8 ff ff ff ff       	mov    eax,0xffffffff
  3fb24b:	e9 b1 03 00 00       	jmp    3fb601 <_init-0x59ff>
  3fb250:	48 8b 85 40 ff ff ff 	mov    rax,QWORD PTR [rbp-0xc0]
  3fb257:	8b 55 e8             	mov    edx,DWORD PTR [rbp-0x18]
  3fb25a:	89 90 f8 00 00 00    	mov    DWORD PTR [rax+0xf8],edx
  3fb260:	8b 45 e8             	mov    eax,DWORD PTR [rbp-0x18]
  3fb263:	48 98                	cdqe   
  3fb265:	48 8d 95 50 ff ff ff 	lea    rdx,[rbp-0xb0]
  3fb26c:	48 89 d6             	mov    rsi,rdx
  3fb26f:	48 89 c7             	mov    rdi,rax
  3fb272:	e8 97 0c 00 00       	call   3fbf0e <_init-0x50f2>
  3fb277:	85 c0                	test   eax,eax
  3fb279:	79 0a                	jns    3fb285 <_init-0x5d7b>
  3fb27b:	b8 ff ff ff ff       	mov    eax,0xffffffff
  3fb280:	e9 7c 03 00 00       	jmp    3fb601 <_init-0x59ff>
  3fb285:	8b 45 e8             	mov    eax,DWORD PTR [rbp-0x18]
  3fb288:	48 63 d0             	movsxd rdx,eax
  3fb28b:	48 8b 45 80          	mov    rax,QWORD PTR [rbp-0x80]
  3fb28f:	41 b9 00 00 00 00    	mov    r9d,0x0
  3fb295:	49 89 d0             	mov    r8,rdx
  3fb298:	b9 01 00 00 00       	mov    ecx,0x1
  3fb29d:	ba 03 00 00 00       	mov    edx,0x3
  3fb2a2:	48 89 c6             	mov    rsi,rax
  3fb2a5:	bf 00 00 00 00       	mov    edi,0x0
  3fb2aa:	e8 3b 0d 00 00       	call   3fbfea <_init-0x5016>
  3fb2af:	48 8b 95 40 ff ff ff 	mov    rdx,QWORD PTR [rbp-0xc0]
  3fb2b6:	48 89 42 50          	mov    QWORD PTR [rdx+0x50],rax
  3fb2ba:	48 8b 85 40 ff ff ff 	mov    rax,QWORD PTR [rbp-0xc0]
  3fb2c1:	48 8b 40 50          	mov    rax,QWORD PTR [rax+0x50]
  3fb2c5:	48 83 f8 ff          	cmp    rax,0xffffffffffffffff
  3fb2c9:	75 0a                	jne    3fb2d5 <_init-0x5d2b>
  3fb2cb:	b8 ff ff ff ff       	mov    eax,0xffffffff
  3fb2d0:	e9 2c 03 00 00       	jmp    3fb601 <_init-0x59ff>
  3fb2d5:	48 8b 85 40 ff ff ff 	mov    rax,QWORD PTR [rbp-0xc0]
  3fb2dc:	48 8b 50 50          	mov    rdx,QWORD PTR [rax+0x50]
  3fb2e0:	48 8b 85 40 ff ff ff 	mov    rax,QWORD PTR [rbp-0xc0]
  3fb2e7:	48 89 10             	mov    QWORD PTR [rax],rdx
  3fb2ea:	48 8b 85 40 ff ff ff 	mov    rax,QWORD PTR [rbp-0xc0]
  3fb2f1:	48 8b 50 50          	mov    rdx,QWORD PTR [rax+0x50]
  3fb2f5:	48 8b 85 40 ff ff ff 	mov    rax,QWORD PTR [rbp-0xc0]
  3fb2fc:	48 8b 00             	mov    rax,QWORD PTR [rax]
  3fb2ff:	48 8b 40 20          	mov    rax,QWORD PTR [rax+0x20]
  3fb303:	48 01 c2             	add    rdx,rax
  3fb306:	48 8b 85 40 ff ff ff 	mov    rax,QWORD PTR [rbp-0xc0]
  3fb30d:	48 89 50 08          	mov    QWORD PTR [rax+0x8],rdx
  3fb311:	48 8b 85 40 ff ff ff 	mov    rax,QWORD PTR [rbp-0xc0]
  3fb318:	48 8b 50 50          	mov    rdx,QWORD PTR [rax+0x50]
  3fb31c:	48 8b 85 40 ff ff ff 	mov    rax,QWORD PTR [rbp-0xc0]
  3fb323:	48 8b 00             	mov    rax,QWORD PTR [rax]
  3fb326:	48 8b 40 28          	mov    rax,QWORD PTR [rax+0x28]
  3fb32a:	48 01 c2             	add    rdx,rax
  3fb32d:	48 8b 85 40 ff ff ff 	mov    rax,QWORD PTR [rbp-0xc0]
  3fb334:	48 89 50 10          	mov    QWORD PTR [rax+0x10],rdx
  3fb338:	c7 45 ec 00 00 00 00 	mov    DWORD PTR [rbp-0x14],0x0
  3fb33f:	e9 b6 01 00 00       	jmp    3fb4fa <_init-0x5b06>
  3fb344:	48 8b 85 40 ff ff ff 	mov    rax,QWORD PTR [rbp-0xc0]
  3fb34b:	48 8b 48 08          	mov    rcx,QWORD PTR [rax+0x8]
  3fb34f:	8b 45 ec             	mov    eax,DWORD PTR [rbp-0x14]
  3fb352:	48 63 d0             	movsxd rdx,eax
  3fb355:	48 89 d0             	mov    rax,rdx
  3fb358:	48 c1 e0 03          	shl    rax,0x3
  3fb35c:	48 29 d0             	sub    rax,rdx
  3fb35f:	48 c1 e0 03          	shl    rax,0x3
  3fb363:	48 01 c8             	add    rax,rcx
  3fb366:	8b 00                	mov    eax,DWORD PTR [rax]
  3fb368:	83 f8 01             	cmp    eax,0x1
  3fb36b:	74 0e                	je     3fb37b <_init-0x5c85>
  3fb36d:	83 f8 02             	cmp    eax,0x2
  3fb370:	0f 84 3f 01 00 00    	je     3fb4b5 <_init-0x5b4b>
  3fb376:	e9 7b 01 00 00       	jmp    3fb4f6 <_init-0x5b0a>
  3fb37b:	48 8b 85 40 ff ff ff 	mov    rax,QWORD PTR [rbp-0xc0]
  3fb382:	48 8b 48 08          	mov    rcx,QWORD PTR [rax+0x8]
  3fb386:	8b 45 ec             	mov    eax,DWORD PTR [rbp-0x14]
  3fb389:	48 63 d0             	movsxd rdx,eax
  3fb38c:	48 89 d0             	mov    rax,rdx
  3fb38f:	48 c1 e0 03          	shl    rax,0x3
  3fb393:	48 29 d0             	sub    rax,rdx
  3fb396:	48 c1 e0 03          	shl    rax,0x3
  3fb39a:	48 01 c8             	add    rax,rcx
  3fb39d:	48 8b 40 08          	mov    rax,QWORD PTR [rax+0x8]
  3fb3a1:	48 85 c0             	test   rax,rax
  3fb3a4:	0f 95 c0             	setne  al
  3fb3a7:	0f b6 c0             	movzx  eax,al
  3fb3aa:	85 c0                	test   eax,eax
  3fb3ac:	74 0a                	je     3fb3b8 <_init-0x5c48>
  3fb3ae:	83 f8 01             	cmp    eax,0x1
  3fb3b1:	74 6c                	je     3fb41f <_init-0x5be1>
  3fb3b3:	e9 3e 01 00 00       	jmp    3fb4f6 <_init-0x5b0a>
  3fb3b8:	48 8b 85 40 ff ff ff 	mov    rax,QWORD PTR [rbp-0xc0]
  3fb3bf:	48 8b 48 08          	mov    rcx,QWORD PTR [rax+0x8]
  3fb3c3:	8b 45 ec             	mov    eax,DWORD PTR [rbp-0x14]
  3fb3c6:	48 63 d0             	movsxd rdx,eax
  3fb3c9:	48 89 d0             	mov    rax,rdx
  3fb3cc:	48 c1 e0 03          	shl    rax,0x3
  3fb3d0:	48 29 d0             	sub    rax,rdx
  3fb3d3:	48 c1 e0 03          	shl    rax,0x3
  3fb3d7:	48 01 c8             	add    rax,rcx
  3fb3da:	48 8b 50 10          	mov    rdx,QWORD PTR [rax+0x10]
  3fb3de:	48 8b 85 40 ff ff ff 	mov    rax,QWORD PTR [rbp-0xc0]
  3fb3e5:	48 89 50 20          	mov    QWORD PTR [rax+0x20],rdx
  3fb3e9:	48 8b 85 40 ff ff ff 	mov    rax,QWORD PTR [rbp-0xc0]
  3fb3f0:	48 8b 48 08          	mov    rcx,QWORD PTR [rax+0x8]
  3fb3f4:	8b 45 ec             	mov    eax,DWORD PTR [rbp-0x14]
  3fb3f7:	48 63 d0             	movsxd rdx,eax
  3fb3fa:	48 89 d0             	mov    rax,rdx
  3fb3fd:	48 c1 e0 03          	shl    rax,0x3
  3fb401:	48 29 d0             	sub    rax,rdx
  3fb404:	48 c1 e0 03          	shl    rax,0x3
  3fb408:	48 01 c8             	add    rax,rcx
  3fb40b:	48 8b 50 28          	mov    rdx,QWORD PTR [rax+0x28]
  3fb40f:	48 8b 85 40 ff ff ff 	mov    rax,QWORD PTR [rbp-0xc0]
  3fb416:	48 89 50 30          	mov    QWORD PTR [rax+0x30],rdx
  3fb41a:	e9 94 00 00 00       	jmp    3fb4b3 <_init-0x5b4d>
  3fb41f:	48 8b 85 40 ff ff ff 	mov    rax,QWORD PTR [rbp-0xc0]
  3fb426:	48 8b 48 08          	mov    rcx,QWORD PTR [rax+0x8]
  3fb42a:	8b 45 ec             	mov    eax,DWORD PTR [rbp-0x14]
  3fb42d:	48 63 d0             	movsxd rdx,eax
  3fb430:	48 89 d0             	mov    rax,rdx
  3fb433:	48 c1 e0 03          	shl    rax,0x3
  3fb437:	48 29 d0             	sub    rax,rdx
  3fb43a:	48 c1 e0 03          	shl    rax,0x3
  3fb43e:	48 01 c8             	add    rax,rcx
  3fb441:	48 8b 50 10          	mov    rdx,QWORD PTR [rax+0x10]
  3fb445:	48 8b 85 40 ff ff ff 	mov    rax,QWORD PTR [rbp-0xc0]
  3fb44c:	48 89 50 28          	mov    QWORD PTR [rax+0x28],rdx
  3fb450:	48 8b 85 40 ff ff ff 	mov    rax,QWORD PTR [rbp-0xc0]
  3fb457:	48 8b 48 08          	mov    rcx,QWORD PTR [rax+0x8]
  3fb45b:	8b 45 ec             	mov    eax,DWORD PTR [rbp-0x14]
  3fb45e:	48 63 d0             	movsxd rdx,eax
  3fb461:	48 89 d0             	mov    rax,rdx
  3fb464:	48 c1 e0 03          	shl    rax,0x3
  3fb468:	48 29 d0             	sub    rax,rdx
  3fb46b:	48 c1 e0 03          	shl    rax,0x3
  3fb46f:	48 01 c8             	add    rax,rcx
  3fb472:	48 8b 50 28          	mov    rdx,QWORD PTR [rax+0x28]
  3fb476:	48 8b 85 40 ff ff ff 	mov    rax,QWORD PTR [rbp-0xc0]
  3fb47d:	48 89 50 38          	mov    QWORD PTR [rax+0x38],rdx
  3fb481:	48 8b 85 40 ff ff ff 	mov    rax,QWORD PTR [rbp-0xc0]
  3fb488:	48 8b 48 08          	mov    rcx,QWORD PTR [rax+0x8]
  3fb48c:	8b 45 ec             	mov    eax,DWORD PTR [rbp-0x14]
  3fb48f:	48 63 d0             	movsxd rdx,eax
  3fb492:	48 89 d0             	mov    rax,rdx
  3fb495:	48 c1 e0 03          	shl    rax,0x3
  3fb499:	48 29 d0             	sub    rax,rdx
  3fb49c:	48 c1 e0 03          	shl    rax,0x3
  3fb4a0:	48 01 c8             	add    rax,rcx
  3fb4a3:	48 8b 50 08          	mov    rdx,QWORD PTR [rax+0x8]
  3fb4a7:	48 8b 85 40 ff ff ff 	mov    rax,QWORD PTR [rbp-0xc0]
  3fb4ae:	48 89 50 40          	mov    QWORD PTR [rax+0x40],rdx
  3fb4b2:	90                   	nop
  3fb4b3:	eb 41                	jmp    3fb4f6 <_init-0x5b0a>
  3fb4b5:	48 8b 85 40 ff ff ff 	mov    rax,QWORD PTR [rbp-0xc0]
  3fb4bc:	48 8b 48 50          	mov    rcx,QWORD PTR [rax+0x50]
  3fb4c0:	48 8b 85 40 ff ff ff 	mov    rax,QWORD PTR [rbp-0xc0]
  3fb4c7:	48 8b 70 08          	mov    rsi,QWORD PTR [rax+0x8]
  3fb4cb:	8b 45 ec             	mov    eax,DWORD PTR [rbp-0x14]
  3fb4ce:	48 63 d0             	movsxd rdx,eax
  3fb4d1:	48 89 d0             	mov    rax,rdx
  3fb4d4:	48 c1 e0 03          	shl    rax,0x3
  3fb4d8:	48 29 d0             	sub    rax,rdx
  3fb4db:	48 c1 e0 03          	shl    rax,0x3
  3fb4df:	48 01 f0             	add    rax,rsi
  3fb4e2:	48 8b 40 08          	mov    rax,QWORD PTR [rax+0x8]
  3fb4e6:	48 8d 14 01          	lea    rdx,[rcx+rax*1]
  3fb4ea:	48 8b 85 40 ff ff ff 	mov    rax,QWORD PTR [rbp-0xc0]
  3fb4f1:	48 89 50 18          	mov    QWORD PTR [rax+0x18],rdx
  3fb4f5:	90                   	nop
  3fb4f6:	83 45 ec 01          	add    DWORD PTR [rbp-0x14],0x1
  3fb4fa:	48 8b 85 40 ff ff ff 	mov    rax,QWORD PTR [rbp-0xc0]
  3fb501:	48 8b 00             	mov    rax,QWORD PTR [rax]
  3fb504:	0f b7 40 38          	movzx  eax,WORD PTR [rax+0x38]
  3fb508:	0f b7 c0             	movzx  eax,ax
  3fb50b:	39 45 ec             	cmp    DWORD PTR [rbp-0x14],eax
  3fb50e:	0f 8c 30 fe ff ff    	jl     3fb344 <_init-0x5cbc>
  3fb514:	48 8b 85 40 ff ff ff 	mov    rax,QWORD PTR [rbp-0xc0]
  3fb51b:	48 8b 8d 50 ff ff ff 	mov    rcx,QWORD PTR [rbp-0xb0]
  3fb522:	48 8b 9d 58 ff ff ff 	mov    rbx,QWORD PTR [rbp-0xa8]
  3fb529:	48 89 48 68          	mov    QWORD PTR [rax+0x68],rcx
  3fb52d:	48 89 58 70          	mov    QWORD PTR [rax+0x70],rbx
  3fb531:	48 8b 8d 60 ff ff ff 	mov    rcx,QWORD PTR [rbp-0xa0]
  3fb538:	48 8b 9d 68 ff ff ff 	mov    rbx,QWORD PTR [rbp-0x98]
  3fb53f:	48 89 48 78          	mov    QWORD PTR [rax+0x78],rcx
  3fb543:	48 89 98 80 00 00 00 	mov    QWORD PTR [rax+0x80],rbx
  3fb54a:	48 8b 8d 70 ff ff ff 	mov    rcx,QWORD PTR [rbp-0x90]
  3fb551:	48 8b 9d 78 ff ff ff 	mov    rbx,QWORD PTR [rbp-0x88]
  3fb558:	48 89 88 88 00 00 00 	mov    QWORD PTR [rax+0x88],rcx
  3fb55f:	48 89 98 90 00 00 00 	mov    QWORD PTR [rax+0x90],rbx
  3fb566:	48 8b 4d 80          	mov    rcx,QWORD PTR [rbp-0x80]
  3fb56a:	48 8b 5d 88          	mov    rbx,QWORD PTR [rbp-0x78]
  3fb56e:	48 89 88 98 00 00 00 	mov    QWORD PTR [rax+0x98],rcx
  3fb575:	48 89 98 a0 00 00 00 	mov    QWORD PTR [rax+0xa0],rbx
  3fb57c:	48 8b 4d 90          	mov    rcx,QWORD PTR [rbp-0x70]
  3fb580:	48 8b 5d 98          	mov    rbx,QWORD PTR [rbp-0x68]
  3fb584:	48 89 88 a8 00 00 00 	mov    QWORD PTR [rax+0xa8],rcx
  3fb58b:	48 89 98 b0 00 00 00 	mov    QWORD PTR [rax+0xb0],rbx
  3fb592:	48 8b 4d a0          	mov    rcx,QWORD PTR [rbp-0x60]
  3fb596:	48 8b 5d a8          	mov    rbx,QWORD PTR [rbp-0x58]
  3fb59a:	48 89 88 b8 00 00 00 	mov    QWORD PTR [rax+0xb8],rcx
  3fb5a1:	48 89 98 c0 00 00 00 	mov    QWORD PTR [rax+0xc0],rbx
  3fb5a8:	48 8b 4d b0          	mov    rcx,QWORD PTR [rbp-0x50]
  3fb5ac:	48 8b 5d b8          	mov    rbx,QWORD PTR [rbp-0x48]
  3fb5b0:	48 89 88 c8 00 00 00 	mov    QWORD PTR [rax+0xc8],rcx
  3fb5b7:	48 89 98 d0 00 00 00 	mov    QWORD PTR [rax+0xd0],rbx
  3fb5be:	48 8b 4d c0          	mov    rcx,QWORD PTR [rbp-0x40]
  3fb5c2:	48 8b 5d c8          	mov    rbx,QWORD PTR [rbp-0x38]
  3fb5c6:	48 89 88 d8 00 00 00 	mov    QWORD PTR [rax+0xd8],rcx
  3fb5cd:	48 89 98 e0 00 00 00 	mov    QWORD PTR [rax+0xe0],rbx
  3fb5d4:	48 8b 4d d0          	mov    rcx,QWORD PTR [rbp-0x30]
  3fb5d8:	48 8b 5d d8          	mov    rbx,QWORD PTR [rbp-0x28]
  3fb5dc:	48 89 88 e8 00 00 00 	mov    QWORD PTR [rax+0xe8],rcx
  3fb5e3:	48 89 98 f0 00 00 00 	mov    QWORD PTR [rax+0xf0],rbx
  3fb5ea:	48 8b 45 80          	mov    rax,QWORD PTR [rbp-0x80]
  3fb5ee:	48 89 c2             	mov    rdx,rax
  3fb5f1:	48 8b 85 40 ff ff ff 	mov    rax,QWORD PTR [rbp-0xc0]
  3fb5f8:	48 89 50 58          	mov    QWORD PTR [rax+0x58],rdx
  3fb5fc:	b8 00 00 00 00       	mov    eax,0x0
  3fb601:	48 81 c4 b8 00 00 00 	add    rsp,0xb8
  3fb608:	5b                   	pop    rbx
  3fb609:	5d                   	pop    rbp
  3fb60a:	c3                   	ret    
  3fb60b:	f3 0f 1e fa          	endbr64 
  3fb60f:	55                   	push   rbp
  3fb610:	48 89 e5             	mov    rbp,rsp
  3fb613:	48 83 ec 70          	sub    rsp,0x70
  3fb617:	48 89 7d 98          	mov    QWORD PTR [rbp-0x68],rdi
  3fb61b:	48 89 75 90          	mov    QWORD PTR [rbp-0x70],rsi
  3fb61f:	c7 45 b4 00 00 00 00 	mov    DWORD PTR [rbp-0x4c],0x0
  3fb626:	c7 45 f8 ff ff ff ff 	mov    DWORD PTR [rbp-0x8],0xffffffff
  3fb62d:	48 8b 45 98          	mov    rax,QWORD PTR [rbp-0x68]
  3fb631:	48 8b 40 18          	mov    rax,QWORD PTR [rax+0x18]
  3fb635:	48 89 45 a8          	mov    QWORD PTR [rbp-0x58],rax
  3fb639:	48 c7 45 c0 00 00 00 	mov    QWORD PTR [rbp-0x40],0x0
  3fb640:	00 
  3fb641:	48 c7 45 b8 00 00 00 	mov    QWORD PTR [rbp-0x48],0x0
  3fb648:	00 
  3fb649:	c7 45 fc 00 00 00 00 	mov    DWORD PTR [rbp-0x4],0x0
  3fb650:	e9 67 01 00 00       	jmp    3fb7bc <_init-0x5844>
  3fb655:	8b 45 fc             	mov    eax,DWORD PTR [rbp-0x4]
  3fb658:	48 98                	cdqe   
  3fb65a:	48 c1 e0 04          	shl    rax,0x4
  3fb65e:	48 89 c2             	mov    rdx,rax
  3fb661:	48 8b 45 a8          	mov    rax,QWORD PTR [rbp-0x58]
  3fb665:	48 01 d0             	add    rax,rdx
  3fb668:	48 8b 00             	mov    rax,QWORD PTR [rax]
  3fb66b:	48 83 f8 17          	cmp    rax,0x17
  3fb66f:	0f 87 43 01 00 00    	ja     3fb7b8 <_init-0x5848>
  3fb675:	48 8d 14 85 00 00 00 	lea    rdx,[rax*4+0x0]
  3fb67c:	00 
  3fb67d:	48 8d 05 30 15 00 00 	lea    rax,[rip+0x1530]        # 3fcbb4 <_init-0x444c>
  3fb684:	8b 04 02             	mov    eax,DWORD PTR [rdx+rax*1]
  3fb687:	48 98                	cdqe   
  3fb689:	48 8d 15 24 15 00 00 	lea    rdx,[rip+0x1524]        # 3fcbb4 <_init-0x444c>
  3fb690:	48 01 d0             	add    rax,rdx
  3fb693:	3e ff e0             	notrack jmp rax
  3fb696:	48 8b 45 98          	mov    rax,QWORD PTR [rbp-0x68]
  3fb69a:	48 8b 50 50          	mov    rdx,QWORD PTR [rax+0x50]
  3fb69e:	8b 45 fc             	mov    eax,DWORD PTR [rbp-0x4]
  3fb6a1:	48 98                	cdqe   
  3fb6a3:	48 c1 e0 04          	shl    rax,0x4
  3fb6a7:	48 89 c1             	mov    rcx,rax
  3fb6aa:	48 8b 45 a8          	mov    rax,QWORD PTR [rbp-0x58]
  3fb6ae:	48 01 c8             	add    rax,rcx
  3fb6b1:	48 8b 48 08          	mov    rcx,QWORD PTR [rax+0x8]
  3fb6b5:	48 8b 45 98          	mov    rax,QWORD PTR [rbp-0x68]
  3fb6b9:	48 8b 40 20          	mov    rax,QWORD PTR [rax+0x20]
  3fb6bd:	48 29 c1             	sub    rcx,rax
  3fb6c0:	48 89 c8             	mov    rax,rcx
  3fb6c3:	48 01 d0             	add    rax,rdx
  3fb6c6:	48 89 45 f0          	mov    QWORD PTR [rbp-0x10],rax
  3fb6ca:	e9 e9 00 00 00       	jmp    3fb7b8 <_init-0x5848>
  3fb6cf:	48 8b 45 98          	mov    rax,QWORD PTR [rbp-0x68]
  3fb6d3:	48 8b 50 50          	mov    rdx,QWORD PTR [rax+0x50]
  3fb6d7:	48 8b 45 98          	mov    rax,QWORD PTR [rbp-0x68]
  3fb6db:	48 8b 48 40          	mov    rcx,QWORD PTR [rax+0x40]
  3fb6df:	8b 45 fc             	mov    eax,DWORD PTR [rbp-0x4]
  3fb6e2:	48 98                	cdqe   
  3fb6e4:	48 c1 e0 04          	shl    rax,0x4
  3fb6e8:	48 89 c6             	mov    rsi,rax
  3fb6eb:	48 8b 45 a8          	mov    rax,QWORD PTR [rbp-0x58]
  3fb6ef:	48 01 f0             	add    rax,rsi
  3fb6f2:	48 8b 70 08          	mov    rsi,QWORD PTR [rax+0x8]
  3fb6f6:	48 8b 45 98          	mov    rax,QWORD PTR [rbp-0x68]
  3fb6fa:	48 8b 40 28          	mov    rax,QWORD PTR [rax+0x28]
  3fb6fe:	48 29 c6             	sub    rsi,rax
  3fb701:	48 89 f0             	mov    rax,rsi
  3fb704:	48 01 c8             	add    rax,rcx
  3fb707:	48 01 d0             	add    rax,rdx
  3fb70a:	48 89 45 e0          	mov    QWORD PTR [rbp-0x20],rax
  3fb70e:	e9 a5 00 00 00       	jmp    3fb7b8 <_init-0x5848>
  3fb713:	48 8b 45 98          	mov    rax,QWORD PTR [rbp-0x68]
  3fb717:	48 8b 50 50          	mov    rdx,QWORD PTR [rax+0x50]
  3fb71b:	8b 45 fc             	mov    eax,DWORD PTR [rbp-0x4]
  3fb71e:	48 98                	cdqe   
  3fb720:	48 c1 e0 04          	shl    rax,0x4
  3fb724:	48 89 c1             	mov    rcx,rax
  3fb727:	48 8b 45 a8          	mov    rax,QWORD PTR [rbp-0x58]
  3fb72b:	48 01 c8             	add    rax,rcx
  3fb72e:	48 8b 48 08          	mov    rcx,QWORD PTR [rax+0x8]
  3fb732:	48 8b 45 98          	mov    rax,QWORD PTR [rbp-0x68]
  3fb736:	48 8b 40 20          	mov    rax,QWORD PTR [rax+0x20]
  3fb73a:	48 29 c1             	sub    rcx,rax
  3fb73d:	48 89 c8             	mov    rax,rcx
  3fb740:	48 01 d0             	add    rax,rdx
  3fb743:	48 89 45 d8          	mov    QWORD PTR [rbp-0x28],rax
  3fb747:	eb 6f                	jmp    3fb7b8 <_init-0x5848>
  3fb749:	8b 45 fc             	mov    eax,DWORD PTR [rbp-0x4]
  3fb74c:	48 98                	cdqe   
  3fb74e:	48 c1 e0 04          	shl    rax,0x4
  3fb752:	48 89 c2             	mov    rdx,rax
  3fb755:	48 8b 45 a8          	mov    rax,QWORD PTR [rbp-0x58]
  3fb759:	48 01 d0             	add    rax,rdx
  3fb75c:	48 8b 40 08          	mov    rax,QWORD PTR [rax+0x8]
  3fb760:	48 89 45 d0          	mov    QWORD PTR [rbp-0x30],rax
  3fb764:	eb 52                	jmp    3fb7b8 <_init-0x5848>
  3fb766:	48 8b 45 98          	mov    rax,QWORD PTR [rbp-0x68]
  3fb76a:	48 8b 50 50          	mov    rdx,QWORD PTR [rax+0x50]
  3fb76e:	8b 45 fc             	mov    eax,DWORD PTR [rbp-0x4]
  3fb771:	48 98                	cdqe   
  3fb773:	48 c1 e0 04          	shl    rax,0x4
  3fb777:	48 89 c1             	mov    rcx,rax
  3fb77a:	48 8b 45 a8          	mov    rax,QWORD PTR [rbp-0x58]
  3fb77e:	48 01 c8             	add    rax,rcx
  3fb781:	48 8b 48 08          	mov    rcx,QWORD PTR [rax+0x8]
  3fb785:	48 8b 45 98          	mov    rax,QWORD PTR [rbp-0x68]
  3fb789:	48 8b 40 20          	mov    rax,QWORD PTR [rax+0x20]
  3fb78d:	48 29 c1             	sub    rcx,rax
  3fb790:	48 89 c8             	mov    rax,rcx
  3fb793:	48 01 d0             	add    rax,rdx
  3fb796:	48 89 45 e8          	mov    QWORD PTR [rbp-0x18],rax
  3fb79a:	eb 1c                	jmp    3fb7b8 <_init-0x5848>
  3fb79c:	8b 45 fc             	mov    eax,DWORD PTR [rbp-0x4]
  3fb79f:	48 98                	cdqe   
  3fb7a1:	48 c1 e0 04          	shl    rax,0x4
  3fb7a5:	48 89 c2             	mov    rdx,rax
  3fb7a8:	48 8b 45 a8          	mov    rax,QWORD PTR [rbp-0x58]
  3fb7ac:	48 01 d0             	add    rax,rdx
  3fb7af:	48 8b 40 08          	mov    rax,QWORD PTR [rax+0x8]
  3fb7b3:	48 89 45 c8          	mov    QWORD PTR [rbp-0x38],rax
  3fb7b7:	90                   	nop
  3fb7b8:	83 45 fc 01          	add    DWORD PTR [rbp-0x4],0x1
  3fb7bc:	8b 45 fc             	mov    eax,DWORD PTR [rbp-0x4]
  3fb7bf:	48 98                	cdqe   
  3fb7c1:	48 c1 e0 04          	shl    rax,0x4
  3fb7c5:	48 89 c2             	mov    rdx,rax
  3fb7c8:	48 8b 45 a8          	mov    rax,QWORD PTR [rbp-0x58]
  3fb7cc:	48 01 d0             	add    rax,rdx
  3fb7cf:	48 8b 00             	mov    rax,QWORD PTR [rax]
  3fb7d2:	48 85 c0             	test   rax,rax
  3fb7d5:	0f 85 7a fe ff ff    	jne    3fb655 <_init-0x59ab>
  3fb7db:	48 83 7d f0 00       	cmp    QWORD PTR [rbp-0x10],0x0
  3fb7e0:	74 07                	je     3fb7e9 <_init-0x5817>
  3fb7e2:	48 83 7d e0 00       	cmp    QWORD PTR [rbp-0x20],0x0
  3fb7e7:	75 0a                	jne    3fb7f3 <_init-0x580d>
  3fb7e9:	b8 ff ff ff ff       	mov    eax,0xffffffff
  3fb7ee:	e9 af 01 00 00       	jmp    3fb9a2 <_init-0x565e>
  3fb7f3:	c7 45 fc 00 00 00 00 	mov    DWORD PTR [rbp-0x4],0x0
  3fb7fa:	eb 47                	jmp    3fb843 <_init-0x57bd>
  3fb7fc:	8b 45 fc             	mov    eax,DWORD PTR [rbp-0x4]
  3fb7ff:	48 63 d0             	movsxd rdx,eax
  3fb802:	48 89 d0             	mov    rax,rdx
  3fb805:	48 01 c0             	add    rax,rax
  3fb808:	48 01 d0             	add    rax,rdx
  3fb80b:	48 c1 e0 03          	shl    rax,0x3
  3fb80f:	48 89 c2             	mov    rdx,rax
  3fb812:	48 8b 45 f0          	mov    rax,QWORD PTR [rbp-0x10]
  3fb816:	48 01 d0             	add    rax,rdx
  3fb819:	8b 00                	mov    eax,DWORD PTR [rax]
  3fb81b:	89 c2                	mov    edx,eax
  3fb81d:	48 8b 45 d8          	mov    rax,QWORD PTR [rbp-0x28]
  3fb821:	48 01 d0             	add    rax,rdx
  3fb824:	48 8d 35 81 13 00 00 	lea    rsi,[rip+0x1381]        # 3fcbac <_init-0x4454>
  3fb82b:	48 89 c7             	mov    rdi,rax
  3fb82e:	e8 e3 11 00 00       	call   3fca16 <_init-0x45ea>
  3fb833:	85 c0                	test   eax,eax
  3fb835:	75 08                	jne    3fb83f <_init-0x57c1>
  3fb837:	8b 45 fc             	mov    eax,DWORD PTR [rbp-0x4]
  3fb83a:	89 45 f8             	mov    DWORD PTR [rbp-0x8],eax
  3fb83d:	eb 2b                	jmp    3fb86a <_init-0x5796>
  3fb83f:	83 45 fc 01          	add    DWORD PTR [rbp-0x4],0x1
  3fb843:	8b 45 fc             	mov    eax,DWORD PTR [rbp-0x4]
  3fb846:	48 63 d0             	movsxd rdx,eax
  3fb849:	48 89 d0             	mov    rax,rdx
  3fb84c:	48 01 c0             	add    rax,rax
  3fb84f:	48 01 d0             	add    rax,rdx
  3fb852:	48 c1 e0 03          	shl    rax,0x3
  3fb856:	48 89 c2             	mov    rdx,rax
  3fb859:	48 8b 45 f0          	mov    rax,QWORD PTR [rbp-0x10]
  3fb85d:	48 01 d0             	add    rax,rdx
  3fb860:	8b 00                	mov    eax,DWORD PTR [rax]
  3fb862:	89 c0                	mov    eax,eax
  3fb864:	48 39 45 d0          	cmp    QWORD PTR [rbp-0x30],rax
  3fb868:	73 92                	jae    3fb7fc <_init-0x5804>
  3fb86a:	83 7d f8 ff          	cmp    DWORD PTR [rbp-0x8],0xffffffff
  3fb86e:	75 0a                	jne    3fb87a <_init-0x5786>
  3fb870:	b8 ff ff ff ff       	mov    eax,0xffffffff
  3fb875:	e9 28 01 00 00       	jmp    3fb9a2 <_init-0x565e>
  3fb87a:	c7 45 fc 00 00 00 00 	mov    DWORD PTR [rbp-0x4],0x0
  3fb881:	e9 c4 00 00 00       	jmp    3fb94a <_init-0x56b6>
  3fb886:	8b 45 fc             	mov    eax,DWORD PTR [rbp-0x4]
  3fb889:	48 63 d0             	movsxd rdx,eax
  3fb88c:	48 89 d0             	mov    rax,rdx
  3fb88f:	48 01 c0             	add    rax,rax
  3fb892:	48 01 d0             	add    rax,rdx
  3fb895:	48 c1 e0 03          	shl    rax,0x3
  3fb899:	48 89 c2             	mov    rdx,rax
  3fb89c:	48 8b 45 e8          	mov    rax,QWORD PTR [rbp-0x18]
  3fb8a0:	48 01 d0             	add    rax,rdx
  3fb8a3:	48 8b 40 08          	mov    rax,QWORD PTR [rax+0x8]
  3fb8a7:	48 c1 e8 20          	shr    rax,0x20
  3fb8ab:	48 89 c2             	mov    rdx,rax
  3fb8ae:	48 89 d0             	mov    rax,rdx
  3fb8b1:	48 01 c0             	add    rax,rax
  3fb8b4:	48 01 d0             	add    rax,rdx
  3fb8b7:	48 c1 e0 03          	shl    rax,0x3
  3fb8bb:	48 89 c2             	mov    rdx,rax
  3fb8be:	48 8b 45 f0          	mov    rax,QWORD PTR [rbp-0x10]
  3fb8c2:	48 01 d0             	add    rax,rdx
  3fb8c5:	8b 00                	mov    eax,DWORD PTR [rax]
  3fb8c7:	89 c2                	mov    edx,eax
  3fb8c9:	48 8b 45 d8          	mov    rax,QWORD PTR [rbp-0x28]
  3fb8cd:	48 01 d0             	add    rax,rdx
  3fb8d0:	48 8d 35 d5 12 00 00 	lea    rsi,[rip+0x12d5]        # 3fcbac <_init-0x4454>
  3fb8d7:	48 89 c7             	mov    rdi,rax
  3fb8da:	e8 37 11 00 00       	call   3fca16 <_init-0x45ea>
  3fb8df:	85 c0                	test   eax,eax
  3fb8e1:	75 63                	jne    3fb946 <_init-0x56ba>
  3fb8e3:	8b 45 fc             	mov    eax,DWORD PTR [rbp-0x4]
  3fb8e6:	48 63 d0             	movsxd rdx,eax
  3fb8e9:	48 89 d0             	mov    rax,rdx
  3fb8ec:	48 01 c0             	add    rax,rax
  3fb8ef:	48 01 d0             	add    rax,rdx
  3fb8f2:	48 c1 e0 03          	shl    rax,0x3
  3fb8f6:	48 89 c2             	mov    rdx,rax
  3fb8f9:	48 8b 45 e8          	mov    rax,QWORD PTR [rbp-0x18]
  3fb8fd:	48 01 d0             	add    rax,rdx
  3fb900:	48 8b 00             	mov    rax,QWORD PTR [rax]
  3fb903:	48 89 45 c0          	mov    QWORD PTR [rbp-0x40],rax
  3fb907:	48 8b 45 98          	mov    rax,QWORD PTR [rbp-0x68]
  3fb90b:	48 8b 48 40          	mov    rcx,QWORD PTR [rax+0x40]
  3fb90f:	8b 45 fc             	mov    eax,DWORD PTR [rbp-0x4]
  3fb912:	48 63 d0             	movsxd rdx,eax
  3fb915:	48 89 d0             	mov    rax,rdx
  3fb918:	48 01 c0             	add    rax,rax
  3fb91b:	48 01 d0             	add    rax,rdx
  3fb91e:	48 c1 e0 03          	shl    rax,0x3
  3fb922:	48 89 c2             	mov    rdx,rax
  3fb925:	48 8b 45 e8          	mov    rax,QWORD PTR [rbp-0x18]
  3fb929:	48 01 d0             	add    rax,rdx
  3fb92c:	48 8b 10             	mov    rdx,QWORD PTR [rax]
  3fb92f:	48 8b 45 98          	mov    rax,QWORD PTR [rbp-0x68]
  3fb933:	48 8b 40 28          	mov    rax,QWORD PTR [rax+0x28]
  3fb937:	48 29 c2             	sub    rdx,rax
  3fb93a:	48 89 d0             	mov    rax,rdx
  3fb93d:	48 01 c8             	add    rax,rcx
  3fb940:	48 89 45 b8          	mov    QWORD PTR [rbp-0x48],rax
  3fb944:	eb 2b                	jmp    3fb971 <_init-0x568f>
  3fb946:	83 45 fc 01          	add    DWORD PTR [rbp-0x4],0x1
  3fb94a:	8b 45 fc             	mov    eax,DWORD PTR [rbp-0x4]
  3fb94d:	48 63 c8             	movsxd rcx,eax
  3fb950:	48 8b 45 c8          	mov    rax,QWORD PTR [rbp-0x38]
  3fb954:	48 ba ab aa aa aa aa 	movabs rdx,0xaaaaaaaaaaaaaaab
  3fb95b:	aa aa aa 
  3fb95e:	48 f7 e2             	mul    rdx
  3fb961:	48 89 d0             	mov    rax,rdx
  3fb964:	48 c1 e8 04          	shr    rax,0x4
  3fb968:	48 39 c1             	cmp    rcx,rax
  3fb96b:	0f 82 15 ff ff ff    	jb     3fb886 <_init-0x577a>
  3fb971:	48 83 7d c0 00       	cmp    QWORD PTR [rbp-0x40],0x0
  3fb976:	75 07                	jne    3fb97f <_init-0x5681>
  3fb978:	b8 ff ff ff ff       	mov    eax,0xffffffff
  3fb97d:	eb 23                	jmp    3fb9a2 <_init-0x565e>
  3fb97f:	48 8b 45 98          	mov    rax,QWORD PTR [rbp-0x68]
  3fb983:	48 8b 50 50          	mov    rdx,QWORD PTR [rax+0x50]
  3fb987:	48 8b 45 b8          	mov    rax,QWORD PTR [rbp-0x48]
  3fb98b:	48 01 d0             	add    rax,rdx
  3fb98e:	48 89 45 a0          	mov    QWORD PTR [rbp-0x60],rax
  3fb992:	48 8b 45 a0          	mov    rax,QWORD PTR [rbp-0x60]
  3fb996:	48 8b 55 90          	mov    rdx,QWORD PTR [rbp-0x70]
  3fb99a:	48 89 10             	mov    QWORD PTR [rax],rdx
  3fb99d:	b8 00 00 00 00       	mov    eax,0x0
  3fb9a2:	c9                   	leave  
  3fb9a3:	c3                   	ret    
  3fb9a4:	f3 0f 1e fa          	endbr64 
  3fb9a8:	55                   	push   rbp
  3fb9a9:	48 89 e5             	mov    rbp,rsp
  3fb9ac:	48 81 ec 00 10 00 00 	sub    rsp,0x1000
  3fb9b3:	48 83 0c 24 00       	or     QWORD PTR [rsp],0x0
  3fb9b8:	48 81 ec d0 00 00 00 	sub    rsp,0xd0
  3fb9bf:	48 89 bd 38 ef ff ff 	mov    QWORD PTR [rbp-0x10c8],rdi
  3fb9c6:	c7 45 f4 00 00 00 00 	mov    DWORD PTR [rbp-0xc],0x0
  3fb9cd:	48 8b 85 38 ef ff ff 	mov    rax,QWORD PTR [rbp-0x10c8]
  3fb9d4:	ba 00 00 00 00       	mov    edx,0x0
  3fb9d9:	be 00 00 00 00       	mov    esi,0x0
  3fb9de:	48 89 c7             	mov    rdi,rax
  3fb9e1:	e8 68 04 00 00       	call   3fbe4e <_init-0x51b2>
  3fb9e6:	89 45 f0             	mov    DWORD PTR [rbp-0x10],eax
  3fb9e9:	83 7d f0 00          	cmp    DWORD PTR [rbp-0x10],0x0
  3fb9ed:	79 0a                	jns    3fb9f9 <_init-0x5607>
  3fb9ef:	b8 ff ff ff ff       	mov    eax,0xffffffff
  3fb9f4:	e9 27 01 00 00       	jmp    3fbb20 <_init-0x54e0>
  3fb9f9:	8b 45 f0             	mov    eax,DWORD PTR [rbp-0x10]
  3fb9fc:	48 98                	cdqe   
  3fb9fe:	48 8d 8d 40 ef ff ff 	lea    rcx,[rbp-0x10c0]
  3fba05:	ba 00 10 00 00       	mov    edx,0x1000
  3fba0a:	48 89 ce             	mov    rsi,rcx
  3fba0d:	48 89 c7             	mov    rdi,rax
  3fba10:	e8 8d 04 00 00       	call   3fbea2 <_init-0x515e>
  3fba15:	85 c0                	test   eax,eax
  3fba17:	79 0a                	jns    3fba23 <_init-0x55dd>
  3fba19:	b8 ff ff ff ff       	mov    eax,0xffffffff
  3fba1e:	e9 fd 00 00 00       	jmp    3fbb20 <_init-0x54e0>
  3fba23:	8b 45 f0             	mov    eax,DWORD PTR [rbp-0x10]
  3fba26:	89 c7                	mov    edi,eax
  3fba28:	e8 57 04 00 00       	call   3fbe84 <_init-0x517c>
  3fba2d:	48 8d 85 40 ef ff ff 	lea    rax,[rbp-0x10c0]
  3fba34:	48 89 45 e8          	mov    QWORD PTR [rbp-0x18],rax
  3fba38:	48 8b 45 e8          	mov    rax,QWORD PTR [rbp-0x18]
  3fba3c:	48 8b 40 20          	mov    rax,QWORD PTR [rax+0x20]
  3fba40:	48 8d 95 40 ef ff ff 	lea    rdx,[rbp-0x10c0]
  3fba47:	48 01 d0             	add    rax,rdx
  3fba4a:	48 89 45 e0          	mov    QWORD PTR [rbp-0x20],rax
  3fba4e:	48 8d 85 40 ef ff ff 	lea    rax,[rbp-0x10c0]
  3fba55:	ba 04 00 00 00       	mov    edx,0x4
  3fba5a:	48 89 c6             	mov    rsi,rax
  3fba5d:	48 8d 3d b0 11 00 00 	lea    rdi,[rip+0x11b0]        # 3fcc14 <_init-0x43ec>
  3fba64:	e8 0d 10 00 00       	call   3fca76 <_init-0x458a>
  3fba69:	85 c0                	test   eax,eax
  3fba6b:	74 0a                	je     3fba77 <_init-0x5589>
  3fba6d:	b8 ff ff ff ff       	mov    eax,0xffffffff
  3fba72:	e9 a9 00 00 00       	jmp    3fbb20 <_init-0x54e0>
  3fba77:	48 8b 45 e8          	mov    rax,QWORD PTR [rbp-0x18]
  3fba7b:	48 83 c0 09          	add    rax,0x9
  3fba7f:	8b 00                	mov    eax,DWORD PTR [rax]
  3fba81:	89 45 dc             	mov    DWORD PTR [rbp-0x24],eax
  3fba84:	81 7d dc 25 5d 01 00 	cmp    DWORD PTR [rbp-0x24],0x15d25
  3fba8b:	75 0a                	jne    3fba97 <_init-0x5569>
  3fba8d:	b8 ff ff ff ff       	mov    eax,0xffffffff
  3fba92:	e9 89 00 00 00       	jmp    3fbb20 <_init-0x54e0>
  3fba97:	48 8b 45 e8          	mov    rax,QWORD PTR [rbp-0x18]
  3fba9b:	0f b7 40 10          	movzx  eax,WORD PTR [rax+0x10]
  3fba9f:	66 83 f8 02          	cmp    ax,0x2
  3fbaa3:	74 07                	je     3fbaac <_init-0x5554>
  3fbaa5:	b8 ff ff ff ff       	mov    eax,0xffffffff
  3fbaaa:	eb 74                	jmp    3fbb20 <_init-0x54e0>
  3fbaac:	48 8b 45 e8          	mov    rax,QWORD PTR [rbp-0x18]
  3fbab0:	0f b7 40 12          	movzx  eax,WORD PTR [rax+0x12]
  3fbab4:	66 83 f8 3e          	cmp    ax,0x3e
  3fbab8:	74 07                	je     3fbac1 <_init-0x553f>
  3fbaba:	b8 ff ff ff ff       	mov    eax,0xffffffff
  3fbabf:	eb 5f                	jmp    3fbb20 <_init-0x54e0>
  3fbac1:	c7 45 fc 00 00 00 00 	mov    DWORD PTR [rbp-0x4],0x0
  3fbac8:	c7 45 f8 00 00 00 00 	mov    DWORD PTR [rbp-0x8],0x0
  3fbacf:	eb 2d                	jmp    3fbafe <_init-0x5502>
  3fbad1:	8b 45 f8             	mov    eax,DWORD PTR [rbp-0x8]
  3fbad4:	48 63 d0             	movsxd rdx,eax
  3fbad7:	48 89 d0             	mov    rax,rdx
  3fbada:	48 c1 e0 03          	shl    rax,0x3
  3fbade:	48 29 d0             	sub    rax,rdx
  3fbae1:	48 c1 e0 03          	shl    rax,0x3
  3fbae5:	48 89 c2             	mov    rdx,rax
  3fbae8:	48 8b 45 e0          	mov    rax,QWORD PTR [rbp-0x20]
  3fbaec:	48 01 d0             	add    rax,rdx
  3fbaef:	8b 00                	mov    eax,DWORD PTR [rax]
  3fbaf1:	83 f8 02             	cmp    eax,0x2
  3fbaf4:	75 04                	jne    3fbafa <_init-0x5506>
  3fbaf6:	83 45 fc 01          	add    DWORD PTR [rbp-0x4],0x1
  3fbafa:	83 45 f8 01          	add    DWORD PTR [rbp-0x8],0x1
  3fbafe:	48 8b 45 e8          	mov    rax,QWORD PTR [rbp-0x18]
  3fbb02:	0f b7 40 38          	movzx  eax,WORD PTR [rax+0x38]
  3fbb06:	0f b7 c0             	movzx  eax,ax
  3fbb09:	39 45 f8             	cmp    DWORD PTR [rbp-0x8],eax
  3fbb0c:	7c c3                	jl     3fbad1 <_init-0x552f>
  3fbb0e:	83 7d fc 00          	cmp    DWORD PTR [rbp-0x4],0x0
  3fbb12:	75 07                	jne    3fbb1b <_init-0x54e5>
  3fbb14:	b8 ff ff ff ff       	mov    eax,0xffffffff
  3fbb19:	eb 05                	jmp    3fbb20 <_init-0x54e0>
  3fbb1b:	b8 00 00 00 00       	mov    eax,0x0
  3fbb20:	c9                   	leave  
  3fbb21:	c3                   	ret    
  3fbb22:	f3 0f 1e fa          	endbr64 
  3fbb26:	55                   	push   rbp
  3fbb27:	48 89 e5             	mov    rbp,rsp
  3fbb2a:	4c 8d 9c 24 00 80 ff 	lea    r11,[rsp-0x8000]
  3fbb31:	ff 
  3fbb32:	48 81 ec 00 10 00 00 	sub    rsp,0x1000
  3fbb39:	48 83 0c 24 00       	or     QWORD PTR [rsp],0x0
  3fbb3e:	4c 39 dc             	cmp    rsp,r11
  3fbb41:	75 ef                	jne    3fbb32 <_init-0x54ce>
  3fbb43:	48 81 ec 50 03 00 00 	sub    rsp,0x350
  3fbb4a:	48 89 bd b8 7c ff ff 	mov    QWORD PTR [rbp-0x8348],rdi
  3fbb51:	48 c7 45 a8 00 00 00 	mov    QWORD PTR [rbp-0x58],0x0
  3fbb58:	00 
  3fbb59:	48 c7 45 e8 00 00 00 	mov    QWORD PTR [rbp-0x18],0x0
  3fbb60:	00 
  3fbb61:	c7 45 f8 04 00 00 00 	mov    DWORD PTR [rbp-0x8],0x4
  3fbb68:	c7 45 f4 00 00 00 00 	mov    DWORD PTR [rbp-0xc],0x0
  3fbb6f:	48 8d 05 a3 10 00 00 	lea    rax,[rip+0x10a3]        # 3fcc19 <_init-0x43e7>
  3fbb76:	48 89 85 f0 7c ff ff 	mov    QWORD PTR [rbp-0x8310],rax
  3fbb7d:	48 8d 05 9b 10 00 00 	lea    rax,[rip+0x109b]        # 3fcc1f <_init-0x43e1>
  3fbb84:	48 89 85 f8 7c ff ff 	mov    QWORD PTR [rbp-0x8308],rax
  3fbb8b:	48 8d 05 97 10 00 00 	lea    rax,[rip+0x1097]        # 3fcc29 <_init-0x43d7>
  3fbb92:	48 89 85 00 7d ff ff 	mov    QWORD PTR [rbp-0x8300],rax
  3fbb99:	48 8d 05 8e 10 00 00 	lea    rax,[rip+0x108e]        # 3fcc2e <_init-0x43d2>
  3fbba0:	48 89 85 08 7d ff ff 	mov    QWORD PTR [rbp-0x82f8],rax
  3fbba7:	66 c7 85 ee 7c ff ff 	mov    WORD PTR [rbp-0x8312],0x2e
  3fbbae:	2e 00 
  3fbbb0:	b8 00 00 00 00       	mov    eax,0x0
  3fbbb5:	e8 57 02 00 00       	call   3fbe11 <_init-0x51ef>
  3fbbba:	85 c0                	test   eax,eax
  3fbbbc:	74 09                	je     3fbbc7 <_init-0x5439>
  3fbbbe:	48 8d 85 ee 7c ff ff 	lea    rax,[rbp-0x8312]
  3fbbc5:	eb 0f                	jmp    3fbbd6 <_init-0x542a>
  3fbbc7:	48 8d 85 f0 7c ff ff 	lea    rax,[rbp-0x8310]
  3fbbce:	48 89 c7             	mov    rdi,rax
  3fbbd1:	e8 00 e7 ff ff       	call   3fa2d6 <_init-0x6d2a>
  3fbbd6:	48 89 45 e8          	mov    QWORD PTR [rbp-0x18],rax
  3fbbda:	48 8b 45 e8          	mov    rax,QWORD PTR [rbp-0x18]
  3fbbde:	48 8d 35 52 10 00 00 	lea    rsi,[rip+0x1052]        # 3fcc37 <_init-0x43c9>
  3fbbe5:	48 89 c7             	mov    rdi,rax
  3fbbe8:	e8 29 0e 00 00       	call   3fca16 <_init-0x45ea>
  3fbbed:	85 c0                	test   eax,eax
  3fbbef:	75 07                	jne    3fbbf8 <_init-0x5408>
  3fbbf1:	c7 45 f8 01 00 00 00 	mov    DWORD PTR [rbp-0x8],0x1
  3fbbf8:	48 8b 45 e8          	mov    rax,QWORD PTR [rbp-0x18]
  3fbbfc:	ba 00 00 00 00       	mov    edx,0x0
  3fbc01:	be 00 00 01 00       	mov    esi,0x10000
  3fbc06:	48 89 c7             	mov    rdi,rax
  3fbc09:	e8 40 02 00 00       	call   3fbe4e <_init-0x51b2>
  3fbc0e:	89 45 e4             	mov    DWORD PTR [rbp-0x1c],eax
  3fbc11:	83 7d e4 00          	cmp    DWORD PTR [rbp-0x1c],0x0
  3fbc15:	0f 88 f0 01 00 00    	js     3fbe0b <_init-0x51f5>
  3fbc1b:	48 8d 85 10 7e ff ff 	lea    rax,[rbp-0x81f0]
  3fbc22:	48 89 c7             	mov    rdi,rax
  3fbc25:	e8 92 f0 ff ff       	call   3facbc <_init-0x6344>
  3fbc2a:	8b 45 e4             	mov    eax,DWORD PTR [rbp-0x1c]
  3fbc2d:	48 8d 8d a0 7f ff ff 	lea    rcx,[rbp-0x8060]
  3fbc34:	ba 00 80 00 00       	mov    edx,0x8000
  3fbc39:	48 89 ce             	mov    rsi,rcx
  3fbc3c:	89 c7                	mov    edi,eax
  3fbc3e:	e8 f0 04 00 00       	call   3fc133 <_init-0x4ecd>
  3fbc43:	89 45 e0             	mov    DWORD PTR [rbp-0x20],eax
  3fbc46:	83 7d e0 00          	cmp    DWORD PTR [rbp-0x20],0x0
  3fbc4a:	0f 88 be 01 00 00    	js     3fbe0e <_init-0x51f2>
  3fbc50:	83 7d e0 00          	cmp    DWORD PTR [rbp-0x20],0x0
  3fbc54:	0f 84 59 01 00 00    	je     3fbdb3 <_init-0x524d>
  3fbc5a:	c7 45 dc 00 00 00 00 	mov    DWORD PTR [rbp-0x24],0x0
  3fbc61:	c7 45 fc 00 00 00 00 	mov    DWORD PTR [rbp-0x4],0x0
  3fbc68:	e9 35 01 00 00       	jmp    3fbda2 <_init-0x525e>
  3fbc6d:	8b 45 fc             	mov    eax,DWORD PTR [rbp-0x4]
  3fbc70:	48 98                	cdqe   
  3fbc72:	48 8d 95 a0 7f ff ff 	lea    rdx,[rbp-0x8060]
  3fbc79:	48 01 d0             	add    rax,rdx
  3fbc7c:	48 89 45 d0          	mov    QWORD PTR [rbp-0x30],rax
  3fbc80:	48 8b 45 d0          	mov    rax,QWORD PTR [rbp-0x30]
  3fbc84:	0f b7 40 10          	movzx  eax,WORD PTR [rax+0x10]
  3fbc88:	0f b7 c0             	movzx  eax,ax
  3fbc8b:	83 e8 01             	sub    eax,0x1
  3fbc8e:	01 45 fc             	add    DWORD PTR [rbp-0x4],eax
  3fbc91:	48 8b 45 d0          	mov    rax,QWORD PTR [rbp-0x30]
  3fbc95:	48 83 c0 13          	add    rax,0x13
  3fbc99:	48 8d 35 99 0f 00 00 	lea    rsi,[rip+0xf99]        # 3fcc39 <_init-0x43c7>
  3fbca0:	48 89 c7             	mov    rdi,rax
  3fbca3:	e8 6e 0d 00 00       	call   3fca16 <_init-0x45ea>
  3fbca8:	85 c0                	test   eax,eax
  3fbcaa:	0f 84 e4 00 00 00    	je     3fbd94 <_init-0x526c>
  3fbcb0:	48 8b 45 d0          	mov    rax,QWORD PTR [rbp-0x30]
  3fbcb4:	0f b6 40 13          	movzx  eax,BYTE PTR [rax+0x13]
  3fbcb8:	3c 2e                	cmp    al,0x2e
  3fbcba:	0f 84 d7 00 00 00    	je     3fbd97 <_init-0x5269>
  3fbcc0:	48 8b 45 d0          	mov    rax,QWORD PTR [rbp-0x30]
  3fbcc4:	48 8d 48 13          	lea    rcx,[rax+0x13]
  3fbcc8:	48 8d 55 a8          	lea    rdx,[rbp-0x58]
  3fbccc:	48 8b 45 e8          	mov    rax,QWORD PTR [rbp-0x18]
  3fbcd0:	48 89 c6             	mov    rsi,rax
  3fbcd3:	48 89 cf             	mov    rdi,rcx
  3fbcd6:	e8 4b e6 ff ff       	call   3fa326 <_init-0x6cda>
  3fbcdb:	48 89 45 c8          	mov    QWORD PTR [rbp-0x38],rax
  3fbcdf:	48 8b 45 c8          	mov    rax,QWORD PTR [rbp-0x38]
  3fbce3:	48 89 c7             	mov    rdi,rax
  3fbce6:	e8 b9 fc ff ff       	call   3fb9a4 <_init-0x565c>
  3fbceb:	85 c0                	test   eax,eax
  3fbced:	0f 88 a7 00 00 00    	js     3fbd9a <_init-0x5266>
  3fbcf3:	83 7d f4 00          	cmp    DWORD PTR [rbp-0xc],0x0
  3fbcf7:	74 3f                	je     3fbd38 <_init-0x52c8>
  3fbcf9:	c7 45 b4 0a 00 00 00 	mov    DWORD PTR [rbp-0x4c],0xa
  3fbd00:	48 8d 85 c0 7c ff ff 	lea    rax,[rbp-0x8340]
  3fbd07:	be 00 00 00 00       	mov    esi,0x0
  3fbd0c:	48 89 c7             	mov    rdi,rax
  3fbd0f:	e8 53 04 00 00       	call   3fc167 <_init-0x4e99>
  3fbd14:	48 8d 85 c0 7c ff ff 	lea    rax,[rbp-0x8340]
  3fbd1b:	48 83 c0 08          	add    rax,0x8
  3fbd1f:	48 89 c7             	mov    rdi,rax
  3fbd22:	e8 6b e5 ff ff       	call   3fa292 <_init-0x6d6e>
  3fbd27:	99                   	cdq    
  3fbd28:	f7 7d b4             	idiv   DWORD PTR [rbp-0x4c]
  3fbd2b:	89 d0                	mov    eax,edx
  3fbd2d:	89 45 c4             	mov    DWORD PTR [rbp-0x3c],eax
  3fbd30:	83 7d c4 07          	cmp    DWORD PTR [rbp-0x3c],0x7
  3fbd34:	75 67                	jne    3fbd9d <_init-0x5263>
  3fbd36:	eb 01                	jmp    3fbd39 <_init-0x52c7>
  3fbd38:	90                   	nop
  3fbd39:	48 8d 95 10 7d ff ff 	lea    rdx,[rbp-0x82f0]
  3fbd40:	48 8b 45 c8          	mov    rax,QWORD PTR [rbp-0x38]
  3fbd44:	48 89 d6             	mov    rsi,rdx
  3fbd47:	48 89 c7             	mov    rdi,rax
  3fbd4a:	e8 8e f0 ff ff       	call   3faddd <_init-0x6223>
  3fbd4f:	48 8d 95 10 7d ff ff 	lea    rdx,[rbp-0x82f0]
  3fbd56:	48 8d 85 10 7e ff ff 	lea    rax,[rbp-0x81f0]
  3fbd5d:	48 89 d6             	mov    rsi,rdx
  3fbd60:	48 89 c7             	mov    rdi,rax
  3fbd63:	e8 70 e9 ff ff       	call   3fa6d8 <_init-0x6928>
  3fbd68:	48 89 45 b8          	mov    QWORD PTR [rbp-0x48],rax
  3fbd6c:	48 8d 85 10 7d ff ff 	lea    rax,[rbp-0x82f0]
  3fbd73:	48 89 c7             	mov    rdi,rax
  3fbd76:	e8 23 f0 ff ff       	call   3fad9e <_init-0x6262>
  3fbd7b:	48 8b 45 c8          	mov    rax,QWORD PTR [rbp-0x38]
  3fbd7f:	48 89 c6             	mov    rsi,rax
  3fbd82:	48 8d 3d 0b 0e 00 00 	lea    rdi,[rip+0xe0b]        # 3fcb94 <_init-0x446c>
  3fbd89:	e8 d4 01 00 00       	call   3fbf62 <_init-0x509e>
  3fbd8e:	83 45 f4 01          	add    DWORD PTR [rbp-0xc],0x1
  3fbd92:	eb 0a                	jmp    3fbd9e <_init-0x5262>
  3fbd94:	90                   	nop
  3fbd95:	eb 07                	jmp    3fbd9e <_init-0x5262>
  3fbd97:	90                   	nop
  3fbd98:	eb 04                	jmp    3fbd9e <_init-0x5262>
  3fbd9a:	90                   	nop
  3fbd9b:	eb 01                	jmp    3fbd9e <_init-0x5262>
  3fbd9d:	90                   	nop
  3fbd9e:	83 45 fc 01          	add    DWORD PTR [rbp-0x4],0x1
  3fbda2:	8b 45 fc             	mov    eax,DWORD PTR [rbp-0x4]
  3fbda5:	3b 45 e0             	cmp    eax,DWORD PTR [rbp-0x20]
  3fbda8:	0f 8c bf fe ff ff    	jl     3fbc6d <_init-0x5393>
  3fbdae:	e9 77 fe ff ff       	jmp    3fbc2a <_init-0x53d6>
  3fbdb3:	90                   	nop
  3fbdb4:	83 6d f8 01          	sub    DWORD PTR [rbp-0x8],0x1
  3fbdb8:	83 7d f8 00          	cmp    DWORD PTR [rbp-0x8],0x0
  3fbdbc:	7e 0f                	jle    3fbdcd <_init-0x5233>
  3fbdbe:	8b 45 e4             	mov    eax,DWORD PTR [rbp-0x1c]
  3fbdc1:	89 c7                	mov    edi,eax
  3fbdc3:	e8 bc 00 00 00       	call   3fbe84 <_init-0x517c>
  3fbdc8:	e9 e3 fd ff ff       	jmp    3fbbb0 <_init-0x5450>
  3fbdcd:	c7 45 b0 32 00 00 00 	mov    DWORD PTR [rbp-0x50],0x32
  3fbdd4:	48 8d 85 d0 7c ff ff 	lea    rax,[rbp-0x8330]
  3fbddb:	be 00 00 00 00       	mov    esi,0x0
  3fbde0:	48 89 c7             	mov    rdi,rax
  3fbde3:	e8 7f 03 00 00       	call   3fc167 <_init-0x4e99>
  3fbde8:	48 8d 85 d0 7c ff ff 	lea    rax,[rbp-0x8330]
  3fbdef:	48 83 c0 08          	add    rax,0x8
  3fbdf3:	48 89 c7             	mov    rdi,rax
  3fbdf6:	e8 97 e4 ff ff       	call   3fa292 <_init-0x6d6e>
  3fbdfb:	99                   	cdq    
  3fbdfc:	f7 7d b0             	idiv   DWORD PTR [rbp-0x50]
  3fbdff:	89 d0                	mov    eax,edx
  3fbe01:	89 45 c4             	mov    DWORD PTR [rbp-0x3c],eax
  3fbe04:	e8 02 0d 00 00       	call   3fcb0b <_init-0x44f5>
  3fbe09:	eb 04                	jmp    3fbe0f <_init-0x51f1>
  3fbe0b:	90                   	nop
  3fbe0c:	eb 01                	jmp    3fbe0f <_init-0x51f1>
  3fbe0e:	90                   	nop
  3fbe0f:	c9                   	leave  
  3fbe10:	c3                   	ret    
  3fbe11:	f3 0f 1e fa          	endbr64 
  3fbe15:	55                   	push   rbp
  3fbe16:	48 89 e5             	mov    rbp,rsp
  3fbe19:	48 c7 c0 66 00 00 00 	mov    rax,0x66
  3fbe20:	0f 05                	syscall 
  3fbe22:	48 89 c0             	mov    rax,rax
  3fbe25:	48 89 45 f8          	mov    QWORD PTR [rbp-0x8],rax
  3fbe29:	48 8b 45 f8          	mov    rax,QWORD PTR [rbp-0x8]
  3fbe2d:	5d                   	pop    rbp
  3fbe2e:	c3                   	ret    
  3fbe2f:	f3 0f 1e fa          	endbr64 
  3fbe33:	55                   	push   rbp
  3fbe34:	48 89 e5             	mov    rbp,rsp
  3fbe37:	48 89 7d f8          	mov    QWORD PTR [rbp-0x8],rdi
  3fbe3b:	48 8b 45 f8          	mov    rax,QWORD PTR [rbp-0x8]
  3fbe3f:	48 89 c7             	mov    rdi,rax
  3fbe42:	48 c7 c0 3c 00 00 00 	mov    rax,0x3c
  3fbe49:	0f 05                	syscall 
  3fbe4b:	90                   	nop
  3fbe4c:	5d                   	pop    rbp
  3fbe4d:	c3                   	ret    
  3fbe4e:	f3 0f 1e fa          	endbr64 
  3fbe52:	55                   	push   rbp
  3fbe53:	48 89 e5             	mov    rbp,rsp
  3fbe56:	48 89 7d e8          	mov    QWORD PTR [rbp-0x18],rdi
  3fbe5a:	48 89 75 e0          	mov    QWORD PTR [rbp-0x20],rsi
  3fbe5e:	48 89 55 d8          	mov    QWORD PTR [rbp-0x28],rdx
  3fbe62:	48 8b 7d e8          	mov    rdi,QWORD PTR [rbp-0x18]
  3fbe66:	48 8b 75 e0          	mov    rsi,QWORD PTR [rbp-0x20]
  3fbe6a:	48 8b 55 d8          	mov    rdx,QWORD PTR [rbp-0x28]
  3fbe6e:	48 c7 c0 02 00 00 00 	mov    rax,0x2
  3fbe75:	0f 05                	syscall 
  3fbe77:	48 89 c0             	mov    rax,rax
  3fbe7a:	48 89 45 f8          	mov    QWORD PTR [rbp-0x8],rax
  3fbe7e:	48 8b 45 f8          	mov    rax,QWORD PTR [rbp-0x8]
  3fbe82:	5d                   	pop    rbp
  3fbe83:	c3                   	ret    
  3fbe84:	f3 0f 1e fa          	endbr64 
  3fbe88:	55                   	push   rbp
  3fbe89:	48 89 e5             	mov    rbp,rsp
  3fbe8c:	89 7d ec             	mov    DWORD PTR [rbp-0x14],edi
  3fbe8f:	48 8b 7d ec          	mov    rdi,QWORD PTR [rbp-0x14]
  3fbe93:	48 c7 c0 03 00 00 00 	mov    rax,0x3
  3fbe9a:	0f 05                	syscall 
  3fbe9c:	48 8b 45 f8          	mov    rax,QWORD PTR [rbp-0x8]
  3fbea0:	5d                   	pop    rbp
  3fbea1:	c3                   	ret    
  3fbea2:	f3 0f 1e fa          	endbr64 
  3fbea6:	55                   	push   rbp
  3fbea7:	48 89 e5             	mov    rbp,rsp
  3fbeaa:	48 89 7d e8          	mov    QWORD PTR [rbp-0x18],rdi
  3fbeae:	48 89 75 e0          	mov    QWORD PTR [rbp-0x20],rsi
  3fbeb2:	48 89 55 d8          	mov    QWORD PTR [rbp-0x28],rdx
  3fbeb6:	48 8b 7d e8          	mov    rdi,QWORD PTR [rbp-0x18]
  3fbeba:	48 8b 75 e0          	mov    rsi,QWORD PTR [rbp-0x20]
  3fbebe:	48 8b 55 d8          	mov    rdx,QWORD PTR [rbp-0x28]
  3fbec2:	48 c7 c0 00 00 00 00 	mov    rax,0x0
  3fbec9:	0f 05                	syscall 
  3fbecb:	48 89 c0             	mov    rax,rax
  3fbece:	48 89 45 f8          	mov    QWORD PTR [rbp-0x8],rax
  3fbed2:	48 8b 45 f8          	mov    rax,QWORD PTR [rbp-0x8]
  3fbed6:	5d                   	pop    rbp
  3fbed7:	c3                   	ret    
  3fbed8:	f3 0f 1e fa          	endbr64 
  3fbedc:	55                   	push   rbp
  3fbedd:	48 89 e5             	mov    rbp,rsp
  3fbee0:	48 89 7d e8          	mov    QWORD PTR [rbp-0x18],rdi
  3fbee4:	48 89 75 e0          	mov    QWORD PTR [rbp-0x20],rsi
  3fbee8:	48 89 55 d8          	mov    QWORD PTR [rbp-0x28],rdx
  3fbeec:	48 8b 7d e8          	mov    rdi,QWORD PTR [rbp-0x18]
  3fbef0:	48 8b 75 e0          	mov    rsi,QWORD PTR [rbp-0x20]
  3fbef4:	48 8b 55 d8          	mov    rdx,QWORD PTR [rbp-0x28]
  3fbef8:	48 c7 c0 01 00 00 00 	mov    rax,0x1
  3fbeff:	0f 05                	syscall 
  3fbf01:	48 89 c0             	mov    rax,rax
  3fbf04:	48 89 45 f8          	mov    QWORD PTR [rbp-0x8],rax
  3fbf08:	48 8b 45 f8          	mov    rax,QWORD PTR [rbp-0x8]
  3fbf0c:	5d                   	pop    rbp
  3fbf0d:	c3                   	ret    
  3fbf0e:	f3 0f 1e fa          	endbr64 
  3fbf12:	55                   	push   rbp
  3fbf13:	48 89 e5             	mov    rbp,rsp
  3fbf16:	48 89 7d e8          	mov    QWORD PTR [rbp-0x18],rdi
  3fbf1a:	48 89 75 e0          	mov    QWORD PTR [rbp-0x20],rsi
  3fbf1e:	48 8b 7d e8          	mov    rdi,QWORD PTR [rbp-0x18]
  3fbf22:	48 8b 75 e0          	mov    rsi,QWORD PTR [rbp-0x20]
  3fbf26:	48 c7 c0 05 00 00 00 	mov    rax,0x5
  3fbf2d:	0f 05                	syscall 
  3fbf2f:	48 89 c0             	mov    rax,rax
  3fbf32:	48 89 45 f8          	mov    QWORD PTR [rbp-0x8],rax
  3fbf36:	48 8b 45 f8          	mov    rax,QWORD PTR [rbp-0x8]
  3fbf3a:	5d                   	pop    rbp
  3fbf3b:	c3                   	ret    
  3fbf3c:	f3 0f 1e fa          	endbr64 
  3fbf40:	55                   	push   rbp
  3fbf41:	48 89 e5             	mov    rbp,rsp
  3fbf44:	48 89 7d e8          	mov    QWORD PTR [rbp-0x18],rdi
  3fbf48:	48 8b 7d e8          	mov    rdi,QWORD PTR [rbp-0x18]
  3fbf4c:	48 c7 c0 57 00 00 00 	mov    rax,0x57
  3fbf53:	0f 05                	syscall 
  3fbf55:	48 89 c0             	mov    rax,rax
  3fbf58:	48 89 45 f8          	mov    QWORD PTR [rbp-0x8],rax
  3fbf5c:	48 8b 45 f8          	mov    rax,QWORD PTR [rbp-0x8]
  3fbf60:	5d                   	pop    rbp
  3fbf61:	c3                   	ret    
  3fbf62:	f3 0f 1e fa          	endbr64 
  3fbf66:	55                   	push   rbp
  3fbf67:	48 89 e5             	mov    rbp,rsp
  3fbf6a:	48 89 7d e8          	mov    QWORD PTR [rbp-0x18],rdi
  3fbf6e:	48 89 75 e0          	mov    QWORD PTR [rbp-0x20],rsi
  3fbf72:	48 8b 7d e8          	mov    rdi,QWORD PTR [rbp-0x18]
  3fbf76:	48 8b 75 e0          	mov    rsi,QWORD PTR [rbp-0x20]
  3fbf7a:	48 c7 c0 52 00 00 00 	mov    rax,0x52
  3fbf81:	0f 05                	syscall 
  3fbf83:	48 89 c0             	mov    rax,rax
  3fbf86:	48 89 45 f8          	mov    QWORD PTR [rbp-0x8],rax
  3fbf8a:	48 8b 45 f8          	mov    rax,QWORD PTR [rbp-0x8]
  3fbf8e:	5d                   	pop    rbp
  3fbf8f:	c3                   	ret    
  3fbf90:	f3 0f 1e fa          	endbr64 
  3fbf94:	55                   	push   rbp
  3fbf95:	48 89 e5             	mov    rbp,rsp
  3fbf98:	48 89 7d e8          	mov    QWORD PTR [rbp-0x18],rdi
  3fbf9c:	48 89 75 e0          	mov    QWORD PTR [rbp-0x20],rsi
  3fbfa0:	89 55 dc             	mov    DWORD PTR [rbp-0x24],edx
  3fbfa3:	48 8b 7d e8          	mov    rdi,QWORD PTR [rbp-0x18]
  3fbfa7:	48 8b 75 e0          	mov    rsi,QWORD PTR [rbp-0x20]
  3fbfab:	48 8b 55 dc          	mov    rdx,QWORD PTR [rbp-0x24]
  3fbfaf:	48 c7 c0 08 00 00 00 	mov    rax,0x8
  3fbfb6:	0f 05                	syscall 
  3fbfb8:	48 89 c0             	mov    rax,rax
  3fbfbb:	48 89 45 f8          	mov    QWORD PTR [rbp-0x8],rax
  3fbfbf:	48 8b 45 f8          	mov    rax,QWORD PTR [rbp-0x8]
  3fbfc3:	5d                   	pop    rbp
  3fbfc4:	c3                   	ret    
  3fbfc5:	f3 0f 1e fa          	endbr64 
  3fbfc9:	55                   	push   rbp
  3fbfca:	48 89 e5             	mov    rbp,rsp
  3fbfcd:	89 7d ec             	mov    DWORD PTR [rbp-0x14],edi
  3fbfd0:	48 8b 7d ec          	mov    rdi,QWORD PTR [rbp-0x14]
  3fbfd4:	48 c7 c0 4a 00 00 00 	mov    rax,0x4a
  3fbfdb:	0f 05                	syscall 
  3fbfdd:	48 89 c0             	mov    rax,rax
  3fbfe0:	48 89 45 f8          	mov    QWORD PTR [rbp-0x8],rax
  3fbfe4:	48 8b 45 f8          	mov    rax,QWORD PTR [rbp-0x8]
  3fbfe8:	5d                   	pop    rbp
  3fbfe9:	c3                   	ret    
  3fbfea:	f3 0f 1e fa          	endbr64 
  3fbfee:	55                   	push   rbp
  3fbfef:	48 89 e5             	mov    rbp,rsp
  3fbff2:	48 89 7d d8          	mov    QWORD PTR [rbp-0x28],rdi
  3fbff6:	48 89 75 d0          	mov    QWORD PTR [rbp-0x30],rsi
  3fbffa:	48 89 55 c8          	mov    QWORD PTR [rbp-0x38],rdx
  3fbffe:	48 89 4d c0          	mov    QWORD PTR [rbp-0x40],rcx
  3fc002:	4c 89 45 b8          	mov    QWORD PTR [rbp-0x48],r8
  3fc006:	4c 89 4d b0          	mov    QWORD PTR [rbp-0x50],r9
  3fc00a:	48 8b 45 b8          	mov    rax,QWORD PTR [rbp-0x48]
  3fc00e:	48 89 45 f8          	mov    QWORD PTR [rbp-0x8],rax
  3fc012:	48 8b 45 b0          	mov    rax,QWORD PTR [rbp-0x50]
  3fc016:	48 89 45 f0          	mov    QWORD PTR [rbp-0x10],rax
  3fc01a:	48 8b 45 c0          	mov    rax,QWORD PTR [rbp-0x40]
  3fc01e:	48 89 45 e8          	mov    QWORD PTR [rbp-0x18],rax
  3fc022:	48 8b 7d d8          	mov    rdi,QWORD PTR [rbp-0x28]
  3fc026:	48 8b 75 d0          	mov    rsi,QWORD PTR [rbp-0x30]
  3fc02a:	48 8b 55 c8          	mov    rdx,QWORD PTR [rbp-0x38]
  3fc02e:	4c 8b 55 c0          	mov    r10,QWORD PTR [rbp-0x40]
  3fc032:	4c 8b 45 f8          	mov    r8,QWORD PTR [rbp-0x8]
  3fc036:	4c 8b 4d f0          	mov    r9,QWORD PTR [rbp-0x10]
  3fc03a:	48 c7 c0 09 00 00 00 	mov    rax,0x9
  3fc041:	0f 05                	syscall 
  3fc043:	48 89 c0             	mov    rax,rax
  3fc046:	48 89 45 e0          	mov    QWORD PTR [rbp-0x20],rax
  3fc04a:	48 8b 45 e0          	mov    rax,QWORD PTR [rbp-0x20]
  3fc04e:	5d                   	pop    rbp
  3fc04f:	c3                   	ret    
  3fc050:	f3 0f 1e fa          	endbr64 
  3fc054:	55                   	push   rbp
  3fc055:	48 89 e5             	mov    rbp,rsp
  3fc058:	48 89 7d e8          	mov    QWORD PTR [rbp-0x18],rdi
  3fc05c:	48 89 75 e0          	mov    QWORD PTR [rbp-0x20],rsi
  3fc060:	48 8b 7d e8          	mov    rdi,QWORD PTR [rbp-0x18]
  3fc064:	48 8b 75 e0          	mov    rsi,QWORD PTR [rbp-0x20]
  3fc068:	48 c7 c0 0b 00 00 00 	mov    rax,0xb
  3fc06f:	0f 05                	syscall 
  3fc071:	48 89 c0             	mov    rax,rax
  3fc074:	48 89 45 f8          	mov    QWORD PTR [rbp-0x8],rax
  3fc078:	48 8b 45 f8          	mov    rax,QWORD PTR [rbp-0x8]
  3fc07c:	5d                   	pop    rbp
  3fc07d:	c3                   	ret    
  3fc07e:	f3 0f 1e fa          	endbr64 
  3fc082:	55                   	push   rbp
  3fc083:	48 89 e5             	mov    rbp,rsp
  3fc086:	48 89 7d e8          	mov    QWORD PTR [rbp-0x18],rdi
  3fc08a:	48 89 75 e0          	mov    QWORD PTR [rbp-0x20],rsi
  3fc08e:	89 55 dc             	mov    DWORD PTR [rbp-0x24],edx
  3fc091:	48 8b 7d e8          	mov    rdi,QWORD PTR [rbp-0x18]
  3fc095:	48 8b 75 e0          	mov    rsi,QWORD PTR [rbp-0x20]
  3fc099:	48 8b 55 dc          	mov    rdx,QWORD PTR [rbp-0x24]
  3fc09d:	48 c7 c0 0a 00 00 00 	mov    rax,0xa
  3fc0a4:	0f 05                	syscall 
  3fc0a6:	48 89 c0             	mov    rax,rax
  3fc0a9:	48 89 45 f8          	mov    QWORD PTR [rbp-0x8],rax
  3fc0ad:	48 8b 45 f8          	mov    rax,QWORD PTR [rbp-0x8]
  3fc0b1:	5d                   	pop    rbp
  3fc0b2:	c3                   	ret    
  3fc0b3:	f3 0f 1e fa          	endbr64 
  3fc0b7:	55                   	push   rbp
  3fc0b8:	48 89 e5             	mov    rbp,rsp
  3fc0bb:	48 89 7d e8          	mov    QWORD PTR [rbp-0x18],rdi
  3fc0bf:	48 89 75 e0          	mov    QWORD PTR [rbp-0x20],rsi
  3fc0c3:	48 89 55 d8          	mov    QWORD PTR [rbp-0x28],rdx
  3fc0c7:	48 89 4d d0          	mov    QWORD PTR [rbp-0x30],rcx
  3fc0cb:	48 8b 7d e8          	mov    rdi,QWORD PTR [rbp-0x18]
  3fc0cf:	48 8b 75 e0          	mov    rsi,QWORD PTR [rbp-0x20]
  3fc0d3:	48 8b 55 d8          	mov    rdx,QWORD PTR [rbp-0x28]
  3fc0d7:	4c 8b 55 d0          	mov    r10,QWORD PTR [rbp-0x30]
  3fc0db:	48 c7 c0 65 00 00 00 	mov    rax,0x65
  3fc0e2:	0f 05                	syscall 
  3fc0e4:	48 89 c0             	mov    rax,rax
  3fc0e7:	48 89 45 f8          	mov    QWORD PTR [rbp-0x8],rax
  3fc0eb:	48 8b 45 f8          	mov    rax,QWORD PTR [rbp-0x8]
  3fc0ef:	5d                   	pop    rbp
  3fc0f0:	c3                   	ret    
  3fc0f1:	f3 0f 1e fa          	endbr64 
  3fc0f5:	55                   	push   rbp
  3fc0f6:	48 89 e5             	mov    rbp,rsp
  3fc0f9:	48 89 7d e8          	mov    QWORD PTR [rbp-0x18],rdi
  3fc0fd:	48 89 75 e0          	mov    QWORD PTR [rbp-0x20],rsi
  3fc101:	48 89 55 d8          	mov    QWORD PTR [rbp-0x28],rdx
  3fc105:	48 89 4d d0          	mov    QWORD PTR [rbp-0x30],rcx
  3fc109:	4c 89 45 c8          	mov    QWORD PTR [rbp-0x38],r8
  3fc10d:	48 8b 7d e8          	mov    rdi,QWORD PTR [rbp-0x18]
  3fc111:	48 8b 75 e0          	mov    rsi,QWORD PTR [rbp-0x20]
  3fc115:	48 8b 55 d8          	mov    rdx,QWORD PTR [rbp-0x28]
  3fc119:	4c 8b 55 d0          	mov    r10,QWORD PTR [rbp-0x30]
  3fc11d:	48 c7 c0 9d 00 00 00 	mov    rax,0x9d
  3fc124:	0f 05                	syscall 
  3fc126:	48 89 c0             	mov    rax,rax
  3fc129:	48 89 45 f8          	mov    QWORD PTR [rbp-0x8],rax
  3fc12d:	48 8b 45 f8          	mov    rax,QWORD PTR [rbp-0x8]
  3fc131:	5d                   	pop    rbp
  3fc132:	c3                   	ret    
  3fc133:	f3 0f 1e fa          	endbr64 
  3fc137:	55                   	push   rbp
  3fc138:	48 89 e5             	mov    rbp,rsp
  3fc13b:	89 7d ec             	mov    DWORD PTR [rbp-0x14],edi
  3fc13e:	48 89 75 e0          	mov    QWORD PTR [rbp-0x20],rsi
  3fc142:	89 55 e8             	mov    DWORD PTR [rbp-0x18],edx
  3fc145:	48 8b 7d ec          	mov    rdi,QWORD PTR [rbp-0x14]
  3fc149:	48 8b 75 e0          	mov    rsi,QWORD PTR [rbp-0x20]
  3fc14d:	48 8b 55 e8          	mov    rdx,QWORD PTR [rbp-0x18]
  3fc151:	48 c7 c0 d9 00 00 00 	mov    rax,0xd9
  3fc158:	0f 05                	syscall 
  3fc15a:	48 89 c0             	mov    rax,rax
  3fc15d:	48 89 45 f8          	mov    QWORD PTR [rbp-0x8],rax
  3fc161:	48 8b 45 f8          	mov    rax,QWORD PTR [rbp-0x8]
  3fc165:	5d                   	pop    rbp
  3fc166:	c3                   	ret    
  3fc167:	f3 0f 1e fa          	endbr64 
  3fc16b:	55                   	push   rbp
  3fc16c:	48 89 e5             	mov    rbp,rsp
  3fc16f:	48 89 7d e8          	mov    QWORD PTR [rbp-0x18],rdi
  3fc173:	48 89 75 e0          	mov    QWORD PTR [rbp-0x20],rsi
  3fc177:	48 8b 7d e8          	mov    rdi,QWORD PTR [rbp-0x18]
  3fc17b:	48 8b 75 e0          	mov    rsi,QWORD PTR [rbp-0x20]
  3fc17f:	48 c7 c0 60 00 00 00 	mov    rax,0x60
  3fc186:	0f 05                	syscall 
  3fc188:	48 89 c0             	mov    rax,rax
  3fc18b:	48 89 45 f8          	mov    QWORD PTR [rbp-0x8],rax
  3fc18f:	48 8b 45 f8          	mov    rax,QWORD PTR [rbp-0x8]
  3fc193:	5d                   	pop    rbp
  3fc194:	c3                   	ret    
  3fc195:	f3 0f 1e fa          	endbr64 
  3fc199:	55                   	push   rbp
  3fc19a:	48 89 e5             	mov    rbp,rsp
  3fc19d:	48 89 7d d8          	mov    QWORD PTR [rbp-0x28],rdi
  3fc1a1:	48 89 75 d0          	mov    QWORD PTR [rbp-0x30],rsi
  3fc1a5:	89 55 cc             	mov    DWORD PTR [rbp-0x34],edx
  3fc1a8:	48 8b 45 d0          	mov    rax,QWORD PTR [rbp-0x30]
  3fc1ac:	48 89 45 f0          	mov    QWORD PTR [rbp-0x10],rax
  3fc1b0:	48 8b 45 d8          	mov    rax,QWORD PTR [rbp-0x28]
  3fc1b4:	48 89 45 e8          	mov    QWORD PTR [rbp-0x18],rax
  3fc1b8:	c7 45 fc 00 00 00 00 	mov    DWORD PTR [rbp-0x4],0x0
  3fc1bf:	eb 1b                	jmp    3fc1dc <_init-0x4e24>
  3fc1c1:	48 8b 45 f0          	mov    rax,QWORD PTR [rbp-0x10]
  3fc1c5:	0f b6 10             	movzx  edx,BYTE PTR [rax]
  3fc1c8:	48 8b 45 e8          	mov    rax,QWORD PTR [rbp-0x18]
  3fc1cc:	88 10                	mov    BYTE PTR [rax],dl
  3fc1ce:	48 83 45 f0 01       	add    QWORD PTR [rbp-0x10],0x1
  3fc1d3:	48 83 45 e8 01       	add    QWORD PTR [rbp-0x18],0x1
  3fc1d8:	83 45 fc 01          	add    DWORD PTR [rbp-0x4],0x1
  3fc1dc:	8b 45 fc             	mov    eax,DWORD PTR [rbp-0x4]
  3fc1df:	39 45 cc             	cmp    DWORD PTR [rbp-0x34],eax
  3fc1e2:	77 dd                	ja     3fc1c1 <_init-0x4e3f>
  3fc1e4:	90                   	nop
  3fc1e5:	90                   	nop
  3fc1e6:	5d                   	pop    rbp
  3fc1e7:	c3                   	ret    
  3fc1e8:	f3 0f 1e fa          	endbr64 
  3fc1ec:	55                   	push   rbp
  3fc1ed:	48 89 e5             	mov    rbp,rsp
  3fc1f0:	48 89 7d e8          	mov    QWORD PTR [rbp-0x18],rdi
  3fc1f4:	89 f0                	mov    eax,esi
  3fc1f6:	89 55 e0             	mov    DWORD PTR [rbp-0x20],edx
  3fc1f9:	88 45 e4             	mov    BYTE PTR [rbp-0x1c],al
  3fc1fc:	48 8b 45 e8          	mov    rax,QWORD PTR [rbp-0x18]
  3fc200:	48 89 45 f8          	mov    QWORD PTR [rbp-0x8],rax
  3fc204:	8b 45 e0             	mov    eax,DWORD PTR [rbp-0x20]
  3fc207:	89 45 f4             	mov    DWORD PTR [rbp-0xc],eax
  3fc20a:	eb 0f                	jmp    3fc21b <_init-0x4de5>
  3fc20c:	48 8b 45 f8          	mov    rax,QWORD PTR [rbp-0x8]
  3fc210:	0f b6 55 e4          	movzx  edx,BYTE PTR [rbp-0x1c]
  3fc214:	88 10                	mov    BYTE PTR [rax],dl
  3fc216:	48 83 45 f8 01       	add    QWORD PTR [rbp-0x8],0x1
  3fc21b:	8b 45 f4             	mov    eax,DWORD PTR [rbp-0xc]
  3fc21e:	8d 50 ff             	lea    edx,[rax-0x1]
  3fc221:	89 55 f4             	mov    DWORD PTR [rbp-0xc],edx
  3fc224:	85 c0                	test   eax,eax
  3fc226:	75 e4                	jne    3fc20c <_init-0x4df4>
  3fc228:	90                   	nop
  3fc229:	90                   	nop
  3fc22a:	5d                   	pop    rbp
  3fc22b:	c3                   	ret    
  3fc22c:	f3 0f 1e fa          	endbr64 
  3fc230:	55                   	push   rbp
  3fc231:	48 89 e5             	mov    rbp,rsp
  3fc234:	48 81 ec 10 01 00 00 	sub    rsp,0x110
  3fc23b:	48 89 bd f8 fe ff ff 	mov    QWORD PTR [rbp-0x108],rdi
  3fc242:	48 89 b5 58 ff ff ff 	mov    QWORD PTR [rbp-0xa8],rsi
  3fc249:	48 89 95 60 ff ff ff 	mov    QWORD PTR [rbp-0xa0],rdx
  3fc250:	48 89 8d 68 ff ff ff 	mov    QWORD PTR [rbp-0x98],rcx
  3fc257:	4c 89 85 70 ff ff ff 	mov    QWORD PTR [rbp-0x90],r8
  3fc25e:	4c 89 8d 78 ff ff ff 	mov    QWORD PTR [rbp-0x88],r9
  3fc265:	84 c0                	test   al,al
  3fc267:	74 20                	je     3fc289 <_init-0x4d77>
  3fc269:	0f 29 45 80          	movaps XMMWORD PTR [rbp-0x80],xmm0
  3fc26d:	0f 29 4d 90          	movaps XMMWORD PTR [rbp-0x70],xmm1
  3fc271:	0f 29 55 a0          	movaps XMMWORD PTR [rbp-0x60],xmm2
  3fc275:	0f 29 5d b0          	movaps XMMWORD PTR [rbp-0x50],xmm3
  3fc279:	0f 29 65 c0          	movaps XMMWORD PTR [rbp-0x40],xmm4
  3fc27d:	0f 29 6d d0          	movaps XMMWORD PTR [rbp-0x30],xmm5
  3fc281:	0f 29 75 e0          	movaps XMMWORD PTR [rbp-0x20],xmm6
  3fc285:	0f 29 7d f0          	movaps XMMWORD PTR [rbp-0x10],xmm7
  3fc289:	48 c7 85 20 ff ff ff 	mov    QWORD PTR [rbp-0xe0],0x0
  3fc290:	00 00 00 00 
  3fc294:	48 c7 85 28 ff ff ff 	mov    QWORD PTR [rbp-0xd8],0x0
  3fc29b:	00 00 00 00 
  3fc29f:	48 c7 85 30 ff ff ff 	mov    QWORD PTR [rbp-0xd0],0x0
  3fc2a6:	00 00 00 00 
  3fc2aa:	66 c7 85 38 ff ff ff 	mov    WORD PTR [rbp-0xc8],0x0
  3fc2b1:	00 00 
  3fc2b3:	c7 85 08 ff ff ff 08 	mov    DWORD PTR [rbp-0xf8],0x8
  3fc2ba:	00 00 00 
  3fc2bd:	c7 85 0c ff ff ff 30 	mov    DWORD PTR [rbp-0xf4],0x30
  3fc2c4:	00 00 00 
  3fc2c7:	48 8d 45 10          	lea    rax,[rbp+0x10]
  3fc2cb:	48 89 85 10 ff ff ff 	mov    QWORD PTR [rbp-0xf0],rax
  3fc2d2:	48 8d 85 50 ff ff ff 	lea    rax,[rbp-0xb0]
  3fc2d9:	48 89 85 18 ff ff ff 	mov    QWORD PTR [rbp-0xe8],rax
  3fc2e0:	c7 85 4c ff ff ff 00 	mov    DWORD PTR [rbp-0xb4],0x0
  3fc2e7:	00 00 00 
  3fc2ea:	e9 6d 02 00 00       	jmp    3fc55c <_init-0x4aa4>
  3fc2ef:	48 8b 85 f8 fe ff ff 	mov    rax,QWORD PTR [rbp-0x108]
  3fc2f6:	0f b6 00             	movzx  eax,BYTE PTR [rax]
  3fc2f9:	3c 25                	cmp    al,0x25
  3fc2fb:	74 31                	je     3fc32e <_init-0x4cd2>
  3fc2fd:	83 bd 4c ff ff ff 00 	cmp    DWORD PTR [rbp-0xb4],0x0
  3fc304:	75 28                	jne    3fc32e <_init-0x4cd2>
  3fc306:	48 8b 85 f8 fe ff ff 	mov    rax,QWORD PTR [rbp-0x108]
  3fc30d:	ba 01 00 00 00       	mov    edx,0x1
  3fc312:	48 89 c6             	mov    rsi,rax
  3fc315:	bf 01 00 00 00       	mov    edi,0x1
  3fc31a:	e8 b9 fb ff ff       	call   3fbed8 <_init-0x5128>
  3fc31f:	c7 85 4c ff ff ff 00 	mov    DWORD PTR [rbp-0xb4],0x0
  3fc326:	00 00 00 
  3fc329:	e9 26 02 00 00       	jmp    3fc554 <_init-0x4aac>
  3fc32e:	48 8b 85 f8 fe ff ff 	mov    rax,QWORD PTR [rbp-0x108]
  3fc335:	0f b6 00             	movzx  eax,BYTE PTR [rax]
  3fc338:	3c 25                	cmp    al,0x25
  3fc33a:	0f 84 0a 02 00 00    	je     3fc54a <_init-0x4ab6>
  3fc340:	48 8b 85 f8 fe ff ff 	mov    rax,QWORD PTR [rbp-0x108]
  3fc347:	0f b6 00             	movzx  eax,BYTE PTR [rax]
  3fc34a:	0f be c0             	movsx  eax,al
  3fc34d:	83 f8 78             	cmp    eax,0x78
  3fc350:	0f 84 61 01 00 00    	je     3fc4b7 <_init-0x4b49>
  3fc356:	83 f8 78             	cmp    eax,0x78
  3fc359:	0f 8f c5 01 00 00    	jg     3fc524 <_init-0x4adc>
  3fc35f:	83 f8 75             	cmp    eax,0x75
  3fc362:	74 79                	je     3fc3dd <_init-0x4c23>
  3fc364:	83 f8 75             	cmp    eax,0x75
  3fc367:	0f 8f b7 01 00 00    	jg     3fc524 <_init-0x4adc>
  3fc36d:	83 f8 64             	cmp    eax,0x64
  3fc370:	0f 84 d4 00 00 00    	je     3fc44a <_init-0x4bb6>
  3fc376:	83 f8 73             	cmp    eax,0x73
  3fc379:	0f 85 a5 01 00 00    	jne    3fc524 <_init-0x4adc>
  3fc37f:	8b 85 08 ff ff ff    	mov    eax,DWORD PTR [rbp-0xf8]
  3fc385:	83 f8 2f             	cmp    eax,0x2f
  3fc388:	77 23                	ja     3fc3ad <_init-0x4c53>
  3fc38a:	48 8b 85 18 ff ff ff 	mov    rax,QWORD PTR [rbp-0xe8]
  3fc391:	8b 95 08 ff ff ff    	mov    edx,DWORD PTR [rbp-0xf8]
  3fc397:	89 d2                	mov    edx,edx
  3fc399:	48 01 d0             	add    rax,rdx
  3fc39c:	8b 95 08 ff ff ff    	mov    edx,DWORD PTR [rbp-0xf8]
  3fc3a2:	83 c2 08             	add    edx,0x8
  3fc3a5:	89 95 08 ff ff ff    	mov    DWORD PTR [rbp-0xf8],edx
  3fc3ab:	eb 12                	jmp    3fc3bf <_init-0x4c41>
  3fc3ad:	48 8b 85 10 ff ff ff 	mov    rax,QWORD PTR [rbp-0xf0]
  3fc3b4:	48 8d 50 08          	lea    rdx,[rax+0x8]
  3fc3b8:	48 89 95 10 ff ff ff 	mov    QWORD PTR [rbp-0xf0],rdx
  3fc3bf:	48 8b 00             	mov    rax,QWORD PTR [rax]
  3fc3c2:	48 89 85 40 ff ff ff 	mov    QWORD PTR [rbp-0xc0],rax
  3fc3c9:	48 8b 85 40 ff ff ff 	mov    rax,QWORD PTR [rbp-0xc0]
  3fc3d0:	48 89 c7             	mov    rdi,rax
  3fc3d3:	e8 cd 04 00 00       	call   3fc8a5 <_init-0x475b>
  3fc3d8:	e9 61 01 00 00       	jmp    3fc53e <_init-0x4ac2>
  3fc3dd:	8b 85 08 ff ff ff    	mov    eax,DWORD PTR [rbp-0xf8]
  3fc3e3:	83 f8 2f             	cmp    eax,0x2f
  3fc3e6:	77 23                	ja     3fc40b <_init-0x4bf5>
  3fc3e8:	48 8b 85 18 ff ff ff 	mov    rax,QWORD PTR [rbp-0xe8]
  3fc3ef:	8b 95 08 ff ff ff    	mov    edx,DWORD PTR [rbp-0xf8]
  3fc3f5:	89 d2                	mov    edx,edx
  3fc3f7:	48 01 d0             	add    rax,rdx
  3fc3fa:	8b 95 08 ff ff ff    	mov    edx,DWORD PTR [rbp-0xf8]
  3fc400:	83 c2 08             	add    edx,0x8
  3fc403:	89 95 08 ff ff ff    	mov    DWORD PTR [rbp-0xf8],edx
  3fc409:	eb 12                	jmp    3fc41d <_init-0x4be3>
  3fc40b:	48 8b 85 10 ff ff ff 	mov    rax,QWORD PTR [rbp-0xf0]
  3fc412:	48 8d 50 08          	lea    rdx,[rax+0x8]
  3fc416:	48 89 95 10 ff ff ff 	mov    QWORD PTR [rbp-0xf0],rdx
  3fc41d:	8b 00                	mov    eax,DWORD PTR [rax]
  3fc41f:	89 85 3c ff ff ff    	mov    DWORD PTR [rbp-0xc4],eax
  3fc425:	8b 85 3c ff ff ff    	mov    eax,DWORD PTR [rbp-0xc4]
  3fc42b:	48 8d 95 20 ff ff ff 	lea    rdx,[rbp-0xe0]
  3fc432:	48 89 d6             	mov    rsi,rdx
  3fc435:	48 89 c7             	mov    rdi,rax
  3fc438:	e8 38 01 00 00       	call   3fc575 <_init-0x4a8b>
  3fc43d:	48 89 c7             	mov    rdi,rax
  3fc440:	e8 60 04 00 00       	call   3fc8a5 <_init-0x475b>
  3fc445:	e9 f4 00 00 00       	jmp    3fc53e <_init-0x4ac2>
  3fc44a:	8b 85 08 ff ff ff    	mov    eax,DWORD PTR [rbp-0xf8]
  3fc450:	83 f8 2f             	cmp    eax,0x2f
  3fc453:	77 23                	ja     3fc478 <_init-0x4b88>
  3fc455:	48 8b 85 18 ff ff ff 	mov    rax,QWORD PTR [rbp-0xe8]
  3fc45c:	8b 95 08 ff ff ff    	mov    edx,DWORD PTR [rbp-0xf8]
  3fc462:	89 d2                	mov    edx,edx
  3fc464:	48 01 d0             	add    rax,rdx
  3fc467:	8b 95 08 ff ff ff    	mov    edx,DWORD PTR [rbp-0xf8]
  3fc46d:	83 c2 08             	add    edx,0x8
  3fc470:	89 95 08 ff ff ff    	mov    DWORD PTR [rbp-0xf8],edx
  3fc476:	eb 12                	jmp    3fc48a <_init-0x4b76>
  3fc478:	48 8b 85 10 ff ff ff 	mov    rax,QWORD PTR [rbp-0xf0]
  3fc47f:	48 8d 50 08          	lea    rdx,[rax+0x8]
  3fc483:	48 89 95 10 ff ff ff 	mov    QWORD PTR [rbp-0xf0],rdx
  3fc48a:	8b 00                	mov    eax,DWORD PTR [rax]
  3fc48c:	89 85 3c ff ff ff    	mov    DWORD PTR [rbp-0xc4],eax
  3fc492:	8b 85 3c ff ff ff    	mov    eax,DWORD PTR [rbp-0xc4]
  3fc498:	48 8d 95 20 ff ff ff 	lea    rdx,[rbp-0xe0]
  3fc49f:	48 89 d6             	mov    rsi,rdx
  3fc4a2:	48 89 c7             	mov    rdi,rax
  3fc4a5:	e8 cb 00 00 00       	call   3fc575 <_init-0x4a8b>
  3fc4aa:	48 89 c7             	mov    rdi,rax
  3fc4ad:	e8 f3 03 00 00       	call   3fc8a5 <_init-0x475b>
  3fc4b2:	e9 87 00 00 00       	jmp    3fc53e <_init-0x4ac2>
  3fc4b7:	8b 85 08 ff ff ff    	mov    eax,DWORD PTR [rbp-0xf8]
  3fc4bd:	83 f8 2f             	cmp    eax,0x2f
  3fc4c0:	77 23                	ja     3fc4e5 <_init-0x4b1b>
  3fc4c2:	48 8b 85 18 ff ff ff 	mov    rax,QWORD PTR [rbp-0xe8]
  3fc4c9:	8b 95 08 ff ff ff    	mov    edx,DWORD PTR [rbp-0xf8]
  3fc4cf:	89 d2                	mov    edx,edx
  3fc4d1:	48 01 d0             	add    rax,rdx
  3fc4d4:	8b 95 08 ff ff ff    	mov    edx,DWORD PTR [rbp-0xf8]
  3fc4da:	83 c2 08             	add    edx,0x8
  3fc4dd:	89 95 08 ff ff ff    	mov    DWORD PTR [rbp-0xf8],edx
  3fc4e3:	eb 12                	jmp    3fc4f7 <_init-0x4b09>
  3fc4e5:	48 8b 85 10 ff ff ff 	mov    rax,QWORD PTR [rbp-0xf0]
  3fc4ec:	48 8d 50 08          	lea    rdx,[rax+0x8]
  3fc4f0:	48 89 95 10 ff ff ff 	mov    QWORD PTR [rbp-0xf0],rdx
  3fc4f7:	48 8b 00             	mov    rax,QWORD PTR [rax]
  3fc4fa:	48 89 85 40 ff ff ff 	mov    QWORD PTR [rbp-0xc0],rax
  3fc501:	48 8b 85 40 ff ff ff 	mov    rax,QWORD PTR [rbp-0xc0]
  3fc508:	48 8d 95 20 ff ff ff 	lea    rdx,[rbp-0xe0]
  3fc50f:	48 89 d6             	mov    rsi,rdx
  3fc512:	48 89 c7             	mov    rdi,rax
  3fc515:	e8 dd 01 00 00       	call   3fc6f7 <_init-0x4909>
  3fc51a:	48 89 c7             	mov    rdi,rax
  3fc51d:	e8 83 03 00 00       	call   3fc8a5 <_init-0x475b>
  3fc522:	eb 1a                	jmp    3fc53e <_init-0x4ac2>
  3fc524:	48 8b 85 f8 fe ff ff 	mov    rax,QWORD PTR [rbp-0x108]
  3fc52b:	ba 01 00 00 00       	mov    edx,0x1
  3fc530:	48 89 c6             	mov    rsi,rax
  3fc533:	bf 01 00 00 00       	mov    edi,0x1
  3fc538:	e8 9b f9 ff ff       	call   3fbed8 <_init-0x5128>
  3fc53d:	90                   	nop
  3fc53e:	c7 85 4c ff ff ff 00 	mov    DWORD PTR [rbp-0xb4],0x0
  3fc545:	00 00 00 
  3fc548:	eb 0a                	jmp    3fc554 <_init-0x4aac>
  3fc54a:	c7 85 4c ff ff ff 01 	mov    DWORD PTR [rbp-0xb4],0x1
  3fc551:	00 00 00 
  3fc554:	48 83 85 f8 fe ff ff 	add    QWORD PTR [rbp-0x108],0x1
  3fc55b:	01 
  3fc55c:	48 8b 85 f8 fe ff ff 	mov    rax,QWORD PTR [rbp-0x108]
  3fc563:	0f b6 00             	movzx  eax,BYTE PTR [rax]
  3fc566:	84 c0                	test   al,al
  3fc568:	0f 85 81 fd ff ff    	jne    3fc2ef <_init-0x4d11>
  3fc56e:	b8 01 00 00 00       	mov    eax,0x1
  3fc573:	c9                   	leave  
  3fc574:	c3                   	ret    
  3fc575:	f3 0f 1e fa          	endbr64 
  3fc579:	55                   	push   rbp
  3fc57a:	48 89 e5             	mov    rbp,rsp
  3fc57d:	48 89 7d e8          	mov    QWORD PTR [rbp-0x18],rdi
  3fc581:	48 89 75 e0          	mov    QWORD PTR [rbp-0x20],rsi
  3fc585:	c7 45 fc 00 00 00 00 	mov    DWORD PTR [rbp-0x4],0x0
  3fc58c:	48 8b 4d e8          	mov    rcx,QWORD PTR [rbp-0x18]
  3fc590:	48 ba 67 66 66 66 66 	movabs rdx,0x6666666666666667
  3fc597:	66 66 66 
  3fc59a:	48 89 c8             	mov    rax,rcx
  3fc59d:	48 f7 ea             	imul   rdx
  3fc5a0:	48 c1 fa 02          	sar    rdx,0x2
  3fc5a4:	48 89 c8             	mov    rax,rcx
  3fc5a7:	48 c1 f8 3f          	sar    rax,0x3f
  3fc5ab:	48 29 c2             	sub    rdx,rax
  3fc5ae:	48 89 d0             	mov    rax,rdx
  3fc5b1:	48 c1 e0 02          	shl    rax,0x2
  3fc5b5:	48 01 d0             	add    rax,rdx
  3fc5b8:	48 01 c0             	add    rax,rax
  3fc5bb:	48 29 c1             	sub    rcx,rax
  3fc5be:	48 89 ca             	mov    rdx,rcx
  3fc5c1:	89 d0                	mov    eax,edx
  3fc5c3:	8d 48 30             	lea    ecx,[rax+0x30]
  3fc5c6:	8b 45 fc             	mov    eax,DWORD PTR [rbp-0x4]
  3fc5c9:	48 63 d0             	movsxd rdx,eax
  3fc5cc:	48 8b 45 e0          	mov    rax,QWORD PTR [rbp-0x20]
  3fc5d0:	48 01 d0             	add    rax,rdx
  3fc5d3:	89 ca                	mov    edx,ecx
  3fc5d5:	88 10                	mov    BYTE PTR [rax],dl
  3fc5d7:	48 8b 4d e8          	mov    rcx,QWORD PTR [rbp-0x18]
  3fc5db:	48 ba 67 66 66 66 66 	movabs rdx,0x6666666666666667
  3fc5e2:	66 66 66 
  3fc5e5:	48 89 c8             	mov    rax,rcx
  3fc5e8:	48 f7 ea             	imul   rdx
  3fc5eb:	48 c1 fa 02          	sar    rdx,0x2
  3fc5ef:	48 89 c8             	mov    rax,rcx
  3fc5f2:	48 c1 f8 3f          	sar    rax,0x3f
  3fc5f6:	48 29 c2             	sub    rdx,rax
  3fc5f9:	48 89 d0             	mov    rax,rdx
  3fc5fc:	48 89 45 e8          	mov    QWORD PTR [rbp-0x18],rax
  3fc600:	83 45 fc 01          	add    DWORD PTR [rbp-0x4],0x1
  3fc604:	48 83 7d e8 00       	cmp    QWORD PTR [rbp-0x18],0x0
  3fc609:	75 81                	jne    3fc58c <_init-0x4a74>
  3fc60b:	8b 45 fc             	mov    eax,DWORD PTR [rbp-0x4]
  3fc60e:	48 63 d0             	movsxd rdx,eax
  3fc611:	48 8b 45 e0          	mov    rax,QWORD PTR [rbp-0x20]
  3fc615:	48 01 d0             	add    rax,rdx
  3fc618:	c6 00 00             	mov    BYTE PTR [rax],0x0
  3fc61b:	c7 45 f8 00 00 00 00 	mov    DWORD PTR [rbp-0x8],0x0
  3fc622:	e9 b5 00 00 00       	jmp    3fc6dc <_init-0x4924>
  3fc627:	8b 45 f8             	mov    eax,DWORD PTR [rbp-0x8]
  3fc62a:	48 63 d0             	movsxd rdx,eax
  3fc62d:	48 8b 45 e0          	mov    rax,QWORD PTR [rbp-0x20]
  3fc631:	48 01 d0             	add    rax,rdx
  3fc634:	0f b6 30             	movzx  esi,BYTE PTR [rax]
  3fc637:	8b 45 fc             	mov    eax,DWORD PTR [rbp-0x4]
  3fc63a:	2b 45 f8             	sub    eax,DWORD PTR [rbp-0x8]
  3fc63d:	48 98                	cdqe   
  3fc63f:	48 8d 50 ff          	lea    rdx,[rax-0x1]
  3fc643:	48 8b 45 e0          	mov    rax,QWORD PTR [rbp-0x20]
  3fc647:	48 01 d0             	add    rax,rdx
  3fc64a:	0f b6 08             	movzx  ecx,BYTE PTR [rax]
  3fc64d:	8b 45 f8             	mov    eax,DWORD PTR [rbp-0x8]
  3fc650:	48 63 d0             	movsxd rdx,eax
  3fc653:	48 8b 45 e0          	mov    rax,QWORD PTR [rbp-0x20]
  3fc657:	48 01 d0             	add    rax,rdx
  3fc65a:	31 ce                	xor    esi,ecx
  3fc65c:	89 f2                	mov    edx,esi
  3fc65e:	88 10                	mov    BYTE PTR [rax],dl
  3fc660:	8b 45 fc             	mov    eax,DWORD PTR [rbp-0x4]
  3fc663:	2b 45 f8             	sub    eax,DWORD PTR [rbp-0x8]
  3fc666:	48 98                	cdqe   
  3fc668:	48 8d 50 ff          	lea    rdx,[rax-0x1]
  3fc66c:	48 8b 45 e0          	mov    rax,QWORD PTR [rbp-0x20]
  3fc670:	48 01 d0             	add    rax,rdx
  3fc673:	0f b6 30             	movzx  esi,BYTE PTR [rax]
  3fc676:	8b 45 f8             	mov    eax,DWORD PTR [rbp-0x8]
  3fc679:	48 63 d0             	movsxd rdx,eax
  3fc67c:	48 8b 45 e0          	mov    rax,QWORD PTR [rbp-0x20]
  3fc680:	48 01 d0             	add    rax,rdx
  3fc683:	0f b6 08             	movzx  ecx,BYTE PTR [rax]
  3fc686:	8b 45 fc             	mov    eax,DWORD PTR [rbp-0x4]
  3fc689:	2b 45 f8             	sub    eax,DWORD PTR [rbp-0x8]
  3fc68c:	48 98                	cdqe   
  3fc68e:	48 8d 50 ff          	lea    rdx,[rax-0x1]
  3fc692:	48 8b 45 e0          	mov    rax,QWORD PTR [rbp-0x20]
  3fc696:	48 01 d0             	add    rax,rdx
  3fc699:	31 ce                	xor    esi,ecx
  3fc69b:	89 f2                	mov    edx,esi
  3fc69d:	88 10                	mov    BYTE PTR [rax],dl
  3fc69f:	8b 45 f8             	mov    eax,DWORD PTR [rbp-0x8]
  3fc6a2:	48 63 d0             	movsxd rdx,eax
  3fc6a5:	48 8b 45 e0          	mov    rax,QWORD PTR [rbp-0x20]
  3fc6a9:	48 01 d0             	add    rax,rdx
  3fc6ac:	0f b6 30             	movzx  esi,BYTE PTR [rax]
  3fc6af:	8b 45 fc             	mov    eax,DWORD PTR [rbp-0x4]
  3fc6b2:	2b 45 f8             	sub    eax,DWORD PTR [rbp-0x8]
  3fc6b5:	48 98                	cdqe   
  3fc6b7:	48 8d 50 ff          	lea    rdx,[rax-0x1]
  3fc6bb:	48 8b 45 e0          	mov    rax,QWORD PTR [rbp-0x20]
  3fc6bf:	48 01 d0             	add    rax,rdx
  3fc6c2:	0f b6 08             	movzx  ecx,BYTE PTR [rax]
  3fc6c5:	8b 45 f8             	mov    eax,DWORD PTR [rbp-0x8]
  3fc6c8:	48 63 d0             	movsxd rdx,eax
  3fc6cb:	48 8b 45 e0          	mov    rax,QWORD PTR [rbp-0x20]
  3fc6cf:	48 01 d0             	add    rax,rdx
  3fc6d2:	31 ce                	xor    esi,ecx
  3fc6d4:	89 f2                	mov    edx,esi
  3fc6d6:	88 10                	mov    BYTE PTR [rax],dl
  3fc6d8:	83 45 f8 01          	add    DWORD PTR [rbp-0x8],0x1
  3fc6dc:	8b 45 fc             	mov    eax,DWORD PTR [rbp-0x4]
  3fc6df:	89 c2                	mov    edx,eax
  3fc6e1:	c1 ea 1f             	shr    edx,0x1f
  3fc6e4:	01 d0                	add    eax,edx
  3fc6e6:	d1 f8                	sar    eax,1
  3fc6e8:	39 45 f8             	cmp    DWORD PTR [rbp-0x8],eax
  3fc6eb:	0f 8c 36 ff ff ff    	jl     3fc627 <_init-0x49d9>
  3fc6f1:	48 8b 45 e0          	mov    rax,QWORD PTR [rbp-0x20]
  3fc6f5:	5d                   	pop    rbp
  3fc6f6:	c3                   	ret    
  3fc6f7:	f3 0f 1e fa          	endbr64 
  3fc6fb:	55                   	push   rbp
  3fc6fc:	48 89 e5             	mov    rbp,rsp
  3fc6ff:	48 89 7d e8          	mov    QWORD PTR [rbp-0x18],rdi
  3fc703:	48 89 75 e0          	mov    QWORD PTR [rbp-0x20],rsi
  3fc707:	c7 45 fc 00 00 00 00 	mov    DWORD PTR [rbp-0x4],0x0
  3fc70e:	48 8b 45 e8          	mov    rax,QWORD PTR [rbp-0x18]
  3fc712:	48 99                	cqo    
  3fc714:	48 c1 ea 3c          	shr    rdx,0x3c
  3fc718:	48 01 d0             	add    rax,rdx
  3fc71b:	83 e0 0f             	and    eax,0xf
  3fc71e:	48 29 d0             	sub    rax,rdx
  3fc721:	48 89 c1             	mov    rcx,rax
  3fc724:	8b 45 fc             	mov    eax,DWORD PTR [rbp-0x4]
  3fc727:	48 63 d0             	movsxd rdx,eax
  3fc72a:	48 8b 45 e0          	mov    rax,QWORD PTR [rbp-0x20]
  3fc72e:	48 01 d0             	add    rax,rdx
  3fc731:	89 ca                	mov    edx,ecx
  3fc733:	88 10                	mov    BYTE PTR [rax],dl
  3fc735:	8b 45 fc             	mov    eax,DWORD PTR [rbp-0x4]
  3fc738:	48 63 d0             	movsxd rdx,eax
  3fc73b:	48 8b 45 e0          	mov    rax,QWORD PTR [rbp-0x20]
  3fc73f:	48 01 d0             	add    rax,rdx
  3fc742:	0f b6 00             	movzx  eax,BYTE PTR [rax]
  3fc745:	3c 09                	cmp    al,0x9
  3fc747:	7e 26                	jle    3fc76f <_init-0x4891>
  3fc749:	8b 45 fc             	mov    eax,DWORD PTR [rbp-0x4]
  3fc74c:	48 63 d0             	movsxd rdx,eax
  3fc74f:	48 8b 45 e0          	mov    rax,QWORD PTR [rbp-0x20]
  3fc753:	48 01 d0             	add    rax,rdx
  3fc756:	0f b6 00             	movzx  eax,BYTE PTR [rax]
  3fc759:	8d 48 57             	lea    ecx,[rax+0x57]
  3fc75c:	8b 45 fc             	mov    eax,DWORD PTR [rbp-0x4]
  3fc75f:	48 63 d0             	movsxd rdx,eax
  3fc762:	48 8b 45 e0          	mov    rax,QWORD PTR [rbp-0x20]
  3fc766:	48 01 d0             	add    rax,rdx
  3fc769:	89 ca                	mov    edx,ecx
  3fc76b:	88 10                	mov    BYTE PTR [rax],dl
  3fc76d:	eb 24                	jmp    3fc793 <_init-0x486d>
  3fc76f:	8b 45 fc             	mov    eax,DWORD PTR [rbp-0x4]
  3fc772:	48 63 d0             	movsxd rdx,eax
  3fc775:	48 8b 45 e0          	mov    rax,QWORD PTR [rbp-0x20]
  3fc779:	48 01 d0             	add    rax,rdx
  3fc77c:	0f b6 00             	movzx  eax,BYTE PTR [rax]
  3fc77f:	8d 48 30             	lea    ecx,[rax+0x30]
  3fc782:	8b 45 fc             	mov    eax,DWORD PTR [rbp-0x4]
  3fc785:	48 63 d0             	movsxd rdx,eax
  3fc788:	48 8b 45 e0          	mov    rax,QWORD PTR [rbp-0x20]
  3fc78c:	48 01 d0             	add    rax,rdx
  3fc78f:	89 ca                	mov    edx,ecx
  3fc791:	88 10                	mov    BYTE PTR [rax],dl
  3fc793:	48 8b 45 e8          	mov    rax,QWORD PTR [rbp-0x18]
  3fc797:	48 8d 50 0f          	lea    rdx,[rax+0xf]
  3fc79b:	48 85 c0             	test   rax,rax
  3fc79e:	48 0f 48 c2          	cmovs  rax,rdx
  3fc7a2:	48 c1 f8 04          	sar    rax,0x4
  3fc7a6:	48 89 45 e8          	mov    QWORD PTR [rbp-0x18],rax
  3fc7aa:	83 45 fc 01          	add    DWORD PTR [rbp-0x4],0x1
  3fc7ae:	48 83 7d e8 00       	cmp    QWORD PTR [rbp-0x18],0x0
  3fc7b3:	0f 85 55 ff ff ff    	jne    3fc70e <_init-0x48f2>
  3fc7b9:	8b 45 fc             	mov    eax,DWORD PTR [rbp-0x4]
  3fc7bc:	48 63 d0             	movsxd rdx,eax
  3fc7bf:	48 8b 45 e0          	mov    rax,QWORD PTR [rbp-0x20]
  3fc7c3:	48 01 d0             	add    rax,rdx
  3fc7c6:	c6 00 00             	mov    BYTE PTR [rax],0x0
  3fc7c9:	c7 45 f8 00 00 00 00 	mov    DWORD PTR [rbp-0x8],0x0
  3fc7d0:	e9 b5 00 00 00       	jmp    3fc88a <_init-0x4776>
  3fc7d5:	8b 45 f8             	mov    eax,DWORD PTR [rbp-0x8]
  3fc7d8:	48 63 d0             	movsxd rdx,eax
  3fc7db:	48 8b 45 e0          	mov    rax,QWORD PTR [rbp-0x20]
  3fc7df:	48 01 d0             	add    rax,rdx
  3fc7e2:	0f b6 30             	movzx  esi,BYTE PTR [rax]
  3fc7e5:	8b 45 fc             	mov    eax,DWORD PTR [rbp-0x4]
  3fc7e8:	2b 45 f8             	sub    eax,DWORD PTR [rbp-0x8]
  3fc7eb:	48 98                	cdqe   
  3fc7ed:	48 8d 50 ff          	lea    rdx,[rax-0x1]
  3fc7f1:	48 8b 45 e0          	mov    rax,QWORD PTR [rbp-0x20]
  3fc7f5:	48 01 d0             	add    rax,rdx
  3fc7f8:	0f b6 08             	movzx  ecx,BYTE PTR [rax]
  3fc7fb:	8b 45 f8             	mov    eax,DWORD PTR [rbp-0x8]
  3fc7fe:	48 63 d0             	movsxd rdx,eax
  3fc801:	48 8b 45 e0          	mov    rax,QWORD PTR [rbp-0x20]
  3fc805:	48 01 d0             	add    rax,rdx
  3fc808:	31 ce                	xor    esi,ecx
  3fc80a:	89 f2                	mov    edx,esi
  3fc80c:	88 10                	mov    BYTE PTR [rax],dl
  3fc80e:	8b 45 fc             	mov    eax,DWORD PTR [rbp-0x4]
  3fc811:	2b 45 f8             	sub    eax,DWORD PTR [rbp-0x8]
  3fc814:	48 98                	cdqe   
  3fc816:	48 8d 50 ff          	lea    rdx,[rax-0x1]
  3fc81a:	48 8b 45 e0          	mov    rax,QWORD PTR [rbp-0x20]
  3fc81e:	48 01 d0             	add    rax,rdx
  3fc821:	0f b6 30             	movzx  esi,BYTE PTR [rax]
  3fc824:	8b 45 f8             	mov    eax,DWORD PTR [rbp-0x8]
  3fc827:	48 63 d0             	movsxd rdx,eax
  3fc82a:	48 8b 45 e0          	mov    rax,QWORD PTR [rbp-0x20]
  3fc82e:	48 01 d0             	add    rax,rdx
  3fc831:	0f b6 08             	movzx  ecx,BYTE PTR [rax]
  3fc834:	8b 45 fc             	mov    eax,DWORD PTR [rbp-0x4]
  3fc837:	2b 45 f8             	sub    eax,DWORD PTR [rbp-0x8]
  3fc83a:	48 98                	cdqe   
  3fc83c:	48 8d 50 ff          	lea    rdx,[rax-0x1]
  3fc840:	48 8b 45 e0          	mov    rax,QWORD PTR [rbp-0x20]
  3fc844:	48 01 d0             	add    rax,rdx
  3fc847:	31 ce                	xor    esi,ecx
  3fc849:	89 f2                	mov    edx,esi
  3fc84b:	88 10                	mov    BYTE PTR [rax],dl
  3fc84d:	8b 45 f8             	mov    eax,DWORD PTR [rbp-0x8]
  3fc850:	48 63 d0             	movsxd rdx,eax
  3fc853:	48 8b 45 e0          	mov    rax,QWORD PTR [rbp-0x20]
  3fc857:	48 01 d0             	add    rax,rdx
  3fc85a:	0f b6 30             	movzx  esi,BYTE PTR [rax]
  3fc85d:	8b 45 fc             	mov    eax,DWORD PTR [rbp-0x4]
  3fc860:	2b 45 f8             	sub    eax,DWORD PTR [rbp-0x8]
  3fc863:	48 98                	cdqe   
  3fc865:	48 8d 50 ff          	lea    rdx,[rax-0x1]
  3fc869:	48 8b 45 e0          	mov    rax,QWORD PTR [rbp-0x20]
  3fc86d:	48 01 d0             	add    rax,rdx
  3fc870:	0f b6 08             	movzx  ecx,BYTE PTR [rax]
  3fc873:	8b 45 f8             	mov    eax,DWORD PTR [rbp-0x8]
  3fc876:	48 63 d0             	movsxd rdx,eax
  3fc879:	48 8b 45 e0          	mov    rax,QWORD PTR [rbp-0x20]
  3fc87d:	48 01 d0             	add    rax,rdx
  3fc880:	31 ce                	xor    esi,ecx
  3fc882:	89 f2                	mov    edx,esi
  3fc884:	88 10                	mov    BYTE PTR [rax],dl
  3fc886:	83 45 f8 01          	add    DWORD PTR [rbp-0x8],0x1
  3fc88a:	8b 45 fc             	mov    eax,DWORD PTR [rbp-0x4]
  3fc88d:	89 c2                	mov    edx,eax
  3fc88f:	c1 ea 1f             	shr    edx,0x1f
  3fc892:	01 d0                	add    eax,edx
  3fc894:	d1 f8                	sar    eax,1
  3fc896:	39 45 f8             	cmp    DWORD PTR [rbp-0x8],eax
  3fc899:	0f 8c 36 ff ff ff    	jl     3fc7d5 <_init-0x482b>
  3fc89f:	48 8b 45 e0          	mov    rax,QWORD PTR [rbp-0x20]
  3fc8a3:	5d                   	pop    rbp
  3fc8a4:	c3                   	ret    
  3fc8a5:	f3 0f 1e fa          	endbr64 
  3fc8a9:	55                   	push   rbp
  3fc8aa:	48 89 e5             	mov    rbp,rsp
  3fc8ad:	48 83 ec 10          	sub    rsp,0x10
  3fc8b1:	48 89 7d f8          	mov    QWORD PTR [rbp-0x8],rdi
  3fc8b5:	48 8b 45 f8          	mov    rax,QWORD PTR [rbp-0x8]
  3fc8b9:	48 89 c7             	mov    rdi,rax
  3fc8bc:	e8 7c 00 00 00       	call   3fc93d <_init-0x46c3>
  3fc8c1:	48 89 c2             	mov    rdx,rax
  3fc8c4:	48 8b 45 f8          	mov    rax,QWORD PTR [rbp-0x8]
  3fc8c8:	48 89 c6             	mov    rsi,rax
  3fc8cb:	bf 01 00 00 00       	mov    edi,0x1
  3fc8d0:	e8 03 f6 ff ff       	call   3fbed8 <_init-0x5128>
  3fc8d5:	bf 01 00 00 00       	mov    edi,0x1
  3fc8da:	e8 e6 f6 ff ff       	call   3fbfc5 <_init-0x503b>
  3fc8df:	b8 01 00 00 00       	mov    eax,0x1
  3fc8e4:	c9                   	leave  
  3fc8e5:	c3                   	ret    
  3fc8e6:	f3 0f 1e fa          	endbr64 
  3fc8ea:	55                   	push   rbp
  3fc8eb:	48 89 e5             	mov    rbp,rsp
  3fc8ee:	48 83 ec 10          	sub    rsp,0x10
  3fc8f2:	48 89 7d f8          	mov    QWORD PTR [rbp-0x8],rdi
  3fc8f6:	48 8b 45 f8          	mov    rax,QWORD PTR [rbp-0x8]
  3fc8fa:	48 89 c7             	mov    rdi,rax
  3fc8fd:	e8 3b 00 00 00       	call   3fc93d <_init-0x46c3>
  3fc902:	48 89 c2             	mov    rdx,rax
  3fc905:	48 8b 45 f8          	mov    rax,QWORD PTR [rbp-0x8]
  3fc909:	48 89 c6             	mov    rsi,rax
  3fc90c:	bf 01 00 00 00       	mov    edi,0x1
  3fc911:	e8 c2 f5 ff ff       	call   3fbed8 <_init-0x5128>
  3fc916:	ba 01 00 00 00       	mov    edx,0x1
  3fc91b:	48 8d 35 1d 03 00 00 	lea    rsi,[rip+0x31d]        # 3fcc3f <_init-0x43c1>
  3fc922:	bf 01 00 00 00       	mov    edi,0x1
  3fc927:	e8 ac f5 ff ff       	call   3fbed8 <_init-0x5128>
  3fc92c:	bf 01 00 00 00       	mov    edi,0x1
  3fc931:	e8 8f f6 ff ff       	call   3fbfc5 <_init-0x503b>
  3fc936:	b8 01 00 00 00       	mov    eax,0x1
  3fc93b:	c9                   	leave  
  3fc93c:	c3                   	ret    
  3fc93d:	f3 0f 1e fa          	endbr64 
  3fc941:	55                   	push   rbp
  3fc942:	48 89 e5             	mov    rbp,rsp
  3fc945:	48 89 7d e8          	mov    QWORD PTR [rbp-0x18],rdi
  3fc949:	48 c7 45 f8 00 00 00 	mov    QWORD PTR [rbp-0x8],0x0
  3fc950:	00 
  3fc951:	eb 05                	jmp    3fc958 <_init-0x46a8>
  3fc953:	48 83 45 f8 01       	add    QWORD PTR [rbp-0x8],0x1
  3fc958:	48 8b 55 e8          	mov    rdx,QWORD PTR [rbp-0x18]
  3fc95c:	48 8b 45 f8          	mov    rax,QWORD PTR [rbp-0x8]
  3fc960:	48 01 d0             	add    rax,rdx
  3fc963:	0f b6 00             	movzx  eax,BYTE PTR [rax]
  3fc966:	84 c0                	test   al,al
  3fc968:	75 e9                	jne    3fc953 <_init-0x46ad>
  3fc96a:	48 8b 45 f8          	mov    rax,QWORD PTR [rbp-0x8]
  3fc96e:	5d                   	pop    rbp
  3fc96f:	c3                   	ret    
  3fc970:	f3 0f 1e fa          	endbr64 
  3fc974:	55                   	push   rbp
  3fc975:	48 89 e5             	mov    rbp,rsp
  3fc978:	89 f8                	mov    eax,edi
  3fc97a:	88 45 fc             	mov    BYTE PTR [rbp-0x4],al
  3fc97d:	80 7d fc 60          	cmp    BYTE PTR [rbp-0x4],0x60
  3fc981:	7e 16                	jle    3fc999 <_init-0x4667>
  3fc983:	80 7d fc 7a          	cmp    BYTE PTR [rbp-0x4],0x7a
  3fc987:	7f 10                	jg     3fc999 <_init-0x4667>
  3fc989:	0f b6 45 fc          	movzx  eax,BYTE PTR [rbp-0x4]
  3fc98d:	83 e8 20             	sub    eax,0x20
  3fc990:	88 45 fc             	mov    BYTE PTR [rbp-0x4],al
  3fc993:	0f b6 45 fc          	movzx  eax,BYTE PTR [rbp-0x4]
  3fc997:	eb 04                	jmp    3fc99d <_init-0x4663>
  3fc999:	0f b6 45 fc          	movzx  eax,BYTE PTR [rbp-0x4]
  3fc99d:	5d                   	pop    rbp
  3fc99e:	c3                   	ret    
  3fc99f:	f3 0f 1e fa          	endbr64 
  3fc9a3:	55                   	push   rbp
  3fc9a4:	48 89 e5             	mov    rbp,rsp
  3fc9a7:	48 89 7d f8          	mov    QWORD PTR [rbp-0x8],rdi
  3fc9ab:	48 89 75 f0          	mov    QWORD PTR [rbp-0x10],rsi
  3fc9af:	48 89 55 e8          	mov    QWORD PTR [rbp-0x18],rdx
  3fc9b3:	eb 53                	jmp    3fca08 <_init-0x45f8>
  3fc9b5:	48 8b 45 f8          	mov    rax,QWORD PTR [rbp-0x8]
  3fc9b9:	0f b6 10             	movzx  edx,BYTE PTR [rax]
  3fc9bc:	48 8b 45 f0          	mov    rax,QWORD PTR [rbp-0x10]
  3fc9c0:	0f b6 00             	movzx  eax,BYTE PTR [rax]
  3fc9c3:	38 c2                	cmp    dl,al
  3fc9c5:	74 20                	je     3fc9e7 <_init-0x4619>
  3fc9c7:	48 8b 45 f8          	mov    rax,QWORD PTR [rbp-0x8]
  3fc9cb:	0f b6 10             	movzx  edx,BYTE PTR [rax]
  3fc9ce:	48 8b 45 f0          	mov    rax,QWORD PTR [rbp-0x10]
  3fc9d2:	0f b6 00             	movzx  eax,BYTE PTR [rax]
  3fc9d5:	38 c2                	cmp    dl,al
  3fc9d7:	73 07                	jae    3fc9e0 <_init-0x4620>
  3fc9d9:	b8 ff ff ff ff       	mov    eax,0xffffffff
  3fc9de:	eb 34                	jmp    3fca14 <_init-0x45ec>
  3fc9e0:	b8 01 00 00 00       	mov    eax,0x1
  3fc9e5:	eb 2d                	jmp    3fca14 <_init-0x45ec>
  3fc9e7:	48 8b 45 f8          	mov    rax,QWORD PTR [rbp-0x8]
  3fc9eb:	0f b6 00             	movzx  eax,BYTE PTR [rax]
  3fc9ee:	84 c0                	test   al,al
  3fc9f0:	75 07                	jne    3fc9f9 <_init-0x4607>
  3fc9f2:	b8 00 00 00 00       	mov    eax,0x0
  3fc9f7:	eb 1b                	jmp    3fca14 <_init-0x45ec>
  3fc9f9:	48 83 45 f8 01       	add    QWORD PTR [rbp-0x8],0x1
  3fc9fe:	48 83 45 f0 01       	add    QWORD PTR [rbp-0x10],0x1
  3fca03:	48 83 6d e8 01       	sub    QWORD PTR [rbp-0x18],0x1
  3fca08:	48 83 7d e8 00       	cmp    QWORD PTR [rbp-0x18],0x0
  3fca0d:	75 a6                	jne    3fc9b5 <_init-0x464b>
  3fca0f:	b8 00 00 00 00       	mov    eax,0x0
  3fca14:	5d                   	pop    rbp
  3fca15:	c3                   	ret    
  3fca16:	f3 0f 1e fa          	endbr64 
  3fca1a:	55                   	push   rbp
  3fca1b:	48 89 e5             	mov    rbp,rsp
  3fca1e:	48 89 7d f8          	mov    QWORD PTR [rbp-0x8],rdi
  3fca22:	48 89 75 f0          	mov    QWORD PTR [rbp-0x10],rsi
  3fca26:	eb 1c                	jmp    3fca44 <_init-0x45bc>
  3fca28:	48 8b 45 f8          	mov    rax,QWORD PTR [rbp-0x8]
  3fca2c:	0f b6 00             	movzx  eax,BYTE PTR [rax]
  3fca2f:	84 c0                	test   al,al
  3fca31:	75 07                	jne    3fca3a <_init-0x45c6>
  3fca33:	b8 00 00 00 00       	mov    eax,0x0
  3fca38:	eb 3a                	jmp    3fca74 <_init-0x458c>
  3fca3a:	48 83 45 f8 01       	add    QWORD PTR [rbp-0x8],0x1
  3fca3f:	48 83 45 f0 01       	add    QWORD PTR [rbp-0x10],0x1
  3fca44:	48 8b 45 f8          	mov    rax,QWORD PTR [rbp-0x8]
  3fca48:	0f b6 10             	movzx  edx,BYTE PTR [rax]
  3fca4b:	48 8b 45 f0          	mov    rax,QWORD PTR [rbp-0x10]
  3fca4f:	0f b6 00             	movzx  eax,BYTE PTR [rax]
  3fca52:	38 c2                	cmp    dl,al
  3fca54:	74 d2                	je     3fca28 <_init-0x45d8>
  3fca56:	48 8b 45 f8          	mov    rax,QWORD PTR [rbp-0x8]
  3fca5a:	0f b6 10             	movzx  edx,BYTE PTR [rax]
  3fca5d:	48 8b 45 f0          	mov    rax,QWORD PTR [rbp-0x10]
  3fca61:	0f b6 00             	movzx  eax,BYTE PTR [rax]
  3fca64:	38 c2                	cmp    dl,al
  3fca66:	73 07                	jae    3fca6f <_init-0x4591>
  3fca68:	b8 ff ff ff ff       	mov    eax,0xffffffff
  3fca6d:	eb 05                	jmp    3fca74 <_init-0x458c>
  3fca6f:	b8 01 00 00 00       	mov    eax,0x1
  3fca74:	5d                   	pop    rbp
  3fca75:	c3                   	ret    
  3fca76:	f3 0f 1e fa          	endbr64 
  3fca7a:	55                   	push   rbp
  3fca7b:	48 89 e5             	mov    rbp,rsp
  3fca7e:	48 89 7d e8          	mov    QWORD PTR [rbp-0x18],rdi
  3fca82:	48 89 75 e0          	mov    QWORD PTR [rbp-0x20],rsi
  3fca86:	89 55 dc             	mov    DWORD PTR [rbp-0x24],edx
  3fca89:	eb 35                	jmp    3fcac0 <_init-0x4540>
  3fca8b:	48 8b 45 e8          	mov    rax,QWORD PTR [rbp-0x18]
  3fca8f:	0f b6 00             	movzx  eax,BYTE PTR [rax]
  3fca92:	88 45 ff             	mov    BYTE PTR [rbp-0x1],al
  3fca95:	48 8b 45 e0          	mov    rax,QWORD PTR [rbp-0x20]
  3fca99:	0f b6 00             	movzx  eax,BYTE PTR [rax]
  3fca9c:	88 45 fe             	mov    BYTE PTR [rbp-0x2],al
  3fca9f:	0f b6 45 ff          	movzx  eax,BYTE PTR [rbp-0x1]
  3fcaa3:	3a 45 fe             	cmp    al,BYTE PTR [rbp-0x2]
  3fcaa6:	74 0e                	je     3fcab6 <_init-0x454a>
  3fcaa8:	0f b6 55 ff          	movzx  edx,BYTE PTR [rbp-0x1]
  3fcaac:	0f b6 45 fe          	movzx  eax,BYTE PTR [rbp-0x2]
  3fcab0:	29 c2                	sub    edx,eax
  3fcab2:	89 d0                	mov    eax,edx
  3fcab4:	eb 17                	jmp    3fcacd <_init-0x4533>
  3fcab6:	48 83 45 e8 01       	add    QWORD PTR [rbp-0x18],0x1
  3fcabb:	48 83 45 e0 01       	add    QWORD PTR [rbp-0x20],0x1
  3fcac0:	8b 45 dc             	mov    eax,DWORD PTR [rbp-0x24]
  3fcac3:	8d 50 ff             	lea    edx,[rax-0x1]
  3fcac6:	89 55 dc             	mov    DWORD PTR [rbp-0x24],edx
  3fcac9:	85 c0                	test   eax,eax
  3fcacb:	75 be                	jne    3fca8b <_init-0x4575>
  3fcacd:	5d                   	pop    rbp
  3fcace:	c3                   	ret    
  3fcacf:	f3 0f 1e fa          	endbr64 
  3fcad3:	55                   	push   rbp
  3fcad4:	48 89 e5             	mov    rbp,rsp
  3fcad7:	e8 00 00 00 00       	call   3fcadc <_init-0x4524>
  3fcadc:	58                   	pop    rax
  3fcadd:	48 89 c0             	mov    rax,rax
  3fcae0:	48 89 45 f8          	mov    QWORD PTR [rbp-0x8],rax
  3fcae4:	48 8b 45 f8          	mov    rax,QWORD PTR [rbp-0x8]
  3fcae8:	5d                   	pop    rbp
  3fcae9:	c3                   	ret    
  3fcaea:	68 50 10 40 00       	push   0x401050
  3fcaef:	c3                   	ret    
  3fcaf0:	89 e5                	mov    ebp,esp
  3fcaf2:	bf 00 00 00 00       	mov    edi,0x0
  3fcaf7:	e8 33 f3 ff ff       	call   3fbe2f <_init-0x51d1>
  3fcafc:	90                   	nop
  3fcafd:	5d                   	pop    rbp
  3fcafe:	c3                   	ret    
  3fcaff:	f3 0f 1e fa          	endbr64 
  3fcb03:	55                   	push   rbp
  3fcb04:	48 89 e5             	mov    rbp,rsp
  3fcb07:	90                   	nop
  3fcb08:	90                   	nop
  3fcb09:	5d                   	pop    rbp
  3fcb0a:	c3                   	ret    
  3fcb0b:	f3 0f 1e fa          	endbr64 
  3fcb0f:	55                   	push   rbp
  3fcb10:	48 89 e5             	mov    rbp,rsp
  3fcb13:	ba ed 3b 00 00       	mov    edx,0x3bed
  3fcb18:	48 c7 c0 a0 2d 40 00 	mov    rax,0x402da0
  3fcb1f:	48 89 c6             	mov    rsi,rax
  3fcb22:	bf 01 00 00 00       	mov    edi,0x1
  3fcb27:	e8 ac f3 ff ff       	call   3fbed8 <_init-0x5128>
  3fcb2c:	90                   	nop
  3fcb2d:	5d                   	pop    rbp
  3fcb2e:	c3                   	ret    
	...
  3fcb43:	00 4d d6             	add    BYTE PTR [rbp-0x2a],cl
  3fcb46:	ff                   	(bad)  
  3fcb47:	ff 62 d6             	jmp    QWORD PTR [rdx-0x2a]
  3fcb4a:	ff                   	(bad)  
  3fcb4b:	ff 62 d6             	jmp    QWORD PTR [rdx-0x2a]
  3fcb4e:	ff                   	(bad)  
  3fcb4f:	ff 62 d6             	jmp    QWORD PTR [rdx-0x2a]
  3fcb52:	ff                   	(bad)  
  3fcb53:	ff                   	(bad)  
  3fcb54:	f9                   	stc    
  3fcb55:	d5                   	(bad)  
  3fcb56:	ff                   	(bad)  
  3fcb57:	ff 62 d6             	jmp    QWORD PTR [rdx-0x2a]
  3fcb5a:	ff                   	(bad)  
  3fcb5b:	ff 62 d6             	jmp    QWORD PTR [rdx-0x2a]
  3fcb5e:	ff                   	(bad)  
  3fcb5f:	ff 62 d6             	jmp    QWORD PTR [rdx-0x2a]
  3fcb62:	ff                   	(bad)  
  3fcb63:	ff e1                	jmp    rcx
  3fcb65:	d5                   	(bad)  
  3fcb66:	ff                   	(bad)  
  3fcb67:	ff 62 d6             	jmp    QWORD PTR [rdx-0x2a]
  3fcb6a:	ff                   	(bad)  
  3fcb6b:	ff 62 d6             	jmp    QWORD PTR [rdx-0x2a]
  3fcb6e:	ff                   	(bad)  
  3fcb6f:	ff 62 d6             	jmp    QWORD PTR [rdx-0x2a]
  3fcb72:	ff                   	(bad)  
  3fcb73:	ff 62 d6             	jmp    QWORD PTR [rdx-0x2a]
  3fcb76:	ff                   	(bad)  
  3fcb77:	ff 62 d6             	jmp    QWORD PTR [rdx-0x2a]
  3fcb7a:	ff                   	(bad)  
  3fcb7b:	ff                   	(bad)  
  3fcb7c:	38 d6                	cmp    dh,dl
  3fcb7e:	ff                   	(bad)  
  3fcb7f:	ff 62 d6             	jmp    QWORD PTR [rdx-0x2a]
  3fcb82:	ff                   	(bad)  
  3fcb83:	ff 62 d6             	jmp    QWORD PTR [rdx-0x2a]
  3fcb86:	ff                   	(bad)  
  3fcb87:	ff 62 d6             	jmp    QWORD PTR [rdx-0x2a]
  3fcb8a:	ff                   	(bad)  
  3fcb8b:	ff 0e                	dec    DWORD PTR [rsi]
  3fcb8d:	d6                   	(bad)  
  3fcb8e:	ff                   	(bad)  
  3fcb8f:	ff 23                	jmp    QWORD PTR [rbx]
  3fcb91:	d6                   	(bad)  
  3fcb92:	ff                   	(bad)  
  3fcb93:	ff 2e                	jmp    FWORD PTR [rsi]
  3fcb95:	78 79                	js     3fcc10 <_init-0x43f0>
  3fcb97:	7a 2e                	jp     3fcbc7 <_init-0x4439>
  3fcb99:	73 6b                	jae    3fcc06 <_init-0x43fa>
  3fcb9b:	65 6b 73 69 2e       	imul   esi,DWORD PTR gs:[rbx+0x69],0x2e
  3fcba0:	65 6c                	gs ins BYTE PTR es:[rdi],dx
  3fcba2:	66 36 34 00          	data16 ss xor al,0x0
  3fcba6:	2e 74 65             	cs je  3fcc0e <_init-0x43f2>
  3fcba9:	78 74                	js     3fcc1f <_init-0x43e1>
  3fcbab:	00 70 75             	add    BYTE PTR [rax+0x75],dh
  3fcbae:	74 73                	je     3fcc23 <_init-0x43dd>
  3fcbb0:	00 00                	add    BYTE PTR [rax],al
  3fcbb2:	00 00                	add    BYTE PTR [rax],al
  3fcbb4:	04 ec                	add    al,0xec
  3fcbb6:	ff                   	(bad)  
  3fcbb7:	ff 04 ec             	inc    DWORD PTR [rsp+rbp*8]
  3fcbba:	ff                   	(bad)  
  3fcbbb:	ff                   	(bad)  
  3fcbbc:	e8 eb ff ff 1b       	call   1c3fcbac <_end+0x1bff8b74>
  3fcbc1:	eb ff                	jmp    3fcbc2 <_init-0x443e>
  3fcbc3:	ff 04 ec             	inc    DWORD PTR [rsp+rbp*8]
  3fcbc6:	ff                   	(bad)  
  3fcbc7:	ff 5f eb             	call   FWORD PTR [rdi-0x15]
  3fcbca:	ff                   	(bad)  
  3fcbcb:	ff e2                	jmp    rdx
  3fcbcd:	ea                   	(bad)  
  3fcbce:	ff                   	(bad)  
  3fcbcf:	ff 04 ec             	inc    DWORD PTR [rsp+rbp*8]
  3fcbd2:	ff                   	(bad)  
  3fcbd3:	ff 04 ec             	inc    DWORD PTR [rsp+rbp*8]
  3fcbd6:	ff                   	(bad)  
  3fcbd7:	ff 04 ec             	inc    DWORD PTR [rsp+rbp*8]
  3fcbda:	ff                   	(bad)  
  3fcbdb:	ff 95 eb ff ff 04    	call   QWORD PTR [rbp+0x4ffffeb]
  3fcbe1:	ec                   	in     al,dx
  3fcbe2:	ff                   	(bad)  
  3fcbe3:	ff 04 ec             	inc    DWORD PTR [rsp+rbp*8]
  3fcbe6:	ff                   	(bad)  
  3fcbe7:	ff 04 ec             	inc    DWORD PTR [rsp+rbp*8]
  3fcbea:	ff                   	(bad)  
  3fcbeb:	ff 04 ec             	inc    DWORD PTR [rsp+rbp*8]
  3fcbee:	ff                   	(bad)  
  3fcbef:	ff 04 ec             	inc    DWORD PTR [rsp+rbp*8]
  3fcbf2:	ff                   	(bad)  
  3fcbf3:	ff 04 ec             	inc    DWORD PTR [rsp+rbp*8]
  3fcbf6:	ff                   	(bad)  
  3fcbf7:	ff 04 ec             	inc    DWORD PTR [rsp+rbp*8]
  3fcbfa:	ff                   	(bad)  
  3fcbfb:	ff 04 ec             	inc    DWORD PTR [rsp+rbp*8]
  3fcbfe:	ff                   	(bad)  
  3fcbff:	ff 04 ec             	inc    DWORD PTR [rsp+rbp*8]
  3fcc02:	ff                   	(bad)  
  3fcc03:	ff 04 ec             	inc    DWORD PTR [rsp+rbp*8]
  3fcc06:	ff                   	(bad)  
  3fcc07:	ff 04 ec             	inc    DWORD PTR [rsp+rbp*8]
  3fcc0a:	ff                   	(bad)  
  3fcc0b:	ff 04 ec             	inc    DWORD PTR [rsp+rbp*8]
  3fcc0e:	ff                   	(bad)  
  3fcc0f:	ff b2 eb ff ff 7f    	push   QWORD PTR [rdx+0x7fffffeb]
  3fcc15:	45                   	rex.RB
  3fcc16:	4c                   	rex.WR
  3fcc17:	46 00 2f             	rex.RX add BYTE PTR [rdi],r13b
  3fcc1a:	73 62                	jae    3fcc7e <_init-0x4382>
  3fcc1c:	69 6e 00 2f 75 73 72 	imul   ebp,DWORD PTR [rsi+0x0],0x7273752f
  3fcc23:	2f                   	(bad)  
  3fcc24:	73 62                	jae    3fcc88 <_init-0x4378>
  3fcc26:	69 6e 00 2f 62 69 6e 	imul   ebp,DWORD PTR [rsi+0x0],0x6e69622f
  3fcc2d:	00 2f                	add    BYTE PTR [rdi],ch
  3fcc2f:	75 73                	jne    3fcca4 <_init-0x435c>
  3fcc31:	72 2f                	jb     3fcc62 <_init-0x439e>
  3fcc33:	62                   	(bad)  
  3fcc34:	69 6e 00 2e 00 76 69 	imul   ebp,DWORD PTR [rsi+0x0],0x6976002e
  3fcc3b:	72 75                	jb     3fccb2 <_init-0x434e>
  3fcc3d:	73 00                	jae    3fcc3f <_init-0x43c1>
  3fcc3f:	0a 00                	or     al,BYTE PTR [rax]
  3fcc41:	00 00                	add    BYTE PTR [rax],al
  3fcc43:	00 1b                	add    BYTE PTR [rbx],bl
  3fcc45:	5b                   	pop    rbx
  3fcc46:	30 3b                	xor    BYTE PTR [rbx],bh
  3fcc48:	31 3b                	xor    DWORD PTR [rbx],edi
  3fcc4a:	33 30                	xor    esi,DWORD PTR [rax]
  3fcc4c:	3b 34 30             	cmp    esi,DWORD PTR [rax+rsi*1]
  3fcc4f:	6d                   	ins    DWORD PTR es:[rdi],dx
  3fcc50:	40 1b 5b 30          	rex sbb ebx,DWORD PTR [rbx+0x30]
  3fcc54:	3b 33                	cmp    esi,DWORD PTR [rbx]
  3fcc56:	31 3b                	xor    DWORD PTR [rbx],edi
  3fcc58:	34 30                	xor    al,0x30
  3fcc5a:	6d                   	ins    DWORD PTR es:[rdi],dx
  3fcc5b:	38 1b                	cmp    BYTE PTR [rbx],bl
  3fcc5d:	5b                   	pop    rbx
  3fcc5e:	30 3b                	xor    BYTE PTR [rbx],bh
  3fcc60:	35 3b 33 30 3b       	xor    eax,0x3b30333b
  3fcc65:	34 30                	xor    al,0x30
  3fcc67:	6d                   	ins    DWORD PTR es:[rdi],dx
  3fcc68:	38 1b                	cmp    BYTE PTR [rbx],bl
  3fcc6a:	5b                   	pop    rbx
  3fcc6b:	30 3b                	xor    BYTE PTR [rbx],bh
  3fcc6d:	33 31                	xor    esi,DWORD PTR [rcx]
  3fcc6f:	3b 34 30             	cmp    esi,DWORD PTR [rax+rsi*1]
  3fcc72:	6d                   	ins    DWORD PTR es:[rdi],dx
  3fcc73:	40 1b 5b 30          	rex sbb ebx,DWORD PTR [rbx+0x30]
  3fcc77:	3b 35 3b 33 30 3b    	cmp    esi,DWORD PTR [rip+0x3b30333b]        # 3b6fffb8 <_end+0x3b2fbf80>
  3fcc7d:	34 30                	xor    al,0x30
  3fcc7f:	6d                   	ins    DWORD PTR es:[rdi],dx
  3fcc80:	38 1b                	cmp    BYTE PTR [rbx],bl
  3fcc82:	5b                   	pop    rbx
  3fcc83:	30 3b                	xor    BYTE PTR [rbx],bh
  3fcc85:	33 31                	xor    esi,DWORD PTR [rcx]
  3fcc87:	3b 34 30             	cmp    esi,DWORD PTR [rax+rsi*1]
  3fcc8a:	6d                   	ins    DWORD PTR es:[rdi],dx
  3fcc8b:	40 1b 5b 30          	rex sbb ebx,DWORD PTR [rbx+0x30]
  3fcc8f:	3b 35 3b 33 30 3b    	cmp    esi,DWORD PTR [rip+0x3b30333b]        # 3b6fffd0 <_end+0x3b2fbf98>
  3fcc95:	34 30                	xor    al,0x30
  3fcc97:	6d                   	ins    DWORD PTR es:[rdi],dx
  3fcc98:	38 1b                	cmp    BYTE PTR [rbx],bl
  3fcc9a:	5b                   	pop    rbx
  3fcc9b:	30 3b                	xor    BYTE PTR [rbx],bh
  3fcc9d:	33 31                	xor    esi,DWORD PTR [rcx]
  3fcc9f:	3b 34 30             	cmp    esi,DWORD PTR [rax+rsi*1]
  3fcca2:	6d                   	ins    DWORD PTR es:[rdi],dx
  3fcca3:	40 1b 5b 30          	rex sbb ebx,DWORD PTR [rbx+0x30]
  3fcca7:	3b 35 3b 33 30 3b    	cmp    esi,DWORD PTR [rip+0x3b30333b]        # 3b6fffe8 <_end+0x3b2fbfb0>
  3fccad:	34 30                	xor    al,0x30
  3fccaf:	6d                   	ins    DWORD PTR es:[rdi],dx
  3fccb0:	38 1b                	cmp    BYTE PTR [rbx],bl
  3fccb2:	5b                   	pop    rbx
  3fccb3:	30 3b                	xor    BYTE PTR [rbx],bh
  3fccb5:	33 31                	xor    esi,DWORD PTR [rcx]
  3fccb7:	3b 34 30             	cmp    esi,DWORD PTR [rax+rsi*1]
  3fccba:	6d                   	ins    DWORD PTR es:[rdi],dx
  3fccbb:	40 1b 5b 30          	rex sbb ebx,DWORD PTR [rbx+0x30]
  3fccbf:	3b 35 3b 33 30 3b    	cmp    esi,DWORD PTR [rip+0x3b30333b]        # 3b700000 <_end+0x3b2fbfc8>
  3fccc5:	34 30                	xor    al,0x30
  3fccc7:	6d                   	ins    DWORD PTR es:[rdi],dx
  3fccc8:	38 1b                	cmp    BYTE PTR [rbx],bl
  3fccca:	5b                   	pop    rbx
  3fcccb:	30 3b                	xor    BYTE PTR [rbx],bh
  3fcccd:	33 31                	xor    esi,DWORD PTR [rcx]
  3fcccf:	3b 34 30             	cmp    esi,DWORD PTR [rax+rsi*1]
  3fccd2:	6d                   	ins    DWORD PTR es:[rdi],dx
  3fccd3:	40 1b 5b 30          	rex sbb ebx,DWORD PTR [rbx+0x30]
  3fccd7:	3b 35 3b 33 30 3b    	cmp    esi,DWORD PTR [rip+0x3b30333b]        # 3b700018 <_end+0x3b2fbfe0>
  3fccdd:	34 30                	xor    al,0x30
  3fccdf:	6d                   	ins    DWORD PTR es:[rdi],dx
  3fcce0:	38 1b                	cmp    BYTE PTR [rbx],bl
  3fcce2:	5b                   	pop    rbx
  3fcce3:	30 3b                	xor    BYTE PTR [rbx],bh
  3fcce5:	33 31                	xor    esi,DWORD PTR [rcx]
  3fcce7:	3b 34 30             	cmp    esi,DWORD PTR [rax+rsi*1]
  3fccea:	6d                   	ins    DWORD PTR es:[rdi],dx
  3fcceb:	40 1b 5b 30          	rex sbb ebx,DWORD PTR [rbx+0x30]
  3fccef:	3b 35 3b 33 30 3b    	cmp    esi,DWORD PTR [rip+0x3b30333b]        # 3b700030 <_end+0x3b2fbff8>
  3fccf5:	34 30                	xor    al,0x30
  3fccf7:	6d                   	ins    DWORD PTR es:[rdi],dx
  3fccf8:	38 1b                	cmp    BYTE PTR [rbx],bl
  3fccfa:	5b                   	pop    rbx
  3fccfb:	30 3b                	xor    BYTE PTR [rbx],bh
  3fccfd:	33 31                	xor    esi,DWORD PTR [rcx]
  3fccff:	3b 34 30             	cmp    esi,DWORD PTR [rax+rsi*1]
  3fcd02:	6d                   	ins    DWORD PTR es:[rdi],dx
  3fcd03:	40 1b 5b 30          	rex sbb ebx,DWORD PTR [rbx+0x30]
  3fcd07:	3b 35 3b 33 30 3b    	cmp    esi,DWORD PTR [rip+0x3b30333b]        # 3b700048 <_end+0x3b2fc010>
  3fcd0d:	34 30                	xor    al,0x30
  3fcd0f:	6d                   	ins    DWORD PTR es:[rdi],dx
  3fcd10:	38 1b                	cmp    BYTE PTR [rbx],bl
  3fcd12:	5b                   	pop    rbx
  3fcd13:	30 3b                	xor    BYTE PTR [rbx],bh
  3fcd15:	33 31                	xor    esi,DWORD PTR [rcx]
  3fcd17:	3b 34 30             	cmp    esi,DWORD PTR [rax+rsi*1]
  3fcd1a:	6d                   	ins    DWORD PTR es:[rdi],dx
  3fcd1b:	40 1b 5b 30          	rex sbb ebx,DWORD PTR [rbx+0x30]
  3fcd1f:	3b 35 3b 33 30 3b    	cmp    esi,DWORD PTR [rip+0x3b30333b]        # 3b700060 <_end+0x3b2fc028>
  3fcd25:	34 30                	xor    al,0x30
  3fcd27:	6d                   	ins    DWORD PTR es:[rdi],dx
  3fcd28:	38 1b                	cmp    BYTE PTR [rbx],bl
  3fcd2a:	5b                   	pop    rbx
  3fcd2b:	30 3b                	xor    BYTE PTR [rbx],bh
  3fcd2d:	33 31                	xor    esi,DWORD PTR [rcx]
  3fcd2f:	3b 34 30             	cmp    esi,DWORD PTR [rax+rsi*1]
  3fcd32:	6d                   	ins    DWORD PTR es:[rdi],dx
  3fcd33:	40 1b 5b 30          	rex sbb ebx,DWORD PTR [rbx+0x30]
  3fcd37:	3b 35 3b 33 30 3b    	cmp    esi,DWORD PTR [rip+0x3b30333b]        # 3b700078 <_end+0x3b2fc040>
  3fcd3d:	34 30                	xor    al,0x30
  3fcd3f:	6d                   	ins    DWORD PTR es:[rdi],dx
  3fcd40:	38 1b                	cmp    BYTE PTR [rbx],bl
  3fcd42:	5b                   	pop    rbx
  3fcd43:	30 3b                	xor    BYTE PTR [rbx],bh
  3fcd45:	33 31                	xor    esi,DWORD PTR [rcx]
  3fcd47:	3b 34 30             	cmp    esi,DWORD PTR [rax+rsi*1]
  3fcd4a:	6d                   	ins    DWORD PTR es:[rdi],dx
  3fcd4b:	40 1b 5b 30          	rex sbb ebx,DWORD PTR [rbx+0x30]
  3fcd4f:	3b 35 3b 33 30 3b    	cmp    esi,DWORD PTR [rip+0x3b30333b]        # 3b700090 <_end+0x3b2fc058>
  3fcd55:	34 30                	xor    al,0x30
  3fcd57:	6d                   	ins    DWORD PTR es:[rdi],dx
  3fcd58:	38 1b                	cmp    BYTE PTR [rbx],bl
  3fcd5a:	5b                   	pop    rbx
  3fcd5b:	30 3b                	xor    BYTE PTR [rbx],bh
  3fcd5d:	33 31                	xor    esi,DWORD PTR [rcx]
  3fcd5f:	3b 34 30             	cmp    esi,DWORD PTR [rax+rsi*1]
  3fcd62:	6d                   	ins    DWORD PTR es:[rdi],dx
  3fcd63:	40 1b 5b 30          	rex sbb ebx,DWORD PTR [rbx+0x30]
  3fcd67:	3b 35 3b 33 30 3b    	cmp    esi,DWORD PTR [rip+0x3b30333b]        # 3b7000a8 <_end+0x3b2fc070>
  3fcd6d:	34 30                	xor    al,0x30
  3fcd6f:	6d                   	ins    DWORD PTR es:[rdi],dx
  3fcd70:	38 1b                	cmp    BYTE PTR [rbx],bl
  3fcd72:	5b                   	pop    rbx
  3fcd73:	30 3b                	xor    BYTE PTR [rbx],bh
  3fcd75:	33 31                	xor    esi,DWORD PTR [rcx]
  3fcd77:	3b 34 30             	cmp    esi,DWORD PTR [rax+rsi*1]
  3fcd7a:	6d                   	ins    DWORD PTR es:[rdi],dx
  3fcd7b:	40 1b 5b 30          	rex sbb ebx,DWORD PTR [rbx+0x30]
  3fcd7f:	3b 35 3b 33 30 3b    	cmp    esi,DWORD PTR [rip+0x3b30333b]        # 3b7000c0 <_end+0x3b2fc088>
  3fcd85:	34 30                	xor    al,0x30
  3fcd87:	6d                   	ins    DWORD PTR es:[rdi],dx
  3fcd88:	38 1b                	cmp    BYTE PTR [rbx],bl
  3fcd8a:	5b                   	pop    rbx
  3fcd8b:	30 3b                	xor    BYTE PTR [rbx],bh
  3fcd8d:	33 31                	xor    esi,DWORD PTR [rcx]
  3fcd8f:	3b 34 30             	cmp    esi,DWORD PTR [rax+rsi*1]
  3fcd92:	6d                   	ins    DWORD PTR es:[rdi],dx
  3fcd93:	40 1b 5b 30          	rex sbb ebx,DWORD PTR [rbx+0x30]
  3fcd97:	3b 35 3b 33 30 3b    	cmp    esi,DWORD PTR [rip+0x3b30333b]        # 3b7000d8 <_end+0x3b2fc0a0>
  3fcd9d:	34 30                	xor    al,0x30
  3fcd9f:	6d                   	ins    DWORD PTR es:[rdi],dx
  3fcda0:	38 1b                	cmp    BYTE PTR [rbx],bl
  3fcda2:	5b                   	pop    rbx
  3fcda3:	30 3b                	xor    BYTE PTR [rbx],bh
  3fcda5:	33 31                	xor    esi,DWORD PTR [rcx]
  3fcda7:	3b 34 30             	cmp    esi,DWORD PTR [rax+rsi*1]
  3fcdaa:	6d                   	ins    DWORD PTR es:[rdi],dx
  3fcdab:	40 1b 5b 30          	rex sbb ebx,DWORD PTR [rbx+0x30]
  3fcdaf:	3b 35 3b 33 30 3b    	cmp    esi,DWORD PTR [rip+0x3b30333b]        # 3b7000f0 <_end+0x3b2fc0b8>
  3fcdb5:	34 30                	xor    al,0x30
  3fcdb7:	6d                   	ins    DWORD PTR es:[rdi],dx
  3fcdb8:	38 1b                	cmp    BYTE PTR [rbx],bl
  3fcdba:	5b                   	pop    rbx
  3fcdbb:	30 3b                	xor    BYTE PTR [rbx],bh
  3fcdbd:	33 31                	xor    esi,DWORD PTR [rcx]
  3fcdbf:	3b 34 30             	cmp    esi,DWORD PTR [rax+rsi*1]
  3fcdc2:	6d                   	ins    DWORD PTR es:[rdi],dx
  3fcdc3:	40 1b 5b 30          	rex sbb ebx,DWORD PTR [rbx+0x30]
  3fcdc7:	3b 35 3b 33 30 3b    	cmp    esi,DWORD PTR [rip+0x3b30333b]        # 3b700108 <_end+0x3b2fc0d0>
  3fcdcd:	34 30                	xor    al,0x30
  3fcdcf:	6d                   	ins    DWORD PTR es:[rdi],dx
  3fcdd0:	38 1b                	cmp    BYTE PTR [rbx],bl
  3fcdd2:	5b                   	pop    rbx
  3fcdd3:	30 3b                	xor    BYTE PTR [rbx],bh
  3fcdd5:	33 31                	xor    esi,DWORD PTR [rcx]
  3fcdd7:	3b 34 30             	cmp    esi,DWORD PTR [rax+rsi*1]
  3fcdda:	6d                   	ins    DWORD PTR es:[rdi],dx
  3fcddb:	40 1b 5b 30          	rex sbb ebx,DWORD PTR [rbx+0x30]
  3fcddf:	3b 35 3b 33 30 3b    	cmp    esi,DWORD PTR [rip+0x3b30333b]        # 3b700120 <_end+0x3b2fc0e8>
  3fcde5:	34 30                	xor    al,0x30
  3fcde7:	6d                   	ins    DWORD PTR es:[rdi],dx
  3fcde8:	38 1b                	cmp    BYTE PTR [rbx],bl
  3fcdea:	5b                   	pop    rbx
  3fcdeb:	30 3b                	xor    BYTE PTR [rbx],bh
  3fcded:	33 31                	xor    esi,DWORD PTR [rcx]
  3fcdef:	3b 34 30             	cmp    esi,DWORD PTR [rax+rsi*1]
  3fcdf2:	6d                   	ins    DWORD PTR es:[rdi],dx
  3fcdf3:	40 1b 5b 30          	rex sbb ebx,DWORD PTR [rbx+0x30]
  3fcdf7:	3b 35 3b 33 30 3b    	cmp    esi,DWORD PTR [rip+0x3b30333b]        # 3b700138 <_end+0x3b2fc100>
  3fcdfd:	34 30                	xor    al,0x30
  3fcdff:	6d                   	ins    DWORD PTR es:[rdi],dx
  3fce00:	38 1b                	cmp    BYTE PTR [rbx],bl
  3fce02:	5b                   	pop    rbx
  3fce03:	30 3b                	xor    BYTE PTR [rbx],bh
  3fce05:	33 31                	xor    esi,DWORD PTR [rcx]
  3fce07:	3b 34 30             	cmp    esi,DWORD PTR [rax+rsi*1]
  3fce0a:	6d                   	ins    DWORD PTR es:[rdi],dx
  3fce0b:	40 1b 5b 30          	rex sbb ebx,DWORD PTR [rbx+0x30]
  3fce0f:	3b 35 3b 33 30 3b    	cmp    esi,DWORD PTR [rip+0x3b30333b]        # 3b700150 <_end+0x3b2fc118>
  3fce15:	34 30                	xor    al,0x30
  3fce17:	6d                   	ins    DWORD PTR es:[rdi],dx
  3fce18:	38 1b                	cmp    BYTE PTR [rbx],bl
  3fce1a:	5b                   	pop    rbx
  3fce1b:	30 3b                	xor    BYTE PTR [rbx],bh
  3fce1d:	33 31                	xor    esi,DWORD PTR [rcx]
  3fce1f:	3b 34 30             	cmp    esi,DWORD PTR [rax+rsi*1]
  3fce22:	6d                   	ins    DWORD PTR es:[rdi],dx
  3fce23:	40 1b 5b 30          	rex sbb ebx,DWORD PTR [rbx+0x30]
  3fce27:	3b 35 3b 33 30 3b    	cmp    esi,DWORD PTR [rip+0x3b30333b]        # 3b700168 <_end+0x3b2fc130>
  3fce2d:	34 30                	xor    al,0x30
  3fce2f:	6d                   	ins    DWORD PTR es:[rdi],dx
  3fce30:	38 1b                	cmp    BYTE PTR [rbx],bl
  3fce32:	5b                   	pop    rbx
  3fce33:	30 3b                	xor    BYTE PTR [rbx],bh
  3fce35:	33 31                	xor    esi,DWORD PTR [rcx]
  3fce37:	3b 34 30             	cmp    esi,DWORD PTR [rax+rsi*1]
  3fce3a:	6d                   	ins    DWORD PTR es:[rdi],dx
  3fce3b:	40 1b 5b 30          	rex sbb ebx,DWORD PTR [rbx+0x30]
  3fce3f:	3b 35 3b 33 30 3b    	cmp    esi,DWORD PTR [rip+0x3b30333b]        # 3b700180 <_end+0x3b2fc148>
  3fce45:	34 30                	xor    al,0x30
  3fce47:	6d                   	ins    DWORD PTR es:[rdi],dx
  3fce48:	38 1b                	cmp    BYTE PTR [rbx],bl
  3fce4a:	5b                   	pop    rbx
  3fce4b:	30 3b                	xor    BYTE PTR [rbx],bh
  3fce4d:	33 31                	xor    esi,DWORD PTR [rcx]
  3fce4f:	3b 34 30             	cmp    esi,DWORD PTR [rax+rsi*1]
  3fce52:	6d                   	ins    DWORD PTR es:[rdi],dx
  3fce53:	40 1b 5b 30          	rex sbb ebx,DWORD PTR [rbx+0x30]
  3fce57:	3b 35 3b 33 30 3b    	cmp    esi,DWORD PTR [rip+0x3b30333b]        # 3b700198 <_end+0x3b2fc160>
  3fce5d:	34 30                	xor    al,0x30
  3fce5f:	6d                   	ins    DWORD PTR es:[rdi],dx
  3fce60:	38 1b                	cmp    BYTE PTR [rbx],bl
  3fce62:	5b                   	pop    rbx
  3fce63:	30 3b                	xor    BYTE PTR [rbx],bh
  3fce65:	33 31                	xor    esi,DWORD PTR [rcx]
  3fce67:	3b 34 30             	cmp    esi,DWORD PTR [rax+rsi*1]
  3fce6a:	6d                   	ins    DWORD PTR es:[rdi],dx
  3fce6b:	40 1b 5b 30          	rex sbb ebx,DWORD PTR [rbx+0x30]
  3fce6f:	3b 35 3b 33 30 3b    	cmp    esi,DWORD PTR [rip+0x3b30333b]        # 3b7001b0 <_end+0x3b2fc178>
  3fce75:	34 30                	xor    al,0x30
  3fce77:	6d                   	ins    DWORD PTR es:[rdi],dx
  3fce78:	38 1b                	cmp    BYTE PTR [rbx],bl
  3fce7a:	5b                   	pop    rbx
  3fce7b:	30 3b                	xor    BYTE PTR [rbx],bh
  3fce7d:	33 31                	xor    esi,DWORD PTR [rcx]
  3fce7f:	3b 34 30             	cmp    esi,DWORD PTR [rax+rsi*1]
  3fce82:	6d                   	ins    DWORD PTR es:[rdi],dx
  3fce83:	40 1b 5b 30          	rex sbb ebx,DWORD PTR [rbx+0x30]
  3fce87:	3b 35 3b 33 30 3b    	cmp    esi,DWORD PTR [rip+0x3b30333b]        # 3b7001c8 <_end+0x3b2fc190>
  3fce8d:	34 30                	xor    al,0x30
  3fce8f:	6d                   	ins    DWORD PTR es:[rdi],dx
  3fce90:	38 1b                	cmp    BYTE PTR [rbx],bl
  3fce92:	5b                   	pop    rbx
  3fce93:	30 3b                	xor    BYTE PTR [rbx],bh
  3fce95:	33 31                	xor    esi,DWORD PTR [rcx]
  3fce97:	3b 34 30             	cmp    esi,DWORD PTR [rax+rsi*1]
  3fce9a:	6d                   	ins    DWORD PTR es:[rdi],dx
  3fce9b:	40 1b 5b 30          	rex sbb ebx,DWORD PTR [rbx+0x30]
  3fce9f:	6d                   	ins    DWORD PTR es:[rdi],dx
  3fcea0:	0d 0a 1b 5b 30       	or     eax,0x305b1b0a
  3fcea5:	3b 31                	cmp    esi,DWORD PTR [rcx]
  3fcea7:	3b 33                	cmp    esi,DWORD PTR [rbx]
  3fcea9:	30 3b                	xor    BYTE PTR [rbx],bh
  3fceab:	34 30                	xor    al,0x30
  3fcead:	6d                   	ins    DWORD PTR es:[rdi],dx
  3fceae:	40 38 38             	cmp    BYTE PTR [rax],dil
  3fceb1:	38 38                	cmp    BYTE PTR [rax],bh
  3fceb3:	38 38                	cmp    BYTE PTR [rax],bh
  3fceb5:	38 38                	cmp    BYTE PTR [rax],bh
  3fceb7:	38 38                	cmp    BYTE PTR [rax],bh
  3fceb9:	38 38                	cmp    BYTE PTR [rax],bh
  3fcebb:	38 38                	cmp    BYTE PTR [rax],bh
  3fcebd:	38 38                	cmp    BYTE PTR [rax],bh
  3fcebf:	38 38                	cmp    BYTE PTR [rax],bh
  3fcec1:	38 38                	cmp    BYTE PTR [rax],bh
  3fcec3:	38 1b                	cmp    BYTE PTR [rbx],bl
  3fcec5:	5b                   	pop    rbx
  3fcec6:	30 3b                	xor    BYTE PTR [rbx],bh
  3fcec8:	33 31                	xor    esi,DWORD PTR [rcx]
  3fceca:	3b 34 30             	cmp    esi,DWORD PTR [rax+rsi*1]
  3fcecd:	6d                   	ins    DWORD PTR es:[rdi],dx
  3fcece:	38 1b                	cmp    BYTE PTR [rbx],bl
  3fced0:	5b                   	pop    rbx
  3fced1:	30 3b                	xor    BYTE PTR [rbx],bh
  3fced3:	35 3b 33 30 3b       	xor    eax,0x3b30333b
  3fced8:	34 30                	xor    al,0x30
  3fceda:	6d                   	ins    DWORD PTR es:[rdi],dx
  3fcedb:	38 1b                	cmp    BYTE PTR [rbx],bl
  3fcedd:	5b                   	pop    rbx
  3fcede:	30 3b                	xor    BYTE PTR [rbx],bh
  3fcee0:	31 3b                	xor    DWORD PTR [rbx],edi
  3fcee2:	33 30                	xor    esi,DWORD PTR [rax]
  3fcee4:	3b 34 30             	cmp    esi,DWORD PTR [rax+rsi*1]
  3fcee7:	6d                   	ins    DWORD PTR es:[rdi],dx
  3fcee8:	38 38                	cmp    BYTE PTR [rax],bh
  3fceea:	38 38                	cmp    BYTE PTR [rax],bh
  3fceec:	1b 5b 30             	sbb    ebx,DWORD PTR [rbx+0x30]
  3fceef:	3b 35 3b 33 30 3b    	cmp    esi,DWORD PTR [rip+0x3b30333b]        # 3b700230 <_end+0x3b2fc1f8>
  3fcef5:	34 30                	xor    al,0x30
  3fcef7:	6d                   	ins    DWORD PTR es:[rdi],dx
  3fcef8:	40 1b 5b 30          	rex sbb ebx,DWORD PTR [rbx+0x30]
  3fcefc:	3b 35 3b 33 31 3b    	cmp    esi,DWORD PTR [rip+0x3b31333b]        # 3b71023d <_end+0x3b30c205>
  3fcf02:	34 30                	xor    al,0x30
  3fcf04:	6d                   	ins    DWORD PTR es:[rdi],dx
  3fcf05:	58                   	pop    rax
  3fcf06:	1b 5b 30             	sbb    ebx,DWORD PTR [rbx+0x30]
  3fcf09:	3b 33                	cmp    esi,DWORD PTR [rbx]
  3fcf0b:	32 3b                	xor    bh,BYTE PTR [rbx]
  3fcf0d:	34 30                	xor    al,0x30
  3fcf0f:	6d                   	ins    DWORD PTR es:[rdi],dx
  3fcf10:	58                   	pop    rax
  3fcf11:	1b 5b 30             	sbb    ebx,DWORD PTR [rbx+0x30]
  3fcf14:	3b 35 3b 33 30 3b    	cmp    esi,DWORD PTR [rip+0x3b30333b]        # 3b700255 <_end+0x3b2fc21d>
  3fcf1a:	34 30                	xor    al,0x30
  3fcf1c:	6d                   	ins    DWORD PTR es:[rdi],dx
  3fcf1d:	38 1b                	cmp    BYTE PTR [rbx],bl
  3fcf1f:	5b                   	pop    rbx
  3fcf20:	30 3b                	xor    BYTE PTR [rbx],bh
  3fcf22:	33 31                	xor    esi,DWORD PTR [rcx]
  3fcf24:	3b 34 30             	cmp    esi,DWORD PTR [rax+rsi*1]
  3fcf27:	6d                   	ins    DWORD PTR es:[rdi],dx
  3fcf28:	38 1b                	cmp    BYTE PTR [rbx],bl
  3fcf2a:	5b                   	pop    rbx
  3fcf2b:	30 3b                	xor    BYTE PTR [rbx],bh
  3fcf2d:	35 3b 33 30 3b       	xor    eax,0x3b30333b
  3fcf32:	34 30                	xor    al,0x30
  3fcf34:	6d                   	ins    DWORD PTR es:[rdi],dx
  3fcf35:	38 1b                	cmp    BYTE PTR [rbx],bl
  3fcf37:	5b                   	pop    rbx
  3fcf38:	30 3b                	xor    BYTE PTR [rbx],bh
  3fcf3a:	31 3b                	xor    DWORD PTR [rbx],edi
  3fcf3c:	33 30                	xor    esi,DWORD PTR [rax]
  3fcf3e:	3b 34 30             	cmp    esi,DWORD PTR [rax+rsi*1]
  3fcf41:	6d                   	ins    DWORD PTR es:[rdi],dx
  3fcf42:	38 38                	cmp    BYTE PTR [rax],bh
  3fcf44:	38 38                	cmp    BYTE PTR [rax],bh
  3fcf46:	38 38                	cmp    BYTE PTR [rax],bh
  3fcf48:	38 38                	cmp    BYTE PTR [rax],bh
  3fcf4a:	38 38                	cmp    BYTE PTR [rax],bh
  3fcf4c:	38 38                	cmp    BYTE PTR [rax],bh
  3fcf4e:	38 38                	cmp    BYTE PTR [rax],bh
  3fcf50:	38 38                	cmp    BYTE PTR [rax],bh
  3fcf52:	1b 5b 30             	sbb    ebx,DWORD PTR [rbx+0x30]
  3fcf55:	6d                   	ins    DWORD PTR es:[rdi],dx
  3fcf56:	0d 0a 1b 5b 30       	or     eax,0x305b1b0a
  3fcf5b:	3b 31                	cmp    esi,DWORD PTR [rcx]
  3fcf5d:	3b 33                	cmp    esi,DWORD PTR [rbx]
  3fcf5f:	30 3b                	xor    BYTE PTR [rbx],bh
  3fcf61:	34 30                	xor    al,0x30
  3fcf63:	6d                   	ins    DWORD PTR es:[rdi],dx
  3fcf64:	40 1b 5b 30          	rex sbb ebx,DWORD PTR [rbx+0x30]
  3fcf68:	3b 33                	cmp    esi,DWORD PTR [rbx]
  3fcf6a:	31 3b                	xor    DWORD PTR [rbx],edi
  3fcf6c:	34 30                	xor    al,0x30
  3fcf6e:	6d                   	ins    DWORD PTR es:[rdi],dx
  3fcf6f:	38 1b                	cmp    BYTE PTR [rbx],bl
  3fcf71:	5b                   	pop    rbx
  3fcf72:	30 3b                	xor    BYTE PTR [rbx],bh
  3fcf74:	35 3b 33 30 3b       	xor    eax,0x3b30333b
  3fcf79:	34 30                	xor    al,0x30
  3fcf7b:	6d                   	ins    DWORD PTR es:[rdi],dx
  3fcf7c:	58                   	pop    rax
  3fcf7d:	1b 5b 30             	sbb    ebx,DWORD PTR [rbx+0x30]
  3fcf80:	3b 33                	cmp    esi,DWORD PTR [rbx]
  3fcf82:	31 3b                	xor    DWORD PTR [rbx],edi
  3fcf84:	34 30                	xor    al,0x30
  3fcf86:	6d                   	ins    DWORD PTR es:[rdi],dx
  3fcf87:	38 1b                	cmp    BYTE PTR [rbx],bl
  3fcf89:	5b                   	pop    rbx
  3fcf8a:	30 3b                	xor    BYTE PTR [rbx],bh
  3fcf8c:	35 3b 33 30 3b       	xor    eax,0x3b30333b
  3fcf91:	34 30                	xor    al,0x30
  3fcf93:	6d                   	ins    DWORD PTR es:[rdi],dx
  3fcf94:	58                   	pop    rax
  3fcf95:	1b 5b 30             	sbb    ebx,DWORD PTR [rbx+0x30]
  3fcf98:	3b 33                	cmp    esi,DWORD PTR [rbx]
  3fcf9a:	31 3b                	xor    DWORD PTR [rbx],edi
  3fcf9c:	34 30                	xor    al,0x30
  3fcf9e:	6d                   	ins    DWORD PTR es:[rdi],dx
  3fcf9f:	38 1b                	cmp    BYTE PTR [rbx],bl
  3fcfa1:	5b                   	pop    rbx
  3fcfa2:	30 3b                	xor    BYTE PTR [rbx],bh
  3fcfa4:	35 3b 33 30 3b       	xor    eax,0x3b30333b
  3fcfa9:	34 30                	xor    al,0x30
  3fcfab:	6d                   	ins    DWORD PTR es:[rdi],dx
  3fcfac:	58                   	pop    rax
  3fcfad:	1b 5b 30             	sbb    ebx,DWORD PTR [rbx+0x30]
  3fcfb0:	3b 33                	cmp    esi,DWORD PTR [rbx]
  3fcfb2:	31 3b                	xor    DWORD PTR [rbx],edi
  3fcfb4:	34 30                	xor    al,0x30
  3fcfb6:	6d                   	ins    DWORD PTR es:[rdi],dx
  3fcfb7:	38 1b                	cmp    BYTE PTR [rbx],bl
  3fcfb9:	5b                   	pop    rbx
  3fcfba:	30 3b                	xor    BYTE PTR [rbx],bh
  3fcfbc:	35 3b 33 30 3b       	xor    eax,0x3b30333b
  3fcfc1:	34 30                	xor    al,0x30
  3fcfc3:	6d                   	ins    DWORD PTR es:[rdi],dx
  3fcfc4:	58                   	pop    rax
  3fcfc5:	1b 5b 30             	sbb    ebx,DWORD PTR [rbx+0x30]
  3fcfc8:	3b 33                	cmp    esi,DWORD PTR [rbx]
  3fcfca:	31 3b                	xor    DWORD PTR [rbx],edi
  3fcfcc:	34 30                	xor    al,0x30
  3fcfce:	6d                   	ins    DWORD PTR es:[rdi],dx
  3fcfcf:	38 1b                	cmp    BYTE PTR [rbx],bl
  3fcfd1:	5b                   	pop    rbx
  3fcfd2:	30 3b                	xor    BYTE PTR [rbx],bh
  3fcfd4:	35 3b 33 30 3b       	xor    eax,0x3b30333b
  3fcfd9:	34 30                	xor    al,0x30
  3fcfdb:	6d                   	ins    DWORD PTR es:[rdi],dx
  3fcfdc:	58                   	pop    rax
  3fcfdd:	1b 5b 30             	sbb    ebx,DWORD PTR [rbx+0x30]
  3fcfe0:	3b 33                	cmp    esi,DWORD PTR [rbx]
  3fcfe2:	31 3b                	xor    DWORD PTR [rbx],edi
  3fcfe4:	34 30                	xor    al,0x30
  3fcfe6:	6d                   	ins    DWORD PTR es:[rdi],dx
  3fcfe7:	38 1b                	cmp    BYTE PTR [rbx],bl
  3fcfe9:	5b                   	pop    rbx
  3fcfea:	30 3b                	xor    BYTE PTR [rbx],bh
  3fcfec:	31 3b                	xor    DWORD PTR [rbx],edi
  3fcfee:	33 30                	xor    esi,DWORD PTR [rax]
  3fcff0:	3b 34 30             	cmp    esi,DWORD PTR [rax+rsi*1]
  3fcff3:	6d                   	ins    DWORD PTR es:[rdi],dx
  3fcff4:	38 1b                	cmp    BYTE PTR [rbx],bl
  3fcff6:	5b                   	pop    rbx
  3fcff7:	30 3b                	xor    BYTE PTR [rbx],bh
  3fcff9:	33 30                	xor    esi,DWORD PTR [rax]
  3fcffb:	3b 34 31             	cmp    esi,DWORD PTR [rcx+rsi*1]
  3fcffe:	6d                   	ins    DWORD PTR es:[rdi],dx
  3fcfff:	38 1b                	cmp    BYTE PTR [rbx],bl
  3fd001:	5b                   	pop    rbx
  3fd002:	30 3b                	xor    BYTE PTR [rbx],bh
  3fd004:	35 3b 33 32 3b       	xor    eax,0x3b32333b
  3fd009:	34 30                	xor    al,0x30
  3fd00b:	6d                   	ins    DWORD PTR es:[rdi],dx
  3fd00c:	53                   	push   rbx
  3fd00d:	1b 5b 30             	sbb    ebx,DWORD PTR [rbx+0x30]
  3fd010:	3b 31                	cmp    esi,DWORD PTR [rcx]
  3fd012:	3b 33                	cmp    esi,DWORD PTR [rbx]
  3fd014:	30 3b                	xor    BYTE PTR [rbx],bh
  3fd016:	34 31                	xor    al,0x31
  3fd018:	6d                   	ins    DWORD PTR es:[rdi],dx
  3fd019:	38 1b                	cmp    BYTE PTR [rbx],bl
  3fd01b:	5b                   	pop    rbx
  3fd01c:	30 3b                	xor    BYTE PTR [rbx],bh
  3fd01e:	33 31                	xor    esi,DWORD PTR [rcx]
  3fd020:	3b 34 30             	cmp    esi,DWORD PTR [rax+rsi*1]
  3fd023:	6d                   	ins    DWORD PTR es:[rdi],dx
  3fd024:	58                   	pop    rax
  3fd025:	1b 5b 30             	sbb    ebx,DWORD PTR [rbx+0x30]
  3fd028:	3b 35 3b 33 30 3b    	cmp    esi,DWORD PTR [rip+0x3b30333b]        # 3b700369 <_end+0x3b2fc331>
  3fd02e:	34 30                	xor    al,0x30
  3fd030:	6d                   	ins    DWORD PTR es:[rdi],dx
  3fd031:	58                   	pop    rax
  3fd032:	1b 5b 30             	sbb    ebx,DWORD PTR [rbx+0x30]
  3fd035:	3b 31                	cmp    esi,DWORD PTR [rcx]
  3fd037:	3b 33                	cmp    esi,DWORD PTR [rbx]
  3fd039:	30 3b                	xor    BYTE PTR [rbx],bh
  3fd03b:	34 31                	xor    al,0x31
  3fd03d:	6d                   	ins    DWORD PTR es:[rdi],dx
  3fd03e:	38 1b                	cmp    BYTE PTR [rbx],bl
  3fd040:	5b                   	pop    rbx
  3fd041:	30 3b                	xor    BYTE PTR [rbx],bh
  3fd043:	35 3b 33 33 3b       	xor    eax,0x3b33333b
  3fd048:	34 30                	xor    al,0x30
  3fd04a:	6d                   	ins    DWORD PTR es:[rdi],dx
  3fd04b:	25 1b 5b 30 3b       	and    eax,0x3b305b1b
  3fd050:	31 3b                	xor    DWORD PTR [rbx],edi
  3fd052:	33 30                	xor    esi,DWORD PTR [rax]
  3fd054:	3b 34 37             	cmp    esi,DWORD PTR [rdi+rsi*1]
  3fd057:	6d                   	ins    DWORD PTR es:[rdi],dx
  3fd058:	53                   	push   rbx
  3fd059:	1b 5b 30             	sbb    ebx,DWORD PTR [rbx+0x30]
  3fd05c:	3b 35 3b 33 37 3b    	cmp    esi,DWORD PTR [rip+0x3b37333b]        # 3b77039d <_end+0x3b36c365>
  3fd062:	34 30                	xor    al,0x30
  3fd064:	6d                   	ins    DWORD PTR es:[rdi],dx
  3fd065:	38 1b                	cmp    BYTE PTR [rbx],bl
  3fd067:	5b                   	pop    rbx
  3fd068:	30 3b                	xor    BYTE PTR [rbx],bh
  3fd06a:	35 3b 33 33 3b       	xor    eax,0x3b33333b
  3fd06f:	34 30                	xor    al,0x30
  3fd071:	6d                   	ins    DWORD PTR es:[rdi],dx
  3fd072:	3a 1b                	cmp    bl,BYTE PTR [rbx]
  3fd074:	5b                   	pop    rbx
  3fd075:	30 3b                	xor    BYTE PTR [rbx],bh
  3fd077:	31 3b                	xor    DWORD PTR [rbx],edi
  3fd079:	33 37                	xor    esi,DWORD PTR [rdi]
  3fd07b:	3b 34 37             	cmp    esi,DWORD PTR [rdi+rsi*1]
  3fd07e:	6d                   	ins    DWORD PTR es:[rdi],dx
  3fd07f:	53                   	push   rbx
  3fd080:	1b 5b 30             	sbb    ebx,DWORD PTR [rbx+0x30]
  3fd083:	3b 35 3b 33 33 3b    	cmp    esi,DWORD PTR [rip+0x3b33333b]        # 3b7303c4 <_end+0x3b32c38c>
  3fd089:	34 30                	xor    al,0x30
  3fd08b:	6d                   	ins    DWORD PTR es:[rdi],dx
  3fd08c:	3b 74 2e 38          	cmp    esi,DWORD PTR [rsi+rbp*1+0x38]
  3fd090:	3a 20                	cmp    ah,BYTE PTR [rax]
  3fd092:	1b 5b 30             	sbb    ebx,DWORD PTR [rbx+0x30]
  3fd095:	3b 31                	cmp    esi,DWORD PTR [rcx]
  3fd097:	3b 33                	cmp    esi,DWORD PTR [rbx]
  3fd099:	37                   	(bad)  
  3fd09a:	3b 34 37             	cmp    esi,DWORD PTR [rdi+rsi*1]
  3fd09d:	6d                   	ins    DWORD PTR es:[rdi],dx
  3fd09e:	20 1b                	and    BYTE PTR [rbx],bl
  3fd0a0:	5b                   	pop    rbx
  3fd0a1:	30 3b                	xor    BYTE PTR [rbx],bh
  3fd0a3:	35 3b 33 33 3b       	xor    eax,0x3b33333b
  3fd0a8:	34 30                	xor    al,0x30
  3fd0aa:	6d                   	ins    DWORD PTR es:[rdi],dx
  3fd0ab:	40 25 1b 5b 30 3b    	rex and eax,0x3b305b1b
  3fd0b1:	35 3b 33 30 3b       	xor    eax,0x3b30333b
  3fd0b6:	34 30                	xor    al,0x30
  3fd0b8:	6d                   	ins    DWORD PTR es:[rdi],dx
  3fd0b9:	58                   	pop    rax
  3fd0ba:	1b 5b 30             	sbb    ebx,DWORD PTR [rbx+0x30]
  3fd0bd:	3b 35 3b 33 31 3b    	cmp    esi,DWORD PTR [rip+0x3b31333b]        # 3b7103fe <_end+0x3b30c3c6>
  3fd0c3:	34 30                	xor    al,0x30
  3fd0c5:	6d                   	ins    DWORD PTR es:[rdi],dx
  3fd0c6:	38 1b                	cmp    BYTE PTR [rbx],bl
  3fd0c8:	5b                   	pop    rbx
  3fd0c9:	30 3b                	xor    BYTE PTR [rbx],bh
  3fd0cb:	33 31                	xor    esi,DWORD PTR [rcx]
  3fd0cd:	3b 34 30             	cmp    esi,DWORD PTR [rax+rsi*1]
  3fd0d0:	6d                   	ins    DWORD PTR es:[rdi],dx
  3fd0d1:	58                   	pop    rax
  3fd0d2:	1b 5b 30             	sbb    ebx,DWORD PTR [rbx+0x30]
  3fd0d5:	3b 35 3b 33 30 3b    	cmp    esi,DWORD PTR [rip+0x3b30333b]        # 3b700416 <_end+0x3b2fc3de>
  3fd0db:	34 30                	xor    al,0x30
  3fd0dd:	6d                   	ins    DWORD PTR es:[rdi],dx
  3fd0de:	58                   	pop    rax
  3fd0df:	1b 5b 30             	sbb    ebx,DWORD PTR [rbx+0x30]
  3fd0e2:	3b 33                	cmp    esi,DWORD PTR [rbx]
  3fd0e4:	31 3b                	xor    DWORD PTR [rbx],edi
  3fd0e6:	34 30                	xor    al,0x30
  3fd0e8:	6d                   	ins    DWORD PTR es:[rdi],dx
  3fd0e9:	38 1b                	cmp    BYTE PTR [rbx],bl
  3fd0eb:	5b                   	pop    rbx
  3fd0ec:	30 3b                	xor    BYTE PTR [rbx],bh
  3fd0ee:	35 3b 33 30 3b       	xor    eax,0x3b30333b
  3fd0f3:	34 30                	xor    al,0x30
  3fd0f5:	6d                   	ins    DWORD PTR es:[rdi],dx
  3fd0f6:	58                   	pop    rax
  3fd0f7:	1b 5b 30             	sbb    ebx,DWORD PTR [rbx+0x30]
  3fd0fa:	3b 33                	cmp    esi,DWORD PTR [rbx]
  3fd0fc:	31 3b                	xor    DWORD PTR [rbx],edi
  3fd0fe:	34 30                	xor    al,0x30
  3fd100:	6d                   	ins    DWORD PTR es:[rdi],dx
  3fd101:	38 1b                	cmp    BYTE PTR [rbx],bl
  3fd103:	5b                   	pop    rbx
  3fd104:	30 3b                	xor    BYTE PTR [rbx],bh
  3fd106:	35 3b 33 30 3b       	xor    eax,0x3b30333b
  3fd10b:	34 30                	xor    al,0x30
  3fd10d:	6d                   	ins    DWORD PTR es:[rdi],dx
  3fd10e:	58                   	pop    rax
  3fd10f:	1b 5b 30             	sbb    ebx,DWORD PTR [rbx+0x30]
  3fd112:	3b 33                	cmp    esi,DWORD PTR [rbx]
  3fd114:	31 3b                	xor    DWORD PTR [rbx],edi
  3fd116:	34 30                	xor    al,0x30
  3fd118:	6d                   	ins    DWORD PTR es:[rdi],dx
  3fd119:	38 1b                	cmp    BYTE PTR [rbx],bl
  3fd11b:	5b                   	pop    rbx
  3fd11c:	30 3b                	xor    BYTE PTR [rbx],bh
  3fd11e:	35 3b 33 30 3b       	xor    eax,0x3b30333b
  3fd123:	34 30                	xor    al,0x30
  3fd125:	6d                   	ins    DWORD PTR es:[rdi],dx
  3fd126:	58                   	pop    rax
  3fd127:	1b 5b 30             	sbb    ebx,DWORD PTR [rbx+0x30]
  3fd12a:	3b 33                	cmp    esi,DWORD PTR [rbx]
  3fd12c:	31 3b                	xor    DWORD PTR [rbx],edi
  3fd12e:	34 30                	xor    al,0x30
  3fd130:	6d                   	ins    DWORD PTR es:[rdi],dx
  3fd131:	38 1b                	cmp    BYTE PTR [rbx],bl
  3fd133:	5b                   	pop    rbx
  3fd134:	30 3b                	xor    BYTE PTR [rbx],bh
  3fd136:	35 3b 33 30 3b       	xor    eax,0x3b30333b
  3fd13b:	34 30                	xor    al,0x30
  3fd13d:	6d                   	ins    DWORD PTR es:[rdi],dx
  3fd13e:	58                   	pop    rax
  3fd13f:	1b 5b 30             	sbb    ebx,DWORD PTR [rbx+0x30]
  3fd142:	3b 33                	cmp    esi,DWORD PTR [rbx]
  3fd144:	31 3b                	xor    DWORD PTR [rbx],edi
  3fd146:	34 30                	xor    al,0x30
  3fd148:	6d                   	ins    DWORD PTR es:[rdi],dx
  3fd149:	38 1b                	cmp    BYTE PTR [rbx],bl
  3fd14b:	5b                   	pop    rbx
  3fd14c:	30 3b                	xor    BYTE PTR [rbx],bh
  3fd14e:	35 3b 33 30 3b       	xor    eax,0x3b30333b
  3fd153:	34 30                	xor    al,0x30
  3fd155:	6d                   	ins    DWORD PTR es:[rdi],dx
  3fd156:	58                   	pop    rax
  3fd157:	1b 5b 30             	sbb    ebx,DWORD PTR [rbx+0x30]
  3fd15a:	3b 33                	cmp    esi,DWORD PTR [rbx]
  3fd15c:	31 3b                	xor    DWORD PTR [rbx],edi
  3fd15e:	34 30                	xor    al,0x30
  3fd160:	6d                   	ins    DWORD PTR es:[rdi],dx
  3fd161:	38 1b                	cmp    BYTE PTR [rbx],bl
  3fd163:	5b                   	pop    rbx
  3fd164:	30 3b                	xor    BYTE PTR [rbx],bh
  3fd166:	35 3b 33 30 3b       	xor    eax,0x3b30333b
  3fd16b:	34 30                	xor    al,0x30
  3fd16d:	6d                   	ins    DWORD PTR es:[rdi],dx
  3fd16e:	58                   	pop    rax
  3fd16f:	1b 5b 30             	sbb    ebx,DWORD PTR [rbx+0x30]
  3fd172:	3b 33                	cmp    esi,DWORD PTR [rbx]
  3fd174:	31 3b                	xor    DWORD PTR [rbx],edi
  3fd176:	34 30                	xor    al,0x30
  3fd178:	6d                   	ins    DWORD PTR es:[rdi],dx
  3fd179:	38 1b                	cmp    BYTE PTR [rbx],bl
  3fd17b:	5b                   	pop    rbx
  3fd17c:	30 6d 0d             	xor    BYTE PTR [rbp+0xd],ch
  3fd17f:	0a 1b                	or     bl,BYTE PTR [rbx]
  3fd181:	5b                   	pop    rbx
  3fd182:	30 3b                	xor    BYTE PTR [rbx],bh
  3fd184:	31 3b                	xor    DWORD PTR [rbx],edi
  3fd186:	33 30                	xor    esi,DWORD PTR [rax]
  3fd188:	3b 34 30             	cmp    esi,DWORD PTR [rax+rsi*1]
  3fd18b:	6d                   	ins    DWORD PTR es:[rdi],dx
  3fd18c:	40 38 1b             	cmp    BYTE PTR [rbx],bl
  3fd18f:	5b                   	pop    rbx
  3fd190:	30 3b                	xor    BYTE PTR [rbx],bh
  3fd192:	33 31                	xor    esi,DWORD PTR [rcx]
  3fd194:	3b 34 30             	cmp    esi,DWORD PTR [rax+rsi*1]
  3fd197:	6d                   	ins    DWORD PTR es:[rdi],dx
  3fd198:	38 1b                	cmp    BYTE PTR [rbx],bl
  3fd19a:	5b                   	pop    rbx
  3fd19b:	30 3b                	xor    BYTE PTR [rbx],bh
  3fd19d:	35 3b 33 32 3b       	xor    eax,0x3b32333b
  3fd1a2:	34 30                	xor    al,0x30
  3fd1a4:	6d                   	ins    DWORD PTR es:[rdi],dx
  3fd1a5:	40 1b 5b 30          	rex sbb ebx,DWORD PTR [rbx+0x30]
  3fd1a9:	3b 33                	cmp    esi,DWORD PTR [rbx]
  3fd1ab:	31 3b                	xor    DWORD PTR [rbx],edi
  3fd1ad:	34 30                	xor    al,0x30
  3fd1af:	6d                   	ins    DWORD PTR es:[rdi],dx
  3fd1b0:	40 1b 5b 30          	rex sbb ebx,DWORD PTR [rbx+0x30]
  3fd1b4:	3b 31                	cmp    esi,DWORD PTR [rcx]
  3fd1b6:	3b 33                	cmp    esi,DWORD PTR [rbx]
  3fd1b8:	30 3b                	xor    BYTE PTR [rbx],bh
  3fd1ba:	34 30                	xor    al,0x30
  3fd1bc:	6d                   	ins    DWORD PTR es:[rdi],dx
  3fd1bd:	38 1b                	cmp    BYTE PTR [rbx],bl
  3fd1bf:	5b                   	pop    rbx
  3fd1c0:	30 3b                	xor    BYTE PTR [rbx],bh
  3fd1c2:	33 31                	xor    esi,DWORD PTR [rcx]
  3fd1c4:	3b 34 30             	cmp    esi,DWORD PTR [rax+rsi*1]
  3fd1c7:	6d                   	ins    DWORD PTR es:[rdi],dx
  3fd1c8:	38 1b                	cmp    BYTE PTR [rbx],bl
  3fd1ca:	5b                   	pop    rbx
  3fd1cb:	30 3b                	xor    BYTE PTR [rbx],bh
  3fd1cd:	35 3b 33 32 3b       	xor    eax,0x3b32333b
  3fd1d2:	34 30                	xor    al,0x30
  3fd1d4:	6d                   	ins    DWORD PTR es:[rdi],dx
  3fd1d5:	38 1b                	cmp    BYTE PTR [rbx],bl
  3fd1d7:	5b                   	pop    rbx
  3fd1d8:	30 3b                	xor    BYTE PTR [rbx],bh
  3fd1da:	35 3b 33 31 3b       	xor    eax,0x3b31333b
  3fd1df:	34 30                	xor    al,0x30
  3fd1e1:	6d                   	ins    DWORD PTR es:[rdi],dx
  3fd1e2:	40 1b 5b 30          	rex sbb ebx,DWORD PTR [rbx+0x30]
  3fd1e6:	3b 35 3b 33 33 3b    	cmp    esi,DWORD PTR [rip+0x3b33333b]        # 3b730527 <_end+0x3b32c4ef>
  3fd1ec:	34 30                	xor    al,0x30
  3fd1ee:	6d                   	ins    DWORD PTR es:[rdi],dx
  3fd1ef:	38 1b                	cmp    BYTE PTR [rbx],bl
  3fd1f1:	5b                   	pop    rbx
  3fd1f2:	30 3b                	xor    BYTE PTR [rbx],bh
  3fd1f4:	31 3b                	xor    DWORD PTR [rbx],edi
  3fd1f6:	33 30                	xor    esi,DWORD PTR [rax]
  3fd1f8:	3b 34 30             	cmp    esi,DWORD PTR [rax+rsi*1]
  3fd1fb:	6d                   	ins    DWORD PTR es:[rdi],dx
  3fd1fc:	38 1b                	cmp    BYTE PTR [rbx],bl
  3fd1fe:	5b                   	pop    rbx
  3fd1ff:	30 3b                	xor    BYTE PTR [rbx],bh
  3fd201:	35 3b 33 33 3b       	xor    eax,0x3b33333b
  3fd206:	34 30                	xor    al,0x30
  3fd208:	6d                   	ins    DWORD PTR es:[rdi],dx
  3fd209:	53                   	push   rbx
  3fd20a:	20 1b                	and    BYTE PTR [rbx],bl
  3fd20c:	5b                   	pop    rbx
  3fd20d:	30 3b                	xor    BYTE PTR [rbx],bh
  3fd20f:	31 3b                	xor    DWORD PTR [rbx],edi
  3fd211:	33 30                	xor    esi,DWORD PTR [rax]
  3fd213:	3b 34 37             	cmp    esi,DWORD PTR [rdi+rsi*1]
  3fd216:	6d                   	ins    DWORD PTR es:[rdi],dx
  3fd217:	20 1b                	and    BYTE PTR [rbx],bl
  3fd219:	5b                   	pop    rbx
  3fd21a:	30 3b                	xor    BYTE PTR [rbx],bh
  3fd21c:	31 3b                	xor    DWORD PTR [rbx],edi
  3fd21e:	33 37                	xor    esi,DWORD PTR [rdi]
  3fd220:	3b 34 37             	cmp    esi,DWORD PTR [rdi+rsi*1]
  3fd223:	6d                   	ins    DWORD PTR es:[rdi],dx
  3fd224:	74 1b                	je     3fd241 <_init-0x3dbf>
  3fd226:	5b                   	pop    rbx
  3fd227:	30 3b                	xor    BYTE PTR [rbx],bh
  3fd229:	31 3b                	xor    DWORD PTR [rbx],edi
  3fd22b:	33 30                	xor    esi,DWORD PTR [rax]
  3fd22d:	3b 34 37             	cmp    esi,DWORD PTR [rdi+rsi*1]
  3fd230:	6d                   	ins    DWORD PTR es:[rdi],dx
  3fd231:	2e 1b 5b 30          	sbb    ebx,DWORD PTR cs:[rbx+0x30]
  3fd235:	3b 35 3b 33 33 3b    	cmp    esi,DWORD PTR [rip+0x3b33333b]        # 3b730576 <_end+0x3b32c53e>
  3fd23b:	34 30                	xor    al,0x30
  3fd23d:	6d                   	ins    DWORD PTR es:[rdi],dx
  3fd23e:	38 1b                	cmp    BYTE PTR [rbx],bl
  3fd240:	5b                   	pop    rbx
  3fd241:	30 3b                	xor    BYTE PTR [rbx],bh
  3fd243:	33 31                	xor    esi,DWORD PTR [rcx]
  3fd245:	3b 34 30             	cmp    esi,DWORD PTR [rax+rsi*1]
  3fd248:	6d                   	ins    DWORD PTR es:[rdi],dx
  3fd249:	25 1b 5b 30 3b       	and    eax,0x3b305b1b
  3fd24e:	35 3b 33 32 3b       	xor    eax,0x3b32333b
  3fd253:	34 30                	xor    al,0x30
  3fd255:	6d                   	ins    DWORD PTR es:[rdi],dx
  3fd256:	58                   	pop    rax
  3fd257:	1b 5b 30             	sbb    ebx,DWORD PTR [rbx+0x30]
  3fd25a:	3b 31                	cmp    esi,DWORD PTR [rcx]
  3fd25c:	3b 33                	cmp    esi,DWORD PTR [rbx]
  3fd25e:	37                   	(bad)  
  3fd25f:	3b 34 37             	cmp    esi,DWORD PTR [rdi+rsi*1]
  3fd262:	6d                   	ins    DWORD PTR es:[rdi],dx
  3fd263:	53                   	push   rbx
  3fd264:	53                   	push   rbx
  3fd265:	1b 5b 30             	sbb    ebx,DWORD PTR [rbx+0x30]
  3fd268:	3b 31                	cmp    esi,DWORD PTR [rcx]
  3fd26a:	3b 33                	cmp    esi,DWORD PTR [rbx]
  3fd26c:	30 3b                	xor    BYTE PTR [rbx],bh
  3fd26e:	34 37                	xor    al,0x37
  3fd270:	6d                   	ins    DWORD PTR es:[rdi],dx
  3fd271:	20 1b                	and    BYTE PTR [rbx],bl
  3fd273:	5b                   	pop    rbx
  3fd274:	30 3b                	xor    BYTE PTR [rbx],bh
  3fd276:	35 3b 33 33 3b       	xor    eax,0x3b33333b
  3fd27b:	34 30                	xor    al,0x30
  3fd27d:	6d                   	ins    DWORD PTR es:[rdi],dx
  3fd27e:	25 1b 5b 30 3b       	and    eax,0x3b305b1b
  3fd283:	31 3b                	xor    DWORD PTR [rbx],edi
  3fd285:	33 37                	xor    esi,DWORD PTR [rdi]
  3fd287:	3b 34 37             	cmp    esi,DWORD PTR [rdi+rsi*1]
  3fd28a:	6d                   	ins    DWORD PTR es:[rdi],dx
  3fd28b:	38 1b                	cmp    BYTE PTR [rbx],bl
  3fd28d:	5b                   	pop    rbx
  3fd28e:	30 3b                	xor    BYTE PTR [rbx],bh
  3fd290:	31 3b                	xor    DWORD PTR [rbx],edi
  3fd292:	33 30                	xor    esi,DWORD PTR [rax]
  3fd294:	3b 34 37             	cmp    esi,DWORD PTR [rdi+rsi*1]
  3fd297:	6d                   	ins    DWORD PTR es:[rdi],dx
  3fd298:	20 1b                	and    BYTE PTR [rbx],bl
  3fd29a:	5b                   	pop    rbx
  3fd29b:	30 3b                	xor    BYTE PTR [rbx],bh
  3fd29d:	31 3b                	xor    DWORD PTR [rbx],edi
  3fd29f:	33 37                	xor    esi,DWORD PTR [rdi]
  3fd2a1:	3b 34 37             	cmp    esi,DWORD PTR [rdi+rsi*1]
  3fd2a4:	6d                   	ins    DWORD PTR es:[rdi],dx
  3fd2a5:	3a 1b                	cmp    bl,BYTE PTR [rbx]
  3fd2a7:	5b                   	pop    rbx
  3fd2a8:	30 3b                	xor    BYTE PTR [rbx],bh
  3fd2aa:	35 3b 33 33 3b       	xor    eax,0x3b33333b
  3fd2af:	34 30                	xor    al,0x30
  3fd2b1:	6d                   	ins    DWORD PTR es:[rdi],dx
  3fd2b2:	2e 1b 5b 30          	sbb    ebx,DWORD PTR cs:[rbx+0x30]
  3fd2b6:	3b 31                	cmp    esi,DWORD PTR [rcx]
  3fd2b8:	3b 33                	cmp    esi,DWORD PTR [rbx]
  3fd2ba:	37                   	(bad)  
  3fd2bb:	3b 34 37             	cmp    esi,DWORD PTR [rdi+rsi*1]
  3fd2be:	6d                   	ins    DWORD PTR es:[rdi],dx
  3fd2bf:	20 1b                	and    BYTE PTR [rbx],bl
  3fd2c1:	5b                   	pop    rbx
  3fd2c2:	30 3b                	xor    BYTE PTR [rbx],bh
  3fd2c4:	35 3b 33 37 3b       	xor    eax,0x3b37333b
  3fd2c9:	34 37                	xor    al,0x37
  3fd2cb:	6d                   	ins    DWORD PTR es:[rdi],dx
  3fd2cc:	58                   	pop    rax
  3fd2cd:	1b 5b 30             	sbb    ebx,DWORD PTR [rbx+0x30]
  3fd2d0:	3b 31                	cmp    esi,DWORD PTR [rcx]
  3fd2d2:	3b 33                	cmp    esi,DWORD PTR [rbx]
  3fd2d4:	37                   	(bad)  
  3fd2d5:	3b 34 37             	cmp    esi,DWORD PTR [rdi+rsi*1]
  3fd2d8:	6d                   	ins    DWORD PTR es:[rdi],dx
  3fd2d9:	2e 1b 5b 30          	sbb    ebx,DWORD PTR cs:[rbx+0x30]
  3fd2dd:	3b 35 3b 33 37 3b    	cmp    esi,DWORD PTR [rip+0x3b37333b]        # 3b77061e <_end+0x3b36c5e6>
  3fd2e3:	34 30                	xor    al,0x30
  3fd2e5:	6d                   	ins    DWORD PTR es:[rdi],dx
  3fd2e6:	40 1b 5b 30          	rex sbb ebx,DWORD PTR [rbx+0x30]
  3fd2ea:	3b 35 3b 33 35 3b    	cmp    esi,DWORD PTR [rip+0x3b35333b]        # 3b75062b <_end+0x3b34c5f3>
  3fd2f0:	34 30                	xor    al,0x30
  3fd2f2:	6d                   	ins    DWORD PTR es:[rdi],dx
  3fd2f3:	25 1b 5b 30 3b       	and    eax,0x3b305b1b
  3fd2f8:	31 3b                	xor    DWORD PTR [rbx],edi
  3fd2fa:	33 30                	xor    esi,DWORD PTR [rax]
  3fd2fc:	3b 34 37             	cmp    esi,DWORD PTR [rdi+rsi*1]
  3fd2ff:	6d                   	ins    DWORD PTR es:[rdi],dx
  3fd300:	38 1b                	cmp    BYTE PTR [rbx],bl
  3fd302:	5b                   	pop    rbx
  3fd303:	30 3b                	xor    BYTE PTR [rbx],bh
  3fd305:	31 3b                	xor    DWORD PTR [rbx],edi
  3fd307:	33 37                	xor    esi,DWORD PTR [rdi]
  3fd309:	3b 34 37             	cmp    esi,DWORD PTR [rdi+rsi*1]
  3fd30c:	6d                   	ins    DWORD PTR es:[rdi],dx
  3fd30d:	74 1b                	je     3fd32a <_init-0x3cd6>
  3fd30f:	5b                   	pop    rbx
  3fd310:	30 3b                	xor    BYTE PTR [rbx],bh
  3fd312:	35 3b 33 33 3b       	xor    eax,0x3b33333b
  3fd317:	34 30                	xor    al,0x30
  3fd319:	6d                   	ins    DWORD PTR es:[rdi],dx
  3fd31a:	3b 1b                	cmp    ebx,DWORD PTR [rbx]
  3fd31c:	5b                   	pop    rbx
  3fd31d:	30 3b                	xor    BYTE PTR [rbx],bh
  3fd31f:	31 3b                	xor    DWORD PTR [rbx],edi
  3fd321:	33 30                	xor    esi,DWORD PTR [rax]
  3fd323:	3b 34 37             	cmp    esi,DWORD PTR [rdi+rsi*1]
  3fd326:	6d                   	ins    DWORD PTR es:[rdi],dx
  3fd327:	53                   	push   rbx
  3fd328:	1b 5b 30             	sbb    ebx,DWORD PTR [rbx+0x30]
  3fd32b:	3b 35 3b 33 33 3b    	cmp    esi,DWORD PTR [rip+0x3b33333b]        # 3b73066c <_end+0x3b32c634>
  3fd331:	34 30                	xor    al,0x30
  3fd333:	6d                   	ins    DWORD PTR es:[rdi],dx
  3fd334:	38 40 58             	cmp    BYTE PTR [rax+0x58],al
  3fd337:	1b 5b 30             	sbb    ebx,DWORD PTR [rbx+0x30]
  3fd33a:	3b 35 3b 33 30 3b    	cmp    esi,DWORD PTR [rip+0x3b30333b]        # 3b70067b <_end+0x3b2fc643>
  3fd340:	34 30                	xor    al,0x30
  3fd342:	6d                   	ins    DWORD PTR es:[rdi],dx
  3fd343:	58                   	pop    rax
  3fd344:	40 1b 5b 30          	rex sbb ebx,DWORD PTR [rbx+0x30]
  3fd348:	3b 33                	cmp    esi,DWORD PTR [rbx]
  3fd34a:	31 3b                	xor    DWORD PTR [rbx],edi
  3fd34c:	34 30                	xor    al,0x30
  3fd34e:	6d                   	ins    DWORD PTR es:[rdi],dx
  3fd34f:	38 1b                	cmp    BYTE PTR [rbx],bl
  3fd351:	5b                   	pop    rbx
  3fd352:	30 3b                	xor    BYTE PTR [rbx],bh
  3fd354:	31 3b                	xor    DWORD PTR [rbx],edi
  3fd356:	33 30                	xor    esi,DWORD PTR [rax]
  3fd358:	3b 34 30             	cmp    esi,DWORD PTR [rax+rsi*1]
  3fd35b:	6d                   	ins    DWORD PTR es:[rdi],dx
  3fd35c:	38 38                	cmp    BYTE PTR [rax],bh
  3fd35e:	1b 5b 30             	sbb    ebx,DWORD PTR [rbx+0x30]
  3fd361:	3b 33                	cmp    esi,DWORD PTR [rbx]
  3fd363:	31 3b                	xor    DWORD PTR [rbx],edi
  3fd365:	34 30                	xor    al,0x30
  3fd367:	6d                   	ins    DWORD PTR es:[rdi],dx
  3fd368:	38 1b                	cmp    BYTE PTR [rbx],bl
  3fd36a:	5b                   	pop    rbx
  3fd36b:	30 3b                	xor    BYTE PTR [rbx],bh
  3fd36d:	31 3b                	xor    DWORD PTR [rbx],edi
  3fd36f:	33 30                	xor    esi,DWORD PTR [rax]
  3fd371:	3b 34 32             	cmp    esi,DWORD PTR [rdx+rsi*1]
  3fd374:	6d                   	ins    DWORD PTR es:[rdi],dx
  3fd375:	38 1b                	cmp    BYTE PTR [rbx],bl
  3fd377:	5b                   	pop    rbx
  3fd378:	30 3b                	xor    BYTE PTR [rbx],bh
  3fd37a:	33 31                	xor    esi,DWORD PTR [rcx]
  3fd37c:	3b 34 30             	cmp    esi,DWORD PTR [rax+rsi*1]
  3fd37f:	6d                   	ins    DWORD PTR es:[rdi],dx
  3fd380:	38 1b                	cmp    BYTE PTR [rbx],bl
  3fd382:	5b                   	pop    rbx
  3fd383:	30 3b                	xor    BYTE PTR [rbx],bh
  3fd385:	31 3b                	xor    DWORD PTR [rbx],edi
  3fd387:	33 30                	xor    esi,DWORD PTR [rax]
  3fd389:	3b 34 30             	cmp    esi,DWORD PTR [rax+rsi*1]
  3fd38c:	6d                   	ins    DWORD PTR es:[rdi],dx
  3fd38d:	38 1b                	cmp    BYTE PTR [rbx],bl
  3fd38f:	5b                   	pop    rbx
  3fd390:	30 3b                	xor    BYTE PTR [rbx],bh
  3fd392:	33 31                	xor    esi,DWORD PTR [rcx]
  3fd394:	3b 34 30             	cmp    esi,DWORD PTR [rax+rsi*1]
  3fd397:	6d                   	ins    DWORD PTR es:[rdi],dx
  3fd398:	38 1b                	cmp    BYTE PTR [rbx],bl
  3fd39a:	5b                   	pop    rbx
  3fd39b:	30 3b                	xor    BYTE PTR [rbx],bh
  3fd39d:	35 3b 33 32 3b       	xor    eax,0x3b32333b
  3fd3a2:	34 30                	xor    al,0x30
  3fd3a4:	6d                   	ins    DWORD PTR es:[rdi],dx
  3fd3a5:	38 1b                	cmp    BYTE PTR [rbx],bl
  3fd3a7:	5b                   	pop    rbx
  3fd3a8:	30 6d 0d             	xor    BYTE PTR [rbp+0xd],ch
  3fd3ab:	0a 1b                	or     bl,BYTE PTR [rbx]
  3fd3ad:	5b                   	pop    rbx
  3fd3ae:	30 3b                	xor    BYTE PTR [rbx],bh
  3fd3b0:	31 3b                	xor    DWORD PTR [rbx],edi
  3fd3b2:	33 30                	xor    esi,DWORD PTR [rax]
  3fd3b4:	3b 34 30             	cmp    esi,DWORD PTR [rax+rsi*1]
  3fd3b7:	6d                   	ins    DWORD PTR es:[rdi],dx
  3fd3b8:	40 38 1b             	cmp    BYTE PTR [rbx],bl
  3fd3bb:	5b                   	pop    rbx
  3fd3bc:	30 3b                	xor    BYTE PTR [rbx],bh
  3fd3be:	33 31                	xor    esi,DWORD PTR [rcx]
  3fd3c0:	3b 34 30             	cmp    esi,DWORD PTR [rax+rsi*1]
  3fd3c3:	6d                   	ins    DWORD PTR es:[rdi],dx
  3fd3c4:	38 1b                	cmp    BYTE PTR [rbx],bl
  3fd3c6:	5b                   	pop    rbx
  3fd3c7:	30 3b                	xor    BYTE PTR [rbx],bh
  3fd3c9:	31 3b                	xor    DWORD PTR [rbx],edi
  3fd3cb:	33 30                	xor    esi,DWORD PTR [rax]
  3fd3cd:	3b 34 30             	cmp    esi,DWORD PTR [rax+rsi*1]
  3fd3d0:	6d                   	ins    DWORD PTR es:[rdi],dx
  3fd3d1:	38 38                	cmp    BYTE PTR [rax],bh
  3fd3d3:	38 1b                	cmp    BYTE PTR [rbx],bl
  3fd3d5:	5b                   	pop    rbx
  3fd3d6:	30 3b                	xor    BYTE PTR [rbx],bh
  3fd3d8:	35 3b 33 31 3b       	xor    eax,0x3b31333b
  3fd3dd:	34 30                	xor    al,0x30
  3fd3df:	6d                   	ins    DWORD PTR es:[rdi],dx
  3fd3e0:	58                   	pop    rax
  3fd3e1:	1b 5b 30             	sbb    ebx,DWORD PTR [rbx+0x30]
  3fd3e4:	3b 35 3b 33 33 3b    	cmp    esi,DWORD PTR [rip+0x3b33333b]        # 3b730725 <_end+0x3b32c6ed>
  3fd3ea:	34 30                	xor    al,0x30
  3fd3ec:	6d                   	ins    DWORD PTR es:[rdi],dx
  3fd3ed:	40 1b 5b 30          	rex sbb ebx,DWORD PTR [rbx+0x30]
  3fd3f1:	3b 35 3b 33 35 3b    	cmp    esi,DWORD PTR [rip+0x3b35333b]        # 3b750732 <_end+0x3b34c6fa>
  3fd3f7:	34 30                	xor    al,0x30
  3fd3f9:	6d                   	ins    DWORD PTR es:[rdi],dx
  3fd3fa:	2e 1b 5b 30          	sbb    ebx,DWORD PTR cs:[rbx+0x30]
  3fd3fe:	3b 35 3b 33 37 3b    	cmp    esi,DWORD PTR [rip+0x3b37333b]        # 3b77073f <_end+0x3b36c707>
  3fd404:	34 30                	xor    al,0x30
  3fd406:	6d                   	ins    DWORD PTR es:[rdi],dx
  3fd407:	40 1b 5b 30          	rex sbb ebx,DWORD PTR [rbx+0x30]
  3fd40b:	3b 35 3b 33 33 3b    	cmp    esi,DWORD PTR [rip+0x3b33333b]        # 3b73074c <_end+0x3b32c714>
  3fd411:	34 30                	xor    al,0x30
  3fd413:	6d                   	ins    DWORD PTR es:[rdi],dx
  3fd414:	20 1b                	and    BYTE PTR [rbx],bl
  3fd416:	5b                   	pop    rbx
  3fd417:	30 3b                	xor    BYTE PTR [rbx],bh
  3fd419:	35 3b 33 37 3b       	xor    eax,0x3b37333b
  3fd41e:	34 37                	xor    al,0x37
  3fd420:	6d                   	ins    DWORD PTR es:[rdi],dx
  3fd421:	3b 1b                	cmp    ebx,DWORD PTR [rbx]
  3fd423:	5b                   	pop    rbx
  3fd424:	30 3b                	xor    BYTE PTR [rbx],bh
  3fd426:	31 3b                	xor    DWORD PTR [rbx],edi
  3fd428:	33 30                	xor    esi,DWORD PTR [rax]
  3fd42a:	3b 34 37             	cmp    esi,DWORD PTR [rdi+rsi*1]
  3fd42d:	6d                   	ins    DWORD PTR es:[rdi],dx
  3fd42e:	20 1b                	and    BYTE PTR [rbx],bl
  3fd430:	5b                   	pop    rbx
  3fd431:	30 3b                	xor    BYTE PTR [rbx],bh
  3fd433:	35 3b 33 37 3b       	xor    eax,0x3b37333b
  3fd438:	34 37                	xor    al,0x37
  3fd43a:	6d                   	ins    DWORD PTR es:[rdi],dx
  3fd43b:	25 1b 5b 30 3b       	and    eax,0x3b305b1b
  3fd440:	35 3b 33 33 3b       	xor    eax,0x3b33333b
  3fd445:	34 30                	xor    al,0x30
  3fd447:	6d                   	ins    DWORD PTR es:[rdi],dx
  3fd448:	38 1b                	cmp    BYTE PTR [rbx],bl
  3fd44a:	5b                   	pop    rbx
  3fd44b:	30 3b                	xor    BYTE PTR [rbx],bh
  3fd44d:	31 3b                	xor    DWORD PTR [rbx],edi
  3fd44f:	33 37                	xor    esi,DWORD PTR [rdi]
  3fd451:	3b 34 37             	cmp    esi,DWORD PTR [rdi+rsi*1]
  3fd454:	6d                   	ins    DWORD PTR es:[rdi],dx
  3fd455:	74 1b                	je     3fd472 <_init-0x3b8e>
  3fd457:	5b                   	pop    rbx
  3fd458:	30 3b                	xor    BYTE PTR [rbx],bh
  3fd45a:	35 3b 33 30 3b       	xor    eax,0x3b30333b
  3fd45f:	34 30                	xor    al,0x30
  3fd461:	6d                   	ins    DWORD PTR es:[rdi],dx
  3fd462:	40 1b 5b 30          	rex sbb ebx,DWORD PTR [rbx+0x30]
  3fd466:	3b 31                	cmp    esi,DWORD PTR [rcx]
  3fd468:	3b 33                	cmp    esi,DWORD PTR [rbx]
  3fd46a:	30 3b                	xor    BYTE PTR [rbx],bh
  3fd46c:	34 30                	xor    al,0x30
  3fd46e:	6d                   	ins    DWORD PTR es:[rdi],dx
  3fd46f:	38 1b                	cmp    BYTE PTR [rbx],bl
  3fd471:	5b                   	pop    rbx
  3fd472:	30 3b                	xor    BYTE PTR [rbx],bh
  3fd474:	35 3b 33 33 3b       	xor    eax,0x3b33333b
  3fd479:	34 30                	xor    al,0x30
  3fd47b:	6d                   	ins    DWORD PTR es:[rdi],dx
  3fd47c:	2e 1b 5b 30          	sbb    ebx,DWORD PTR cs:[rbx+0x30]
  3fd480:	3b 31                	cmp    esi,DWORD PTR [rcx]
  3fd482:	3b 33                	cmp    esi,DWORD PTR [rbx]
  3fd484:	37                   	(bad)  
  3fd485:	3b 34 37             	cmp    esi,DWORD PTR [rdi+rsi*1]
  3fd488:	6d                   	ins    DWORD PTR es:[rdi],dx
  3fd489:	3a 1b                	cmp    bl,BYTE PTR [rbx]
  3fd48b:	5b                   	pop    rbx
  3fd48c:	30 3b                	xor    BYTE PTR [rbx],bh
  3fd48e:	31 3b                	xor    DWORD PTR [rbx],edi
  3fd490:	33 30                	xor    esi,DWORD PTR [rax]
  3fd492:	3b 34 37             	cmp    esi,DWORD PTR [rdi+rsi*1]
  3fd495:	6d                   	ins    DWORD PTR es:[rdi],dx
  3fd496:	53                   	push   rbx
  3fd497:	1b 5b 30             	sbb    ebx,DWORD PTR [rbx+0x30]
  3fd49a:	3b 35 3b 33 37 3b    	cmp    esi,DWORD PTR [rip+0x3b37333b]        # 3b7707db <_end+0x3b36c7a3>
  3fd4a0:	34 37                	xor    al,0x37
  3fd4a2:	6d                   	ins    DWORD PTR es:[rdi],dx
  3fd4a3:	58                   	pop    rax
  3fd4a4:	1b 5b 30             	sbb    ebx,DWORD PTR [rbx+0x30]
  3fd4a7:	3b 31                	cmp    esi,DWORD PTR [rcx]
  3fd4a9:	3b 33                	cmp    esi,DWORD PTR [rbx]
  3fd4ab:	30 3b                	xor    BYTE PTR [rbx],bh
  3fd4ad:	34 37                	xor    al,0x37
  3fd4af:	6d                   	ins    DWORD PTR es:[rdi],dx
  3fd4b0:	38 2e                	cmp    BYTE PTR [rsi],ch
  3fd4b2:	74 1b                	je     3fd4cf <_init-0x3b31>
  3fd4b4:	5b                   	pop    rbx
  3fd4b5:	30 3b                	xor    BYTE PTR [rbx],bh
  3fd4b7:	31 3b                	xor    DWORD PTR [rbx],edi
  3fd4b9:	33 37                	xor    esi,DWORD PTR [rdi]
  3fd4bb:	3b 34 37             	cmp    esi,DWORD PTR [rdi+rsi*1]
  3fd4be:	6d                   	ins    DWORD PTR es:[rdi],dx
  3fd4bf:	2e 1b 5b 30          	sbb    ebx,DWORD PTR cs:[rbx+0x30]
  3fd4c3:	3b 31                	cmp    esi,DWORD PTR [rcx]
  3fd4c5:	3b 33                	cmp    esi,DWORD PTR [rbx]
  3fd4c7:	30 3b                	xor    BYTE PTR [rbx],bh
  3fd4c9:	34 37                	xor    al,0x37
  3fd4cb:	6d                   	ins    DWORD PTR es:[rdi],dx
  3fd4cc:	74 1b                	je     3fd4e9 <_init-0x3b17>
  3fd4ce:	5b                   	pop    rbx
  3fd4cf:	30 3b                	xor    BYTE PTR [rbx],bh
  3fd4d1:	35 3b 33 37 3b       	xor    eax,0x3b37333b
  3fd4d6:	34 30                	xor    al,0x30
  3fd4d8:	6d                   	ins    DWORD PTR es:[rdi],dx
  3fd4d9:	58                   	pop    rax
  3fd4da:	1b 5b 30             	sbb    ebx,DWORD PTR [rbx+0x30]
  3fd4dd:	3b 31                	cmp    esi,DWORD PTR [rcx]
  3fd4df:	3b 33                	cmp    esi,DWORD PTR [rbx]
  3fd4e1:	37                   	(bad)  
  3fd4e2:	3b 34 37             	cmp    esi,DWORD PTR [rdi+rsi*1]
  3fd4e5:	6d                   	ins    DWORD PTR es:[rdi],dx
  3fd4e6:	58                   	pop    rax
  3fd4e7:	1b 5b 30             	sbb    ebx,DWORD PTR [rbx+0x30]
  3fd4ea:	3b 31                	cmp    esi,DWORD PTR [rcx]
  3fd4ec:	3b 33                	cmp    esi,DWORD PTR [rbx]
  3fd4ee:	30 3b                	xor    BYTE PTR [rbx],bh
  3fd4f0:	34 37                	xor    al,0x37
  3fd4f2:	6d                   	ins    DWORD PTR es:[rdi],dx
  3fd4f3:	38 1b                	cmp    BYTE PTR [rbx],bl
  3fd4f5:	5b                   	pop    rbx
  3fd4f6:	30 3b                	xor    BYTE PTR [rbx],bh
  3fd4f8:	35 3b 33 37 3b       	xor    eax,0x3b37333b
  3fd4fd:	34 30                	xor    al,0x30
  3fd4ff:	6d                   	ins    DWORD PTR es:[rdi],dx
  3fd500:	58                   	pop    rax
  3fd501:	1b 5b 30             	sbb    ebx,DWORD PTR [rbx+0x30]
  3fd504:	3b 35 3b 33 33 3b    	cmp    esi,DWORD PTR [rip+0x3b33333b]        # 3b730845 <_end+0x3b32c80d>
  3fd50a:	34 30                	xor    al,0x30
  3fd50c:	6d                   	ins    DWORD PTR es:[rdi],dx
  3fd50d:	3b 1b                	cmp    ebx,DWORD PTR [rbx]
  3fd50f:	5b                   	pop    rbx
  3fd510:	30 3b                	xor    BYTE PTR [rbx],bh
  3fd512:	31 3b                	xor    DWORD PTR [rbx],edi
  3fd514:	33 37                	xor    esi,DWORD PTR [rdi]
  3fd516:	3b 34 37             	cmp    esi,DWORD PTR [rdi+rsi*1]
  3fd519:	6d                   	ins    DWORD PTR es:[rdi],dx
  3fd51a:	40 1b 5b 30          	rex sbb ebx,DWORD PTR [rbx+0x30]
  3fd51e:	3b 35 3b 33 37 3b    	cmp    esi,DWORD PTR [rip+0x3b37333b]        # 3b77085f <_end+0x3b36c827>
  3fd524:	34 37                	xor    al,0x37
  3fd526:	6d                   	ins    DWORD PTR es:[rdi],dx
  3fd527:	58                   	pop    rax
  3fd528:	25 1b 5b 30 3b       	and    eax,0x3b305b1b
  3fd52d:	35 3b 33 31 3b       	xor    eax,0x3b31333b
  3fd532:	34 30                	xor    al,0x30
  3fd534:	6d                   	ins    DWORD PTR es:[rdi],dx
  3fd535:	58                   	pop    rax
  3fd536:	1b 5b 30             	sbb    ebx,DWORD PTR [rbx+0x30]
  3fd539:	3b 35 3b 33 36 3b    	cmp    esi,DWORD PTR [rip+0x3b36333b]        # 3b76087a <_end+0x3b35c842>
  3fd53f:	34 30                	xor    al,0x30
  3fd541:	6d                   	ins    DWORD PTR es:[rdi],dx
  3fd542:	25 1b 5b 30 3b       	and    eax,0x3b305b1b
  3fd547:	31 3b                	xor    DWORD PTR [rbx],edi
  3fd549:	33 30                	xor    esi,DWORD PTR [rax]
  3fd54b:	3b 34 37             	cmp    esi,DWORD PTR [rdi+rsi*1]
  3fd54e:	6d                   	ins    DWORD PTR es:[rdi],dx
  3fd54f:	58                   	pop    rax
  3fd550:	1b 5b 30             	sbb    ebx,DWORD PTR [rbx+0x30]
  3fd553:	3b 35 3b 33 37 3b    	cmp    esi,DWORD PTR [rip+0x3b37333b]        # 3b770894 <_end+0x3b36c85c>
  3fd559:	34 37                	xor    al,0x37
  3fd55b:	6d                   	ins    DWORD PTR es:[rdi],dx
  3fd55c:	38 1b                	cmp    BYTE PTR [rbx],bl
  3fd55e:	5b                   	pop    rbx
  3fd55f:	30 3b                	xor    BYTE PTR [rbx],bh
  3fd561:	31 3b                	xor    DWORD PTR [rbx],edi
  3fd563:	33 30                	xor    esi,DWORD PTR [rax]
  3fd565:	3b 34 37             	cmp    esi,DWORD PTR [rdi+rsi*1]
  3fd568:	6d                   	ins    DWORD PTR es:[rdi],dx
  3fd569:	20 1b                	and    BYTE PTR [rbx],bl
  3fd56b:	5b                   	pop    rbx
  3fd56c:	30 3b                	xor    BYTE PTR [rbx],bh
  3fd56e:	35 3b 33 33 3b       	xor    eax,0x3b33333b
  3fd573:	34 30                	xor    al,0x30
  3fd575:	6d                   	ins    DWORD PTR es:[rdi],dx
  3fd576:	74 3b                	je     3fd5b3 <_init-0x3a4d>
  3fd578:	3a 38                	cmp    bh,BYTE PTR [rax]
  3fd57a:	1b 5b 30             	sbb    ebx,DWORD PTR [rbx+0x30]
  3fd57d:	3b 33                	cmp    esi,DWORD PTR [rbx]
  3fd57f:	31 3b                	xor    DWORD PTR [rbx],edi
  3fd581:	34 30                	xor    al,0x30
  3fd583:	6d                   	ins    DWORD PTR es:[rdi],dx
  3fd584:	58                   	pop    rax
  3fd585:	1b 5b 30             	sbb    ebx,DWORD PTR [rbx+0x30]
  3fd588:	3b 31                	cmp    esi,DWORD PTR [rcx]
  3fd58a:	3b 33                	cmp    esi,DWORD PTR [rbx]
  3fd58c:	30 3b                	xor    BYTE PTR [rbx],bh
  3fd58e:	34 30                	xor    al,0x30
  3fd590:	6d                   	ins    DWORD PTR es:[rdi],dx
  3fd591:	38 38                	cmp    BYTE PTR [rax],bh
  3fd593:	38 1b                	cmp    BYTE PTR [rbx],bl
  3fd595:	5b                   	pop    rbx
  3fd596:	30 3b                	xor    BYTE PTR [rbx],bh
  3fd598:	33 31                	xor    esi,DWORD PTR [rcx]
  3fd59a:	3b 34 30             	cmp    esi,DWORD PTR [rax+rsi*1]
  3fd59d:	6d                   	ins    DWORD PTR es:[rdi],dx
  3fd59e:	38 1b                	cmp    BYTE PTR [rbx],bl
  3fd5a0:	5b                   	pop    rbx
  3fd5a1:	30 3b                	xor    BYTE PTR [rbx],bh
  3fd5a3:	31 3b                	xor    DWORD PTR [rbx],edi
  3fd5a5:	33 30                	xor    esi,DWORD PTR [rax]
  3fd5a7:	3b 34 30             	cmp    esi,DWORD PTR [rax+rsi*1]
  3fd5aa:	6d                   	ins    DWORD PTR es:[rdi],dx
  3fd5ab:	38 1b                	cmp    BYTE PTR [rbx],bl
  3fd5ad:	5b                   	pop    rbx
  3fd5ae:	30 6d 0d             	xor    BYTE PTR [rbp+0xd],ch
  3fd5b1:	0a 1b                	or     bl,BYTE PTR [rbx]
  3fd5b3:	5b                   	pop    rbx
  3fd5b4:	30 3b                	xor    BYTE PTR [rbx],bh
  3fd5b6:	31 3b                	xor    DWORD PTR [rbx],edi
  3fd5b8:	33 30                	xor    esi,DWORD PTR [rax]
  3fd5ba:	3b 34 30             	cmp    esi,DWORD PTR [rax+rsi*1]
  3fd5bd:	6d                   	ins    DWORD PTR es:[rdi],dx
  3fd5be:	40 1b 5b 30          	rex sbb ebx,DWORD PTR [rbx+0x30]
  3fd5c2:	3b 35 3b 33 30 3b    	cmp    esi,DWORD PTR [rip+0x3b30333b]        # 3b700903 <_end+0x3b2fc8cb>
  3fd5c8:	34 30                	xor    al,0x30
  3fd5ca:	6d                   	ins    DWORD PTR es:[rdi],dx
  3fd5cb:	38 1b                	cmp    BYTE PTR [rbx],bl
  3fd5cd:	5b                   	pop    rbx
  3fd5ce:	30 3b                	xor    BYTE PTR [rbx],bh
  3fd5d0:	31 3b                	xor    DWORD PTR [rbx],edi
  3fd5d2:	33 30                	xor    esi,DWORD PTR [rax]
  3fd5d4:	3b 34 30             	cmp    esi,DWORD PTR [rax+rsi*1]
  3fd5d7:	6d                   	ins    DWORD PTR es:[rdi],dx
  3fd5d8:	38 1b                	cmp    BYTE PTR [rbx],bl
  3fd5da:	5b                   	pop    rbx
  3fd5db:	30 3b                	xor    BYTE PTR [rbx],bh
  3fd5dd:	33 30                	xor    esi,DWORD PTR [rax]
  3fd5df:	3b 34 31             	cmp    esi,DWORD PTR [rcx+rsi*1]
  3fd5e2:	6d                   	ins    DWORD PTR es:[rdi],dx
  3fd5e3:	38 1b                	cmp    BYTE PTR [rbx],bl
  3fd5e5:	5b                   	pop    rbx
  3fd5e6:	30 3b                	xor    BYTE PTR [rbx],bh
  3fd5e8:	35 3b 33 30 3b       	xor    eax,0x3b30333b
  3fd5ed:	34 30                	xor    al,0x30
  3fd5ef:	6d                   	ins    DWORD PTR es:[rdi],dx
  3fd5f0:	58                   	pop    rax
  3fd5f1:	1b 5b 30             	sbb    ebx,DWORD PTR [rbx+0x30]
  3fd5f4:	3b 33                	cmp    esi,DWORD PTR [rbx]
  3fd5f6:	31 3b                	xor    DWORD PTR [rbx],edi
  3fd5f8:	34 30                	xor    al,0x30
  3fd5fa:	6d                   	ins    DWORD PTR es:[rdi],dx
  3fd5fb:	40 1b 5b 30          	rex sbb ebx,DWORD PTR [rbx+0x30]
  3fd5ff:	3b 35 3b 33 32 3b    	cmp    esi,DWORD PTR [rip+0x3b32333b]        # 3b720940 <_end+0x3b31c908>
  3fd605:	34 30                	xor    al,0x30
  3fd607:	6d                   	ins    DWORD PTR es:[rdi],dx
  3fd608:	58                   	pop    rax
  3fd609:	1b 5b 30             	sbb    ebx,DWORD PTR [rbx+0x30]
  3fd60c:	3b 35 3b 33 37 3b    	cmp    esi,DWORD PTR [rip+0x3b37333b]        # 3b77094d <_end+0x3b36c915>
  3fd612:	34 30                	xor    al,0x30
  3fd614:	6d                   	ins    DWORD PTR es:[rdi],dx
  3fd615:	38 1b                	cmp    BYTE PTR [rbx],bl
  3fd617:	5b                   	pop    rbx
  3fd618:	30 3b                	xor    BYTE PTR [rbx],bh
  3fd61a:	35 3b 33 37 3b       	xor    eax,0x3b37333b
  3fd61f:	34 37                	xor    al,0x37
  3fd621:	6d                   	ins    DWORD PTR es:[rdi],dx
  3fd622:	25 1b 5b 30 3b       	and    eax,0x3b305b1b
  3fd627:	35 3b 33 33 3b       	xor    eax,0x3b33333b
  3fd62c:	34 30                	xor    al,0x30
  3fd62e:	6d                   	ins    DWORD PTR es:[rdi],dx
  3fd62f:	20 53 1b             	and    BYTE PTR [rbx+0x1b],dl
  3fd632:	5b                   	pop    rbx
  3fd633:	30 3b                	xor    BYTE PTR [rbx],bh
  3fd635:	31 3b                	xor    DWORD PTR [rbx],edi
  3fd637:	33 37                	xor    esi,DWORD PTR [rdi]
  3fd639:	3b 34 37             	cmp    esi,DWORD PTR [rdi+rsi*1]
  3fd63c:	6d                   	ins    DWORD PTR es:[rdi],dx
  3fd63d:	25 20 1b 5b 30       	and    eax,0x305b1b20
  3fd642:	3b 35 3b 33 33 3b    	cmp    esi,DWORD PTR [rip+0x3b33333b]        # 3b730983 <_end+0x3b32c94b>
  3fd648:	34 30                	xor    al,0x30
  3fd64a:	6d                   	ins    DWORD PTR es:[rdi],dx
  3fd64b:	20 1b                	and    BYTE PTR [rbx],bl
  3fd64d:	5b                   	pop    rbx
  3fd64e:	30 3b                	xor    BYTE PTR [rbx],bh
  3fd650:	31 3b                	xor    DWORD PTR [rbx],edi
  3fd652:	33 30                	xor    esi,DWORD PTR [rax]
  3fd654:	3b 34 37             	cmp    esi,DWORD PTR [rdi+rsi*1]
  3fd657:	6d                   	ins    DWORD PTR es:[rdi],dx
  3fd658:	53                   	push   rbx
  3fd659:	1b 5b 30             	sbb    ebx,DWORD PTR [rbx+0x30]
  3fd65c:	3b 35 3b 33 33 3b    	cmp    esi,DWORD PTR [rip+0x3b33333b]        # 3b73099d <_end+0x3b32c965>
  3fd662:	34 30                	xor    al,0x30
  3fd664:	6d                   	ins    DWORD PTR es:[rdi],dx
  3fd665:	53                   	push   rbx
  3fd666:	1b 5b 30             	sbb    ebx,DWORD PTR [rbx+0x30]
  3fd669:	3b 35 3b 33 31 3b    	cmp    esi,DWORD PTR [rip+0x3b31333b]        # 3b7109aa <_end+0x3b30c972>
  3fd66f:	34 30                	xor    al,0x30
  3fd671:	6d                   	ins    DWORD PTR es:[rdi],dx
  3fd672:	38 1b                	cmp    BYTE PTR [rbx],bl
  3fd674:	5b                   	pop    rbx
  3fd675:	30 3b                	xor    BYTE PTR [rbx],bh
  3fd677:	33 31                	xor    esi,DWORD PTR [rcx]
  3fd679:	3b 34 30             	cmp    esi,DWORD PTR [rax+rsi*1]
  3fd67c:	6d                   	ins    DWORD PTR es:[rdi],dx
  3fd67d:	53                   	push   rbx
  3fd67e:	1b 5b 30             	sbb    ebx,DWORD PTR [rbx+0x30]
  3fd681:	3b 35 3b 33 33 3b    	cmp    esi,DWORD PTR [rip+0x3b33333b]        # 3b7309c2 <_end+0x3b32c98a>
  3fd687:	34 30                	xor    al,0x30
  3fd689:	6d                   	ins    DWORD PTR es:[rdi],dx
  3fd68a:	58                   	pop    rax
  3fd68b:	1b 5b 30             	sbb    ebx,DWORD PTR [rbx+0x30]
  3fd68e:	3b 35 3b 33 31 3b    	cmp    esi,DWORD PTR [rip+0x3b31333b]        # 3b7109cf <_end+0x3b30c997>
  3fd694:	34 30                	xor    al,0x30
  3fd696:	6d                   	ins    DWORD PTR es:[rdi],dx
  3fd697:	38 1b                	cmp    BYTE PTR [rbx],bl
  3fd699:	5b                   	pop    rbx
  3fd69a:	30 3b                	xor    BYTE PTR [rbx],bh
  3fd69c:	35 3b 33 33 3b       	xor    eax,0x3b33333b
  3fd6a1:	34 30                	xor    al,0x30
  3fd6a3:	6d                   	ins    DWORD PTR es:[rdi],dx
  3fd6a4:	58                   	pop    rax
  3fd6a5:	1b 5b 30             	sbb    ebx,DWORD PTR [rbx+0x30]
  3fd6a8:	3b 35 3b 33 31 3b    	cmp    esi,DWORD PTR [rip+0x3b31333b]        # 3b7109e9 <_end+0x3b30c9b1>
  3fd6ae:	34 30                	xor    al,0x30
  3fd6b0:	6d                   	ins    DWORD PTR es:[rdi],dx
  3fd6b1:	38 1b                	cmp    BYTE PTR [rbx],bl
  3fd6b3:	5b                   	pop    rbx
  3fd6b4:	30 3b                	xor    BYTE PTR [rbx],bh
  3fd6b6:	31 3b                	xor    DWORD PTR [rbx],edi
  3fd6b8:	33 30                	xor    esi,DWORD PTR [rax]
  3fd6ba:	3b 34 30             	cmp    esi,DWORD PTR [rax+rsi*1]
  3fd6bd:	6d                   	ins    DWORD PTR es:[rdi],dx
  3fd6be:	38 1b                	cmp    BYTE PTR [rbx],bl
  3fd6c0:	5b                   	pop    rbx
  3fd6c1:	30 3b                	xor    BYTE PTR [rbx],bh
  3fd6c3:	35 3b 33 31 3b       	xor    eax,0x3b31333b
  3fd6c8:	34 30                	xor    al,0x30
  3fd6ca:	6d                   	ins    DWORD PTR es:[rdi],dx
  3fd6cb:	38 38                	cmp    BYTE PTR [rax],bh
  3fd6cd:	1b 5b 30             	sbb    ebx,DWORD PTR [rbx+0x30]
  3fd6d0:	3b 31                	cmp    esi,DWORD PTR [rcx]
  3fd6d2:	3b 33                	cmp    esi,DWORD PTR [rbx]
  3fd6d4:	30 3b                	xor    BYTE PTR [rbx],bh
  3fd6d6:	34 30                	xor    al,0x30
  3fd6d8:	6d                   	ins    DWORD PTR es:[rdi],dx
  3fd6d9:	38 1b                	cmp    BYTE PTR [rbx],bl
  3fd6db:	5b                   	pop    rbx
  3fd6dc:	30 3b                	xor    BYTE PTR [rbx],bh
  3fd6de:	35 3b 33 33 3b       	xor    eax,0x3b33333b
  3fd6e3:	34 30                	xor    al,0x30
  3fd6e5:	6d                   	ins    DWORD PTR es:[rdi],dx
  3fd6e6:	38 1b                	cmp    BYTE PTR [rbx],bl
  3fd6e8:	5b                   	pop    rbx
  3fd6e9:	30 3b                	xor    BYTE PTR [rbx],bh
  3fd6eb:	35 3b 33 35 3b       	xor    eax,0x3b35333b
  3fd6f0:	34 30                	xor    al,0x30
  3fd6f2:	6d                   	ins    DWORD PTR es:[rdi],dx
  3fd6f3:	20 1b                	and    BYTE PTR [rbx],bl
  3fd6f5:	5b                   	pop    rbx
  3fd6f6:	30 3b                	xor    BYTE PTR [rbx],bh
  3fd6f8:	35 3b 33 33 3b       	xor    eax,0x3b33333b
  3fd6fd:	34 30                	xor    al,0x30
  3fd6ff:	6d                   	ins    DWORD PTR es:[rdi],dx
  3fd700:	20 53 1b             	and    BYTE PTR [rbx+0x1b],dl
  3fd703:	5b                   	pop    rbx
  3fd704:	30 3b                	xor    BYTE PTR [rbx],bh
  3fd706:	35 3b 33 31 3b       	xor    eax,0x3b31333b
  3fd70b:	34 30                	xor    al,0x30
  3fd70d:	6d                   	ins    DWORD PTR es:[rdi],dx
  3fd70e:	38 40 1b             	cmp    BYTE PTR [rax+0x1b],al
  3fd711:	5b                   	pop    rbx
  3fd712:	30 3b                	xor    BYTE PTR [rbx],bh
  3fd714:	35 3b 33 33 3b       	xor    eax,0x3b33333b
  3fd719:	34 30                	xor    al,0x30
  3fd71b:	6d                   	ins    DWORD PTR es:[rdi],dx
  3fd71c:	20 3a                	and    BYTE PTR [rdx],bh
  3fd71e:	1b 5b 30             	sbb    ebx,DWORD PTR [rbx+0x30]
  3fd721:	3b 31                	cmp    esi,DWORD PTR [rcx]
  3fd723:	3b 33                	cmp    esi,DWORD PTR [rbx]
  3fd725:	30 3b                	xor    BYTE PTR [rbx],bh
  3fd727:	34 37                	xor    al,0x37
  3fd729:	6d                   	ins    DWORD PTR es:[rdi],dx
  3fd72a:	53                   	push   rbx
  3fd72b:	40 38 25 1b 5b 30 3b 	cmp    BYTE PTR [rip+0x3b305b1b],spl        # 3b70324d <_end+0x3b2ff215>
  3fd732:	31 3b                	xor    DWORD PTR [rbx],edi
  3fd734:	33 37                	xor    esi,DWORD PTR [rdi]
  3fd736:	3b 34 37             	cmp    esi,DWORD PTR [rdi+rsi*1]
  3fd739:	6d                   	ins    DWORD PTR es:[rdi],dx
  3fd73a:	25 1b 5b 30 3b       	and    eax,0x3b305b1b
  3fd73f:	35 3b 33 37 3b       	xor    eax,0x3b37333b
  3fd744:	34 37                	xor    al,0x37
  3fd746:	6d                   	ins    DWORD PTR es:[rdi],dx
  3fd747:	38 1b                	cmp    BYTE PTR [rbx],bl
  3fd749:	5b                   	pop    rbx
  3fd74a:	30 3b                	xor    BYTE PTR [rbx],bh
  3fd74c:	35 3b 33 33 3b       	xor    eax,0x3b33333b
  3fd751:	34 30                	xor    al,0x30
  3fd753:	6d                   	ins    DWORD PTR es:[rdi],dx
  3fd754:	25 1b 5b 30 3b       	and    eax,0x3b305b1b
  3fd759:	31 3b                	xor    DWORD PTR [rbx],edi
  3fd75b:	33 37                	xor    esi,DWORD PTR [rdi]
  3fd75d:	3b 34 37             	cmp    esi,DWORD PTR [rdi+rsi*1]
  3fd760:	6d                   	ins    DWORD PTR es:[rdi],dx
  3fd761:	3b 25 1b 5b 30 3b    	cmp    esp,DWORD PTR [rip+0x3b305b1b]        # 3b703282 <_end+0x3b2ff24a>
  3fd767:	35 3b 33 31 3b       	xor    eax,0x3b31333b
  3fd76c:	34 30                	xor    al,0x30
  3fd76e:	6d                   	ins    DWORD PTR es:[rdi],dx
  3fd76f:	38 1b                	cmp    BYTE PTR [rbx],bl
  3fd771:	5b                   	pop    rbx
  3fd772:	30 3b                	xor    BYTE PTR [rbx],bh
  3fd774:	31 3b                	xor    DWORD PTR [rbx],edi
  3fd776:	33 30                	xor    esi,DWORD PTR [rax]
  3fd778:	3b 34 30             	cmp    esi,DWORD PTR [rax+rsi*1]
  3fd77b:	6d                   	ins    DWORD PTR es:[rdi],dx
  3fd77c:	40 1b 5b 30          	rex sbb ebx,DWORD PTR [rbx+0x30]
  3fd780:	3b 33                	cmp    esi,DWORD PTR [rbx]
  3fd782:	31 3b                	xor    DWORD PTR [rbx],edi
  3fd784:	34 30                	xor    al,0x30
  3fd786:	6d                   	ins    DWORD PTR es:[rdi],dx
  3fd787:	38 1b                	cmp    BYTE PTR [rbx],bl
  3fd789:	5b                   	pop    rbx
  3fd78a:	30 3b                	xor    BYTE PTR [rbx],bh
  3fd78c:	35 3b 33 30 3b       	xor    eax,0x3b30333b
  3fd791:	34 30                	xor    al,0x30
  3fd793:	6d                   	ins    DWORD PTR es:[rdi],dx
  3fd794:	58                   	pop    rax
  3fd795:	1b 5b 30             	sbb    ebx,DWORD PTR [rbx+0x30]
  3fd798:	3b 33                	cmp    esi,DWORD PTR [rbx]
  3fd79a:	31 3b                	xor    DWORD PTR [rbx],edi
  3fd79c:	34 30                	xor    al,0x30
  3fd79e:	6d                   	ins    DWORD PTR es:[rdi],dx
  3fd79f:	38 1b                	cmp    BYTE PTR [rbx],bl
  3fd7a1:	5b                   	pop    rbx
  3fd7a2:	30 3b                	xor    BYTE PTR [rbx],bh
  3fd7a4:	35 3b 33 32 3b       	xor    eax,0x3b32333b
  3fd7a9:	34 30                	xor    al,0x30
  3fd7ab:	6d                   	ins    DWORD PTR es:[rdi],dx
  3fd7ac:	40 1b 5b 30          	rex sbb ebx,DWORD PTR [rbx+0x30]
  3fd7b0:	3b 33                	cmp    esi,DWORD PTR [rbx]
  3fd7b2:	31 3b                	xor    DWORD PTR [rbx],edi
  3fd7b4:	34 30                	xor    al,0x30
  3fd7b6:	6d                   	ins    DWORD PTR es:[rdi],dx
  3fd7b7:	38 1b                	cmp    BYTE PTR [rbx],bl
  3fd7b9:	5b                   	pop    rbx
  3fd7ba:	30 6d 0d             	xor    BYTE PTR [rbp+0xd],ch
  3fd7bd:	0a 1b                	or     bl,BYTE PTR [rbx]
  3fd7bf:	5b                   	pop    rbx
  3fd7c0:	30 3b                	xor    BYTE PTR [rbx],bh
  3fd7c2:	31 3b                	xor    DWORD PTR [rbx],edi
  3fd7c4:	33 30                	xor    esi,DWORD PTR [rax]
  3fd7c6:	3b 34 30             	cmp    esi,DWORD PTR [rax+rsi*1]
  3fd7c9:	6d                   	ins    DWORD PTR es:[rdi],dx
  3fd7ca:	40 1b 5b 30          	rex sbb ebx,DWORD PTR [rbx+0x30]
  3fd7ce:	3b 33                	cmp    esi,DWORD PTR [rbx]
  3fd7d0:	31 3b                	xor    DWORD PTR [rbx],edi
  3fd7d2:	34 30                	xor    al,0x30
  3fd7d4:	6d                   	ins    DWORD PTR es:[rdi],dx
  3fd7d5:	38 1b                	cmp    BYTE PTR [rbx],bl
  3fd7d7:	5b                   	pop    rbx
  3fd7d8:	30 3b                	xor    BYTE PTR [rbx],bh
  3fd7da:	35 3b 33 30 3b       	xor    eax,0x3b30333b
  3fd7df:	34 30                	xor    al,0x30
  3fd7e1:	6d                   	ins    DWORD PTR es:[rdi],dx
  3fd7e2:	58                   	pop    rax
  3fd7e3:	1b 5b 30             	sbb    ebx,DWORD PTR [rbx+0x30]
  3fd7e6:	3b 33                	cmp    esi,DWORD PTR [rbx]
  3fd7e8:	32 3b                	xor    bh,BYTE PTR [rbx]
  3fd7ea:	34 30                	xor    al,0x30
  3fd7ec:	6d                   	ins    DWORD PTR es:[rdi],dx
  3fd7ed:	40 1b 5b 30          	rex sbb ebx,DWORD PTR [rbx+0x30]
  3fd7f1:	3b 33                	cmp    esi,DWORD PTR [rbx]
  3fd7f3:	30 3b                	xor    BYTE PTR [rbx],bh
  3fd7f5:	34 31                	xor    al,0x31
  3fd7f7:	6d                   	ins    DWORD PTR es:[rdi],dx
  3fd7f8:	38 1b                	cmp    BYTE PTR [rbx],bl
  3fd7fa:	5b                   	pop    rbx
  3fd7fb:	30 3b                	xor    BYTE PTR [rbx],bh
  3fd7fd:	35 3b 33 30 3b       	xor    eax,0x3b30333b
  3fd802:	34 30                	xor    al,0x30
  3fd804:	6d                   	ins    DWORD PTR es:[rdi],dx
  3fd805:	38 1b                	cmp    BYTE PTR [rbx],bl
  3fd807:	5b                   	pop    rbx
  3fd808:	30 3b                	xor    BYTE PTR [rbx],bh
  3fd80a:	33 31                	xor    esi,DWORD PTR [rcx]
  3fd80c:	3b 34 30             	cmp    esi,DWORD PTR [rax+rsi*1]
  3fd80f:	6d                   	ins    DWORD PTR es:[rdi],dx
  3fd810:	40 1b 5b 30          	rex sbb ebx,DWORD PTR [rbx+0x30]
  3fd814:	3b 35 3b 33 31 3b    	cmp    esi,DWORD PTR [rip+0x3b31333b]        # 3b710b55 <_end+0x3b30cb1d>
  3fd81a:	34 30                	xor    al,0x30
  3fd81c:	6d                   	ins    DWORD PTR es:[rdi],dx
  3fd81d:	58                   	pop    rax
  3fd81e:	1b 5b 30             	sbb    ebx,DWORD PTR [rbx+0x30]
  3fd821:	3b 31                	cmp    esi,DWORD PTR [rcx]
  3fd823:	3b 33                	cmp    esi,DWORD PTR [rbx]
  3fd825:	30 3b                	xor    BYTE PTR [rbx],bh
  3fd827:	34 37                	xor    al,0x37
  3fd829:	6d                   	ins    DWORD PTR es:[rdi],dx
  3fd82a:	40 1b 5b 30          	rex sbb ebx,DWORD PTR [rbx+0x30]
  3fd82e:	3b 31                	cmp    esi,DWORD PTR [rcx]
  3fd830:	3b 33                	cmp    esi,DWORD PTR [rbx]
  3fd832:	37                   	(bad)  
  3fd833:	3b 34 37             	cmp    esi,DWORD PTR [rdi+rsi*1]
  3fd836:	6d                   	ins    DWORD PTR es:[rdi],dx
  3fd837:	20 1b                	and    BYTE PTR [rbx],bl
  3fd839:	5b                   	pop    rbx
  3fd83a:	30 3b                	xor    BYTE PTR [rbx],bh
  3fd83c:	35 3b 33 33 3b       	xor    eax,0x3b33333b
  3fd841:	34 30                	xor    al,0x30
  3fd843:	6d                   	ins    DWORD PTR es:[rdi],dx
  3fd844:	53                   	push   rbx
  3fd845:	1b 5b 30             	sbb    ebx,DWORD PTR [rbx+0x30]
  3fd848:	3b 35 3b 33 31 3b    	cmp    esi,DWORD PTR [rip+0x3b31333b]        # 3b710b89 <_end+0x3b30cb51>
  3fd84e:	34 30                	xor    al,0x30
  3fd850:	6d                   	ins    DWORD PTR es:[rdi],dx
  3fd851:	38 40 40             	cmp    BYTE PTR [rax+0x40],al
  3fd854:	1b 5b 30             	sbb    ebx,DWORD PTR [rbx+0x30]
  3fd857:	3b 33                	cmp    esi,DWORD PTR [rbx]
  3fd859:	31 3b                	xor    DWORD PTR [rbx],edi
