
target.elf:     file format elf64-x86-64


Disassembly of section .init:

0000000000400460 <_init>:
  400460:	f3 0f 1e fa          	endbr64 
  400464:	48 83 ec 08          	sub    rsp,0x8
  400468:	48 8b 05 89 1b 00 00 	mov    rax,QWORD PTR [rip+0x1b89]        # 401ff8 <__gmon_start__>
  40046f:	48 85 c0             	test   rax,rax
  400472:	74 02                	je     400476 <_init+0x16>
  400474:	ff d0                	call   rax
  400476:	48 83 c4 08          	add    rsp,0x8
  40047a:	c3                   	ret    

Disassembly of section .plt:

0000000000400480 <.plt>:
  400480:	ff 35 82 1b 00 00    	push   QWORD PTR [rip+0x1b82]        # 402008 <_GLOBAL_OFFSET_TABLE_+0x8>
  400486:	f2 ff 25 83 1b 00 00 	bnd jmp QWORD PTR [rip+0x1b83]        # 402010 <_GLOBAL_OFFSET_TABLE_+0x10>
  40048d:	0f 1f 00             	nop    DWORD PTR [rax]
  400490:	f3 0f 1e fa          	endbr64 
  400494:	68 00 00 00 00       	push   0x0
  400499:	f2 e9 e1 ff ff ff    	bnd jmp 400480 <.plt>
  40049f:	90                   	nop

Disassembly of section .plt.sec:

00000000004004a0 <printf@plt>:
  4004a0:	f3 0f 1e fa          	endbr64 
  4004a4:	f2 ff 25 6d 1b 00 00 	bnd jmp QWORD PTR [rip+0x1b6d]        # 402018 <printf@GLIBC_2.2.5>
  4004ab:	0f 1f 44 00 00       	nop    DWORD PTR [rax+rax*1+0x0]

Disassembly of section .text:

00000000003f8040 <_start-0x8470>:
  3f8040:	f3 0f 1e fa          	endbr64 
  3f8044:	55                   	push   rbp
  3f8045:	48 89 e5             	mov    rbp,rsp
  3f8048:	54                   	push   rsp
  3f8049:	55                   	push   rbp
  3f804a:	50                   	push   rax
  3f804b:	53                   	push   rbx
  3f804c:	51                   	push   rcx
  3f804d:	52                   	push   rdx
  3f804e:	41 50                	push   r8
  3f8050:	41 51                	push   r9
  3f8052:	41 52                	push   r10
  3f8054:	41 53                	push   r11
  3f8056:	41 54                	push   r12
  3f8058:	41 55                	push   r13
  3f805a:	41 56                	push   r14
  3f805c:	41 57                	push   r15
  3f805e:	e8 79 1a 00 00       	call   3f9adc <_init-0x6984>
  3f8063:	41 5f                	pop    r15
  3f8065:	41 5e                	pop    r14
  3f8067:	41 5d                	pop    r13
  3f8069:	41 5c                	pop    r12
  3f806b:	41 5b                	pop    r11
  3f806d:	41 5a                	pop    r10
  3f806f:	41 59                	pop    r9
  3f8071:	41 58                	pop    r8
  3f8073:	5a                   	pop    rdx
  3f8074:	59                   	pop    rcx
  3f8075:	5b                   	pop    rbx
  3f8076:	58                   	pop    rax
  3f8077:	5d                   	pop    rbp
  3f8078:	5c                   	pop    rsp
  3f8079:	48 83 c4 08          	add    rsp,0x8
  3f807d:	e9 92 2a 00 00       	jmp    3fab14 <_init-0x594c>
  3f8082:	90                   	nop
  3f8083:	5d                   	pop    rbp
  3f8084:	c3                   	ret    
  3f8085:	f3 0f 1e fa          	endbr64 
  3f8089:	55                   	push   rbp
  3f808a:	48 89 e5             	mov    rbp,rsp
  3f808d:	48 81 ec 40 04 00 00 	sub    rsp,0x440
  3f8094:	48 89 bd c8 fb ff ff 	mov    QWORD PTR [rbp-0x438],rdi
  3f809b:	48 8b 85 c8 fb ff ff 	mov    rax,QWORD PTR [rbp-0x438]
  3f80a2:	48 89 45 f8          	mov    QWORD PTR [rbp-0x8],rax
  3f80a6:	c7 45 f4 00 00 00 00 	mov    DWORD PTR [rbp-0xc],0x0
  3f80ad:	c7 45 ec 05 00 00 00 	mov    DWORD PTR [rbp-0x14],0x5
  3f80b4:	48 8d 85 d0 fb ff ff 	lea    rax,[rbp-0x430]
  3f80bb:	be 00 00 00 00       	mov    esi,0x0
  3f80c0:	48 89 c7             	mov    rdi,rax
  3f80c3:	e8 c9 20 00 00       	call   3fa191 <_init-0x62cf>
  3f80c8:	48 8d 85 d0 fb ff ff 	lea    rax,[rbp-0x430]
  3f80cf:	48 83 c0 08          	add    rax,0x8
  3f80d3:	48 89 c7             	mov    rdi,rax
  3f80d6:	e8 c1 01 00 00       	call   3f829c <_init-0x81c4>
  3f80db:	99                   	cdq    
  3f80dc:	f7 7d ec             	idiv   DWORD PTR [rbp-0x14]
  3f80df:	89 d0                	mov    eax,edx
  3f80e1:	89 45 f0             	mov    DWORD PTR [rbp-0x10],eax
  3f80e4:	48 8d 85 e0 fb ff ff 	lea    rax,[rbp-0x420]
  3f80eb:	ba 00 04 00 00       	mov    edx,0x400
  3f80f0:	be 00 00 00 00       	mov    esi,0x0
  3f80f5:	48 89 c7             	mov    rdi,rax
  3f80f8:	e8 15 21 00 00       	call   3fa212 <_init-0x624e>
  3f80fd:	e9 e3 00 00 00       	jmp    3f81e5 <_init-0x827b>
  3f8102:	48 8b 45 f8          	mov    rax,QWORD PTR [rbp-0x8]
  3f8106:	0f b6 00             	movzx  eax,BYTE PTR [rax]
  3f8109:	0f be c0             	movsx  eax,al
  3f810c:	89 c7                	mov    edi,eax
  3f810e:	e8 87 28 00 00       	call   3fa99a <_init-0x5ac6>
  3f8113:	0f be c0             	movsx  eax,al
  3f8116:	83 e8 41             	sub    eax,0x41
  3f8119:	83 f8 13             	cmp    eax,0x13
  3f811c:	0f 87 a4 00 00 00    	ja     3f81c6 <_init-0x829a>
  3f8122:	89 c0                	mov    eax,eax
  3f8124:	48 8d 14 85 00 00 00 	lea    rdx,[rax*4+0x0]
  3f812b:	00 
  3f812c:	48 8d 05 31 2a 00 00 	lea    rax,[rip+0x2a31]        # 3fab64 <_init-0x58fc>
  3f8133:	8b 04 02             	mov    eax,DWORD PTR [rdx+rax*1]
  3f8136:	48 98                	cdqe   
  3f8138:	48 8d 15 25 2a 00 00 	lea    rdx,[rip+0x2a25]        # 3fab64 <_init-0x58fc>
  3f813f:	48 01 d0             	add    rax,rdx
  3f8142:	3e ff e0             	notrack jmp rax
  3f8145:	8b 45 f4             	mov    eax,DWORD PTR [rbp-0xc]
  3f8148:	8d 50 01             	lea    edx,[rax+0x1]
  3f814b:	89 55 f4             	mov    DWORD PTR [rbp-0xc],edx
  3f814e:	48 98                	cdqe   
  3f8150:	c6 84 05 e0 fb ff ff 	mov    BYTE PTR [rbp+rax*1-0x420],0x31
  3f8157:	31 
  3f8158:	e9 83 00 00 00       	jmp    3f81e0 <_init-0x8280>
  3f815d:	8b 45 f4             	mov    eax,DWORD PTR [rbp-0xc]
  3f8160:	8d 50 01             	lea    edx,[rax+0x1]
  3f8163:	89 55 f4             	mov    DWORD PTR [rbp-0xc],edx
  3f8166:	48 98                	cdqe   
  3f8168:	c6 84 05 e0 fb ff ff 	mov    BYTE PTR [rbp+rax*1-0x420],0x33
  3f816f:	33 
  3f8170:	eb 6e                	jmp    3f81e0 <_init-0x8280>
  3f8172:	8b 45 f4             	mov    eax,DWORD PTR [rbp-0xc]
  3f8175:	8d 50 01             	lea    edx,[rax+0x1]
  3f8178:	89 55 f4             	mov    DWORD PTR [rbp-0xc],edx
  3f817b:	48 98                	cdqe   
  3f817d:	c6 84 05 e0 fb ff ff 	mov    BYTE PTR [rbp+rax*1-0x420],0x35
  3f8184:	35 
  3f8185:	eb 59                	jmp    3f81e0 <_init-0x8280>
  3f8187:	8b 45 f4             	mov    eax,DWORD PTR [rbp-0xc]
  3f818a:	8d 50 01             	lea    edx,[rax+0x1]
  3f818d:	89 55 f4             	mov    DWORD PTR [rbp-0xc],edx
  3f8190:	48 98                	cdqe   
  3f8192:	c6 84 05 e0 fb ff ff 	mov    BYTE PTR [rbp+rax*1-0x420],0x37
  3f8199:	37 
  3f819a:	eb 44                	jmp    3f81e0 <_init-0x8280>
  3f819c:	8b 45 f4             	mov    eax,DWORD PTR [rbp-0xc]
  3f819f:	8d 50 01             	lea    edx,[rax+0x1]
  3f81a2:	89 55 f4             	mov    DWORD PTR [rbp-0xc],edx
  3f81a5:	48 98                	cdqe   
  3f81a7:	c6 84 05 e0 fb ff ff 	mov    BYTE PTR [rbp+rax*1-0x420],0x30
  3f81ae:	30 
  3f81af:	eb 2f                	jmp    3f81e0 <_init-0x8280>
  3f81b1:	8b 45 f4             	mov    eax,DWORD PTR [rbp-0xc]
  3f81b4:	8d 50 01             	lea    edx,[rax+0x1]
  3f81b7:	89 55 f4             	mov    DWORD PTR [rbp-0xc],edx
  3f81ba:	48 98                	cdqe   
  3f81bc:	c6 84 05 e0 fb ff ff 	mov    BYTE PTR [rbp+rax*1-0x420],0x34
  3f81c3:	34 
  3f81c4:	eb 1a                	jmp    3f81e0 <_init-0x8280>
  3f81c6:	8b 45 f4             	mov    eax,DWORD PTR [rbp-0xc]
  3f81c9:	8d 50 01             	lea    edx,[rax+0x1]
  3f81cc:	89 55 f4             	mov    DWORD PTR [rbp-0xc],edx
  3f81cf:	48 8b 55 f8          	mov    rdx,QWORD PTR [rbp-0x8]
  3f81d3:	0f b6 12             	movzx  edx,BYTE PTR [rdx]
  3f81d6:	48 98                	cdqe   
  3f81d8:	88 94 05 e0 fb ff ff 	mov    BYTE PTR [rbp+rax*1-0x420],dl
  3f81df:	90                   	nop
  3f81e0:	48 83 45 f8 01       	add    QWORD PTR [rbp-0x8],0x1
  3f81e5:	48 8b 45 f8          	mov    rax,QWORD PTR [rbp-0x8]
  3f81e9:	0f b6 00             	movzx  eax,BYTE PTR [rax]
  3f81ec:	84 c0                	test   al,al
  3f81ee:	74 0d                	je     3f81fd <_init-0x8263>
  3f81f0:	81 7d f4 ff 03 00 00 	cmp    DWORD PTR [rbp-0xc],0x3ff
  3f81f7:	0f 8e 05 ff ff ff    	jle    3f8102 <_init-0x835e>
  3f81fd:	48 8d 85 e0 fb ff ff 	lea    rax,[rbp-0x420]
  3f8204:	48 89 c7             	mov    rdi,rax
  3f8207:	e8 04 27 00 00       	call   3fa910 <_init-0x5b50>
  3f820c:	c9                   	leave  
  3f820d:	c3                   	ret    
  3f820e:	f3 0f 1e fa          	endbr64 
  3f8212:	55                   	push   rbp
  3f8213:	48 89 e5             	mov    rbp,rsp
  3f8216:	48 83 ec 10          	sub    rsp,0x10
  3f821a:	48 89 7d f8          	mov    QWORD PTR [rbp-0x8],rdi
  3f821e:	48 89 75 f0          	mov    QWORD PTR [rbp-0x10],rsi
  3f8222:	48 8b 45 f0          	mov    rax,QWORD PTR [rbp-0x10]
  3f8226:	48 8b 00             	mov    rax,QWORD PTR [rax]
  3f8229:	48 85 c0             	test   rax,rax
  3f822c:	75 46                	jne    3f8274 <_init-0x81ec>
  3f822e:	41 b9 00 00 00 00    	mov    r9d,0x0
  3f8234:	49 c7 c0 ff ff ff ff 	mov    r8,0xffffffffffffffff
  3f823b:	b9 22 00 00 00       	mov    ecx,0x22
  3f8240:	ba 03 00 00 00       	mov    edx,0x3
  3f8245:	be 00 00 20 00       	mov    esi,0x200000
  3f824a:	bf 00 00 00 00       	mov    edi,0x0
  3f824f:	e8 c0 1d 00 00       	call   3fa014 <_init-0x644c>
  3f8254:	48 8b 55 f0          	mov    rdx,QWORD PTR [rbp-0x10]
  3f8258:	48 89 02             	mov    QWORD PTR [rdx],rax
  3f825b:	48 8b 45 f0          	mov    rax,QWORD PTR [rbp-0x10]
  3f825f:	48 8b 00             	mov    rax,QWORD PTR [rax]
  3f8262:	48 83 f8 ff          	cmp    rax,0xffffffffffffffff
  3f8266:	75 0c                	jne    3f8274 <_init-0x81ec>
  3f8268:	48 c7 c7 ff ff ff ff 	mov    rdi,0xffffffffffffffff
  3f826f:	e8 e5 1b 00 00       	call   3f9e59 <_init-0x6607>
  3f8274:	48 8b 45 f0          	mov    rax,QWORD PTR [rbp-0x10]
  3f8278:	48 8b 00             	mov    rax,QWORD PTR [rax]
  3f827b:	48 8d 90 00 01 00 00 	lea    rdx,[rax+0x100]
  3f8282:	48 8b 45 f0          	mov    rax,QWORD PTR [rbp-0x10]
  3f8286:	48 89 10             	mov    QWORD PTR [rax],rdx
  3f8289:	48 8b 45 f0          	mov    rax,QWORD PTR [rbp-0x10]
  3f828d:	48 8b 00             	mov    rax,QWORD PTR [rax]
  3f8290:	48 8b 55 f8          	mov    rdx,QWORD PTR [rbp-0x8]
  3f8294:	48 f7 da             	neg    rdx
  3f8297:	48 01 d0             	add    rax,rdx
  3f829a:	c9                   	leave  
  3f829b:	c3                   	ret    
  3f829c:	55                   	push   rbp
  3f829d:	48 89 e5             	mov    rbp,rsp
  3f82a0:	48 89 7d f8          	mov    QWORD PTR [rbp-0x8],rdi
  3f82a4:	48 8b 45 f8          	mov    rax,QWORD PTR [rbp-0x8]
  3f82a8:	48 8b 00             	mov    rax,QWORD PTR [rax]
  3f82ab:	48 69 c0 6d 4e c6 41 	imul   rax,rax,0x41c64e6d
  3f82b2:	48 8d 90 39 30 00 00 	lea    rdx,[rax+0x3039]
  3f82b9:	48 8b 45 f8          	mov    rax,QWORD PTR [rbp-0x8]
  3f82bd:	48 89 10             	mov    QWORD PTR [rax],rdx
  3f82c0:	48 8b 45 f8          	mov    rax,QWORD PTR [rbp-0x8]
  3f82c4:	48 8b 00             	mov    rax,QWORD PTR [rax]
  3f82c7:	48 8d 90 ff ff 00 00 	lea    rdx,[rax+0xffff]
  3f82ce:	48 85 c0             	test   rax,rax
  3f82d1:	48 0f 48 c2          	cmovs  rax,rdx
  3f82d5:	48 c1 f8 10          	sar    rax,0x10
  3f82d9:	25 ff 7f 00 00       	and    eax,0x7fff
  3f82de:	5d                   	pop    rbp
  3f82df:	c3                   	ret    
  3f82e0:	f3 0f 1e fa          	endbr64 
  3f82e4:	55                   	push   rbp
  3f82e5:	48 89 e5             	mov    rbp,rsp
  3f82e8:	53                   	push   rbx
  3f82e9:	48 83 ec 38          	sub    rsp,0x38
  3f82ed:	48 89 7d d8          	mov    QWORD PTR [rbp-0x28],rdi
  3f82f1:	48 89 75 d0          	mov    QWORD PTR [rbp-0x30],rsi
  3f82f5:	48 89 55 c8          	mov    QWORD PTR [rbp-0x38],rdx
  3f82f9:	48 8b 45 d8          	mov    rax,QWORD PTR [rbp-0x28]
  3f82fd:	48 89 c7             	mov    rdi,rax
  3f8300:	e8 62 26 00 00       	call   3fa967 <_init-0x5af9>
  3f8305:	48 89 c3             	mov    rbx,rax
  3f8308:	48 8b 45 d0          	mov    rax,QWORD PTR [rbp-0x30]
  3f830c:	48 89 c7             	mov    rdi,rax
  3f830f:	e8 53 26 00 00       	call   3fa967 <_init-0x5af9>
  3f8314:	48 01 d8             	add    rax,rbx
  3f8317:	48 8d 50 02          	lea    rdx,[rax+0x2]
  3f831b:	48 8b 45 c8          	mov    rax,QWORD PTR [rbp-0x38]
  3f831f:	48 89 c6             	mov    rsi,rax
  3f8322:	48 89 d7             	mov    rdi,rdx
  3f8325:	e8 e4 fe ff ff       	call   3f820e <_init-0x8252>
  3f832a:	48 89 45 e8          	mov    QWORD PTR [rbp-0x18],rax
  3f832e:	48 8b 45 d8          	mov    rax,QWORD PTR [rbp-0x28]
  3f8332:	48 89 c7             	mov    rdi,rax
  3f8335:	e8 2d 26 00 00       	call   3fa967 <_init-0x5af9>
  3f833a:	89 c3                	mov    ebx,eax
  3f833c:	48 8b 45 d0          	mov    rax,QWORD PTR [rbp-0x30]
  3f8340:	48 89 c7             	mov    rdi,rax
  3f8343:	e8 1f 26 00 00       	call   3fa967 <_init-0x5af9>
  3f8348:	8d 14 03             	lea    edx,[rbx+rax*1]
  3f834b:	48 8b 45 e8          	mov    rax,QWORD PTR [rbp-0x18]
  3f834f:	be 00 00 00 00       	mov    esi,0x0
  3f8354:	48 89 c7             	mov    rdi,rax
  3f8357:	e8 b6 1e 00 00       	call   3fa212 <_init-0x624e>
  3f835c:	48 8b 45 d0          	mov    rax,QWORD PTR [rbp-0x30]
  3f8360:	48 89 c7             	mov    rdi,rax
  3f8363:	e8 ff 25 00 00       	call   3fa967 <_init-0x5af9>
  3f8368:	89 c2                	mov    edx,eax
  3f836a:	48 8b 4d d0          	mov    rcx,QWORD PTR [rbp-0x30]
  3f836e:	48 8b 45 e8          	mov    rax,QWORD PTR [rbp-0x18]
  3f8372:	48 89 ce             	mov    rsi,rcx
  3f8375:	48 89 c7             	mov    rdi,rax
  3f8378:	e8 42 1e 00 00       	call   3fa1bf <_init-0x62a1>
  3f837d:	48 8b 45 d0          	mov    rax,QWORD PTR [rbp-0x30]
  3f8381:	48 89 c7             	mov    rdi,rax
  3f8384:	e8 de 25 00 00       	call   3fa967 <_init-0x5af9>
  3f8389:	48 8b 55 e8          	mov    rdx,QWORD PTR [rbp-0x18]
  3f838d:	48 01 d0             	add    rax,rdx
  3f8390:	c6 00 2f             	mov    BYTE PTR [rax],0x2f
  3f8393:	48 8b 45 d8          	mov    rax,QWORD PTR [rbp-0x28]
  3f8397:	0f b6 00             	movzx  eax,BYTE PTR [rax]
  3f839a:	3c 2e                	cmp    al,0x2e
  3f839c:	75 14                	jne    3f83b2 <_init-0x80ae>
  3f839e:	48 8b 45 d8          	mov    rax,QWORD PTR [rbp-0x28]
  3f83a2:	48 83 c0 01          	add    rax,0x1
  3f83a6:	0f b6 00             	movzx  eax,BYTE PTR [rax]
  3f83a9:	3c 2f                	cmp    al,0x2f
  3f83ab:	75 05                	jne    3f83b2 <_init-0x80ae>
  3f83ad:	48 83 45 d8 02       	add    QWORD PTR [rbp-0x28],0x2
  3f83b2:	48 8b 45 d8          	mov    rax,QWORD PTR [rbp-0x28]
  3f83b6:	48 89 c7             	mov    rdi,rax
  3f83b9:	e8 a9 25 00 00       	call   3fa967 <_init-0x5af9>
  3f83be:	89 c3                	mov    ebx,eax
  3f83c0:	48 8b 45 d0          	mov    rax,QWORD PTR [rbp-0x30]
  3f83c4:	48 89 c7             	mov    rdi,rax
  3f83c7:	e8 9b 25 00 00       	call   3fa967 <_init-0x5af9>
  3f83cc:	48 8d 50 01          	lea    rdx,[rax+0x1]
  3f83d0:	48 8b 45 e8          	mov    rax,QWORD PTR [rbp-0x18]
  3f83d4:	48 8d 0c 02          	lea    rcx,[rdx+rax*1]
  3f83d8:	48 8b 45 d8          	mov    rax,QWORD PTR [rbp-0x28]
  3f83dc:	89 da                	mov    edx,ebx
  3f83de:	48 89 c6             	mov    rsi,rax
  3f83e1:	48 89 cf             	mov    rdi,rcx
  3f83e4:	e8 d6 1d 00 00       	call   3fa1bf <_init-0x62a1>
  3f83e9:	48 8b 45 e8          	mov    rax,QWORD PTR [rbp-0x18]
  3f83ed:	48 83 c4 38          	add    rsp,0x38
  3f83f1:	5b                   	pop    rbx
  3f83f2:	5d                   	pop    rbp
  3f83f3:	c3                   	ret    
  3f83f4:	f3 0f 1e fa          	endbr64 
  3f83f8:	55                   	push   rbp
  3f83f9:	48 89 e5             	mov    rbp,rsp
  3f83fc:	48 81 ec 30 01 00 00 	sub    rsp,0x130
  3f8403:	48 89 bd f8 fe ff ff 	mov    QWORD PTR [rbp-0x108],rdi
  3f840a:	48 89 b5 f0 fe ff ff 	mov    QWORD PTR [rbp-0x110],rsi
  3f8411:	48 89 95 e8 fe ff ff 	mov    QWORD PTR [rbp-0x118],rdx
  3f8418:	48 89 8d e0 fe ff ff 	mov    QWORD PTR [rbp-0x120],rcx
  3f841f:	4c 89 85 d8 fe ff ff 	mov    QWORD PTR [rbp-0x128],r8
  3f8426:	c7 45 fc 00 00 00 00 	mov    DWORD PTR [rbp-0x4],0x0
  3f842d:	c7 45 f8 40 00 00 00 	mov    DWORD PTR [rbp-0x8],0x40
  3f8434:	48 8b 85 e8 fe ff ff 	mov    rax,QWORD PTR [rbp-0x118]
  3f843b:	48 8b 40 50          	mov    rax,QWORD PTR [rax+0x50]
  3f843f:	48 89 45 f0          	mov    QWORD PTR [rbp-0x10],rax
  3f8443:	48 8b 85 e0 fe ff ff 	mov    rax,QWORD PTR [rbp-0x120]
  3f844a:	48 8b 40 50          	mov    rax,QWORD PTR [rax+0x50]
  3f844e:	48 89 45 e8          	mov    QWORD PTR [rbp-0x18],rax
  3f8452:	48 8b 85 e8 fe ff ff 	mov    rax,QWORD PTR [rbp-0x118]
  3f8459:	48 8b 40 60          	mov    rax,QWORD PTR [rax+0x60]
  3f845d:	48 89 45 e0          	mov    QWORD PTR [rbp-0x20],rax
  3f8461:	48 8b 85 e8 fe ff ff 	mov    rax,QWORD PTR [rbp-0x118]
  3f8468:	48 8d 48 68          	lea    rcx,[rax+0x68]
  3f846c:	48 8d 85 10 ff ff ff 	lea    rax,[rbp-0xf0]
  3f8473:	ba 90 00 00 00       	mov    edx,0x90
  3f8478:	48 89 ce             	mov    rsi,rcx
  3f847b:	48 89 c7             	mov    rdi,rax
  3f847e:	e8 3c 1d 00 00       	call   3fa1bf <_init-0x62a1>
  3f8483:	8b 85 28 ff ff ff    	mov    eax,DWORD PTR [rbp-0xd8]
  3f8489:	89 c0                	mov    eax,eax
  3f848b:	48 89 c2             	mov    rdx,rax
  3f848e:	be 41 02 00 00       	mov    esi,0x241
  3f8493:	48 8d 3d 1a 27 00 00 	lea    rdi,[rip+0x271a]        # 3fabb4 <_init-0x58ac>
  3f849a:	e8 d9 19 00 00       	call   3f9e78 <_init-0x65e8>
  3f849f:	89 45 dc             	mov    DWORD PTR [rbp-0x24],eax
  3f84a2:	83 7d dc ff          	cmp    DWORD PTR [rbp-0x24],0xffffffff
  3f84a6:	75 0a                	jne    3f84b2 <_init-0x7fae>
  3f84a8:	b8 ff ff ff ff       	mov    eax,0xffffffff
  3f84ad:	e9 de 01 00 00       	jmp    3f8690 <_init-0x7dd0>
  3f84b2:	8b 45 f8             	mov    eax,DWORD PTR [rbp-0x8]
  3f84b5:	48 63 d0             	movsxd rdx,eax
  3f84b8:	8b 45 dc             	mov    eax,DWORD PTR [rbp-0x24]
  3f84bb:	48 98                	cdqe   
  3f84bd:	48 8b 4d f0          	mov    rcx,QWORD PTR [rbp-0x10]
  3f84c1:	48 89 ce             	mov    rsi,rcx
  3f84c4:	48 89 c7             	mov    rdi,rax
  3f84c7:	e8 36 1a 00 00       	call   3f9f02 <_init-0x655e>
  3f84cc:	89 45 d8             	mov    DWORD PTR [rbp-0x28],eax
  3f84cf:	8b 45 f8             	mov    eax,DWORD PTR [rbp-0x8]
  3f84d2:	39 45 d8             	cmp    DWORD PTR [rbp-0x28],eax
  3f84d5:	74 0a                	je     3f84e1 <_init-0x7f7f>
  3f84d7:	b8 ff ff ff ff       	mov    eax,0xffffffff
  3f84dc:	e9 af 01 00 00       	jmp    3f8690 <_init-0x7dd0>
  3f84e1:	e8 13 26 00 00       	call   3faaf9 <_init-0x5967>
  3f84e6:	48 c7 c2 62 2c 40 00 	mov    rdx,0x402c62
  3f84ed:	48 89 d1             	mov    rcx,rdx
  3f84f0:	48 c7 c2 70 2c 40 00 	mov    rdx,0x402c70
  3f84f7:	48 29 d1             	sub    rcx,rdx
  3f84fa:	48 89 ca             	mov    rdx,rcx
  3f84fd:	48 29 d0             	sub    rax,rdx
  3f8500:	48 89 45 d0          	mov    QWORD PTR [rbp-0x30],rax
  3f8504:	e8 f0 25 00 00       	call   3faaf9 <_init-0x5967>
  3f8509:	48 c7 c2 62 2c 40 00 	mov    rdx,0x402c62
  3f8510:	48 89 d1             	mov    rcx,rdx
  3f8513:	48 c7 c2 85 2c 40 00 	mov    rdx,0x402c85
  3f851a:	48 29 d1             	sub    rcx,rdx
  3f851d:	48 89 ca             	mov    rdx,rcx
  3f8520:	48 29 d0             	sub    rax,rdx
  3f8523:	48 89 45 c8          	mov    QWORD PTR [rbp-0x38],rax
  3f8527:	48 8b 45 c8          	mov    rax,QWORD PTR [rbp-0x38]
  3f852b:	48 2b 45 d0          	sub    rax,QWORD PTR [rbp-0x30]
  3f852f:	89 45 c4             	mov    DWORD PTR [rbp-0x3c],eax
  3f8532:	e8 c2 25 00 00       	call   3faaf9 <_init-0x5967>
  3f8537:	48 c7 c2 62 2c 40 00 	mov    rdx,0x402c62
  3f853e:	48 89 d1             	mov    rcx,rdx
  3f8541:	48 c7 c2 70 2c 40 00 	mov    rdx,0x402c70
  3f8548:	48 29 d1             	sub    rcx,rdx
  3f854b:	48 89 ca             	mov    rdx,rcx
  3f854e:	48 29 d0             	sub    rax,rdx
  3f8551:	48 89 45 b8          	mov    QWORD PTR [rbp-0x48],rax
  3f8555:	c7 85 0a ff ff ff 68 	mov    DWORD PTR [rbp-0xf6],0x68
  3f855c:	00 00 00 
  3f855f:	66 c7 85 0e ff ff ff 	mov    WORD PTR [rbp-0xf2],0xc300
  3f8566:	00 c3 
  3f8568:	48 8d 85 0a ff ff ff 	lea    rax,[rbp-0xf6]
  3f856f:	48 83 c0 01          	add    rax,0x1
  3f8573:	48 8b 95 d8 fe ff ff 	mov    rdx,QWORD PTR [rbp-0x128]
  3f857a:	89 10                	mov    DWORD PTR [rax],edx
  3f857c:	48 8b 85 e0 fe ff ff 	mov    rax,QWORD PTR [rbp-0x120]
  3f8583:	48 8b 40 58          	mov    rax,QWORD PTR [rax+0x58]
  3f8587:	48 2d 50 46 00 00    	sub    rax,0x4650
  3f858d:	48 89 45 b0          	mov    QWORD PTR [rbp-0x50],rax
  3f8591:	8b 45 c4             	mov    eax,DWORD PTR [rbp-0x3c]
  3f8594:	48 98                	cdqe   
  3f8596:	48 29 45 b0          	sub    QWORD PTR [rbp-0x50],rax
  3f859a:	8b 45 dc             	mov    eax,DWORD PTR [rbp-0x24]
  3f859d:	48 98                	cdqe   
  3f859f:	48 8b 55 b0          	mov    rdx,QWORD PTR [rbp-0x50]
  3f85a3:	48 8b 4d e8          	mov    rcx,QWORD PTR [rbp-0x18]
  3f85a7:	48 89 ce             	mov    rsi,rcx
  3f85aa:	48 89 c7             	mov    rdi,rax
  3f85ad:	e8 50 19 00 00       	call   3f9f02 <_init-0x655e>
  3f85b2:	89 45 d8             	mov    DWORD PTR [rbp-0x28],eax
  3f85b5:	8b 45 d8             	mov    eax,DWORD PTR [rbp-0x28]
  3f85b8:	48 39 45 b0          	cmp    QWORD PTR [rbp-0x50],rax
  3f85bc:	74 0a                	je     3f85c8 <_init-0x7e98>
  3f85be:	b8 ff ff ff ff       	mov    eax,0xffffffff
  3f85c3:	e9 c8 00 00 00       	jmp    3f8690 <_init-0x7dd0>
  3f85c8:	8b 45 dc             	mov    eax,DWORD PTR [rbp-0x24]
  3f85cb:	48 98                	cdqe   
  3f85cd:	48 8d 8d 0a ff ff ff 	lea    rcx,[rbp-0xf6]
  3f85d4:	ba 06 00 00 00       	mov    edx,0x6
  3f85d9:	48 89 ce             	mov    rsi,rcx
  3f85dc:	48 89 c7             	mov    rdi,rax
  3f85df:	e8 1e 19 00 00       	call   3f9f02 <_init-0x655e>
  3f85e4:	8b 45 c4             	mov    eax,DWORD PTR [rbp-0x3c]
  3f85e7:	48 98                	cdqe   
  3f85e9:	48 8d 90 4a 46 00 00 	lea    rdx,[rax+0x464a]
  3f85f0:	48 8b 45 b0          	mov    rax,QWORD PTR [rbp-0x50]
  3f85f4:	48 8d 48 06          	lea    rcx,[rax+0x6]
  3f85f8:	48 8b 45 e8          	mov    rax,QWORD PTR [rbp-0x18]
  3f85fc:	48 01 c1             	add    rcx,rax
  3f85ff:	8b 45 dc             	mov    eax,DWORD PTR [rbp-0x24]
  3f8602:	48 98                	cdqe   
  3f8604:	48 89 ce             	mov    rsi,rcx
  3f8607:	48 89 c7             	mov    rdi,rax
  3f860a:	e8 f3 18 00 00       	call   3f9f02 <_init-0x655e>
  3f860f:	48 8b 85 f0 fe ff ff 	mov    rax,QWORD PTR [rbp-0x110]
  3f8616:	83 c0 40             	add    eax,0x40
  3f8619:	89 45 ac             	mov    DWORD PTR [rbp-0x54],eax
  3f861c:	8b 4d ac             	mov    ecx,DWORD PTR [rbp-0x54]
  3f861f:	8b 45 dc             	mov    eax,DWORD PTR [rbp-0x24]
  3f8622:	48 98                	cdqe   
  3f8624:	ba 00 00 00 00       	mov    edx,0x0
  3f8629:	48 89 ce             	mov    rsi,rcx
  3f862c:	48 89 c7             	mov    rdi,rax
  3f862f:	e8 86 19 00 00       	call   3f9fba <_init-0x64a6>
  3f8634:	89 45 d8             	mov    DWORD PTR [rbp-0x28],eax
  3f8637:	8b 45 d8             	mov    eax,DWORD PTR [rbp-0x28]
  3f863a:	3b 45 ac             	cmp    eax,DWORD PTR [rbp-0x54]
  3f863d:	74 07                	je     3f8646 <_init-0x7e1a>
  3f863f:	b8 ff ff ff ff       	mov    eax,0xffffffff
  3f8644:	eb 4a                	jmp    3f8690 <_init-0x7dd0>
  3f8646:	48 83 45 f0 40       	add    QWORD PTR [rbp-0x10],0x40
  3f864b:	48 8b 85 40 ff ff ff 	mov    rax,QWORD PTR [rbp-0xc0]
  3f8652:	83 e8 40             	sub    eax,0x40
  3f8655:	89 45 a8             	mov    DWORD PTR [rbp-0x58],eax
  3f8658:	8b 55 a8             	mov    edx,DWORD PTR [rbp-0x58]
  3f865b:	8b 45 dc             	mov    eax,DWORD PTR [rbp-0x24]
  3f865e:	48 98                	cdqe   
  3f8660:	48 8b 4d f0          	mov    rcx,QWORD PTR [rbp-0x10]
  3f8664:	48 89 ce             	mov    rsi,rcx
  3f8667:	48 89 c7             	mov    rdi,rax
  3f866a:	e8 93 18 00 00       	call   3f9f02 <_init-0x655e>
  3f866f:	89 45 d8             	mov    DWORD PTR [rbp-0x28],eax
  3f8672:	8b 45 d8             	mov    eax,DWORD PTR [rbp-0x28]
  3f8675:	3b 45 a8             	cmp    eax,DWORD PTR [rbp-0x58]
  3f8678:	74 07                	je     3f8681 <_init-0x7ddf>
  3f867a:	b8 ff ff ff ff       	mov    eax,0xffffffff
  3f867f:	eb 0f                	jmp    3f8690 <_init-0x7dd0>
  3f8681:	8b 45 dc             	mov    eax,DWORD PTR [rbp-0x24]
  3f8684:	89 c7                	mov    edi,eax
  3f8686:	e8 23 18 00 00       	call   3f9eae <_init-0x65b2>
  3f868b:	b8 00 00 00 00       	mov    eax,0x0
  3f8690:	c9                   	leave  
  3f8691:	c3                   	ret    
  3f8692:	f3 0f 1e fa          	endbr64 
  3f8696:	55                   	push   rbp
  3f8697:	48 89 e5             	mov    rbp,rsp
  3f869a:	48 81 ec 00 01 00 00 	sub    rsp,0x100
  3f86a1:	48 89 bd 08 ff ff ff 	mov    QWORD PTR [rbp-0xf8],rdi
  3f86a8:	48 89 b5 00 ff ff ff 	mov    QWORD PTR [rbp-0x100],rsi
  3f86af:	c7 45 fc 00 00 00 00 	mov    DWORD PTR [rbp-0x4],0x0
  3f86b6:	48 8b 85 00 ff ff ff 	mov    rax,QWORD PTR [rbp-0x100]
  3f86bd:	48 8b 40 60          	mov    rax,QWORD PTR [rax+0x60]
  3f86c1:	48 89 45 e0          	mov    QWORD PTR [rbp-0x20],rax
  3f86c5:	48 8b 85 08 ff ff ff 	mov    rax,QWORD PTR [rbp-0xf8]
  3f86cc:	48 8b 40 58          	mov    rax,QWORD PTR [rax+0x58]
  3f86d0:	48 89 45 d8          	mov    QWORD PTR [rbp-0x28],rax
  3f86d4:	48 8b 45 d8          	mov    rax,QWORD PTR [rbp-0x28]
  3f86d8:	48 25 00 f0 ff ff    	and    rax,0xfffffffffffff000
  3f86de:	48 05 00 10 00 00    	add    rax,0x1000
  3f86e4:	48 89 45 d0          	mov    QWORD PTR [rbp-0x30],rax
  3f86e8:	48 8b 85 00 ff ff ff 	mov    rax,QWORD PTR [rbp-0x100]
  3f86ef:	48 8b 40 50          	mov    rax,QWORD PTR [rax+0x50]
  3f86f3:	48 89 45 c8          	mov    QWORD PTR [rbp-0x38],rax
  3f86f7:	48 8b 45 c8          	mov    rax,QWORD PTR [rbp-0x38]
  3f86fb:	48 83 c0 09          	add    rax,0x9
  3f86ff:	c7 00 25 5d 01 00    	mov    DWORD PTR [rax],0x15d25
  3f8705:	48 8b 85 00 ff ff ff 	mov    rax,QWORD PTR [rbp-0x100]
  3f870c:	48 8b 00             	mov    rax,QWORD PTR [rax]
  3f870f:	48 89 45 c0          	mov    QWORD PTR [rbp-0x40],rax
  3f8713:	48 8b 85 00 ff ff ff 	mov    rax,QWORD PTR [rbp-0x100]
  3f871a:	48 8b 40 08          	mov    rax,QWORD PTR [rax+0x8]
  3f871e:	48 89 45 b8          	mov    QWORD PTR [rbp-0x48],rax
  3f8722:	48 8b 85 00 ff ff ff 	mov    rax,QWORD PTR [rbp-0x100]
  3f8729:	48 8b 40 10          	mov    rax,QWORD PTR [rax+0x10]
  3f872d:	48 89 45 b0          	mov    QWORD PTR [rbp-0x50],rax
  3f8731:	48 8b 45 c0          	mov    rax,QWORD PTR [rbp-0x40]
  3f8735:	48 8b 40 18          	mov    rax,QWORD PTR [rax+0x18]
  3f8739:	48 89 45 a8          	mov    QWORD PTR [rbp-0x58],rax
  3f873d:	48 8b 45 b8          	mov    rax,QWORD PTR [rbp-0x48]
  3f8741:	48 8b 50 08          	mov    rdx,QWORD PTR [rax+0x8]
  3f8745:	48 8b 45 d0          	mov    rax,QWORD PTR [rbp-0x30]
  3f8749:	48 01 c2             	add    rdx,rax
  3f874c:	48 8b 45 b8          	mov    rax,QWORD PTR [rbp-0x48]
  3f8750:	48 89 50 08          	mov    QWORD PTR [rax+0x8],rdx
  3f8754:	48 8b 45 b8          	mov    rax,QWORD PTR [rbp-0x48]
  3f8758:	48 83 c0 38          	add    rax,0x38
  3f875c:	48 8b 48 08          	mov    rcx,QWORD PTR [rax+0x8]
  3f8760:	48 8b 45 b8          	mov    rax,QWORD PTR [rbp-0x48]
  3f8764:	48 83 c0 38          	add    rax,0x38
  3f8768:	48 8b 55 d0          	mov    rdx,QWORD PTR [rbp-0x30]
  3f876c:	48 01 ca             	add    rdx,rcx
  3f876f:	48 89 50 08          	mov    QWORD PTR [rax+0x8],rdx
  3f8773:	c7 45 f8 00 00 00 00 	mov    DWORD PTR [rbp-0x8],0x0
  3f877a:	e9 ec 02 00 00       	jmp    3f8a6b <_init-0x79f5>
  3f877f:	83 7d fc 00          	cmp    DWORD PTR [rbp-0x4],0x0
  3f8783:	74 4b                	je     3f87d0 <_init-0x7c90>
  3f8785:	8b 45 f8             	mov    eax,DWORD PTR [rbp-0x8]
  3f8788:	48 63 d0             	movsxd rdx,eax
  3f878b:	48 89 d0             	mov    rax,rdx
  3f878e:	48 c1 e0 03          	shl    rax,0x3
  3f8792:	48 29 d0             	sub    rax,rdx
  3f8795:	48 c1 e0 03          	shl    rax,0x3
  3f8799:	48 89 c2             	mov    rdx,rax
  3f879c:	48 8b 45 b8          	mov    rax,QWORD PTR [rbp-0x48]
  3f87a0:	48 01 d0             	add    rax,rdx
  3f87a3:	48 8b 48 08          	mov    rcx,QWORD PTR [rax+0x8]
  3f87a7:	8b 45 f8             	mov    eax,DWORD PTR [rbp-0x8]
  3f87aa:	48 63 d0             	movsxd rdx,eax
  3f87ad:	48 89 d0             	mov    rax,rdx
  3f87b0:	48 c1 e0 03          	shl    rax,0x3
  3f87b4:	48 29 d0             	sub    rax,rdx
  3f87b7:	48 c1 e0 03          	shl    rax,0x3
  3f87bb:	48 89 c2             	mov    rdx,rax
  3f87be:	48 8b 45 b8          	mov    rax,QWORD PTR [rbp-0x48]
  3f87c2:	48 01 d0             	add    rax,rdx
  3f87c5:	48 8b 55 d0          	mov    rdx,QWORD PTR [rbp-0x30]
  3f87c9:	48 01 ca             	add    rdx,rcx
  3f87cc:	48 89 50 08          	mov    QWORD PTR [rax+0x8],rdx
  3f87d0:	8b 45 f8             	mov    eax,DWORD PTR [rbp-0x8]
  3f87d3:	48 63 d0             	movsxd rdx,eax
  3f87d6:	48 89 d0             	mov    rax,rdx
  3f87d9:	48 c1 e0 03          	shl    rax,0x3
  3f87dd:	48 29 d0             	sub    rax,rdx
  3f87e0:	48 c1 e0 03          	shl    rax,0x3
  3f87e4:	48 89 c2             	mov    rdx,rax
  3f87e7:	48 8b 45 b8          	mov    rax,QWORD PTR [rbp-0x48]
  3f87eb:	48 01 d0             	add    rax,rdx
  3f87ee:	8b 00                	mov    eax,DWORD PTR [rax]
  3f87f0:	83 f8 01             	cmp    eax,0x1
  3f87f3:	0f 85 d4 01 00 00    	jne    3f89cd <_init-0x7a93>
  3f87f9:	8b 45 f8             	mov    eax,DWORD PTR [rbp-0x8]
  3f87fc:	48 63 d0             	movsxd rdx,eax
  3f87ff:	48 89 d0             	mov    rax,rdx
  3f8802:	48 c1 e0 03          	shl    rax,0x3
  3f8806:	48 29 d0             	sub    rax,rdx
  3f8809:	48 c1 e0 03          	shl    rax,0x3
  3f880d:	48 89 c2             	mov    rdx,rax
  3f8810:	48 8b 45 b8          	mov    rax,QWORD PTR [rbp-0x48]
  3f8814:	48 01 d0             	add    rax,rdx
  3f8817:	8b 40 04             	mov    eax,DWORD PTR [rax+0x4]
  3f881a:	83 f8 05             	cmp    eax,0x5
  3f881d:	0f 85 aa 01 00 00    	jne    3f89cd <_init-0x7a93>
  3f8823:	8b 45 f8             	mov    eax,DWORD PTR [rbp-0x8]
  3f8826:	48 63 d0             	movsxd rdx,eax
  3f8829:	48 89 d0             	mov    rax,rdx
  3f882c:	48 c1 e0 03          	shl    rax,0x3
  3f8830:	48 29 d0             	sub    rax,rdx
  3f8833:	48 c1 e0 03          	shl    rax,0x3
  3f8837:	48 89 c2             	mov    rdx,rax
  3f883a:	48 8b 45 b8          	mov    rax,QWORD PTR [rbp-0x48]
  3f883e:	48 01 d0             	add    rax,rdx
  3f8841:	48 8b 40 10          	mov    rax,QWORD PTR [rax+0x10]
  3f8845:	48 89 45 f0          	mov    QWORD PTR [rbp-0x10],rax
  3f8849:	8b 45 f8             	mov    eax,DWORD PTR [rbp-0x8]
  3f884c:	48 63 d0             	movsxd rdx,eax
  3f884f:	48 89 d0             	mov    rax,rdx
  3f8852:	48 c1 e0 03          	shl    rax,0x3
  3f8856:	48 29 d0             	sub    rax,rdx
  3f8859:	48 c1 e0 03          	shl    rax,0x3
  3f885d:	48 89 c2             	mov    rdx,rax
  3f8860:	48 8b 45 b8          	mov    rax,QWORD PTR [rbp-0x48]
  3f8864:	48 01 d0             	add    rax,rdx
  3f8867:	48 8b 48 10          	mov    rcx,QWORD PTR [rax+0x10]
  3f886b:	8b 45 f8             	mov    eax,DWORD PTR [rbp-0x8]
  3f886e:	48 63 d0             	movsxd rdx,eax
  3f8871:	48 89 d0             	mov    rax,rdx
  3f8874:	48 c1 e0 03          	shl    rax,0x3
  3f8878:	48 29 d0             	sub    rax,rdx
  3f887b:	48 c1 e0 03          	shl    rax,0x3
  3f887f:	48 89 c2             	mov    rdx,rax
  3f8882:	48 8b 45 b8          	mov    rax,QWORD PTR [rbp-0x48]
  3f8886:	48 01 c2             	add    rdx,rax
  3f8889:	48 89 c8             	mov    rax,rcx
  3f888c:	48 2b 45 d0          	sub    rax,QWORD PTR [rbp-0x30]
  3f8890:	48 89 42 10          	mov    QWORD PTR [rdx+0x10],rax
  3f8894:	8b 45 f8             	mov    eax,DWORD PTR [rbp-0x8]
  3f8897:	48 63 d0             	movsxd rdx,eax
  3f889a:	48 89 d0             	mov    rax,rdx
  3f889d:	48 c1 e0 03          	shl    rax,0x3
  3f88a1:	48 29 d0             	sub    rax,rdx
  3f88a4:	48 c1 e0 03          	shl    rax,0x3
  3f88a8:	48 89 c2             	mov    rdx,rax
  3f88ab:	48 8b 45 b8          	mov    rax,QWORD PTR [rbp-0x48]
  3f88af:	48 01 d0             	add    rax,rdx
  3f88b2:	48 8b 48 18          	mov    rcx,QWORD PTR [rax+0x18]
  3f88b6:	8b 45 f8             	mov    eax,DWORD PTR [rbp-0x8]
  3f88b9:	48 63 d0             	movsxd rdx,eax
  3f88bc:	48 89 d0             	mov    rax,rdx
  3f88bf:	48 c1 e0 03          	shl    rax,0x3
  3f88c3:	48 29 d0             	sub    rax,rdx
  3f88c6:	48 c1 e0 03          	shl    rax,0x3
  3f88ca:	48 89 c2             	mov    rdx,rax
  3f88cd:	48 8b 45 b8          	mov    rax,QWORD PTR [rbp-0x48]
  3f88d1:	48 01 c2             	add    rdx,rax
  3f88d4:	48 89 c8             	mov    rax,rcx
  3f88d7:	48 2b 45 d0          	sub    rax,QWORD PTR [rbp-0x30]
  3f88db:	48 89 42 18          	mov    QWORD PTR [rdx+0x18],rax
  3f88df:	8b 45 f8             	mov    eax,DWORD PTR [rbp-0x8]
  3f88e2:	48 63 d0             	movsxd rdx,eax
  3f88e5:	48 89 d0             	mov    rax,rdx
  3f88e8:	48 c1 e0 03          	shl    rax,0x3
  3f88ec:	48 29 d0             	sub    rax,rdx
  3f88ef:	48 c1 e0 03          	shl    rax,0x3
  3f88f3:	48 89 c2             	mov    rdx,rax
  3f88f6:	48 8b 45 b8          	mov    rax,QWORD PTR [rbp-0x48]
  3f88fa:	48 01 d0             	add    rax,rdx
  3f88fd:	48 8b 48 20          	mov    rcx,QWORD PTR [rax+0x20]
  3f8901:	8b 45 f8             	mov    eax,DWORD PTR [rbp-0x8]
  3f8904:	48 63 d0             	movsxd rdx,eax
  3f8907:	48 89 d0             	mov    rax,rdx
  3f890a:	48 c1 e0 03          	shl    rax,0x3
  3f890e:	48 29 d0             	sub    rax,rdx
  3f8911:	48 c1 e0 03          	shl    rax,0x3
  3f8915:	48 89 c2             	mov    rdx,rax
  3f8918:	48 8b 45 b8          	mov    rax,QWORD PTR [rbp-0x48]
  3f891c:	48 01 d0             	add    rax,rdx
  3f891f:	48 8b 55 d0          	mov    rdx,QWORD PTR [rbp-0x30]
  3f8923:	48 01 ca             	add    rdx,rcx
  3f8926:	48 89 50 20          	mov    QWORD PTR [rax+0x20],rdx
  3f892a:	8b 45 f8             	mov    eax,DWORD PTR [rbp-0x8]
  3f892d:	48 63 d0             	movsxd rdx,eax
  3f8930:	48 89 d0             	mov    rax,rdx
  3f8933:	48 c1 e0 03          	shl    rax,0x3
  3f8937:	48 29 d0             	sub    rax,rdx
  3f893a:	48 c1 e0 03          	shl    rax,0x3
  3f893e:	48 89 c2             	mov    rdx,rax
  3f8941:	48 8b 45 b8          	mov    rax,QWORD PTR [rbp-0x48]
  3f8945:	48 01 d0             	add    rax,rdx
  3f8948:	48 8b 48 28          	mov    rcx,QWORD PTR [rax+0x28]
  3f894c:	8b 45 f8             	mov    eax,DWORD PTR [rbp-0x8]
  3f894f:	48 63 d0             	movsxd rdx,eax
  3f8952:	48 89 d0             	mov    rax,rdx
  3f8955:	48 c1 e0 03          	shl    rax,0x3
  3f8959:	48 29 d0             	sub    rax,rdx
  3f895c:	48 c1 e0 03          	shl    rax,0x3
  3f8960:	48 89 c2             	mov    rdx,rax
  3f8963:	48 8b 45 b8          	mov    rax,QWORD PTR [rbp-0x48]
  3f8967:	48 01 d0             	add    rax,rdx
  3f896a:	48 8b 55 d0          	mov    rdx,QWORD PTR [rbp-0x30]
  3f896e:	48 01 ca             	add    rdx,rcx
  3f8971:	48 89 50 28          	mov    QWORD PTR [rax+0x28],rdx
  3f8975:	8b 45 f8             	mov    eax,DWORD PTR [rbp-0x8]
  3f8978:	48 63 d0             	movsxd rdx,eax
  3f897b:	48 89 d0             	mov    rax,rdx
  3f897e:	48 c1 e0 03          	shl    rax,0x3
  3f8982:	48 29 d0             	sub    rax,rdx
  3f8985:	48 c1 e0 03          	shl    rax,0x3
  3f8989:	48 89 c2             	mov    rdx,rax
  3f898c:	48 8b 45 b8          	mov    rax,QWORD PTR [rbp-0x48]
  3f8990:	48 01 d0             	add    rax,rdx
  3f8993:	48 c7 40 30 00 10 00 	mov    QWORD PTR [rax+0x30],0x1000
  3f899a:	00 
  3f899b:	8b 45 f8             	mov    eax,DWORD PTR [rbp-0x8]
  3f899e:	48 63 d0             	movsxd rdx,eax
  3f89a1:	48 89 d0             	mov    rax,rdx
  3f89a4:	48 c1 e0 03          	shl    rax,0x3
  3f89a8:	48 29 d0             	sub    rax,rdx
  3f89ab:	48 c1 e0 03          	shl    rax,0x3
  3f89af:	48 89 c2             	mov    rdx,rax
  3f89b2:	48 8b 45 b8          	mov    rax,QWORD PTR [rbp-0x48]
  3f89b6:	48 01 d0             	add    rax,rdx
  3f89b9:	48 8b 40 10          	mov    rax,QWORD PTR [rax+0x10]
  3f89bd:	48 89 45 e8          	mov    QWORD PTR [rbp-0x18],rax
  3f89c1:	c7 45 fc 01 00 00 00 	mov    DWORD PTR [rbp-0x4],0x1
  3f89c8:	e9 9a 00 00 00       	jmp    3f8a67 <_init-0x79f9>
  3f89cd:	8b 45 f8             	mov    eax,DWORD PTR [rbp-0x8]
  3f89d0:	48 63 d0             	movsxd rdx,eax
  3f89d3:	48 89 d0             	mov    rax,rdx
  3f89d6:	48 c1 e0 03          	shl    rax,0x3
  3f89da:	48 29 d0             	sub    rax,rdx
  3f89dd:	48 c1 e0 03          	shl    rax,0x3
  3f89e1:	48 89 c2             	mov    rdx,rax
  3f89e4:	48 8b 45 b8          	mov    rax,QWORD PTR [rbp-0x48]
  3f89e8:	48 01 d0             	add    rax,rdx
  3f89eb:	8b 00                	mov    eax,DWORD PTR [rax]
  3f89ed:	83 f8 01             	cmp    eax,0x1
  3f89f0:	75 75                	jne    3f8a67 <_init-0x79f9>
  3f89f2:	8b 45 f8             	mov    eax,DWORD PTR [rbp-0x8]
  3f89f5:	48 63 d0             	movsxd rdx,eax
  3f89f8:	48 89 d0             	mov    rax,rdx
  3f89fb:	48 c1 e0 03          	shl    rax,0x3
  3f89ff:	48 29 d0             	sub    rax,rdx
  3f8a02:	48 c1 e0 03          	shl    rax,0x3
  3f8a06:	48 89 c2             	mov    rdx,rax
  3f8a09:	48 8b 45 b8          	mov    rax,QWORD PTR [rbp-0x48]
  3f8a0d:	48 01 d0             	add    rax,rdx
  3f8a10:	48 8b 40 08          	mov    rax,QWORD PTR [rax+0x8]
  3f8a14:	48 85 c0             	test   rax,rax
  3f8a17:	74 4e                	je     3f8a67 <_init-0x79f9>
  3f8a19:	8b 45 f8             	mov    eax,DWORD PTR [rbp-0x8]
  3f8a1c:	48 63 d0             	movsxd rdx,eax
  3f8a1f:	48 89 d0             	mov    rax,rdx
  3f8a22:	48 c1 e0 03          	shl    rax,0x3
  3f8a26:	48 29 d0             	sub    rax,rdx
  3f8a29:	48 c1 e0 03          	shl    rax,0x3
  3f8a2d:	48 89 c2             	mov    rdx,rax
  3f8a30:	48 8b 45 b8          	mov    rax,QWORD PTR [rbp-0x48]
  3f8a34:	48 01 d0             	add    rax,rdx
  3f8a37:	8b 40 04             	mov    eax,DWORD PTR [rax+0x4]
  3f8a3a:	83 e0 02             	and    eax,0x2
  3f8a3d:	85 c0                	test   eax,eax
  3f8a3f:	74 26                	je     3f8a67 <_init-0x79f9>
  3f8a41:	8b 45 f8             	mov    eax,DWORD PTR [rbp-0x8]
  3f8a44:	48 63 d0             	movsxd rdx,eax
  3f8a47:	48 89 d0             	mov    rax,rdx
  3f8a4a:	48 c1 e0 03          	shl    rax,0x3
  3f8a4e:	48 29 d0             	sub    rax,rdx
  3f8a51:	48 c1 e0 03          	shl    rax,0x3
  3f8a55:	48 89 c2             	mov    rdx,rax
  3f8a58:	48 8b 45 b8          	mov    rax,QWORD PTR [rbp-0x48]
  3f8a5c:	48 01 d0             	add    rax,rdx
  3f8a5f:	48 c7 40 30 00 10 00 	mov    QWORD PTR [rax+0x30],0x1000
  3f8a66:	00 
  3f8a67:	83 45 f8 01          	add    DWORD PTR [rbp-0x8],0x1
  3f8a6b:	48 8b 45 c0          	mov    rax,QWORD PTR [rbp-0x40]
  3f8a6f:	0f b7 40 38          	movzx  eax,WORD PTR [rax+0x38]
  3f8a73:	0f b7 c0             	movzx  eax,ax
  3f8a76:	39 45 f8             	cmp    DWORD PTR [rbp-0x8],eax
  3f8a79:	0f 8c 00 fd ff ff    	jl     3f877f <_init-0x7ce1>
  3f8a7f:	83 7d fc 00          	cmp    DWORD PTR [rbp-0x4],0x0
  3f8a83:	75 0c                	jne    3f8a91 <_init-0x79cf>
  3f8a85:	48 c7 c0 ff ff ff ff 	mov    rax,0xffffffffffffffff
  3f8a8c:	e9 e3 01 00 00       	jmp    3f8c74 <_init-0x77ec>
  3f8a91:	48 8b 45 f0          	mov    rax,QWORD PTR [rbp-0x10]
  3f8a95:	48 2b 45 d0          	sub    rax,QWORD PTR [rbp-0x30]
  3f8a99:	48 8d 50 40          	lea    rdx,[rax+0x40]
  3f8a9d:	48 8b 45 c0          	mov    rax,QWORD PTR [rbp-0x40]
  3f8aa1:	48 89 50 18          	mov    QWORD PTR [rax+0x18],rdx
  3f8aa5:	48 8b 45 c0          	mov    rax,QWORD PTR [rbp-0x40]
  3f8aa9:	48 8b 50 28          	mov    rdx,QWORD PTR [rax+0x28]
  3f8aad:	48 8b 45 c8          	mov    rax,QWORD PTR [rbp-0x38]
  3f8ab1:	48 01 d0             	add    rax,rdx
  3f8ab4:	48 89 45 b0          	mov    QWORD PTR [rbp-0x50],rax
  3f8ab8:	48 8b 45 c0          	mov    rax,QWORD PTR [rbp-0x40]
  3f8abc:	0f b7 40 3e          	movzx  eax,WORD PTR [rax+0x3e]
  3f8ac0:	0f b7 c0             	movzx  eax,ax
  3f8ac3:	48 c1 e0 06          	shl    rax,0x6
  3f8ac7:	48 89 c2             	mov    rdx,rax
  3f8aca:	48 8b 45 b0          	mov    rax,QWORD PTR [rbp-0x50]
  3f8ace:	48 01 d0             	add    rax,rdx
  3f8ad1:	48 8b 50 18          	mov    rdx,QWORD PTR [rax+0x18]
  3f8ad5:	48 8b 45 c8          	mov    rax,QWORD PTR [rbp-0x38]
  3f8ad9:	48 01 d0             	add    rax,rdx
  3f8adc:	48 89 45 a0          	mov    QWORD PTR [rbp-0x60],rax
  3f8ae0:	c7 45 f8 00 00 00 00 	mov    DWORD PTR [rbp-0x8],0x0
  3f8ae7:	e9 1d 01 00 00       	jmp    3f8c09 <_init-0x7857>
  3f8aec:	8b 45 f8             	mov    eax,DWORD PTR [rbp-0x8]
  3f8aef:	48 98                	cdqe   
  3f8af1:	48 c1 e0 06          	shl    rax,0x6
  3f8af5:	48 89 c2             	mov    rdx,rax
  3f8af8:	48 8b 45 b0          	mov    rax,QWORD PTR [rbp-0x50]
  3f8afc:	48 01 d0             	add    rax,rdx
  3f8aff:	8b 00                	mov    eax,DWORD PTR [rax]
  3f8b01:	89 c2                	mov    edx,eax
  3f8b03:	48 8b 45 a0          	mov    rax,QWORD PTR [rbp-0x60]
  3f8b07:	48 01 d0             	add    rax,rdx
  3f8b0a:	ba 05 00 00 00       	mov    edx,0x5
  3f8b0f:	48 8d 35 b0 20 00 00 	lea    rsi,[rip+0x20b0]        # 3fabc6 <_init-0x589a>
  3f8b16:	48 89 c7             	mov    rdi,rax
  3f8b19:	e8 ab 1e 00 00       	call   3fa9c9 <_init-0x5a97>
  3f8b1e:	85 c0                	test   eax,eax
  3f8b20:	0f 85 aa 00 00 00    	jne    3f8bd0 <_init-0x7890>
  3f8b26:	8b 45 f8             	mov    eax,DWORD PTR [rbp-0x8]
  3f8b29:	48 98                	cdqe   
  3f8b2b:	48 c1 e0 06          	shl    rax,0x6
  3f8b2f:	48 89 c2             	mov    rdx,rax
  3f8b32:	48 8b 45 b0          	mov    rax,QWORD PTR [rbp-0x50]
  3f8b36:	48 01 d0             	add    rax,rdx
  3f8b39:	48 c7 40 18 40 00 00 	mov    QWORD PTR [rax+0x18],0x40
  3f8b40:	00 
  3f8b41:	8b 45 f8             	mov    eax,DWORD PTR [rbp-0x8]
  3f8b44:	48 98                	cdqe   
  3f8b46:	48 c1 e0 06          	shl    rax,0x6
  3f8b4a:	48 89 c2             	mov    rdx,rax
  3f8b4d:	48 8b 45 b0          	mov    rax,QWORD PTR [rbp-0x50]
  3f8b51:	48 01 c2             	add    rdx,rax
  3f8b54:	48 8b 45 f0          	mov    rax,QWORD PTR [rbp-0x10]
  3f8b58:	48 2b 45 d0          	sub    rax,QWORD PTR [rbp-0x30]
  3f8b5c:	48 89 42 10          	mov    QWORD PTR [rdx+0x10],rax
  3f8b60:	8b 45 f8             	mov    eax,DWORD PTR [rbp-0x8]
  3f8b63:	48 98                	cdqe   
  3f8b65:	48 c1 e0 06          	shl    rax,0x6
  3f8b69:	48 89 c2             	mov    rdx,rax
  3f8b6c:	48 8b 45 b0          	mov    rax,QWORD PTR [rbp-0x50]
  3f8b70:	48 01 d0             	add    rax,rdx
  3f8b73:	48 8b 50 10          	mov    rdx,QWORD PTR [rax+0x10]
  3f8b77:	8b 45 f8             	mov    eax,DWORD PTR [rbp-0x8]
  3f8b7a:	48 98                	cdqe   
  3f8b7c:	48 c1 e0 06          	shl    rax,0x6
  3f8b80:	48 89 c1             	mov    rcx,rax
  3f8b83:	48 8b 45 b0          	mov    rax,QWORD PTR [rbp-0x50]
  3f8b87:	48 01 c8             	add    rax,rcx
  3f8b8a:	48 83 c2 40          	add    rdx,0x40
  3f8b8e:	48 89 50 10          	mov    QWORD PTR [rax+0x10],rdx
  3f8b92:	8b 45 f8             	mov    eax,DWORD PTR [rbp-0x8]
  3f8b95:	48 98                	cdqe   
  3f8b97:	48 c1 e0 06          	shl    rax,0x6
  3f8b9b:	48 89 c2             	mov    rdx,rax
  3f8b9e:	48 8b 45 b0          	mov    rax,QWORD PTR [rbp-0x50]
  3f8ba2:	48 01 d0             	add    rax,rdx
  3f8ba5:	48 8b 48 20          	mov    rcx,QWORD PTR [rax+0x20]
  3f8ba9:	48 8b 85 08 ff ff ff 	mov    rax,QWORD PTR [rbp-0xf8]
  3f8bb0:	48 8b 50 58          	mov    rdx,QWORD PTR [rax+0x58]
  3f8bb4:	8b 45 f8             	mov    eax,DWORD PTR [rbp-0x8]
  3f8bb7:	48 98                	cdqe   
  3f8bb9:	48 c1 e0 06          	shl    rax,0x6
  3f8bbd:	48 89 c6             	mov    rsi,rax
  3f8bc0:	48 8b 45 b0          	mov    rax,QWORD PTR [rbp-0x50]
  3f8bc4:	48 01 f0             	add    rax,rsi
  3f8bc7:	48 01 ca             	add    rdx,rcx
  3f8bca:	48 89 50 20          	mov    QWORD PTR [rax+0x20],rdx
  3f8bce:	eb 35                	jmp    3f8c05 <_init-0x785b>
  3f8bd0:	8b 45 f8             	mov    eax,DWORD PTR [rbp-0x8]
  3f8bd3:	48 98                	cdqe   
  3f8bd5:	48 c1 e0 06          	shl    rax,0x6
  3f8bd9:	48 89 c2             	mov    rdx,rax
  3f8bdc:	48 8b 45 b0          	mov    rax,QWORD PTR [rbp-0x50]
  3f8be0:	48 01 d0             	add    rax,rdx
  3f8be3:	48 8b 48 18          	mov    rcx,QWORD PTR [rax+0x18]
  3f8be7:	8b 45 f8             	mov    eax,DWORD PTR [rbp-0x8]
  3f8bea:	48 98                	cdqe   
  3f8bec:	48 c1 e0 06          	shl    rax,0x6
  3f8bf0:	48 89 c2             	mov    rdx,rax
  3f8bf3:	48 8b 45 b0          	mov    rax,QWORD PTR [rbp-0x50]
  3f8bf7:	48 01 d0             	add    rax,rdx
  3f8bfa:	48 8b 55 d0          	mov    rdx,QWORD PTR [rbp-0x30]
  3f8bfe:	48 01 ca             	add    rdx,rcx
  3f8c01:	48 89 50 18          	mov    QWORD PTR [rax+0x18],rdx
  3f8c05:	83 45 f8 01          	add    DWORD PTR [rbp-0x8],0x1
  3f8c09:	48 8b 45 c0          	mov    rax,QWORD PTR [rbp-0x40]
  3f8c0d:	0f b7 40 3c          	movzx  eax,WORD PTR [rax+0x3c]
  3f8c11:	0f b7 c0             	movzx  eax,ax
  3f8c14:	39 45 f8             	cmp    DWORD PTR [rbp-0x8],eax
  3f8c17:	0f 8c cf fe ff ff    	jl     3f8aec <_init-0x7974>
  3f8c1d:	48 8b 45 c0          	mov    rax,QWORD PTR [rbp-0x40]
  3f8c21:	48 8b 50 28          	mov    rdx,QWORD PTR [rax+0x28]
  3f8c25:	48 8b 45 d0          	mov    rax,QWORD PTR [rbp-0x30]
  3f8c29:	48 01 c2             	add    rdx,rax
  3f8c2c:	48 8b 45 c0          	mov    rax,QWORD PTR [rbp-0x40]
  3f8c30:	48 89 50 28          	mov    QWORD PTR [rax+0x28],rdx
  3f8c34:	48 8b 45 c0          	mov    rax,QWORD PTR [rbp-0x40]
  3f8c38:	48 8b 50 20          	mov    rdx,QWORD PTR [rax+0x20]
  3f8c3c:	48 8b 45 d0          	mov    rax,QWORD PTR [rbp-0x30]
  3f8c40:	48 01 c2             	add    rdx,rax
  3f8c43:	48 8b 45 c0          	mov    rax,QWORD PTR [rbp-0x40]
  3f8c47:	48 89 50 20          	mov    QWORD PTR [rax+0x20],rdx
  3f8c4b:	48 8b 7d a8          	mov    rdi,QWORD PTR [rbp-0x58]
  3f8c4f:	48 8b 8d 08 ff ff ff 	mov    rcx,QWORD PTR [rbp-0xf8]
  3f8c56:	48 8b 95 00 ff ff ff 	mov    rdx,QWORD PTR [rbp-0x100]
  3f8c5d:	48 8b 75 d0          	mov    rsi,QWORD PTR [rbp-0x30]
  3f8c61:	48 8b 45 d8          	mov    rax,QWORD PTR [rbp-0x28]
  3f8c65:	49 89 f8             	mov    r8,rdi
  3f8c68:	48 89 c7             	mov    rdi,rax
  3f8c6b:	e8 84 f7 ff ff       	call   3f83f4 <_init-0x806c>
  3f8c70:	48 8b 45 e8          	mov    rax,QWORD PTR [rbp-0x18]
  3f8c74:	c9                   	leave  
  3f8c75:	c3                   	ret    
  3f8c76:	f3 0f 1e fa          	endbr64 
  3f8c7a:	55                   	push   rbp
  3f8c7b:	48 89 e5             	mov    rbp,rsp
  3f8c7e:	48 83 ec 30          	sub    rsp,0x30
  3f8c82:	48 89 7d d8          	mov    QWORD PTR [rbp-0x28],rdi
  3f8c86:	e8 6e 1e 00 00       	call   3faaf9 <_init-0x5967>
  3f8c8b:	48 c7 c2 62 2c 40 00 	mov    rdx,0x402c62
  3f8c92:	48 89 d1             	mov    rcx,rdx
  3f8c95:	48 c7 c2 70 2c 40 00 	mov    rdx,0x402c70
  3f8c9c:	48 29 d1             	sub    rcx,rdx
  3f8c9f:	48 89 ca             	mov    rdx,rcx
  3f8ca2:	48 29 d0             	sub    rax,rdx
  3f8ca5:	48 89 45 f8          	mov    QWORD PTR [rbp-0x8],rax
  3f8ca9:	e8 4b 1e 00 00       	call   3faaf9 <_init-0x5967>
  3f8cae:	48 c7 c2 62 2c 40 00 	mov    rdx,0x402c62
  3f8cb5:	48 89 d1             	mov    rcx,rdx
  3f8cb8:	48 c7 c2 85 2c 40 00 	mov    rdx,0x402c85
  3f8cbf:	48 29 d1             	sub    rcx,rdx
  3f8cc2:	48 89 ca             	mov    rdx,rcx
  3f8cc5:	48 29 d0             	sub    rax,rdx
  3f8cc8:	48 89 45 f0          	mov    QWORD PTR [rbp-0x10],rax
  3f8ccc:	e8 28 1e 00 00       	call   3faaf9 <_init-0x5967>
  3f8cd1:	48 c7 c2 62 2c 40 00 	mov    rdx,0x402c62
  3f8cd8:	48 89 d1             	mov    rcx,rdx
  3f8cdb:	48 c7 c2 9c 01 40 00 	mov    rdx,0x40019c
  3f8ce2:	48 29 d1             	sub    rcx,rdx
  3f8ce5:	48 89 ca             	mov    rdx,rcx
  3f8ce8:	48 29 d0             	sub    rax,rdx
  3f8ceb:	48 89 45 e8          	mov    QWORD PTR [rbp-0x18],rax
  3f8cef:	48 8b 55 e8          	mov    rdx,QWORD PTR [rbp-0x18]
  3f8cf3:	48 8b 45 d8          	mov    rax,QWORD PTR [rbp-0x28]
  3f8cf7:	48 89 50 50          	mov    QWORD PTR [rax+0x50],rdx
  3f8cfb:	48 c7 c0 70 2c 40 00 	mov    rax,0x402c70
  3f8d02:	48 89 c2             	mov    rdx,rax
  3f8d05:	48 c7 c0 9c 01 40 00 	mov    rax,0x40019c
  3f8d0c:	48 29 c2             	sub    rdx,rax
  3f8d0f:	48 89 d0             	mov    rax,rdx
  3f8d12:	48 89 c2             	mov    rdx,rax
  3f8d15:	48 8b 45 d8          	mov    rax,QWORD PTR [rbp-0x28]
  3f8d19:	48 89 50 58          	mov    QWORD PTR [rax+0x58],rdx
  3f8d1d:	48 8b 45 d8          	mov    rax,QWORD PTR [rbp-0x28]
  3f8d21:	48 8b 50 58          	mov    rdx,QWORD PTR [rax+0x58]
  3f8d25:	48 8b 45 f0          	mov    rax,QWORD PTR [rbp-0x10]
  3f8d29:	48 2b 45 f8          	sub    rax,QWORD PTR [rbp-0x8]
  3f8d2d:	48 98                	cdqe   
  3f8d2f:	48 01 c2             	add    rdx,rax
  3f8d32:	48 8b 45 d8          	mov    rax,QWORD PTR [rbp-0x28]
  3f8d36:	48 89 50 58          	mov    QWORD PTR [rax+0x58],rdx
  3f8d3a:	48 8b 45 d8          	mov    rax,QWORD PTR [rbp-0x28]
  3f8d3e:	48 8b 40 58          	mov    rax,QWORD PTR [rax+0x58]
  3f8d42:	48 8d 90 50 46 00 00 	lea    rdx,[rax+0x4650]
  3f8d49:	48 8b 45 d8          	mov    rax,QWORD PTR [rbp-0x28]
  3f8d4d:	48 89 50 58          	mov    QWORD PTR [rax+0x58],rdx
  3f8d51:	b8 00 00 00 00       	mov    eax,0x0
  3f8d56:	c9                   	leave  
  3f8d57:	c3                   	ret    
  3f8d58:	f3 0f 1e fa          	endbr64 
  3f8d5c:	55                   	push   rbp
  3f8d5d:	48 89 e5             	mov    rbp,rsp
  3f8d60:	48 83 ec 10          	sub    rsp,0x10
  3f8d64:	48 89 7d f8          	mov    QWORD PTR [rbp-0x8],rdi
  3f8d68:	48 8b 45 f8          	mov    rax,QWORD PTR [rbp-0x8]
  3f8d6c:	48 8b 50 58          	mov    rdx,QWORD PTR [rax+0x58]
  3f8d70:	48 8b 45 f8          	mov    rax,QWORD PTR [rbp-0x8]
  3f8d74:	48 8b 40 50          	mov    rax,QWORD PTR [rax+0x50]
  3f8d78:	48 89 d6             	mov    rsi,rdx
  3f8d7b:	48 89 c7             	mov    rdi,rax
  3f8d7e:	e8 f7 12 00 00       	call   3fa07a <_init-0x63e6>
  3f8d83:	48 8b 45 f8          	mov    rax,QWORD PTR [rbp-0x8]
  3f8d87:	8b 80 f8 00 00 00    	mov    eax,DWORD PTR [rax+0xf8]
  3f8d8d:	89 c7                	mov    edi,eax
  3f8d8f:	e8 1a 11 00 00       	call   3f9eae <_init-0x65b2>
  3f8d94:	90                   	nop
  3f8d95:	c9                   	leave  
  3f8d96:	c3                   	ret    
  3f8d97:	f3 0f 1e fa          	endbr64 
  3f8d9b:	55                   	push   rbp
  3f8d9c:	48 89 e5             	mov    rbp,rsp
  3f8d9f:	53                   	push   rbx
  3f8da0:	48 81 ec b8 00 00 00 	sub    rsp,0xb8
  3f8da7:	48 89 bd 48 ff ff ff 	mov    QWORD PTR [rbp-0xb8],rdi
  3f8dae:	48 89 b5 40 ff ff ff 	mov    QWORD PTR [rbp-0xc0],rsi
  3f8db5:	48 8b 85 40 ff ff ff 	mov    rax,QWORD PTR [rbp-0xc0]
  3f8dbc:	48 8b 95 48 ff ff ff 	mov    rdx,QWORD PTR [rbp-0xb8]
  3f8dc3:	48 89 50 60          	mov    QWORD PTR [rax+0x60],rdx
  3f8dc7:	48 8b 85 48 ff ff ff 	mov    rax,QWORD PTR [rbp-0xb8]
  3f8dce:	ba 00 00 00 00       	mov    edx,0x0
  3f8dd3:	be 00 00 00 00       	mov    esi,0x0
  3f8dd8:	48 89 c7             	mov    rdi,rax
  3f8ddb:	e8 98 10 00 00       	call   3f9e78 <_init-0x65e8>
  3f8de0:	89 45 e8             	mov    DWORD PTR [rbp-0x18],eax
  3f8de3:	83 7d e8 00          	cmp    DWORD PTR [rbp-0x18],0x0
  3f8de7:	79 0a                	jns    3f8df3 <_init-0x766d>
  3f8de9:	b8 ff ff ff ff       	mov    eax,0xffffffff
  3f8dee:	e9 b1 03 00 00       	jmp    3f91a4 <_init-0x72bc>
  3f8df3:	48 8b 85 40 ff ff ff 	mov    rax,QWORD PTR [rbp-0xc0]
  3f8dfa:	8b 55 e8             	mov    edx,DWORD PTR [rbp-0x18]
  3f8dfd:	89 90 f8 00 00 00    	mov    DWORD PTR [rax+0xf8],edx
  3f8e03:	8b 45 e8             	mov    eax,DWORD PTR [rbp-0x18]
  3f8e06:	48 98                	cdqe   
  3f8e08:	48 8d 95 50 ff ff ff 	lea    rdx,[rbp-0xb0]
  3f8e0f:	48 89 d6             	mov    rsi,rdx
  3f8e12:	48 89 c7             	mov    rdi,rax
  3f8e15:	e8 1e 11 00 00       	call   3f9f38 <_init-0x6528>
  3f8e1a:	85 c0                	test   eax,eax
  3f8e1c:	79 0a                	jns    3f8e28 <_init-0x7638>
  3f8e1e:	b8 ff ff ff ff       	mov    eax,0xffffffff
  3f8e23:	e9 7c 03 00 00       	jmp    3f91a4 <_init-0x72bc>
  3f8e28:	8b 45 e8             	mov    eax,DWORD PTR [rbp-0x18]
  3f8e2b:	48 63 d0             	movsxd rdx,eax
  3f8e2e:	48 8b 45 80          	mov    rax,QWORD PTR [rbp-0x80]
  3f8e32:	41 b9 00 00 00 00    	mov    r9d,0x0
  3f8e38:	49 89 d0             	mov    r8,rdx
  3f8e3b:	b9 02 00 00 00       	mov    ecx,0x2
  3f8e40:	ba 03 00 00 00       	mov    edx,0x3
  3f8e45:	48 89 c6             	mov    rsi,rax
  3f8e48:	bf 00 00 00 00       	mov    edi,0x0
  3f8e4d:	e8 c2 11 00 00       	call   3fa014 <_init-0x644c>
  3f8e52:	48 8b 95 40 ff ff ff 	mov    rdx,QWORD PTR [rbp-0xc0]
  3f8e59:	48 89 42 50          	mov    QWORD PTR [rdx+0x50],rax
  3f8e5d:	48 8b 85 40 ff ff ff 	mov    rax,QWORD PTR [rbp-0xc0]
  3f8e64:	48 8b 40 50          	mov    rax,QWORD PTR [rax+0x50]
  3f8e68:	48 83 f8 ff          	cmp    rax,0xffffffffffffffff
  3f8e6c:	75 0a                	jne    3f8e78 <_init-0x75e8>
  3f8e6e:	b8 ff ff ff ff       	mov    eax,0xffffffff
  3f8e73:	e9 2c 03 00 00       	jmp    3f91a4 <_init-0x72bc>
  3f8e78:	48 8b 85 40 ff ff ff 	mov    rax,QWORD PTR [rbp-0xc0]
  3f8e7f:	48 8b 50 50          	mov    rdx,QWORD PTR [rax+0x50]
  3f8e83:	48 8b 85 40 ff ff ff 	mov    rax,QWORD PTR [rbp-0xc0]
  3f8e8a:	48 89 10             	mov    QWORD PTR [rax],rdx
  3f8e8d:	48 8b 85 40 ff ff ff 	mov    rax,QWORD PTR [rbp-0xc0]
  3f8e94:	48 8b 50 50          	mov    rdx,QWORD PTR [rax+0x50]
  3f8e98:	48 8b 85 40 ff ff ff 	mov    rax,QWORD PTR [rbp-0xc0]
  3f8e9f:	48 8b 00             	mov    rax,QWORD PTR [rax]
  3f8ea2:	48 8b 40 20          	mov    rax,QWORD PTR [rax+0x20]
  3f8ea6:	48 01 c2             	add    rdx,rax
  3f8ea9:	48 8b 85 40 ff ff ff 	mov    rax,QWORD PTR [rbp-0xc0]
  3f8eb0:	48 89 50 08          	mov    QWORD PTR [rax+0x8],rdx
  3f8eb4:	48 8b 85 40 ff ff ff 	mov    rax,QWORD PTR [rbp-0xc0]
  3f8ebb:	48 8b 50 50          	mov    rdx,QWORD PTR [rax+0x50]
  3f8ebf:	48 8b 85 40 ff ff ff 	mov    rax,QWORD PTR [rbp-0xc0]
  3f8ec6:	48 8b 00             	mov    rax,QWORD PTR [rax]
  3f8ec9:	48 8b 40 28          	mov    rax,QWORD PTR [rax+0x28]
  3f8ecd:	48 01 c2             	add    rdx,rax
  3f8ed0:	48 8b 85 40 ff ff ff 	mov    rax,QWORD PTR [rbp-0xc0]
  3f8ed7:	48 89 50 10          	mov    QWORD PTR [rax+0x10],rdx
  3f8edb:	c7 45 ec 00 00 00 00 	mov    DWORD PTR [rbp-0x14],0x0
  3f8ee2:	e9 b6 01 00 00       	jmp    3f909d <_init-0x73c3>
  3f8ee7:	48 8b 85 40 ff ff ff 	mov    rax,QWORD PTR [rbp-0xc0]
  3f8eee:	48 8b 48 08          	mov    rcx,QWORD PTR [rax+0x8]
  3f8ef2:	8b 45 ec             	mov    eax,DWORD PTR [rbp-0x14]
  3f8ef5:	48 63 d0             	movsxd rdx,eax
  3f8ef8:	48 89 d0             	mov    rax,rdx
  3f8efb:	48 c1 e0 03          	shl    rax,0x3
  3f8eff:	48 29 d0             	sub    rax,rdx
  3f8f02:	48 c1 e0 03          	shl    rax,0x3
  3f8f06:	48 01 c8             	add    rax,rcx
  3f8f09:	8b 00                	mov    eax,DWORD PTR [rax]
  3f8f0b:	83 f8 01             	cmp    eax,0x1
  3f8f0e:	74 0e                	je     3f8f1e <_init-0x7542>
  3f8f10:	83 f8 02             	cmp    eax,0x2
  3f8f13:	0f 84 3f 01 00 00    	je     3f9058 <_init-0x7408>
  3f8f19:	e9 7b 01 00 00       	jmp    3f9099 <_init-0x73c7>
  3f8f1e:	48 8b 85 40 ff ff ff 	mov    rax,QWORD PTR [rbp-0xc0]
  3f8f25:	48 8b 48 08          	mov    rcx,QWORD PTR [rax+0x8]
  3f8f29:	8b 45 ec             	mov    eax,DWORD PTR [rbp-0x14]
  3f8f2c:	48 63 d0             	movsxd rdx,eax
  3f8f2f:	48 89 d0             	mov    rax,rdx
  3f8f32:	48 c1 e0 03          	shl    rax,0x3
  3f8f36:	48 29 d0             	sub    rax,rdx
  3f8f39:	48 c1 e0 03          	shl    rax,0x3
  3f8f3d:	48 01 c8             	add    rax,rcx
  3f8f40:	48 8b 40 08          	mov    rax,QWORD PTR [rax+0x8]
  3f8f44:	48 85 c0             	test   rax,rax
  3f8f47:	0f 95 c0             	setne  al
  3f8f4a:	0f b6 c0             	movzx  eax,al
  3f8f4d:	85 c0                	test   eax,eax
  3f8f4f:	74 0a                	je     3f8f5b <_init-0x7505>
  3f8f51:	83 f8 01             	cmp    eax,0x1
  3f8f54:	74 6c                	je     3f8fc2 <_init-0x749e>
  3f8f56:	e9 3e 01 00 00       	jmp    3f9099 <_init-0x73c7>
  3f8f5b:	48 8b 85 40 ff ff ff 	mov    rax,QWORD PTR [rbp-0xc0]
  3f8f62:	48 8b 48 08          	mov    rcx,QWORD PTR [rax+0x8]
  3f8f66:	8b 45 ec             	mov    eax,DWORD PTR [rbp-0x14]
  3f8f69:	48 63 d0             	movsxd rdx,eax
  3f8f6c:	48 89 d0             	mov    rax,rdx
  3f8f6f:	48 c1 e0 03          	shl    rax,0x3
  3f8f73:	48 29 d0             	sub    rax,rdx
  3f8f76:	48 c1 e0 03          	shl    rax,0x3
  3f8f7a:	48 01 c8             	add    rax,rcx
  3f8f7d:	48 8b 50 10          	mov    rdx,QWORD PTR [rax+0x10]
  3f8f81:	48 8b 85 40 ff ff ff 	mov    rax,QWORD PTR [rbp-0xc0]
  3f8f88:	48 89 50 20          	mov    QWORD PTR [rax+0x20],rdx
  3f8f8c:	48 8b 85 40 ff ff ff 	mov    rax,QWORD PTR [rbp-0xc0]
  3f8f93:	48 8b 48 08          	mov    rcx,QWORD PTR [rax+0x8]
  3f8f97:	8b 45 ec             	mov    eax,DWORD PTR [rbp-0x14]
  3f8f9a:	48 63 d0             	movsxd rdx,eax
  3f8f9d:	48 89 d0             	mov    rax,rdx
  3f8fa0:	48 c1 e0 03          	shl    rax,0x3
  3f8fa4:	48 29 d0             	sub    rax,rdx
  3f8fa7:	48 c1 e0 03          	shl    rax,0x3
  3f8fab:	48 01 c8             	add    rax,rcx
  3f8fae:	48 8b 50 28          	mov    rdx,QWORD PTR [rax+0x28]
  3f8fb2:	48 8b 85 40 ff ff ff 	mov    rax,QWORD PTR [rbp-0xc0]
  3f8fb9:	48 89 50 30          	mov    QWORD PTR [rax+0x30],rdx
  3f8fbd:	e9 94 00 00 00       	jmp    3f9056 <_init-0x740a>
  3f8fc2:	48 8b 85 40 ff ff ff 	mov    rax,QWORD PTR [rbp-0xc0]
  3f8fc9:	48 8b 48 08          	mov    rcx,QWORD PTR [rax+0x8]
  3f8fcd:	8b 45 ec             	mov    eax,DWORD PTR [rbp-0x14]
  3f8fd0:	48 63 d0             	movsxd rdx,eax
  3f8fd3:	48 89 d0             	mov    rax,rdx
  3f8fd6:	48 c1 e0 03          	shl    rax,0x3
  3f8fda:	48 29 d0             	sub    rax,rdx
  3f8fdd:	48 c1 e0 03          	shl    rax,0x3
  3f8fe1:	48 01 c8             	add    rax,rcx
  3f8fe4:	48 8b 50 10          	mov    rdx,QWORD PTR [rax+0x10]
  3f8fe8:	48 8b 85 40 ff ff ff 	mov    rax,QWORD PTR [rbp-0xc0]
  3f8fef:	48 89 50 28          	mov    QWORD PTR [rax+0x28],rdx
  3f8ff3:	48 8b 85 40 ff ff ff 	mov    rax,QWORD PTR [rbp-0xc0]
  3f8ffa:	48 8b 48 08          	mov    rcx,QWORD PTR [rax+0x8]
  3f8ffe:	8b 45 ec             	mov    eax,DWORD PTR [rbp-0x14]
  3f9001:	48 63 d0             	movsxd rdx,eax
  3f9004:	48 89 d0             	mov    rax,rdx
  3f9007:	48 c1 e0 03          	shl    rax,0x3
  3f900b:	48 29 d0             	sub    rax,rdx
  3f900e:	48 c1 e0 03          	shl    rax,0x3
  3f9012:	48 01 c8             	add    rax,rcx
  3f9015:	48 8b 50 28          	mov    rdx,QWORD PTR [rax+0x28]
  3f9019:	48 8b 85 40 ff ff ff 	mov    rax,QWORD PTR [rbp-0xc0]
  3f9020:	48 89 50 38          	mov    QWORD PTR [rax+0x38],rdx
  3f9024:	48 8b 85 40 ff ff ff 	mov    rax,QWORD PTR [rbp-0xc0]
  3f902b:	48 8b 48 08          	mov    rcx,QWORD PTR [rax+0x8]
  3f902f:	8b 45 ec             	mov    eax,DWORD PTR [rbp-0x14]
  3f9032:	48 63 d0             	movsxd rdx,eax
  3f9035:	48 89 d0             	mov    rax,rdx
  3f9038:	48 c1 e0 03          	shl    rax,0x3
  3f903c:	48 29 d0             	sub    rax,rdx
  3f903f:	48 c1 e0 03          	shl    rax,0x3
  3f9043:	48 01 c8             	add    rax,rcx
  3f9046:	48 8b 50 08          	mov    rdx,QWORD PTR [rax+0x8]
  3f904a:	48 8b 85 40 ff ff ff 	mov    rax,QWORD PTR [rbp-0xc0]
  3f9051:	48 89 50 40          	mov    QWORD PTR [rax+0x40],rdx
  3f9055:	90                   	nop
  3f9056:	eb 41                	jmp    3f9099 <_init-0x73c7>
  3f9058:	48 8b 85 40 ff ff ff 	mov    rax,QWORD PTR [rbp-0xc0]
  3f905f:	48 8b 48 50          	mov    rcx,QWORD PTR [rax+0x50]
  3f9063:	48 8b 85 40 ff ff ff 	mov    rax,QWORD PTR [rbp-0xc0]
  3f906a:	48 8b 70 08          	mov    rsi,QWORD PTR [rax+0x8]
  3f906e:	8b 45 ec             	mov    eax,DWORD PTR [rbp-0x14]
  3f9071:	48 63 d0             	movsxd rdx,eax
  3f9074:	48 89 d0             	mov    rax,rdx
  3f9077:	48 c1 e0 03          	shl    rax,0x3
  3f907b:	48 29 d0             	sub    rax,rdx
  3f907e:	48 c1 e0 03          	shl    rax,0x3
  3f9082:	48 01 f0             	add    rax,rsi
  3f9085:	48 8b 40 08          	mov    rax,QWORD PTR [rax+0x8]
  3f9089:	48 8d 14 01          	lea    rdx,[rcx+rax*1]
  3f908d:	48 8b 85 40 ff ff ff 	mov    rax,QWORD PTR [rbp-0xc0]
  3f9094:	48 89 50 18          	mov    QWORD PTR [rax+0x18],rdx
  3f9098:	90                   	nop
  3f9099:	83 45 ec 01          	add    DWORD PTR [rbp-0x14],0x1
  3f909d:	48 8b 85 40 ff ff ff 	mov    rax,QWORD PTR [rbp-0xc0]
  3f90a4:	48 8b 00             	mov    rax,QWORD PTR [rax]
  3f90a7:	0f b7 40 38          	movzx  eax,WORD PTR [rax+0x38]
  3f90ab:	0f b7 c0             	movzx  eax,ax
  3f90ae:	39 45 ec             	cmp    DWORD PTR [rbp-0x14],eax
  3f90b1:	0f 8c 30 fe ff ff    	jl     3f8ee7 <_init-0x7579>
  3f90b7:	48 8b 85 40 ff ff ff 	mov    rax,QWORD PTR [rbp-0xc0]
  3f90be:	48 8b 8d 50 ff ff ff 	mov    rcx,QWORD PTR [rbp-0xb0]
  3f90c5:	48 8b 9d 58 ff ff ff 	mov    rbx,QWORD PTR [rbp-0xa8]
  3f90cc:	48 89 48 68          	mov    QWORD PTR [rax+0x68],rcx
  3f90d0:	48 89 58 70          	mov    QWORD PTR [rax+0x70],rbx
  3f90d4:	48 8b 8d 60 ff ff ff 	mov    rcx,QWORD PTR [rbp-0xa0]
  3f90db:	48 8b 9d 68 ff ff ff 	mov    rbx,QWORD PTR [rbp-0x98]
  3f90e2:	48 89 48 78          	mov    QWORD PTR [rax+0x78],rcx
  3f90e6:	48 89 98 80 00 00 00 	mov    QWORD PTR [rax+0x80],rbx
  3f90ed:	48 8b 8d 70 ff ff ff 	mov    rcx,QWORD PTR [rbp-0x90]
  3f90f4:	48 8b 9d 78 ff ff ff 	mov    rbx,QWORD PTR [rbp-0x88]
  3f90fb:	48 89 88 88 00 00 00 	mov    QWORD PTR [rax+0x88],rcx
  3f9102:	48 89 98 90 00 00 00 	mov    QWORD PTR [rax+0x90],rbx
  3f9109:	48 8b 4d 80          	mov    rcx,QWORD PTR [rbp-0x80]
  3f910d:	48 8b 5d 88          	mov    rbx,QWORD PTR [rbp-0x78]
  3f9111:	48 89 88 98 00 00 00 	mov    QWORD PTR [rax+0x98],rcx
  3f9118:	48 89 98 a0 00 00 00 	mov    QWORD PTR [rax+0xa0],rbx
  3f911f:	48 8b 4d 90          	mov    rcx,QWORD PTR [rbp-0x70]
  3f9123:	48 8b 5d 98          	mov    rbx,QWORD PTR [rbp-0x68]
  3f9127:	48 89 88 a8 00 00 00 	mov    QWORD PTR [rax+0xa8],rcx
  3f912e:	48 89 98 b0 00 00 00 	mov    QWORD PTR [rax+0xb0],rbx
  3f9135:	48 8b 4d a0          	mov    rcx,QWORD PTR [rbp-0x60]
  3f9139:	48 8b 5d a8          	mov    rbx,QWORD PTR [rbp-0x58]
  3f913d:	48 89 88 b8 00 00 00 	mov    QWORD PTR [rax+0xb8],rcx
  3f9144:	48 89 98 c0 00 00 00 	mov    QWORD PTR [rax+0xc0],rbx
  3f914b:	48 8b 4d b0          	mov    rcx,QWORD PTR [rbp-0x50]
  3f914f:	48 8b 5d b8          	mov    rbx,QWORD PTR [rbp-0x48]
  3f9153:	48 89 88 c8 00 00 00 	mov    QWORD PTR [rax+0xc8],rcx
  3f915a:	48 89 98 d0 00 00 00 	mov    QWORD PTR [rax+0xd0],rbx
  3f9161:	48 8b 4d c0          	mov    rcx,QWORD PTR [rbp-0x40]
  3f9165:	48 8b 5d c8          	mov    rbx,QWORD PTR [rbp-0x38]
  3f9169:	48 89 88 d8 00 00 00 	mov    QWORD PTR [rax+0xd8],rcx
  3f9170:	48 89 98 e0 00 00 00 	mov    QWORD PTR [rax+0xe0],rbx
  3f9177:	48 8b 4d d0          	mov    rcx,QWORD PTR [rbp-0x30]
  3f917b:	48 8b 5d d8          	mov    rbx,QWORD PTR [rbp-0x28]
  3f917f:	48 89 88 e8 00 00 00 	mov    QWORD PTR [rax+0xe8],rcx
  3f9186:	48 89 98 f0 00 00 00 	mov    QWORD PTR [rax+0xf0],rbx
  3f918d:	48 8b 45 80          	mov    rax,QWORD PTR [rbp-0x80]
  3f9191:	48 89 c2             	mov    rdx,rax
  3f9194:	48 8b 85 40 ff ff ff 	mov    rax,QWORD PTR [rbp-0xc0]
  3f919b:	48 89 50 58          	mov    QWORD PTR [rax+0x58],rdx
  3f919f:	b8 00 00 00 00       	mov    eax,0x0
  3f91a4:	48 81 c4 b8 00 00 00 	add    rsp,0xb8
  3f91ab:	5b                   	pop    rbx
  3f91ac:	5d                   	pop    rbp
  3f91ad:	c3                   	ret    
  3f91ae:	f3 0f 1e fa          	endbr64 
  3f91b2:	55                   	push   rbp
  3f91b3:	48 89 e5             	mov    rbp,rsp
  3f91b6:	53                   	push   rbx
  3f91b7:	48 81 ec b8 00 00 00 	sub    rsp,0xb8
  3f91be:	48 89 bd 48 ff ff ff 	mov    QWORD PTR [rbp-0xb8],rdi
  3f91c5:	48 89 b5 40 ff ff ff 	mov    QWORD PTR [rbp-0xc0],rsi
  3f91cc:	48 8b 85 40 ff ff ff 	mov    rax,QWORD PTR [rbp-0xc0]
  3f91d3:	48 8b 95 48 ff ff ff 	mov    rdx,QWORD PTR [rbp-0xb8]
  3f91da:	48 89 50 60          	mov    QWORD PTR [rax+0x60],rdx
  3f91de:	48 8b 85 48 ff ff ff 	mov    rax,QWORD PTR [rbp-0xb8]
  3f91e5:	ba 00 00 00 00       	mov    edx,0x0
  3f91ea:	be 02 00 00 00       	mov    esi,0x2
  3f91ef:	48 89 c7             	mov    rdi,rax
  3f91f2:	e8 81 0c 00 00       	call   3f9e78 <_init-0x65e8>
  3f91f7:	89 45 e8             	mov    DWORD PTR [rbp-0x18],eax
  3f91fa:	83 7d e8 00          	cmp    DWORD PTR [rbp-0x18],0x0
  3f91fe:	79 0a                	jns    3f920a <_init-0x7256>
  3f9200:	b8 ff ff ff ff       	mov    eax,0xffffffff
  3f9205:	e9 b1 03 00 00       	jmp    3f95bb <_init-0x6ea5>
  3f920a:	48 8b 85 40 ff ff ff 	mov    rax,QWORD PTR [rbp-0xc0]
  3f9211:	8b 55 e8             	mov    edx,DWORD PTR [rbp-0x18]
  3f9214:	89 90 f8 00 00 00    	mov    DWORD PTR [rax+0xf8],edx
  3f921a:	8b 45 e8             	mov    eax,DWORD PTR [rbp-0x18]
  3f921d:	48 98                	cdqe   
  3f921f:	48 8d 95 50 ff ff ff 	lea    rdx,[rbp-0xb0]
  3f9226:	48 89 d6             	mov    rsi,rdx
  3f9229:	48 89 c7             	mov    rdi,rax
  3f922c:	e8 07 0d 00 00       	call   3f9f38 <_init-0x6528>
  3f9231:	85 c0                	test   eax,eax
  3f9233:	79 0a                	jns    3f923f <_init-0x7221>
  3f9235:	b8 ff ff ff ff       	mov    eax,0xffffffff
  3f923a:	e9 7c 03 00 00       	jmp    3f95bb <_init-0x6ea5>
  3f923f:	8b 45 e8             	mov    eax,DWORD PTR [rbp-0x18]
  3f9242:	48 63 d0             	movsxd rdx,eax
  3f9245:	48 8b 45 80          	mov    rax,QWORD PTR [rbp-0x80]
  3f9249:	41 b9 00 00 00 00    	mov    r9d,0x0
  3f924f:	49 89 d0             	mov    r8,rdx
  3f9252:	b9 01 00 00 00       	mov    ecx,0x1
  3f9257:	ba 03 00 00 00       	mov    edx,0x3
  3f925c:	48 89 c6             	mov    rsi,rax
  3f925f:	bf 00 00 00 00       	mov    edi,0x0
  3f9264:	e8 ab 0d 00 00       	call   3fa014 <_init-0x644c>
  3f9269:	48 8b 95 40 ff ff ff 	mov    rdx,QWORD PTR [rbp-0xc0]
  3f9270:	48 89 42 50          	mov    QWORD PTR [rdx+0x50],rax
  3f9274:	48 8b 85 40 ff ff ff 	mov    rax,QWORD PTR [rbp-0xc0]
  3f927b:	48 8b 40 50          	mov    rax,QWORD PTR [rax+0x50]
  3f927f:	48 83 f8 ff          	cmp    rax,0xffffffffffffffff
  3f9283:	75 0a                	jne    3f928f <_init-0x71d1>
  3f9285:	b8 ff ff ff ff       	mov    eax,0xffffffff
  3f928a:	e9 2c 03 00 00       	jmp    3f95bb <_init-0x6ea5>
  3f928f:	48 8b 85 40 ff ff ff 	mov    rax,QWORD PTR [rbp-0xc0]
  3f9296:	48 8b 50 50          	mov    rdx,QWORD PTR [rax+0x50]
  3f929a:	48 8b 85 40 ff ff ff 	mov    rax,QWORD PTR [rbp-0xc0]
  3f92a1:	48 89 10             	mov    QWORD PTR [rax],rdx
  3f92a4:	48 8b 85 40 ff ff ff 	mov    rax,QWORD PTR [rbp-0xc0]
  3f92ab:	48 8b 50 50          	mov    rdx,QWORD PTR [rax+0x50]
  3f92af:	48 8b 85 40 ff ff ff 	mov    rax,QWORD PTR [rbp-0xc0]
  3f92b6:	48 8b 00             	mov    rax,QWORD PTR [rax]
  3f92b9:	48 8b 40 20          	mov    rax,QWORD PTR [rax+0x20]
  3f92bd:	48 01 c2             	add    rdx,rax
  3f92c0:	48 8b 85 40 ff ff ff 	mov    rax,QWORD PTR [rbp-0xc0]
  3f92c7:	48 89 50 08          	mov    QWORD PTR [rax+0x8],rdx
  3f92cb:	48 8b 85 40 ff ff ff 	mov    rax,QWORD PTR [rbp-0xc0]
  3f92d2:	48 8b 50 50          	mov    rdx,QWORD PTR [rax+0x50]
  3f92d6:	48 8b 85 40 ff ff ff 	mov    rax,QWORD PTR [rbp-0xc0]
  3f92dd:	48 8b 00             	mov    rax,QWORD PTR [rax]
  3f92e0:	48 8b 40 28          	mov    rax,QWORD PTR [rax+0x28]
  3f92e4:	48 01 c2             	add    rdx,rax
  3f92e7:	48 8b 85 40 ff ff ff 	mov    rax,QWORD PTR [rbp-0xc0]
  3f92ee:	48 89 50 10          	mov    QWORD PTR [rax+0x10],rdx
  3f92f2:	c7 45 ec 00 00 00 00 	mov    DWORD PTR [rbp-0x14],0x0
  3f92f9:	e9 b6 01 00 00       	jmp    3f94b4 <_init-0x6fac>
  3f92fe:	48 8b 85 40 ff ff ff 	mov    rax,QWORD PTR [rbp-0xc0]
  3f9305:	48 8b 48 08          	mov    rcx,QWORD PTR [rax+0x8]
  3f9309:	8b 45 ec             	mov    eax,DWORD PTR [rbp-0x14]
  3f930c:	48 63 d0             	movsxd rdx,eax
  3f930f:	48 89 d0             	mov    rax,rdx
  3f9312:	48 c1 e0 03          	shl    rax,0x3
  3f9316:	48 29 d0             	sub    rax,rdx
  3f9319:	48 c1 e0 03          	shl    rax,0x3
  3f931d:	48 01 c8             	add    rax,rcx
  3f9320:	8b 00                	mov    eax,DWORD PTR [rax]
  3f9322:	83 f8 01             	cmp    eax,0x1
  3f9325:	74 0e                	je     3f9335 <_init-0x712b>
  3f9327:	83 f8 02             	cmp    eax,0x2
  3f932a:	0f 84 3f 01 00 00    	je     3f946f <_init-0x6ff1>
  3f9330:	e9 7b 01 00 00       	jmp    3f94b0 <_init-0x6fb0>
  3f9335:	48 8b 85 40 ff ff ff 	mov    rax,QWORD PTR [rbp-0xc0]
  3f933c:	48 8b 48 08          	mov    rcx,QWORD PTR [rax+0x8]
  3f9340:	8b 45 ec             	mov    eax,DWORD PTR [rbp-0x14]
  3f9343:	48 63 d0             	movsxd rdx,eax
  3f9346:	48 89 d0             	mov    rax,rdx
  3f9349:	48 c1 e0 03          	shl    rax,0x3
  3f934d:	48 29 d0             	sub    rax,rdx
  3f9350:	48 c1 e0 03          	shl    rax,0x3
  3f9354:	48 01 c8             	add    rax,rcx
  3f9357:	48 8b 40 08          	mov    rax,QWORD PTR [rax+0x8]
  3f935b:	48 85 c0             	test   rax,rax
  3f935e:	0f 95 c0             	setne  al
  3f9361:	0f b6 c0             	movzx  eax,al
  3f9364:	85 c0                	test   eax,eax
  3f9366:	74 0a                	je     3f9372 <_init-0x70ee>
  3f9368:	83 f8 01             	cmp    eax,0x1
  3f936b:	74 6c                	je     3f93d9 <_init-0x7087>
  3f936d:	e9 3e 01 00 00       	jmp    3f94b0 <_init-0x6fb0>
  3f9372:	48 8b 85 40 ff ff ff 	mov    rax,QWORD PTR [rbp-0xc0]
  3f9379:	48 8b 48 08          	mov    rcx,QWORD PTR [rax+0x8]
  3f937d:	8b 45 ec             	mov    eax,DWORD PTR [rbp-0x14]
  3f9380:	48 63 d0             	movsxd rdx,eax
  3f9383:	48 89 d0             	mov    rax,rdx
  3f9386:	48 c1 e0 03          	shl    rax,0x3
  3f938a:	48 29 d0             	sub    rax,rdx
  3f938d:	48 c1 e0 03          	shl    rax,0x3
  3f9391:	48 01 c8             	add    rax,rcx
  3f9394:	48 8b 50 10          	mov    rdx,QWORD PTR [rax+0x10]
  3f9398:	48 8b 85 40 ff ff ff 	mov    rax,QWORD PTR [rbp-0xc0]
  3f939f:	48 89 50 20          	mov    QWORD PTR [rax+0x20],rdx
  3f93a3:	48 8b 85 40 ff ff ff 	mov    rax,QWORD PTR [rbp-0xc0]
  3f93aa:	48 8b 48 08          	mov    rcx,QWORD PTR [rax+0x8]
  3f93ae:	8b 45 ec             	mov    eax,DWORD PTR [rbp-0x14]
  3f93b1:	48 63 d0             	movsxd rdx,eax
  3f93b4:	48 89 d0             	mov    rax,rdx
  3f93b7:	48 c1 e0 03          	shl    rax,0x3
  3f93bb:	48 29 d0             	sub    rax,rdx
  3f93be:	48 c1 e0 03          	shl    rax,0x3
  3f93c2:	48 01 c8             	add    rax,rcx
  3f93c5:	48 8b 50 28          	mov    rdx,QWORD PTR [rax+0x28]
  3f93c9:	48 8b 85 40 ff ff ff 	mov    rax,QWORD PTR [rbp-0xc0]
  3f93d0:	48 89 50 30          	mov    QWORD PTR [rax+0x30],rdx
  3f93d4:	e9 94 00 00 00       	jmp    3f946d <_init-0x6ff3>
  3f93d9:	48 8b 85 40 ff ff ff 	mov    rax,QWORD PTR [rbp-0xc0]
  3f93e0:	48 8b 48 08          	mov    rcx,QWORD PTR [rax+0x8]
  3f93e4:	8b 45 ec             	mov    eax,DWORD PTR [rbp-0x14]
  3f93e7:	48 63 d0             	movsxd rdx,eax
  3f93ea:	48 89 d0             	mov    rax,rdx
  3f93ed:	48 c1 e0 03          	shl    rax,0x3
  3f93f1:	48 29 d0             	sub    rax,rdx
  3f93f4:	48 c1 e0 03          	shl    rax,0x3
  3f93f8:	48 01 c8             	add    rax,rcx
  3f93fb:	48 8b 50 10          	mov    rdx,QWORD PTR [rax+0x10]
  3f93ff:	48 8b 85 40 ff ff ff 	mov    rax,QWORD PTR [rbp-0xc0]
  3f9406:	48 89 50 28          	mov    QWORD PTR [rax+0x28],rdx
  3f940a:	48 8b 85 40 ff ff ff 	mov    rax,QWORD PTR [rbp-0xc0]
  3f9411:	48 8b 48 08          	mov    rcx,QWORD PTR [rax+0x8]
  3f9415:	8b 45 ec             	mov    eax,DWORD PTR [rbp-0x14]
  3f9418:	48 63 d0             	movsxd rdx,eax
  3f941b:	48 89 d0             	mov    rax,rdx
  3f941e:	48 c1 e0 03          	shl    rax,0x3
  3f9422:	48 29 d0             	sub    rax,rdx
  3f9425:	48 c1 e0 03          	shl    rax,0x3
  3f9429:	48 01 c8             	add    rax,rcx
  3f942c:	48 8b 50 28          	mov    rdx,QWORD PTR [rax+0x28]
  3f9430:	48 8b 85 40 ff ff ff 	mov    rax,QWORD PTR [rbp-0xc0]
  3f9437:	48 89 50 38          	mov    QWORD PTR [rax+0x38],rdx
  3f943b:	48 8b 85 40 ff ff ff 	mov    rax,QWORD PTR [rbp-0xc0]
  3f9442:	48 8b 48 08          	mov    rcx,QWORD PTR [rax+0x8]
  3f9446:	8b 45 ec             	mov    eax,DWORD PTR [rbp-0x14]
  3f9449:	48 63 d0             	movsxd rdx,eax
  3f944c:	48 89 d0             	mov    rax,rdx
  3f944f:	48 c1 e0 03          	shl    rax,0x3
  3f9453:	48 29 d0             	sub    rax,rdx
  3f9456:	48 c1 e0 03          	shl    rax,0x3
  3f945a:	48 01 c8             	add    rax,rcx
  3f945d:	48 8b 50 08          	mov    rdx,QWORD PTR [rax+0x8]
  3f9461:	48 8b 85 40 ff ff ff 	mov    rax,QWORD PTR [rbp-0xc0]
  3f9468:	48 89 50 40          	mov    QWORD PTR [rax+0x40],rdx
  3f946c:	90                   	nop
  3f946d:	eb 41                	jmp    3f94b0 <_init-0x6fb0>
  3f946f:	48 8b 85 40 ff ff ff 	mov    rax,QWORD PTR [rbp-0xc0]
  3f9476:	48 8b 48 50          	mov    rcx,QWORD PTR [rax+0x50]
  3f947a:	48 8b 85 40 ff ff ff 	mov    rax,QWORD PTR [rbp-0xc0]
  3f9481:	48 8b 70 08          	mov    rsi,QWORD PTR [rax+0x8]
  3f9485:	8b 45 ec             	mov    eax,DWORD PTR [rbp-0x14]
  3f9488:	48 63 d0             	movsxd rdx,eax
  3f948b:	48 89 d0             	mov    rax,rdx
  3f948e:	48 c1 e0 03          	shl    rax,0x3
  3f9492:	48 29 d0             	sub    rax,rdx
  3f9495:	48 c1 e0 03          	shl    rax,0x3
  3f9499:	48 01 f0             	add    rax,rsi
  3f949c:	48 8b 40 08          	mov    rax,QWORD PTR [rax+0x8]
  3f94a0:	48 8d 14 01          	lea    rdx,[rcx+rax*1]
  3f94a4:	48 8b 85 40 ff ff ff 	mov    rax,QWORD PTR [rbp-0xc0]
  3f94ab:	48 89 50 18          	mov    QWORD PTR [rax+0x18],rdx
  3f94af:	90                   	nop
  3f94b0:	83 45 ec 01          	add    DWORD PTR [rbp-0x14],0x1
  3f94b4:	48 8b 85 40 ff ff ff 	mov    rax,QWORD PTR [rbp-0xc0]
  3f94bb:	48 8b 00             	mov    rax,QWORD PTR [rax]
  3f94be:	0f b7 40 38          	movzx  eax,WORD PTR [rax+0x38]
  3f94c2:	0f b7 c0             	movzx  eax,ax
  3f94c5:	39 45 ec             	cmp    DWORD PTR [rbp-0x14],eax
  3f94c8:	0f 8c 30 fe ff ff    	jl     3f92fe <_init-0x7162>
  3f94ce:	48 8b 85 40 ff ff ff 	mov    rax,QWORD PTR [rbp-0xc0]
  3f94d5:	48 8b 8d 50 ff ff ff 	mov    rcx,QWORD PTR [rbp-0xb0]
  3f94dc:	48 8b 9d 58 ff ff ff 	mov    rbx,QWORD PTR [rbp-0xa8]
  3f94e3:	48 89 48 68          	mov    QWORD PTR [rax+0x68],rcx
  3f94e7:	48 89 58 70          	mov    QWORD PTR [rax+0x70],rbx
  3f94eb:	48 8b 8d 60 ff ff ff 	mov    rcx,QWORD PTR [rbp-0xa0]
  3f94f2:	48 8b 9d 68 ff ff ff 	mov    rbx,QWORD PTR [rbp-0x98]
  3f94f9:	48 89 48 78          	mov    QWORD PTR [rax+0x78],rcx
  3f94fd:	48 89 98 80 00 00 00 	mov    QWORD PTR [rax+0x80],rbx
  3f9504:	48 8b 8d 70 ff ff ff 	mov    rcx,QWORD PTR [rbp-0x90]
  3f950b:	48 8b 9d 78 ff ff ff 	mov    rbx,QWORD PTR [rbp-0x88]
  3f9512:	48 89 88 88 00 00 00 	mov    QWORD PTR [rax+0x88],rcx
  3f9519:	48 89 98 90 00 00 00 	mov    QWORD PTR [rax+0x90],rbx
  3f9520:	48 8b 4d 80          	mov    rcx,QWORD PTR [rbp-0x80]
  3f9524:	48 8b 5d 88          	mov    rbx,QWORD PTR [rbp-0x78]
  3f9528:	48 89 88 98 00 00 00 	mov    QWORD PTR [rax+0x98],rcx
  3f952f:	48 89 98 a0 00 00 00 	mov    QWORD PTR [rax+0xa0],rbx
  3f9536:	48 8b 4d 90          	mov    rcx,QWORD PTR [rbp-0x70]
  3f953a:	48 8b 5d 98          	mov    rbx,QWORD PTR [rbp-0x68]
  3f953e:	48 89 88 a8 00 00 00 	mov    QWORD PTR [rax+0xa8],rcx
  3f9545:	48 89 98 b0 00 00 00 	mov    QWORD PTR [rax+0xb0],rbx
  3f954c:	48 8b 4d a0          	mov    rcx,QWORD PTR [rbp-0x60]
  3f9550:	48 8b 5d a8          	mov    rbx,QWORD PTR [rbp-0x58]
  3f9554:	48 89 88 b8 00 00 00 	mov    QWORD PTR [rax+0xb8],rcx
  3f955b:	48 89 98 c0 00 00 00 	mov    QWORD PTR [rax+0xc0],rbx
  3f9562:	48 8b 4d b0          	mov    rcx,QWORD PTR [rbp-0x50]
  3f9566:	48 8b 5d b8          	mov    rbx,QWORD PTR [rbp-0x48]
  3f956a:	48 89 88 c8 00 00 00 	mov    QWORD PTR [rax+0xc8],rcx
  3f9571:	48 89 98 d0 00 00 00 	mov    QWORD PTR [rax+0xd0],rbx
  3f9578:	48 8b 4d c0          	mov    rcx,QWORD PTR [rbp-0x40]
  3f957c:	48 8b 5d c8          	mov    rbx,QWORD PTR [rbp-0x38]
  3f9580:	48 89 88 d8 00 00 00 	mov    QWORD PTR [rax+0xd8],rcx
  3f9587:	48 89 98 e0 00 00 00 	mov    QWORD PTR [rax+0xe0],rbx
  3f958e:	48 8b 4d d0          	mov    rcx,QWORD PTR [rbp-0x30]
  3f9592:	48 8b 5d d8          	mov    rbx,QWORD PTR [rbp-0x28]
  3f9596:	48 89 88 e8 00 00 00 	mov    QWORD PTR [rax+0xe8],rcx
  3f959d:	48 89 98 f0 00 00 00 	mov    QWORD PTR [rax+0xf0],rbx
  3f95a4:	48 8b 45 80          	mov    rax,QWORD PTR [rbp-0x80]
  3f95a8:	48 89 c2             	mov    rdx,rax
  3f95ab:	48 8b 85 40 ff ff ff 	mov    rax,QWORD PTR [rbp-0xc0]
  3f95b2:	48 89 50 58          	mov    QWORD PTR [rax+0x58],rdx
  3f95b6:	b8 00 00 00 00       	mov    eax,0x0
  3f95bb:	48 81 c4 b8 00 00 00 	add    rsp,0xb8
  3f95c2:	5b                   	pop    rbx
  3f95c3:	5d                   	pop    rbp
  3f95c4:	c3                   	ret    
  3f95c5:	f3 0f 1e fa          	endbr64 
  3f95c9:	55                   	push   rbp
  3f95ca:	48 89 e5             	mov    rbp,rsp
  3f95cd:	48 83 ec 70          	sub    rsp,0x70
  3f95d1:	48 89 7d 98          	mov    QWORD PTR [rbp-0x68],rdi
  3f95d5:	48 89 75 90          	mov    QWORD PTR [rbp-0x70],rsi
  3f95d9:	c7 45 b4 00 00 00 00 	mov    DWORD PTR [rbp-0x4c],0x0
  3f95e0:	c7 45 f8 ff ff ff ff 	mov    DWORD PTR [rbp-0x8],0xffffffff
  3f95e7:	48 8b 45 98          	mov    rax,QWORD PTR [rbp-0x68]
  3f95eb:	48 8b 40 18          	mov    rax,QWORD PTR [rax+0x18]
  3f95ef:	48 89 45 a8          	mov    QWORD PTR [rbp-0x58],rax
  3f95f3:	48 c7 45 c0 00 00 00 	mov    QWORD PTR [rbp-0x40],0x0
  3f95fa:	00 
  3f95fb:	48 c7 45 b8 00 00 00 	mov    QWORD PTR [rbp-0x48],0x0
  3f9602:	00 
  3f9603:	c7 45 fc 00 00 00 00 	mov    DWORD PTR [rbp-0x4],0x0
  3f960a:	e9 67 01 00 00       	jmp    3f9776 <_init-0x6cea>
  3f960f:	8b 45 fc             	mov    eax,DWORD PTR [rbp-0x4]
  3f9612:	48 98                	cdqe   
  3f9614:	48 c1 e0 04          	shl    rax,0x4
  3f9618:	48 89 c2             	mov    rdx,rax
  3f961b:	48 8b 45 a8          	mov    rax,QWORD PTR [rbp-0x58]
  3f961f:	48 01 d0             	add    rax,rdx
  3f9622:	48 8b 00             	mov    rax,QWORD PTR [rax]
  3f9625:	48 83 f8 17          	cmp    rax,0x17
  3f9629:	0f 87 43 01 00 00    	ja     3f9772 <_init-0x6cee>
  3f962f:	48 8d 14 85 00 00 00 	lea    rdx,[rax*4+0x0]
  3f9636:	00 
  3f9637:	48 8d 05 96 15 00 00 	lea    rax,[rip+0x1596]        # 3fabd4 <_init-0x588c>
  3f963e:	8b 04 02             	mov    eax,DWORD PTR [rdx+rax*1]
  3f9641:	48 98                	cdqe   
  3f9643:	48 8d 15 8a 15 00 00 	lea    rdx,[rip+0x158a]        # 3fabd4 <_init-0x588c>
  3f964a:	48 01 d0             	add    rax,rdx
  3f964d:	3e ff e0             	notrack jmp rax
  3f9650:	48 8b 45 98          	mov    rax,QWORD PTR [rbp-0x68]
  3f9654:	48 8b 50 50          	mov    rdx,QWORD PTR [rax+0x50]
  3f9658:	8b 45 fc             	mov    eax,DWORD PTR [rbp-0x4]
  3f965b:	48 98                	cdqe   
  3f965d:	48 c1 e0 04          	shl    rax,0x4
  3f9661:	48 89 c1             	mov    rcx,rax
  3f9664:	48 8b 45 a8          	mov    rax,QWORD PTR [rbp-0x58]
  3f9668:	48 01 c8             	add    rax,rcx
  3f966b:	48 8b 48 08          	mov    rcx,QWORD PTR [rax+0x8]
  3f966f:	48 8b 45 98          	mov    rax,QWORD PTR [rbp-0x68]
  3f9673:	48 8b 40 20          	mov    rax,QWORD PTR [rax+0x20]
  3f9677:	48 29 c1             	sub    rcx,rax
  3f967a:	48 89 c8             	mov    rax,rcx
  3f967d:	48 01 d0             	add    rax,rdx
  3f9680:	48 89 45 f0          	mov    QWORD PTR [rbp-0x10],rax
  3f9684:	e9 e9 00 00 00       	jmp    3f9772 <_init-0x6cee>
  3f9689:	48 8b 45 98          	mov    rax,QWORD PTR [rbp-0x68]
  3f968d:	48 8b 50 50          	mov    rdx,QWORD PTR [rax+0x50]
  3f9691:	48 8b 45 98          	mov    rax,QWORD PTR [rbp-0x68]
  3f9695:	48 8b 48 40          	mov    rcx,QWORD PTR [rax+0x40]
  3f9699:	8b 45 fc             	mov    eax,DWORD PTR [rbp-0x4]
  3f969c:	48 98                	cdqe   
  3f969e:	48 c1 e0 04          	shl    rax,0x4
  3f96a2:	48 89 c6             	mov    rsi,rax
  3f96a5:	48 8b 45 a8          	mov    rax,QWORD PTR [rbp-0x58]
  3f96a9:	48 01 f0             	add    rax,rsi
  3f96ac:	48 8b 70 08          	mov    rsi,QWORD PTR [rax+0x8]
  3f96b0:	48 8b 45 98          	mov    rax,QWORD PTR [rbp-0x68]
  3f96b4:	48 8b 40 28          	mov    rax,QWORD PTR [rax+0x28]
  3f96b8:	48 29 c6             	sub    rsi,rax
  3f96bb:	48 89 f0             	mov    rax,rsi
  3f96be:	48 01 c8             	add    rax,rcx
  3f96c1:	48 01 d0             	add    rax,rdx
  3f96c4:	48 89 45 e0          	mov    QWORD PTR [rbp-0x20],rax
  3f96c8:	e9 a5 00 00 00       	jmp    3f9772 <_init-0x6cee>
  3f96cd:	48 8b 45 98          	mov    rax,QWORD PTR [rbp-0x68]
  3f96d1:	48 8b 50 50          	mov    rdx,QWORD PTR [rax+0x50]
  3f96d5:	8b 45 fc             	mov    eax,DWORD PTR [rbp-0x4]
  3f96d8:	48 98                	cdqe   
  3f96da:	48 c1 e0 04          	shl    rax,0x4
  3f96de:	48 89 c1             	mov    rcx,rax
  3f96e1:	48 8b 45 a8          	mov    rax,QWORD PTR [rbp-0x58]
  3f96e5:	48 01 c8             	add    rax,rcx
  3f96e8:	48 8b 48 08          	mov    rcx,QWORD PTR [rax+0x8]
  3f96ec:	48 8b 45 98          	mov    rax,QWORD PTR [rbp-0x68]
  3f96f0:	48 8b 40 20          	mov    rax,QWORD PTR [rax+0x20]
  3f96f4:	48 29 c1             	sub    rcx,rax
  3f96f7:	48 89 c8             	mov    rax,rcx
  3f96fa:	48 01 d0             	add    rax,rdx
  3f96fd:	48 89 45 d8          	mov    QWORD PTR [rbp-0x28],rax
  3f9701:	eb 6f                	jmp    3f9772 <_init-0x6cee>
  3f9703:	8b 45 fc             	mov    eax,DWORD PTR [rbp-0x4]
  3f9706:	48 98                	cdqe   
  3f9708:	48 c1 e0 04          	shl    rax,0x4
  3f970c:	48 89 c2             	mov    rdx,rax
  3f970f:	48 8b 45 a8          	mov    rax,QWORD PTR [rbp-0x58]
  3f9713:	48 01 d0             	add    rax,rdx
  3f9716:	48 8b 40 08          	mov    rax,QWORD PTR [rax+0x8]
  3f971a:	48 89 45 d0          	mov    QWORD PTR [rbp-0x30],rax
  3f971e:	eb 52                	jmp    3f9772 <_init-0x6cee>
  3f9720:	48 8b 45 98          	mov    rax,QWORD PTR [rbp-0x68]
  3f9724:	48 8b 50 50          	mov    rdx,QWORD PTR [rax+0x50]
  3f9728:	8b 45 fc             	mov    eax,DWORD PTR [rbp-0x4]
  3f972b:	48 98                	cdqe   
  3f972d:	48 c1 e0 04          	shl    rax,0x4
  3f9731:	48 89 c1             	mov    rcx,rax
  3f9734:	48 8b 45 a8          	mov    rax,QWORD PTR [rbp-0x58]
  3f9738:	48 01 c8             	add    rax,rcx
  3f973b:	48 8b 48 08          	mov    rcx,QWORD PTR [rax+0x8]
  3f973f:	48 8b 45 98          	mov    rax,QWORD PTR [rbp-0x68]
  3f9743:	48 8b 40 20          	mov    rax,QWORD PTR [rax+0x20]
  3f9747:	48 29 c1             	sub    rcx,rax
  3f974a:	48 89 c8             	mov    rax,rcx
  3f974d:	48 01 d0             	add    rax,rdx
  3f9750:	48 89 45 e8          	mov    QWORD PTR [rbp-0x18],rax
  3f9754:	eb 1c                	jmp    3f9772 <_init-0x6cee>
  3f9756:	8b 45 fc             	mov    eax,DWORD PTR [rbp-0x4]
  3f9759:	48 98                	cdqe   
  3f975b:	48 c1 e0 04          	shl    rax,0x4
  3f975f:	48 89 c2             	mov    rdx,rax
  3f9762:	48 8b 45 a8          	mov    rax,QWORD PTR [rbp-0x58]
  3f9766:	48 01 d0             	add    rax,rdx
  3f9769:	48 8b 40 08          	mov    rax,QWORD PTR [rax+0x8]
  3f976d:	48 89 45 c8          	mov    QWORD PTR [rbp-0x38],rax
  3f9771:	90                   	nop
  3f9772:	83 45 fc 01          	add    DWORD PTR [rbp-0x4],0x1
  3f9776:	8b 45 fc             	mov    eax,DWORD PTR [rbp-0x4]
  3f9779:	48 98                	cdqe   
  3f977b:	48 c1 e0 04          	shl    rax,0x4
  3f977f:	48 89 c2             	mov    rdx,rax
  3f9782:	48 8b 45 a8          	mov    rax,QWORD PTR [rbp-0x58]
  3f9786:	48 01 d0             	add    rax,rdx
  3f9789:	48 8b 00             	mov    rax,QWORD PTR [rax]
  3f978c:	48 85 c0             	test   rax,rax
  3f978f:	0f 85 7a fe ff ff    	jne    3f960f <_init-0x6e51>
  3f9795:	48 83 7d f0 00       	cmp    QWORD PTR [rbp-0x10],0x0
  3f979a:	74 07                	je     3f97a3 <_init-0x6cbd>
  3f979c:	48 83 7d e0 00       	cmp    QWORD PTR [rbp-0x20],0x0
  3f97a1:	75 0a                	jne    3f97ad <_init-0x6cb3>
  3f97a3:	b8 ff ff ff ff       	mov    eax,0xffffffff
  3f97a8:	e9 af 01 00 00       	jmp    3f995c <_init-0x6b04>
  3f97ad:	c7 45 fc 00 00 00 00 	mov    DWORD PTR [rbp-0x4],0x0
  3f97b4:	eb 47                	jmp    3f97fd <_init-0x6c63>
  3f97b6:	8b 45 fc             	mov    eax,DWORD PTR [rbp-0x4]
  3f97b9:	48 63 d0             	movsxd rdx,eax
  3f97bc:	48 89 d0             	mov    rax,rdx
  3f97bf:	48 01 c0             	add    rax,rax
  3f97c2:	48 01 d0             	add    rax,rdx
  3f97c5:	48 c1 e0 03          	shl    rax,0x3
  3f97c9:	48 89 c2             	mov    rdx,rax
  3f97cc:	48 8b 45 f0          	mov    rax,QWORD PTR [rbp-0x10]
  3f97d0:	48 01 d0             	add    rax,rdx
  3f97d3:	8b 00                	mov    eax,DWORD PTR [rax]
  3f97d5:	89 c2                	mov    edx,eax
  3f97d7:	48 8b 45 d8          	mov    rax,QWORD PTR [rbp-0x28]
  3f97db:	48 01 d0             	add    rax,rdx
  3f97de:	48 8d 35 e7 13 00 00 	lea    rsi,[rip+0x13e7]        # 3fabcc <_init-0x5894>
  3f97e5:	48 89 c7             	mov    rdi,rax
  3f97e8:	e8 53 12 00 00       	call   3faa40 <_init-0x5a20>
  3f97ed:	85 c0                	test   eax,eax
  3f97ef:	75 08                	jne    3f97f9 <_init-0x6c67>
  3f97f1:	8b 45 fc             	mov    eax,DWORD PTR [rbp-0x4]
  3f97f4:	89 45 f8             	mov    DWORD PTR [rbp-0x8],eax
  3f97f7:	eb 2b                	jmp    3f9824 <_init-0x6c3c>
  3f97f9:	83 45 fc 01          	add    DWORD PTR [rbp-0x4],0x1
  3f97fd:	8b 45 fc             	mov    eax,DWORD PTR [rbp-0x4]
  3f9800:	48 63 d0             	movsxd rdx,eax
  3f9803:	48 89 d0             	mov    rax,rdx
  3f9806:	48 01 c0             	add    rax,rax
  3f9809:	48 01 d0             	add    rax,rdx
  3f980c:	48 c1 e0 03          	shl    rax,0x3
  3f9810:	48 89 c2             	mov    rdx,rax
  3f9813:	48 8b 45 f0          	mov    rax,QWORD PTR [rbp-0x10]
  3f9817:	48 01 d0             	add    rax,rdx
  3f981a:	8b 00                	mov    eax,DWORD PTR [rax]
  3f981c:	89 c0                	mov    eax,eax
  3f981e:	48 39 45 d0          	cmp    QWORD PTR [rbp-0x30],rax
  3f9822:	73 92                	jae    3f97b6 <_init-0x6caa>
  3f9824:	83 7d f8 ff          	cmp    DWORD PTR [rbp-0x8],0xffffffff
  3f9828:	75 0a                	jne    3f9834 <_init-0x6c2c>
  3f982a:	b8 ff ff ff ff       	mov    eax,0xffffffff
  3f982f:	e9 28 01 00 00       	jmp    3f995c <_init-0x6b04>
  3f9834:	c7 45 fc 00 00 00 00 	mov    DWORD PTR [rbp-0x4],0x0
  3f983b:	e9 c4 00 00 00       	jmp    3f9904 <_init-0x6b5c>
  3f9840:	8b 45 fc             	mov    eax,DWORD PTR [rbp-0x4]
  3f9843:	48 63 d0             	movsxd rdx,eax
  3f9846:	48 89 d0             	mov    rax,rdx
  3f9849:	48 01 c0             	add    rax,rax
  3f984c:	48 01 d0             	add    rax,rdx
  3f984f:	48 c1 e0 03          	shl    rax,0x3
  3f9853:	48 89 c2             	mov    rdx,rax
  3f9856:	48 8b 45 e8          	mov    rax,QWORD PTR [rbp-0x18]
  3f985a:	48 01 d0             	add    rax,rdx
  3f985d:	48 8b 40 08          	mov    rax,QWORD PTR [rax+0x8]
  3f9861:	48 c1 e8 20          	shr    rax,0x20
  3f9865:	48 89 c2             	mov    rdx,rax
  3f9868:	48 89 d0             	mov    rax,rdx
  3f986b:	48 01 c0             	add    rax,rax
  3f986e:	48 01 d0             	add    rax,rdx
  3f9871:	48 c1 e0 03          	shl    rax,0x3
  3f9875:	48 89 c2             	mov    rdx,rax
  3f9878:	48 8b 45 f0          	mov    rax,QWORD PTR [rbp-0x10]
  3f987c:	48 01 d0             	add    rax,rdx
  3f987f:	8b 00                	mov    eax,DWORD PTR [rax]
  3f9881:	89 c2                	mov    edx,eax
  3f9883:	48 8b 45 d8          	mov    rax,QWORD PTR [rbp-0x28]
  3f9887:	48 01 d0             	add    rax,rdx
  3f988a:	48 8d 35 3b 13 00 00 	lea    rsi,[rip+0x133b]        # 3fabcc <_init-0x5894>
  3f9891:	48 89 c7             	mov    rdi,rax
  3f9894:	e8 a7 11 00 00       	call   3faa40 <_init-0x5a20>
  3f9899:	85 c0                	test   eax,eax
  3f989b:	75 63                	jne    3f9900 <_init-0x6b60>
  3f989d:	8b 45 fc             	mov    eax,DWORD PTR [rbp-0x4]
  3f98a0:	48 63 d0             	movsxd rdx,eax
  3f98a3:	48 89 d0             	mov    rax,rdx
  3f98a6:	48 01 c0             	add    rax,rax
  3f98a9:	48 01 d0             	add    rax,rdx
  3f98ac:	48 c1 e0 03          	shl    rax,0x3
  3f98b0:	48 89 c2             	mov    rdx,rax
  3f98b3:	48 8b 45 e8          	mov    rax,QWORD PTR [rbp-0x18]
  3f98b7:	48 01 d0             	add    rax,rdx
  3f98ba:	48 8b 00             	mov    rax,QWORD PTR [rax]
  3f98bd:	48 89 45 c0          	mov    QWORD PTR [rbp-0x40],rax
  3f98c1:	48 8b 45 98          	mov    rax,QWORD PTR [rbp-0x68]
  3f98c5:	48 8b 48 40          	mov    rcx,QWORD PTR [rax+0x40]
  3f98c9:	8b 45 fc             	mov    eax,DWORD PTR [rbp-0x4]
  3f98cc:	48 63 d0             	movsxd rdx,eax
  3f98cf:	48 89 d0             	mov    rax,rdx
  3f98d2:	48 01 c0             	add    rax,rax
  3f98d5:	48 01 d0             	add    rax,rdx
  3f98d8:	48 c1 e0 03          	shl    rax,0x3
  3f98dc:	48 89 c2             	mov    rdx,rax
  3f98df:	48 8b 45 e8          	mov    rax,QWORD PTR [rbp-0x18]
  3f98e3:	48 01 d0             	add    rax,rdx
  3f98e6:	48 8b 10             	mov    rdx,QWORD PTR [rax]
  3f98e9:	48 8b 45 98          	mov    rax,QWORD PTR [rbp-0x68]
  3f98ed:	48 8b 40 28          	mov    rax,QWORD PTR [rax+0x28]
  3f98f1:	48 29 c2             	sub    rdx,rax
  3f98f4:	48 89 d0             	mov    rax,rdx
  3f98f7:	48 01 c8             	add    rax,rcx
  3f98fa:	48 89 45 b8          	mov    QWORD PTR [rbp-0x48],rax
  3f98fe:	eb 2b                	jmp    3f992b <_init-0x6b35>
  3f9900:	83 45 fc 01          	add    DWORD PTR [rbp-0x4],0x1
  3f9904:	8b 45 fc             	mov    eax,DWORD PTR [rbp-0x4]
  3f9907:	48 63 c8             	movsxd rcx,eax
  3f990a:	48 8b 45 c8          	mov    rax,QWORD PTR [rbp-0x38]
  3f990e:	48 ba ab aa aa aa aa 	movabs rdx,0xaaaaaaaaaaaaaaab
  3f9915:	aa aa aa 
  3f9918:	48 f7 e2             	mul    rdx
  3f991b:	48 89 d0             	mov    rax,rdx
  3f991e:	48 c1 e8 04          	shr    rax,0x4
  3f9922:	48 39 c1             	cmp    rcx,rax
  3f9925:	0f 82 15 ff ff ff    	jb     3f9840 <_init-0x6c20>
  3f992b:	48 83 7d c0 00       	cmp    QWORD PTR [rbp-0x40],0x0
  3f9930:	75 07                	jne    3f9939 <_init-0x6b27>
  3f9932:	b8 ff ff ff ff       	mov    eax,0xffffffff
  3f9937:	eb 23                	jmp    3f995c <_init-0x6b04>
  3f9939:	48 8b 45 98          	mov    rax,QWORD PTR [rbp-0x68]
  3f993d:	48 8b 50 50          	mov    rdx,QWORD PTR [rax+0x50]
  3f9941:	48 8b 45 b8          	mov    rax,QWORD PTR [rbp-0x48]
  3f9945:	48 01 d0             	add    rax,rdx
  3f9948:	48 89 45 a0          	mov    QWORD PTR [rbp-0x60],rax
  3f994c:	48 8b 45 a0          	mov    rax,QWORD PTR [rbp-0x60]
  3f9950:	48 8b 55 90          	mov    rdx,QWORD PTR [rbp-0x70]
  3f9954:	48 89 10             	mov    QWORD PTR [rax],rdx
  3f9957:	b8 00 00 00 00       	mov    eax,0x0
  3f995c:	c9                   	leave  
  3f995d:	c3                   	ret    
  3f995e:	f3 0f 1e fa          	endbr64 
  3f9962:	55                   	push   rbp
  3f9963:	48 89 e5             	mov    rbp,rsp
  3f9966:	48 81 ec 00 10 00 00 	sub    rsp,0x1000
  3f996d:	48 83 0c 24 00       	or     QWORD PTR [rsp],0x0
  3f9972:	48 81 ec d0 00 00 00 	sub    rsp,0xd0
  3f9979:	48 89 bd 38 ef ff ff 	mov    QWORD PTR [rbp-0x10c8],rdi
  3f9980:	c7 45 f4 00 00 00 00 	mov    DWORD PTR [rbp-0xc],0x0
  3f9987:	48 8b 85 38 ef ff ff 	mov    rax,QWORD PTR [rbp-0x10c8]
  3f998e:	ba 00 00 00 00       	mov    edx,0x0
  3f9993:	be 00 00 00 00       	mov    esi,0x0
  3f9998:	48 89 c7             	mov    rdi,rax
  3f999b:	e8 d8 04 00 00       	call   3f9e78 <_init-0x65e8>
  3f99a0:	89 45 f0             	mov    DWORD PTR [rbp-0x10],eax
  3f99a3:	83 7d f0 00          	cmp    DWORD PTR [rbp-0x10],0x0
  3f99a7:	79 0a                	jns    3f99b3 <_init-0x6aad>
  3f99a9:	b8 ff ff ff ff       	mov    eax,0xffffffff
  3f99ae:	e9 27 01 00 00       	jmp    3f9ada <_init-0x6986>
  3f99b3:	8b 45 f0             	mov    eax,DWORD PTR [rbp-0x10]
  3f99b6:	48 98                	cdqe   
  3f99b8:	48 8d 8d 40 ef ff ff 	lea    rcx,[rbp-0x10c0]
  3f99bf:	ba 00 10 00 00       	mov    edx,0x1000
  3f99c4:	48 89 ce             	mov    rsi,rcx
  3f99c7:	48 89 c7             	mov    rdi,rax
  3f99ca:	e8 fd 04 00 00       	call   3f9ecc <_init-0x6594>
  3f99cf:	85 c0                	test   eax,eax
  3f99d1:	79 0a                	jns    3f99dd <_init-0x6a83>
  3f99d3:	b8 ff ff ff ff       	mov    eax,0xffffffff
  3f99d8:	e9 fd 00 00 00       	jmp    3f9ada <_init-0x6986>
  3f99dd:	8b 45 f0             	mov    eax,DWORD PTR [rbp-0x10]
  3f99e0:	89 c7                	mov    edi,eax
  3f99e2:	e8 c7 04 00 00       	call   3f9eae <_init-0x65b2>
  3f99e7:	48 8d 85 40 ef ff ff 	lea    rax,[rbp-0x10c0]
  3f99ee:	48 89 45 e8          	mov    QWORD PTR [rbp-0x18],rax
  3f99f2:	48 8b 45 e8          	mov    rax,QWORD PTR [rbp-0x18]
  3f99f6:	48 8b 40 20          	mov    rax,QWORD PTR [rax+0x20]
  3f99fa:	48 8d 95 40 ef ff ff 	lea    rdx,[rbp-0x10c0]
  3f9a01:	48 01 d0             	add    rax,rdx
  3f9a04:	48 89 45 e0          	mov    QWORD PTR [rbp-0x20],rax
  3f9a08:	48 8d 85 40 ef ff ff 	lea    rax,[rbp-0x10c0]
  3f9a0f:	ba 04 00 00 00       	mov    edx,0x4
  3f9a14:	48 89 c6             	mov    rsi,rax
  3f9a17:	48 8d 3d 16 12 00 00 	lea    rdi,[rip+0x1216]        # 3fac34 <_init-0x582c>
  3f9a1e:	e8 7d 10 00 00       	call   3faaa0 <_init-0x59c0>
  3f9a23:	85 c0                	test   eax,eax
  3f9a25:	74 0a                	je     3f9a31 <_init-0x6a2f>
  3f9a27:	b8 ff ff ff ff       	mov    eax,0xffffffff
  3f9a2c:	e9 a9 00 00 00       	jmp    3f9ada <_init-0x6986>
  3f9a31:	48 8b 45 e8          	mov    rax,QWORD PTR [rbp-0x18]
  3f9a35:	48 83 c0 09          	add    rax,0x9
  3f9a39:	8b 00                	mov    eax,DWORD PTR [rax]
  3f9a3b:	89 45 dc             	mov    DWORD PTR [rbp-0x24],eax
  3f9a3e:	81 7d dc 25 5d 01 00 	cmp    DWORD PTR [rbp-0x24],0x15d25
  3f9a45:	75 0a                	jne    3f9a51 <_init-0x6a0f>
  3f9a47:	b8 ff ff ff ff       	mov    eax,0xffffffff
  3f9a4c:	e9 89 00 00 00       	jmp    3f9ada <_init-0x6986>
  3f9a51:	48 8b 45 e8          	mov    rax,QWORD PTR [rbp-0x18]
  3f9a55:	0f b7 40 10          	movzx  eax,WORD PTR [rax+0x10]
  3f9a59:	66 83 f8 02          	cmp    ax,0x2
  3f9a5d:	74 07                	je     3f9a66 <_init-0x69fa>
  3f9a5f:	b8 ff ff ff ff       	mov    eax,0xffffffff
  3f9a64:	eb 74                	jmp    3f9ada <_init-0x6986>
  3f9a66:	48 8b 45 e8          	mov    rax,QWORD PTR [rbp-0x18]
  3f9a6a:	0f b7 40 12          	movzx  eax,WORD PTR [rax+0x12]
  3f9a6e:	66 83 f8 3e          	cmp    ax,0x3e
  3f9a72:	74 07                	je     3f9a7b <_init-0x69e5>
  3f9a74:	b8 ff ff ff ff       	mov    eax,0xffffffff
  3f9a79:	eb 5f                	jmp    3f9ada <_init-0x6986>
  3f9a7b:	c7 45 fc 00 00 00 00 	mov    DWORD PTR [rbp-0x4],0x0
  3f9a82:	c7 45 f8 00 00 00 00 	mov    DWORD PTR [rbp-0x8],0x0
  3f9a89:	eb 2d                	jmp    3f9ab8 <_init-0x69a8>
  3f9a8b:	8b 45 f8             	mov    eax,DWORD PTR [rbp-0x8]
  3f9a8e:	48 63 d0             	movsxd rdx,eax
  3f9a91:	48 89 d0             	mov    rax,rdx
  3f9a94:	48 c1 e0 03          	shl    rax,0x3
  3f9a98:	48 29 d0             	sub    rax,rdx
  3f9a9b:	48 c1 e0 03          	shl    rax,0x3
  3f9a9f:	48 89 c2             	mov    rdx,rax
  3f9aa2:	48 8b 45 e0          	mov    rax,QWORD PTR [rbp-0x20]
  3f9aa6:	48 01 d0             	add    rax,rdx
  3f9aa9:	8b 00                	mov    eax,DWORD PTR [rax]
  3f9aab:	83 f8 02             	cmp    eax,0x2
  3f9aae:	75 04                	jne    3f9ab4 <_init-0x69ac>
  3f9ab0:	83 45 fc 01          	add    DWORD PTR [rbp-0x4],0x1
  3f9ab4:	83 45 f8 01          	add    DWORD PTR [rbp-0x8],0x1
  3f9ab8:	48 8b 45 e8          	mov    rax,QWORD PTR [rbp-0x18]
  3f9abc:	0f b7 40 38          	movzx  eax,WORD PTR [rax+0x38]
  3f9ac0:	0f b7 c0             	movzx  eax,ax
  3f9ac3:	39 45 f8             	cmp    DWORD PTR [rbp-0x8],eax
  3f9ac6:	7c c3                	jl     3f9a8b <_init-0x69d5>
  3f9ac8:	83 7d fc 00          	cmp    DWORD PTR [rbp-0x4],0x0
  3f9acc:	75 07                	jne    3f9ad5 <_init-0x698b>
  3f9ace:	b8 ff ff ff ff       	mov    eax,0xffffffff
  3f9ad3:	eb 05                	jmp    3f9ada <_init-0x6986>
  3f9ad5:	b8 00 00 00 00       	mov    eax,0x0
  3f9ada:	c9                   	leave  
  3f9adb:	c3                   	ret    
  3f9adc:	f3 0f 1e fa          	endbr64 
  3f9ae0:	55                   	push   rbp
  3f9ae1:	48 89 e5             	mov    rbp,rsp
  3f9ae4:	4c 8d 9c 24 00 80 ff 	lea    r11,[rsp-0x8000]
  3f9aeb:	ff 
  3f9aec:	48 81 ec 00 10 00 00 	sub    rsp,0x1000
  3f9af3:	48 83 0c 24 00       	or     QWORD PTR [rsp],0x0
  3f9af8:	4c 39 dc             	cmp    rsp,r11
  3f9afb:	75 ef                	jne    3f9aec <_init-0x6974>
  3f9afd:	48 81 ec 60 03 00 00 	sub    rsp,0x360
  3f9b04:	48 89 bd a8 7c ff ff 	mov    QWORD PTR [rbp-0x8358],rdi
  3f9b0b:	48 c7 45 90 00 00 00 	mov    QWORD PTR [rbp-0x70],0x0
  3f9b12:	00 
  3f9b13:	48 c7 45 e8 00 00 00 	mov    QWORD PTR [rbp-0x18],0x0
  3f9b1a:	00 
  3f9b1b:	c7 45 f8 04 00 00 00 	mov    DWORD PTR [rbp-0x8],0x4
  3f9b22:	c7 45 f4 00 00 00 00 	mov    DWORD PTR [rbp-0xc],0x0
  3f9b29:	48 8d 05 09 11 00 00 	lea    rax,[rip+0x1109]        # 3fac39 <_init-0x5827>
  3f9b30:	48 89 85 e0 7c ff ff 	mov    QWORD PTR [rbp-0x8320],rax
  3f9b37:	48 8d 05 01 11 00 00 	lea    rax,[rip+0x1101]        # 3fac3f <_init-0x5821>
  3f9b3e:	48 89 85 e8 7c ff ff 	mov    QWORD PTR [rbp-0x8318],rax
  3f9b45:	48 8d 05 fd 10 00 00 	lea    rax,[rip+0x10fd]        # 3fac49 <_init-0x5817>
  3f9b4c:	48 89 85 f0 7c ff ff 	mov    QWORD PTR [rbp-0x8310],rax
  3f9b53:	48 8d 05 f4 10 00 00 	lea    rax,[rip+0x10f4]        # 3fac4e <_init-0x5812>
  3f9b5a:	48 89 85 f8 7c ff ff 	mov    QWORD PTR [rbp-0x8308],rax
  3f9b61:	66 c7 85 de 7c ff ff 	mov    WORD PTR [rbp-0x8322],0x2e
  3f9b68:	2e 00 
  3f9b6a:	48 8d 85 de 7c ff ff 	lea    rax,[rbp-0x8322]
  3f9b71:	48 89 45 e8          	mov    QWORD PTR [rbp-0x18],rax
  3f9b75:	48 8b 45 e8          	mov    rax,QWORD PTR [rbp-0x18]
  3f9b79:	48 8d 35 d7 10 00 00 	lea    rsi,[rip+0x10d7]        # 3fac57 <_init-0x5809>
  3f9b80:	48 89 c7             	mov    rdi,rax
  3f9b83:	e8 b8 0e 00 00       	call   3faa40 <_init-0x5a20>
  3f9b88:	85 c0                	test   eax,eax
  3f9b8a:	75 07                	jne    3f9b93 <_init-0x68cd>
  3f9b8c:	c7 45 f8 01 00 00 00 	mov    DWORD PTR [rbp-0x8],0x1
  3f9b93:	48 8b 45 e8          	mov    rax,QWORD PTR [rbp-0x18]
  3f9b97:	ba 00 00 00 00       	mov    edx,0x0
  3f9b9c:	be 00 00 01 00       	mov    esi,0x10000
  3f9ba1:	48 89 c7             	mov    rdi,rax
  3f9ba4:	e8 cf 02 00 00       	call   3f9e78 <_init-0x65e8>
  3f9ba9:	89 45 e4             	mov    DWORD PTR [rbp-0x1c],eax
  3f9bac:	83 7d e4 00          	cmp    DWORD PTR [rbp-0x1c],0x0
  3f9bb0:	0f 88 7f 02 00 00    	js     3f9e35 <_init-0x662b>
  3f9bb6:	48 8d 85 00 7e ff ff 	lea    rax,[rbp-0x8200]
  3f9bbd:	48 89 c7             	mov    rdi,rax
  3f9bc0:	e8 b1 f0 ff ff       	call   3f8c76 <_init-0x77ea>
  3f9bc5:	8b 45 e4             	mov    eax,DWORD PTR [rbp-0x1c]
  3f9bc8:	48 8d 8d 90 7f ff ff 	lea    rcx,[rbp-0x8070]
  3f9bcf:	ba 00 80 00 00       	mov    edx,0x8000
  3f9bd4:	48 89 ce             	mov    rsi,rcx
  3f9bd7:	89 c7                	mov    edi,eax
  3f9bd9:	e8 7f 05 00 00       	call   3fa15d <_init-0x6303>
  3f9bde:	89 45 e0             	mov    DWORD PTR [rbp-0x20],eax
  3f9be1:	83 7d e0 00          	cmp    DWORD PTR [rbp-0x20],0x0
  3f9be5:	0f 88 4d 02 00 00    	js     3f9e38 <_init-0x6628>
  3f9beb:	83 7d e0 00          	cmp    DWORD PTR [rbp-0x20],0x0
  3f9bef:	0f 84 e8 01 00 00    	je     3f9ddd <_init-0x6683>
  3f9bf5:	c7 45 dc 00 00 00 00 	mov    DWORD PTR [rbp-0x24],0x0
  3f9bfc:	c7 45 fc 00 00 00 00 	mov    DWORD PTR [rbp-0x4],0x0
  3f9c03:	e9 c4 01 00 00       	jmp    3f9dcc <_init-0x6694>
  3f9c08:	8b 45 fc             	mov    eax,DWORD PTR [rbp-0x4]
  3f9c0b:	48 98                	cdqe   
  3f9c0d:	48 8d 95 90 7f ff ff 	lea    rdx,[rbp-0x8070]
  3f9c14:	48 01 d0             	add    rax,rdx
  3f9c17:	48 89 45 d0          	mov    QWORD PTR [rbp-0x30],rax
  3f9c1b:	48 8b 45 d0          	mov    rax,QWORD PTR [rbp-0x30]
  3f9c1f:	0f b7 40 10          	movzx  eax,WORD PTR [rax+0x10]
  3f9c23:	0f b7 c0             	movzx  eax,ax
  3f9c26:	83 e8 01             	sub    eax,0x1
  3f9c29:	01 45 fc             	add    DWORD PTR [rbp-0x4],eax
  3f9c2c:	48 8b 45 d0          	mov    rax,QWORD PTR [rbp-0x30]
  3f9c30:	48 83 c0 13          	add    rax,0x13
  3f9c34:	48 8d 35 1e 10 00 00 	lea    rsi,[rip+0x101e]        # 3fac59 <_init-0x5807>
  3f9c3b:	48 89 c7             	mov    rdi,rax
  3f9c3e:	e8 fd 0d 00 00       	call   3faa40 <_init-0x5a20>
  3f9c43:	85 c0                	test   eax,eax
  3f9c45:	0f 84 76 01 00 00    	je     3f9dc1 <_init-0x669f>
  3f9c4b:	48 8b 45 d0          	mov    rax,QWORD PTR [rbp-0x30]
  3f9c4f:	0f b6 40 13          	movzx  eax,BYTE PTR [rax+0x13]
  3f9c53:	3c 2e                	cmp    al,0x2e
  3f9c55:	0f 84 69 01 00 00    	je     3f9dc4 <_init-0x669c>
  3f9c5b:	48 8b 45 d0          	mov    rax,QWORD PTR [rbp-0x30]
  3f9c5f:	48 8d 48 13          	lea    rcx,[rax+0x13]
  3f9c63:	48 8d 55 90          	lea    rdx,[rbp-0x70]
  3f9c67:	48 8b 45 e8          	mov    rax,QWORD PTR [rbp-0x18]
  3f9c6b:	48 89 c6             	mov    rsi,rax
  3f9c6e:	48 89 cf             	mov    rdi,rcx
  3f9c71:	e8 6a e6 ff ff       	call   3f82e0 <_init-0x8180>
  3f9c76:	48 89 45 c8          	mov    QWORD PTR [rbp-0x38],rax
  3f9c7a:	48 8b 45 c8          	mov    rax,QWORD PTR [rbp-0x38]
  3f9c7e:	48 89 c7             	mov    rdi,rax
  3f9c81:	e8 d8 fc ff ff       	call   3f995e <_init-0x6b02>
  3f9c86:	85 c0                	test   eax,eax
  3f9c88:	0f 88 39 01 00 00    	js     3f9dc7 <_init-0x6699>
  3f9c8e:	83 7d f4 00          	cmp    DWORD PTR [rbp-0xc],0x0
  3f9c92:	74 39                	je     3f9ccd <_init-0x6793>
  3f9c94:	c7 45 9c 0a 00 00 00 	mov    DWORD PTR [rbp-0x64],0xa
  3f9c9b:	48 8d 85 b0 7c ff ff 	lea    rax,[rbp-0x8350]
  3f9ca2:	be 00 00 00 00       	mov    esi,0x0
  3f9ca7:	48 89 c7             	mov    rdi,rax
  3f9caa:	e8 e2 04 00 00       	call   3fa191 <_init-0x62cf>
  3f9caf:	48 8d 85 b0 7c ff ff 	lea    rax,[rbp-0x8350]
  3f9cb6:	48 83 c0 08          	add    rax,0x8
  3f9cba:	48 89 c7             	mov    rdi,rax
  3f9cbd:	e8 da e5 ff ff       	call   3f829c <_init-0x81c4>
  3f9cc2:	99                   	cdq    
  3f9cc3:	f7 7d 9c             	idiv   DWORD PTR [rbp-0x64]
  3f9cc6:	89 d0                	mov    eax,edx
  3f9cc8:	89 45 c4             	mov    DWORD PTR [rbp-0x3c],eax
  3f9ccb:	eb 01                	jmp    3f9cce <_init-0x6792>
  3f9ccd:	90                   	nop
  3f9cce:	48 8d 95 00 7d ff ff 	lea    rdx,[rbp-0x8300]
  3f9cd5:	48 8b 45 c8          	mov    rax,QWORD PTR [rbp-0x38]
  3f9cd9:	48 89 d6             	mov    rsi,rdx
  3f9cdc:	48 89 c7             	mov    rdi,rax
  3f9cdf:	e8 b3 f0 ff ff       	call   3f8d97 <_init-0x76c9>
  3f9ce4:	48 8d 95 00 7d ff ff 	lea    rdx,[rbp-0x8300]
  3f9ceb:	48 8d 85 00 7e ff ff 	lea    rax,[rbp-0x8200]
  3f9cf2:	48 89 d6             	mov    rsi,rdx
  3f9cf5:	48 89 c7             	mov    rdi,rax
  3f9cf8:	e8 95 e9 ff ff       	call   3f8692 <_init-0x7dce>
  3f9cfd:	48 89 45 b8          	mov    QWORD PTR [rbp-0x48],rax
  3f9d01:	48 8d 85 00 7d ff ff 	lea    rax,[rbp-0x8300]
  3f9d08:	48 89 c7             	mov    rdi,rax
  3f9d0b:	e8 48 f0 ff ff       	call   3f8d58 <_init-0x7708>
  3f9d10:	48 8d 85 00 7d ff ff 	lea    rax,[rbp-0x8300]
  3f9d17:	48 89 c6             	mov    rsi,rax
  3f9d1a:	48 8d 3d 93 0e 00 00 	lea    rdi,[rip+0xe93]        # 3fabb4 <_init-0x58ac>
  3f9d21:	e8 88 f4 ff ff       	call   3f91ae <_init-0x72b2>
  3f9d26:	e8 ce 0d 00 00       	call   3faaf9 <_init-0x5967>
  3f9d2b:	48 c7 c2 62 2c 40 00 	mov    rdx,0x402c62
  3f9d32:	48 89 d1             	mov    rcx,rdx
  3f9d35:	48 c7 c2 9c 01 40 00 	mov    rdx,0x40019c
  3f9d3c:	48 29 d1             	sub    rcx,rdx
  3f9d3f:	48 89 ca             	mov    rdx,rcx
  3f9d42:	48 29 d0             	sub    rax,rdx
  3f9d45:	48 89 45 b0          	mov    QWORD PTR [rbp-0x50],rax
  3f9d49:	e8 ab 0d 00 00       	call   3faaf9 <_init-0x5967>
  3f9d4e:	48 c7 c2 62 2c 40 00 	mov    rdx,0x402c62
  3f9d55:	48 89 d1             	mov    rcx,rdx
  3f9d58:	48 c7 c2 e1 01 40 00 	mov    rdx,0x4001e1
  3f9d5f:	48 29 d1             	sub    rcx,rdx
  3f9d62:	48 89 ca             	mov    rdx,rcx
  3f9d65:	48 29 d0             	sub    rax,rdx
  3f9d68:	48 89 45 a8          	mov    QWORD PTR [rbp-0x58],rax
  3f9d6c:	48 8b 45 a8          	mov    rax,QWORD PTR [rbp-0x58]
  3f9d70:	48 2b 45 b0          	sub    rax,QWORD PTR [rbp-0x50]
  3f9d74:	48 89 45 a0          	mov    QWORD PTR [rbp-0x60],rax
  3f9d78:	48 8b 55 b8          	mov    rdx,QWORD PTR [rbp-0x48]
  3f9d7c:	48 8b 45 a0          	mov    rax,QWORD PTR [rbp-0x60]
  3f9d80:	48 01 d0             	add    rax,rdx
  3f9d83:	48 8d 50 40          	lea    rdx,[rax+0x40]
  3f9d87:	48 8d 85 00 7d ff ff 	lea    rax,[rbp-0x8300]
  3f9d8e:	48 89 d6             	mov    rsi,rdx
  3f9d91:	48 89 c7             	mov    rdi,rax
  3f9d94:	e8 2c f8 ff ff       	call   3f95c5 <_init-0x6e9b>
  3f9d99:	48 8d 85 00 7d ff ff 	lea    rax,[rbp-0x8300]
  3f9da0:	48 89 c7             	mov    rdi,rax
  3f9da3:	e8 b0 ef ff ff       	call   3f8d58 <_init-0x7708>
  3f9da8:	48 8b 45 c8          	mov    rax,QWORD PTR [rbp-0x38]
  3f9dac:	48 89 c6             	mov    rsi,rax
  3f9daf:	48 8d 3d fe 0d 00 00 	lea    rdi,[rip+0xdfe]        # 3fabb4 <_init-0x58ac>
  3f9db6:	e8 d1 01 00 00       	call   3f9f8c <_init-0x64d4>
  3f9dbb:	83 45 f4 01          	add    DWORD PTR [rbp-0xc],0x1
  3f9dbf:	eb 07                	jmp    3f9dc8 <_init-0x6698>
  3f9dc1:	90                   	nop
  3f9dc2:	eb 04                	jmp    3f9dc8 <_init-0x6698>
  3f9dc4:	90                   	nop
  3f9dc5:	eb 01                	jmp    3f9dc8 <_init-0x6698>
  3f9dc7:	90                   	nop
  3f9dc8:	83 45 fc 01          	add    DWORD PTR [rbp-0x4],0x1
  3f9dcc:	8b 45 fc             	mov    eax,DWORD PTR [rbp-0x4]
  3f9dcf:	3b 45 e0             	cmp    eax,DWORD PTR [rbp-0x20]
  3f9dd2:	0f 8c 30 fe ff ff    	jl     3f9c08 <_init-0x6858>
  3f9dd8:	e9 e8 fd ff ff       	jmp    3f9bc5 <_init-0x689b>
  3f9ddd:	90                   	nop
  3f9dde:	83 6d f8 01          	sub    DWORD PTR [rbp-0x8],0x1
  3f9de2:	83 7d f8 00          	cmp    DWORD PTR [rbp-0x8],0x0
  3f9de6:	7e 0f                	jle    3f9df7 <_init-0x6669>
  3f9de8:	8b 45 e4             	mov    eax,DWORD PTR [rbp-0x1c]
  3f9deb:	89 c7                	mov    edi,eax
  3f9ded:	e8 bc 00 00 00       	call   3f9eae <_init-0x65b2>
  3f9df2:	e9 73 fd ff ff       	jmp    3f9b6a <_init-0x68f6>
  3f9df7:	c7 45 98 32 00 00 00 	mov    DWORD PTR [rbp-0x68],0x32
  3f9dfe:	48 8d 85 c0 7c ff ff 	lea    rax,[rbp-0x8340]
  3f9e05:	be 00 00 00 00       	mov    esi,0x0
  3f9e0a:	48 89 c7             	mov    rdi,rax
  3f9e0d:	e8 7f 03 00 00       	call   3fa191 <_init-0x62cf>
  3f9e12:	48 8d 85 c0 7c ff ff 	lea    rax,[rbp-0x8340]
  3f9e19:	48 83 c0 08          	add    rax,0x8
  3f9e1d:	48 89 c7             	mov    rdi,rax
  3f9e20:	e8 77 e4 ff ff       	call   3f829c <_init-0x81c4>
  3f9e25:	99                   	cdq    
  3f9e26:	f7 7d 98             	idiv   DWORD PTR [rbp-0x68]
  3f9e29:	89 d0                	mov    eax,edx
  3f9e2b:	89 45 c4             	mov    DWORD PTR [rbp-0x3c],eax
  3f9e2e:	e8 02 0d 00 00       	call   3fab35 <_init-0x592b>
  3f9e33:	eb 04                	jmp    3f9e39 <_init-0x6627>
  3f9e35:	90                   	nop
  3f9e36:	eb 01                	jmp    3f9e39 <_init-0x6627>
  3f9e38:	90                   	nop
  3f9e39:	c9                   	leave  
  3f9e3a:	c3                   	ret    
  3f9e3b:	f3 0f 1e fa          	endbr64 
  3f9e3f:	55                   	push   rbp
  3f9e40:	48 89 e5             	mov    rbp,rsp
  3f9e43:	48 c7 c0 66 00 00 00 	mov    rax,0x66
  3f9e4a:	0f 05                	syscall 
  3f9e4c:	48 89 c0             	mov    rax,rax
  3f9e4f:	48 89 45 f8          	mov    QWORD PTR [rbp-0x8],rax
  3f9e53:	48 8b 45 f8          	mov    rax,QWORD PTR [rbp-0x8]
  3f9e57:	5d                   	pop    rbp
  3f9e58:	c3                   	ret    
  3f9e59:	f3 0f 1e fa          	endbr64 
  3f9e5d:	55                   	push   rbp
  3f9e5e:	48 89 e5             	mov    rbp,rsp
  3f9e61:	48 89 7d f8          	mov    QWORD PTR [rbp-0x8],rdi
  3f9e65:	48 8b 45 f8          	mov    rax,QWORD PTR [rbp-0x8]
  3f9e69:	48 89 c7             	mov    rdi,rax
  3f9e6c:	48 c7 c0 3c 00 00 00 	mov    rax,0x3c
  3f9e73:	0f 05                	syscall 
  3f9e75:	90                   	nop
  3f9e76:	5d                   	pop    rbp
  3f9e77:	c3                   	ret    
  3f9e78:	f3 0f 1e fa          	endbr64 
  3f9e7c:	55                   	push   rbp
  3f9e7d:	48 89 e5             	mov    rbp,rsp
  3f9e80:	48 89 7d e8          	mov    QWORD PTR [rbp-0x18],rdi
  3f9e84:	48 89 75 e0          	mov    QWORD PTR [rbp-0x20],rsi
  3f9e88:	48 89 55 d8          	mov    QWORD PTR [rbp-0x28],rdx
  3f9e8c:	48 8b 7d e8          	mov    rdi,QWORD PTR [rbp-0x18]
  3f9e90:	48 8b 75 e0          	mov    rsi,QWORD PTR [rbp-0x20]
  3f9e94:	48 8b 55 d8          	mov    rdx,QWORD PTR [rbp-0x28]
  3f9e98:	48 c7 c0 02 00 00 00 	mov    rax,0x2
  3f9e9f:	0f 05                	syscall 
  3f9ea1:	48 89 c0             	mov    rax,rax
  3f9ea4:	48 89 45 f8          	mov    QWORD PTR [rbp-0x8],rax
  3f9ea8:	48 8b 45 f8          	mov    rax,QWORD PTR [rbp-0x8]
  3f9eac:	5d                   	pop    rbp
  3f9ead:	c3                   	ret    
  3f9eae:	f3 0f 1e fa          	endbr64 
  3f9eb2:	55                   	push   rbp
  3f9eb3:	48 89 e5             	mov    rbp,rsp
  3f9eb6:	89 7d ec             	mov    DWORD PTR [rbp-0x14],edi
  3f9eb9:	48 8b 7d ec          	mov    rdi,QWORD PTR [rbp-0x14]
  3f9ebd:	48 c7 c0 03 00 00 00 	mov    rax,0x3
  3f9ec4:	0f 05                	syscall 
  3f9ec6:	48 8b 45 f8          	mov    rax,QWORD PTR [rbp-0x8]
  3f9eca:	5d                   	pop    rbp
  3f9ecb:	c3                   	ret    
  3f9ecc:	f3 0f 1e fa          	endbr64 
  3f9ed0:	55                   	push   rbp
  3f9ed1:	48 89 e5             	mov    rbp,rsp
  3f9ed4:	48 89 7d e8          	mov    QWORD PTR [rbp-0x18],rdi
  3f9ed8:	48 89 75 e0          	mov    QWORD PTR [rbp-0x20],rsi
  3f9edc:	48 89 55 d8          	mov    QWORD PTR [rbp-0x28],rdx
  3f9ee0:	48 8b 7d e8          	mov    rdi,QWORD PTR [rbp-0x18]
  3f9ee4:	48 8b 75 e0          	mov    rsi,QWORD PTR [rbp-0x20]
  3f9ee8:	48 8b 55 d8          	mov    rdx,QWORD PTR [rbp-0x28]
  3f9eec:	48 c7 c0 00 00 00 00 	mov    rax,0x0
  3f9ef3:	0f 05                	syscall 
  3f9ef5:	48 89 c0             	mov    rax,rax
  3f9ef8:	48 89 45 f8          	mov    QWORD PTR [rbp-0x8],rax
  3f9efc:	48 8b 45 f8          	mov    rax,QWORD PTR [rbp-0x8]
  3f9f00:	5d                   	pop    rbp
  3f9f01:	c3                   	ret    
  3f9f02:	f3 0f 1e fa          	endbr64 
  3f9f06:	55                   	push   rbp
  3f9f07:	48 89 e5             	mov    rbp,rsp
  3f9f0a:	48 89 7d e8          	mov    QWORD PTR [rbp-0x18],rdi
  3f9f0e:	48 89 75 e0          	mov    QWORD PTR [rbp-0x20],rsi
  3f9f12:	48 89 55 d8          	mov    QWORD PTR [rbp-0x28],rdx
  3f9f16:	48 8b 7d e8          	mov    rdi,QWORD PTR [rbp-0x18]
  3f9f1a:	48 8b 75 e0          	mov    rsi,QWORD PTR [rbp-0x20]
  3f9f1e:	48 8b 55 d8          	mov    rdx,QWORD PTR [rbp-0x28]
  3f9f22:	48 c7 c0 01 00 00 00 	mov    rax,0x1
  3f9f29:	0f 05                	syscall 
  3f9f2b:	48 89 c0             	mov    rax,rax
  3f9f2e:	48 89 45 f8          	mov    QWORD PTR [rbp-0x8],rax
  3f9f32:	48 8b 45 f8          	mov    rax,QWORD PTR [rbp-0x8]
  3f9f36:	5d                   	pop    rbp
  3f9f37:	c3                   	ret    
  3f9f38:	f3 0f 1e fa          	endbr64 
  3f9f3c:	55                   	push   rbp
  3f9f3d:	48 89 e5             	mov    rbp,rsp
  3f9f40:	48 89 7d e8          	mov    QWORD PTR [rbp-0x18],rdi
  3f9f44:	48 89 75 e0          	mov    QWORD PTR [rbp-0x20],rsi
  3f9f48:	48 8b 7d e8          	mov    rdi,QWORD PTR [rbp-0x18]
  3f9f4c:	48 8b 75 e0          	mov    rsi,QWORD PTR [rbp-0x20]
  3f9f50:	48 c7 c0 05 00 00 00 	mov    rax,0x5
  3f9f57:	0f 05                	syscall 
  3f9f59:	48 89 c0             	mov    rax,rax
  3f9f5c:	48 89 45 f8          	mov    QWORD PTR [rbp-0x8],rax
  3f9f60:	48 8b 45 f8          	mov    rax,QWORD PTR [rbp-0x8]
  3f9f64:	5d                   	pop    rbp
  3f9f65:	c3                   	ret    
  3f9f66:	f3 0f 1e fa          	endbr64 
  3f9f6a:	55                   	push   rbp
  3f9f6b:	48 89 e5             	mov    rbp,rsp
  3f9f6e:	48 89 7d e8          	mov    QWORD PTR [rbp-0x18],rdi
  3f9f72:	48 8b 7d e8          	mov    rdi,QWORD PTR [rbp-0x18]
  3f9f76:	48 c7 c0 57 00 00 00 	mov    rax,0x57
  3f9f7d:	0f 05                	syscall 
  3f9f7f:	48 89 c0             	mov    rax,rax
  3f9f82:	48 89 45 f8          	mov    QWORD PTR [rbp-0x8],rax
  3f9f86:	48 8b 45 f8          	mov    rax,QWORD PTR [rbp-0x8]
  3f9f8a:	5d                   	pop    rbp
  3f9f8b:	c3                   	ret    
  3f9f8c:	f3 0f 1e fa          	endbr64 
  3f9f90:	55                   	push   rbp
  3f9f91:	48 89 e5             	mov    rbp,rsp
  3f9f94:	48 89 7d e8          	mov    QWORD PTR [rbp-0x18],rdi
  3f9f98:	48 89 75 e0          	mov    QWORD PTR [rbp-0x20],rsi
  3f9f9c:	48 8b 7d e8          	mov    rdi,QWORD PTR [rbp-0x18]
  3f9fa0:	48 8b 75 e0          	mov    rsi,QWORD PTR [rbp-0x20]
  3f9fa4:	48 c7 c0 52 00 00 00 	mov    rax,0x52
  3f9fab:	0f 05                	syscall 
  3f9fad:	48 89 c0             	mov    rax,rax
  3f9fb0:	48 89 45 f8          	mov    QWORD PTR [rbp-0x8],rax
  3f9fb4:	48 8b 45 f8          	mov    rax,QWORD PTR [rbp-0x8]
  3f9fb8:	5d                   	pop    rbp
  3f9fb9:	c3                   	ret    
  3f9fba:	f3 0f 1e fa          	endbr64 
  3f9fbe:	55                   	push   rbp
  3f9fbf:	48 89 e5             	mov    rbp,rsp
  3f9fc2:	48 89 7d e8          	mov    QWORD PTR [rbp-0x18],rdi
  3f9fc6:	48 89 75 e0          	mov    QWORD PTR [rbp-0x20],rsi
  3f9fca:	89 55 dc             	mov    DWORD PTR [rbp-0x24],edx
  3f9fcd:	48 8b 7d e8          	mov    rdi,QWORD PTR [rbp-0x18]
  3f9fd1:	48 8b 75 e0          	mov    rsi,QWORD PTR [rbp-0x20]
  3f9fd5:	48 8b 55 dc          	mov    rdx,QWORD PTR [rbp-0x24]
  3f9fd9:	48 c7 c0 08 00 00 00 	mov    rax,0x8
  3f9fe0:	0f 05                	syscall 
  3f9fe2:	48 89 c0             	mov    rax,rax
  3f9fe5:	48 89 45 f8          	mov    QWORD PTR [rbp-0x8],rax
  3f9fe9:	48 8b 45 f8          	mov    rax,QWORD PTR [rbp-0x8]
  3f9fed:	5d                   	pop    rbp
  3f9fee:	c3                   	ret    
  3f9fef:	f3 0f 1e fa          	endbr64 
  3f9ff3:	55                   	push   rbp
  3f9ff4:	48 89 e5             	mov    rbp,rsp
  3f9ff7:	89 7d ec             	mov    DWORD PTR [rbp-0x14],edi
  3f9ffa:	48 8b 7d ec          	mov    rdi,QWORD PTR [rbp-0x14]
  3f9ffe:	48 c7 c0 4a 00 00 00 	mov    rax,0x4a
  3fa005:	0f 05                	syscall 
  3fa007:	48 89 c0             	mov    rax,rax
  3fa00a:	48 89 45 f8          	mov    QWORD PTR [rbp-0x8],rax
  3fa00e:	48 8b 45 f8          	mov    rax,QWORD PTR [rbp-0x8]
  3fa012:	5d                   	pop    rbp
  3fa013:	c3                   	ret    
  3fa014:	f3 0f 1e fa          	endbr64 
  3fa018:	55                   	push   rbp
  3fa019:	48 89 e5             	mov    rbp,rsp
  3fa01c:	48 89 7d d8          	mov    QWORD PTR [rbp-0x28],rdi
  3fa020:	48 89 75 d0          	mov    QWORD PTR [rbp-0x30],rsi
  3fa024:	48 89 55 c8          	mov    QWORD PTR [rbp-0x38],rdx
  3fa028:	48 89 4d c0          	mov    QWORD PTR [rbp-0x40],rcx
  3fa02c:	4c 89 45 b8          	mov    QWORD PTR [rbp-0x48],r8
  3fa030:	4c 89 4d b0          	mov    QWORD PTR [rbp-0x50],r9
  3fa034:	48 8b 45 b8          	mov    rax,QWORD PTR [rbp-0x48]
  3fa038:	48 89 45 f8          	mov    QWORD PTR [rbp-0x8],rax
  3fa03c:	48 8b 45 b0          	mov    rax,QWORD PTR [rbp-0x50]
  3fa040:	48 89 45 f0          	mov    QWORD PTR [rbp-0x10],rax
  3fa044:	48 8b 45 c0          	mov    rax,QWORD PTR [rbp-0x40]
  3fa048:	48 89 45 e8          	mov    QWORD PTR [rbp-0x18],rax
  3fa04c:	48 8b 7d d8          	mov    rdi,QWORD PTR [rbp-0x28]
  3fa050:	48 8b 75 d0          	mov    rsi,QWORD PTR [rbp-0x30]
  3fa054:	48 8b 55 c8          	mov    rdx,QWORD PTR [rbp-0x38]
  3fa058:	4c 8b 55 c0          	mov    r10,QWORD PTR [rbp-0x40]
  3fa05c:	4c 8b 45 f8          	mov    r8,QWORD PTR [rbp-0x8]
  3fa060:	4c 8b 4d f0          	mov    r9,QWORD PTR [rbp-0x10]
  3fa064:	48 c7 c0 09 00 00 00 	mov    rax,0x9
  3fa06b:	0f 05                	syscall 
  3fa06d:	48 89 c0             	mov    rax,rax
  3fa070:	48 89 45 e0          	mov    QWORD PTR [rbp-0x20],rax
  3fa074:	48 8b 45 e0          	mov    rax,QWORD PTR [rbp-0x20]
  3fa078:	5d                   	pop    rbp
  3fa079:	c3                   	ret    
  3fa07a:	f3 0f 1e fa          	endbr64 
  3fa07e:	55                   	push   rbp
  3fa07f:	48 89 e5             	mov    rbp,rsp
  3fa082:	48 89 7d e8          	mov    QWORD PTR [rbp-0x18],rdi
  3fa086:	48 89 75 e0          	mov    QWORD PTR [rbp-0x20],rsi
  3fa08a:	48 8b 7d e8          	mov    rdi,QWORD PTR [rbp-0x18]
  3fa08e:	48 8b 75 e0          	mov    rsi,QWORD PTR [rbp-0x20]
  3fa092:	48 c7 c0 0b 00 00 00 	mov    rax,0xb
  3fa099:	0f 05                	syscall 
  3fa09b:	48 89 c0             	mov    rax,rax
  3fa09e:	48 89 45 f8          	mov    QWORD PTR [rbp-0x8],rax
  3fa0a2:	48 8b 45 f8          	mov    rax,QWORD PTR [rbp-0x8]
  3fa0a6:	5d                   	pop    rbp
  3fa0a7:	c3                   	ret    
  3fa0a8:	f3 0f 1e fa          	endbr64 
  3fa0ac:	55                   	push   rbp
  3fa0ad:	48 89 e5             	mov    rbp,rsp
  3fa0b0:	48 89 7d e8          	mov    QWORD PTR [rbp-0x18],rdi
  3fa0b4:	48 89 75 e0          	mov    QWORD PTR [rbp-0x20],rsi
  3fa0b8:	89 55 dc             	mov    DWORD PTR [rbp-0x24],edx
  3fa0bb:	48 8b 7d e8          	mov    rdi,QWORD PTR [rbp-0x18]
  3fa0bf:	48 8b 75 e0          	mov    rsi,QWORD PTR [rbp-0x20]
  3fa0c3:	48 8b 55 dc          	mov    rdx,QWORD PTR [rbp-0x24]
  3fa0c7:	48 c7 c0 0a 00 00 00 	mov    rax,0xa
  3fa0ce:	0f 05                	syscall 
  3fa0d0:	48 89 c0             	mov    rax,rax
  3fa0d3:	48 89 45 f8          	mov    QWORD PTR [rbp-0x8],rax
  3fa0d7:	48 8b 45 f8          	mov    rax,QWORD PTR [rbp-0x8]
  3fa0db:	5d                   	pop    rbp
  3fa0dc:	c3                   	ret    
  3fa0dd:	f3 0f 1e fa          	endbr64 
  3fa0e1:	55                   	push   rbp
  3fa0e2:	48 89 e5             	mov    rbp,rsp
  3fa0e5:	48 89 7d e8          	mov    QWORD PTR [rbp-0x18],rdi
  3fa0e9:	48 89 75 e0          	mov    QWORD PTR [rbp-0x20],rsi
  3fa0ed:	48 89 55 d8          	mov    QWORD PTR [rbp-0x28],rdx
  3fa0f1:	48 89 4d d0          	mov    QWORD PTR [rbp-0x30],rcx
  3fa0f5:	48 8b 7d e8          	mov    rdi,QWORD PTR [rbp-0x18]
  3fa0f9:	48 8b 75 e0          	mov    rsi,QWORD PTR [rbp-0x20]
  3fa0fd:	48 8b 55 d8          	mov    rdx,QWORD PTR [rbp-0x28]
  3fa101:	4c 8b 55 d0          	mov    r10,QWORD PTR [rbp-0x30]
  3fa105:	48 c7 c0 65 00 00 00 	mov    rax,0x65
  3fa10c:	0f 05                	syscall 
  3fa10e:	48 89 c0             	mov    rax,rax
  3fa111:	48 89 45 f8          	mov    QWORD PTR [rbp-0x8],rax
  3fa115:	48 8b 45 f8          	mov    rax,QWORD PTR [rbp-0x8]
  3fa119:	5d                   	pop    rbp
  3fa11a:	c3                   	ret    
  3fa11b:	f3 0f 1e fa          	endbr64 
  3fa11f:	55                   	push   rbp
  3fa120:	48 89 e5             	mov    rbp,rsp
  3fa123:	48 89 7d e8          	mov    QWORD PTR [rbp-0x18],rdi
  3fa127:	48 89 75 e0          	mov    QWORD PTR [rbp-0x20],rsi
  3fa12b:	48 89 55 d8          	mov    QWORD PTR [rbp-0x28],rdx
  3fa12f:	48 89 4d d0          	mov    QWORD PTR [rbp-0x30],rcx
  3fa133:	4c 89 45 c8          	mov    QWORD PTR [rbp-0x38],r8
  3fa137:	48 8b 7d e8          	mov    rdi,QWORD PTR [rbp-0x18]
  3fa13b:	48 8b 75 e0          	mov    rsi,QWORD PTR [rbp-0x20]
  3fa13f:	48 8b 55 d8          	mov    rdx,QWORD PTR [rbp-0x28]
  3fa143:	4c 8b 55 d0          	mov    r10,QWORD PTR [rbp-0x30]
  3fa147:	48 c7 c0 9d 00 00 00 	mov    rax,0x9d
  3fa14e:	0f 05                	syscall 
  3fa150:	48 89 c0             	mov    rax,rax
  3fa153:	48 89 45 f8          	mov    QWORD PTR [rbp-0x8],rax
  3fa157:	48 8b 45 f8          	mov    rax,QWORD PTR [rbp-0x8]
  3fa15b:	5d                   	pop    rbp
  3fa15c:	c3                   	ret    
  3fa15d:	f3 0f 1e fa          	endbr64 
  3fa161:	55                   	push   rbp
  3fa162:	48 89 e5             	mov    rbp,rsp
  3fa165:	89 7d ec             	mov    DWORD PTR [rbp-0x14],edi
  3fa168:	48 89 75 e0          	mov    QWORD PTR [rbp-0x20],rsi
  3fa16c:	89 55 e8             	mov    DWORD PTR [rbp-0x18],edx
  3fa16f:	48 8b 7d ec          	mov    rdi,QWORD PTR [rbp-0x14]
  3fa173:	48 8b 75 e0          	mov    rsi,QWORD PTR [rbp-0x20]
  3fa177:	48 8b 55 e8          	mov    rdx,QWORD PTR [rbp-0x18]
  3fa17b:	48 c7 c0 d9 00 00 00 	mov    rax,0xd9
  3fa182:	0f 05                	syscall 
  3fa184:	48 89 c0             	mov    rax,rax
  3fa187:	48 89 45 f8          	mov    QWORD PTR [rbp-0x8],rax
  3fa18b:	48 8b 45 f8          	mov    rax,QWORD PTR [rbp-0x8]
  3fa18f:	5d                   	pop    rbp
  3fa190:	c3                   	ret    
  3fa191:	f3 0f 1e fa          	endbr64 
  3fa195:	55                   	push   rbp
  3fa196:	48 89 e5             	mov    rbp,rsp
  3fa199:	48 89 7d e8          	mov    QWORD PTR [rbp-0x18],rdi
  3fa19d:	48 89 75 e0          	mov    QWORD PTR [rbp-0x20],rsi
  3fa1a1:	48 8b 7d e8          	mov    rdi,QWORD PTR [rbp-0x18]
  3fa1a5:	48 8b 75 e0          	mov    rsi,QWORD PTR [rbp-0x20]
  3fa1a9:	48 c7 c0 60 00 00 00 	mov    rax,0x60
  3fa1b0:	0f 05                	syscall 
  3fa1b2:	48 89 c0             	mov    rax,rax
  3fa1b5:	48 89 45 f8          	mov    QWORD PTR [rbp-0x8],rax
  3fa1b9:	48 8b 45 f8          	mov    rax,QWORD PTR [rbp-0x8]
  3fa1bd:	5d                   	pop    rbp
  3fa1be:	c3                   	ret    
  3fa1bf:	f3 0f 1e fa          	endbr64 
  3fa1c3:	55                   	push   rbp
  3fa1c4:	48 89 e5             	mov    rbp,rsp
  3fa1c7:	48 89 7d d8          	mov    QWORD PTR [rbp-0x28],rdi
  3fa1cb:	48 89 75 d0          	mov    QWORD PTR [rbp-0x30],rsi
  3fa1cf:	89 55 cc             	mov    DWORD PTR [rbp-0x34],edx
  3fa1d2:	48 8b 45 d0          	mov    rax,QWORD PTR [rbp-0x30]
  3fa1d6:	48 89 45 f0          	mov    QWORD PTR [rbp-0x10],rax
  3fa1da:	48 8b 45 d8          	mov    rax,QWORD PTR [rbp-0x28]
  3fa1de:	48 89 45 e8          	mov    QWORD PTR [rbp-0x18],rax
  3fa1e2:	c7 45 fc 00 00 00 00 	mov    DWORD PTR [rbp-0x4],0x0
  3fa1e9:	eb 1b                	jmp    3fa206 <_init-0x625a>
  3fa1eb:	48 8b 45 f0          	mov    rax,QWORD PTR [rbp-0x10]
  3fa1ef:	0f b6 10             	movzx  edx,BYTE PTR [rax]
  3fa1f2:	48 8b 45 e8          	mov    rax,QWORD PTR [rbp-0x18]
  3fa1f6:	88 10                	mov    BYTE PTR [rax],dl
  3fa1f8:	48 83 45 f0 01       	add    QWORD PTR [rbp-0x10],0x1
  3fa1fd:	48 83 45 e8 01       	add    QWORD PTR [rbp-0x18],0x1
  3fa202:	83 45 fc 01          	add    DWORD PTR [rbp-0x4],0x1
  3fa206:	8b 45 fc             	mov    eax,DWORD PTR [rbp-0x4]
  3fa209:	39 45 cc             	cmp    DWORD PTR [rbp-0x34],eax
  3fa20c:	77 dd                	ja     3fa1eb <_init-0x6275>
  3fa20e:	90                   	nop
  3fa20f:	90                   	nop
  3fa210:	5d                   	pop    rbp
  3fa211:	c3                   	ret    
  3fa212:	f3 0f 1e fa          	endbr64 
  3fa216:	55                   	push   rbp
  3fa217:	48 89 e5             	mov    rbp,rsp
  3fa21a:	48 89 7d e8          	mov    QWORD PTR [rbp-0x18],rdi
  3fa21e:	89 f0                	mov    eax,esi
  3fa220:	89 55 e0             	mov    DWORD PTR [rbp-0x20],edx
  3fa223:	88 45 e4             	mov    BYTE PTR [rbp-0x1c],al
  3fa226:	48 8b 45 e8          	mov    rax,QWORD PTR [rbp-0x18]
  3fa22a:	48 89 45 f8          	mov    QWORD PTR [rbp-0x8],rax
  3fa22e:	8b 45 e0             	mov    eax,DWORD PTR [rbp-0x20]
  3fa231:	89 45 f4             	mov    DWORD PTR [rbp-0xc],eax
  3fa234:	eb 0f                	jmp    3fa245 <_init-0x621b>
  3fa236:	48 8b 45 f8          	mov    rax,QWORD PTR [rbp-0x8]
  3fa23a:	0f b6 55 e4          	movzx  edx,BYTE PTR [rbp-0x1c]
  3fa23e:	88 10                	mov    BYTE PTR [rax],dl
  3fa240:	48 83 45 f8 01       	add    QWORD PTR [rbp-0x8],0x1
  3fa245:	8b 45 f4             	mov    eax,DWORD PTR [rbp-0xc]
  3fa248:	8d 50 ff             	lea    edx,[rax-0x1]
  3fa24b:	89 55 f4             	mov    DWORD PTR [rbp-0xc],edx
  3fa24e:	85 c0                	test   eax,eax
  3fa250:	75 e4                	jne    3fa236 <_init-0x622a>
  3fa252:	90                   	nop
  3fa253:	90                   	nop
  3fa254:	5d                   	pop    rbp
  3fa255:	c3                   	ret    
  3fa256:	f3 0f 1e fa          	endbr64 
  3fa25a:	55                   	push   rbp
  3fa25b:	48 89 e5             	mov    rbp,rsp
  3fa25e:	48 81 ec 10 01 00 00 	sub    rsp,0x110
  3fa265:	48 89 bd f8 fe ff ff 	mov    QWORD PTR [rbp-0x108],rdi
  3fa26c:	48 89 b5 58 ff ff ff 	mov    QWORD PTR [rbp-0xa8],rsi
  3fa273:	48 89 95 60 ff ff ff 	mov    QWORD PTR [rbp-0xa0],rdx
  3fa27a:	48 89 8d 68 ff ff ff 	mov    QWORD PTR [rbp-0x98],rcx
  3fa281:	4c 89 85 70 ff ff ff 	mov    QWORD PTR [rbp-0x90],r8
  3fa288:	4c 89 8d 78 ff ff ff 	mov    QWORD PTR [rbp-0x88],r9
  3fa28f:	84 c0                	test   al,al
  3fa291:	74 20                	je     3fa2b3 <_init-0x61ad>
  3fa293:	0f 29 45 80          	movaps XMMWORD PTR [rbp-0x80],xmm0
  3fa297:	0f 29 4d 90          	movaps XMMWORD PTR [rbp-0x70],xmm1
  3fa29b:	0f 29 55 a0          	movaps XMMWORD PTR [rbp-0x60],xmm2
  3fa29f:	0f 29 5d b0          	movaps XMMWORD PTR [rbp-0x50],xmm3
  3fa2a3:	0f 29 65 c0          	movaps XMMWORD PTR [rbp-0x40],xmm4
  3fa2a7:	0f 29 6d d0          	movaps XMMWORD PTR [rbp-0x30],xmm5
  3fa2ab:	0f 29 75 e0          	movaps XMMWORD PTR [rbp-0x20],xmm6
  3fa2af:	0f 29 7d f0          	movaps XMMWORD PTR [rbp-0x10],xmm7
  3fa2b3:	48 c7 85 20 ff ff ff 	mov    QWORD PTR [rbp-0xe0],0x0
  3fa2ba:	00 00 00 00 
  3fa2be:	48 c7 85 28 ff ff ff 	mov    QWORD PTR [rbp-0xd8],0x0
  3fa2c5:	00 00 00 00 
  3fa2c9:	48 c7 85 30 ff ff ff 	mov    QWORD PTR [rbp-0xd0],0x0
  3fa2d0:	00 00 00 00 
  3fa2d4:	66 c7 85 38 ff ff ff 	mov    WORD PTR [rbp-0xc8],0x0
  3fa2db:	00 00 
  3fa2dd:	c7 85 08 ff ff ff 08 	mov    DWORD PTR [rbp-0xf8],0x8
  3fa2e4:	00 00 00 
  3fa2e7:	c7 85 0c ff ff ff 30 	mov    DWORD PTR [rbp-0xf4],0x30
  3fa2ee:	00 00 00 
  3fa2f1:	48 8d 45 10          	lea    rax,[rbp+0x10]
  3fa2f5:	48 89 85 10 ff ff ff 	mov    QWORD PTR [rbp-0xf0],rax
  3fa2fc:	48 8d 85 50 ff ff ff 	lea    rax,[rbp-0xb0]
  3fa303:	48 89 85 18 ff ff ff 	mov    QWORD PTR [rbp-0xe8],rax
  3fa30a:	c7 85 4c ff ff ff 00 	mov    DWORD PTR [rbp-0xb4],0x0
  3fa311:	00 00 00 
  3fa314:	e9 6d 02 00 00       	jmp    3fa586 <_init-0x5eda>
  3fa319:	48 8b 85 f8 fe ff ff 	mov    rax,QWORD PTR [rbp-0x108]
  3fa320:	0f b6 00             	movzx  eax,BYTE PTR [rax]
  3fa323:	3c 25                	cmp    al,0x25
  3fa325:	74 31                	je     3fa358 <_init-0x6108>
  3fa327:	83 bd 4c ff ff ff 00 	cmp    DWORD PTR [rbp-0xb4],0x0
  3fa32e:	75 28                	jne    3fa358 <_init-0x6108>
  3fa330:	48 8b 85 f8 fe ff ff 	mov    rax,QWORD PTR [rbp-0x108]
  3fa337:	ba 01 00 00 00       	mov    edx,0x1
  3fa33c:	48 89 c6             	mov    rsi,rax
  3fa33f:	bf 01 00 00 00       	mov    edi,0x1
  3fa344:	e8 b9 fb ff ff       	call   3f9f02 <_init-0x655e>
  3fa349:	c7 85 4c ff ff ff 00 	mov    DWORD PTR [rbp-0xb4],0x0
  3fa350:	00 00 00 
  3fa353:	e9 26 02 00 00       	jmp    3fa57e <_init-0x5ee2>
  3fa358:	48 8b 85 f8 fe ff ff 	mov    rax,QWORD PTR [rbp-0x108]
  3fa35f:	0f b6 00             	movzx  eax,BYTE PTR [rax]
  3fa362:	3c 25                	cmp    al,0x25
  3fa364:	0f 84 0a 02 00 00    	je     3fa574 <_init-0x5eec>
  3fa36a:	48 8b 85 f8 fe ff ff 	mov    rax,QWORD PTR [rbp-0x108]
  3fa371:	0f b6 00             	movzx  eax,BYTE PTR [rax]
  3fa374:	0f be c0             	movsx  eax,al
  3fa377:	83 f8 78             	cmp    eax,0x78
  3fa37a:	0f 84 61 01 00 00    	je     3fa4e1 <_init-0x5f7f>
  3fa380:	83 f8 78             	cmp    eax,0x78
  3fa383:	0f 8f c5 01 00 00    	jg     3fa54e <_init-0x5f12>
  3fa389:	83 f8 75             	cmp    eax,0x75
  3fa38c:	74 79                	je     3fa407 <_init-0x6059>
  3fa38e:	83 f8 75             	cmp    eax,0x75
  3fa391:	0f 8f b7 01 00 00    	jg     3fa54e <_init-0x5f12>
  3fa397:	83 f8 64             	cmp    eax,0x64
  3fa39a:	0f 84 d4 00 00 00    	je     3fa474 <_init-0x5fec>
  3fa3a0:	83 f8 73             	cmp    eax,0x73
  3fa3a3:	0f 85 a5 01 00 00    	jne    3fa54e <_init-0x5f12>
  3fa3a9:	8b 85 08 ff ff ff    	mov    eax,DWORD PTR [rbp-0xf8]
  3fa3af:	83 f8 2f             	cmp    eax,0x2f
  3fa3b2:	77 23                	ja     3fa3d7 <_init-0x6089>
  3fa3b4:	48 8b 85 18 ff ff ff 	mov    rax,QWORD PTR [rbp-0xe8]
  3fa3bb:	8b 95 08 ff ff ff    	mov    edx,DWORD PTR [rbp-0xf8]
  3fa3c1:	89 d2                	mov    edx,edx
  3fa3c3:	48 01 d0             	add    rax,rdx
  3fa3c6:	8b 95 08 ff ff ff    	mov    edx,DWORD PTR [rbp-0xf8]
  3fa3cc:	83 c2 08             	add    edx,0x8
  3fa3cf:	89 95 08 ff ff ff    	mov    DWORD PTR [rbp-0xf8],edx
  3fa3d5:	eb 12                	jmp    3fa3e9 <_init-0x6077>
  3fa3d7:	48 8b 85 10 ff ff ff 	mov    rax,QWORD PTR [rbp-0xf0]
  3fa3de:	48 8d 50 08          	lea    rdx,[rax+0x8]
  3fa3e2:	48 89 95 10 ff ff ff 	mov    QWORD PTR [rbp-0xf0],rdx
  3fa3e9:	48 8b 00             	mov    rax,QWORD PTR [rax]
  3fa3ec:	48 89 85 40 ff ff ff 	mov    QWORD PTR [rbp-0xc0],rax
  3fa3f3:	48 8b 85 40 ff ff ff 	mov    rax,QWORD PTR [rbp-0xc0]
  3fa3fa:	48 89 c7             	mov    rdi,rax
  3fa3fd:	e8 cd 04 00 00       	call   3fa8cf <_init-0x5b91>
  3fa402:	e9 61 01 00 00       	jmp    3fa568 <_init-0x5ef8>
  3fa407:	8b 85 08 ff ff ff    	mov    eax,DWORD PTR [rbp-0xf8]
  3fa40d:	83 f8 2f             	cmp    eax,0x2f
  3fa410:	77 23                	ja     3fa435 <_init-0x602b>
  3fa412:	48 8b 85 18 ff ff ff 	mov    rax,QWORD PTR [rbp-0xe8]
  3fa419:	8b 95 08 ff ff ff    	mov    edx,DWORD PTR [rbp-0xf8]
  3fa41f:	89 d2                	mov    edx,edx
  3fa421:	48 01 d0             	add    rax,rdx
  3fa424:	8b 95 08 ff ff ff    	mov    edx,DWORD PTR [rbp-0xf8]
  3fa42a:	83 c2 08             	add    edx,0x8
  3fa42d:	89 95 08 ff ff ff    	mov    DWORD PTR [rbp-0xf8],edx
  3fa433:	eb 12                	jmp    3fa447 <_init-0x6019>
  3fa435:	48 8b 85 10 ff ff ff 	mov    rax,QWORD PTR [rbp-0xf0]
  3fa43c:	48 8d 50 08          	lea    rdx,[rax+0x8]
  3fa440:	48 89 95 10 ff ff ff 	mov    QWORD PTR [rbp-0xf0],rdx
  3fa447:	8b 00                	mov    eax,DWORD PTR [rax]
  3fa449:	89 85 3c ff ff ff    	mov    DWORD PTR [rbp-0xc4],eax
  3fa44f:	8b 85 3c ff ff ff    	mov    eax,DWORD PTR [rbp-0xc4]
  3fa455:	48 8d 95 20 ff ff ff 	lea    rdx,[rbp-0xe0]
  3fa45c:	48 89 d6             	mov    rsi,rdx
  3fa45f:	48 89 c7             	mov    rdi,rax
  3fa462:	e8 38 01 00 00       	call   3fa59f <_init-0x5ec1>
  3fa467:	48 89 c7             	mov    rdi,rax
  3fa46a:	e8 60 04 00 00       	call   3fa8cf <_init-0x5b91>
  3fa46f:	e9 f4 00 00 00       	jmp    3fa568 <_init-0x5ef8>
  3fa474:	8b 85 08 ff ff ff    	mov    eax,DWORD PTR [rbp-0xf8]
  3fa47a:	83 f8 2f             	cmp    eax,0x2f
  3fa47d:	77 23                	ja     3fa4a2 <_init-0x5fbe>
  3fa47f:	48 8b 85 18 ff ff ff 	mov    rax,QWORD PTR [rbp-0xe8]
  3fa486:	8b 95 08 ff ff ff    	mov    edx,DWORD PTR [rbp-0xf8]
  3fa48c:	89 d2                	mov    edx,edx
  3fa48e:	48 01 d0             	add    rax,rdx
  3fa491:	8b 95 08 ff ff ff    	mov    edx,DWORD PTR [rbp-0xf8]
  3fa497:	83 c2 08             	add    edx,0x8
  3fa49a:	89 95 08 ff ff ff    	mov    DWORD PTR [rbp-0xf8],edx
  3fa4a0:	eb 12                	jmp    3fa4b4 <_init-0x5fac>
  3fa4a2:	48 8b 85 10 ff ff ff 	mov    rax,QWORD PTR [rbp-0xf0]
  3fa4a9:	48 8d 50 08          	lea    rdx,[rax+0x8]
  3fa4ad:	48 89 95 10 ff ff ff 	mov    QWORD PTR [rbp-0xf0],rdx
  3fa4b4:	8b 00                	mov    eax,DWORD PTR [rax]
  3fa4b6:	89 85 3c ff ff ff    	mov    DWORD PTR [rbp-0xc4],eax
  3fa4bc:	8b 85 3c ff ff ff    	mov    eax,DWORD PTR [rbp-0xc4]
  3fa4c2:	48 8d 95 20 ff ff ff 	lea    rdx,[rbp-0xe0]
  3fa4c9:	48 89 d6             	mov    rsi,rdx
  3fa4cc:	48 89 c7             	mov    rdi,rax
  3fa4cf:	e8 cb 00 00 00       	call   3fa59f <_init-0x5ec1>
  3fa4d4:	48 89 c7             	mov    rdi,rax
  3fa4d7:	e8 f3 03 00 00       	call   3fa8cf <_init-0x5b91>
  3fa4dc:	e9 87 00 00 00       	jmp    3fa568 <_init-0x5ef8>
  3fa4e1:	8b 85 08 ff ff ff    	mov    eax,DWORD PTR [rbp-0xf8]
  3fa4e7:	83 f8 2f             	cmp    eax,0x2f
  3fa4ea:	77 23                	ja     3fa50f <_init-0x5f51>
  3fa4ec:	48 8b 85 18 ff ff ff 	mov    rax,QWORD PTR [rbp-0xe8]
  3fa4f3:	8b 95 08 ff ff ff    	mov    edx,DWORD PTR [rbp-0xf8]
  3fa4f9:	89 d2                	mov    edx,edx
  3fa4fb:	48 01 d0             	add    rax,rdx
  3fa4fe:	8b 95 08 ff ff ff    	mov    edx,DWORD PTR [rbp-0xf8]
  3fa504:	83 c2 08             	add    edx,0x8
  3fa507:	89 95 08 ff ff ff    	mov    DWORD PTR [rbp-0xf8],edx
  3fa50d:	eb 12                	jmp    3fa521 <_init-0x5f3f>
  3fa50f:	48 8b 85 10 ff ff ff 	mov    rax,QWORD PTR [rbp-0xf0]
  3fa516:	48 8d 50 08          	lea    rdx,[rax+0x8]
  3fa51a:	48 89 95 10 ff ff ff 	mov    QWORD PTR [rbp-0xf0],rdx
  3fa521:	48 8b 00             	mov    rax,QWORD PTR [rax]
  3fa524:	48 89 85 40 ff ff ff 	mov    QWORD PTR [rbp-0xc0],rax
  3fa52b:	48 8b 85 40 ff ff ff 	mov    rax,QWORD PTR [rbp-0xc0]
  3fa532:	48 8d 95 20 ff ff ff 	lea    rdx,[rbp-0xe0]
  3fa539:	48 89 d6             	mov    rsi,rdx
  3fa53c:	48 89 c7             	mov    rdi,rax
  3fa53f:	e8 dd 01 00 00       	call   3fa721 <_init-0x5d3f>
  3fa544:	48 89 c7             	mov    rdi,rax
  3fa547:	e8 83 03 00 00       	call   3fa8cf <_init-0x5b91>
  3fa54c:	eb 1a                	jmp    3fa568 <_init-0x5ef8>
  3fa54e:	48 8b 85 f8 fe ff ff 	mov    rax,QWORD PTR [rbp-0x108]
  3fa555:	ba 01 00 00 00       	mov    edx,0x1
  3fa55a:	48 89 c6             	mov    rsi,rax
  3fa55d:	bf 01 00 00 00       	mov    edi,0x1
  3fa562:	e8 9b f9 ff ff       	call   3f9f02 <_init-0x655e>
  3fa567:	90                   	nop
  3fa568:	c7 85 4c ff ff ff 00 	mov    DWORD PTR [rbp-0xb4],0x0
  3fa56f:	00 00 00 
  3fa572:	eb 0a                	jmp    3fa57e <_init-0x5ee2>
  3fa574:	c7 85 4c ff ff ff 01 	mov    DWORD PTR [rbp-0xb4],0x1
  3fa57b:	00 00 00 
  3fa57e:	48 83 85 f8 fe ff ff 	add    QWORD PTR [rbp-0x108],0x1
  3fa585:	01 
  3fa586:	48 8b 85 f8 fe ff ff 	mov    rax,QWORD PTR [rbp-0x108]
  3fa58d:	0f b6 00             	movzx  eax,BYTE PTR [rax]
  3fa590:	84 c0                	test   al,al
  3fa592:	0f 85 81 fd ff ff    	jne    3fa319 <_init-0x6147>
  3fa598:	b8 01 00 00 00       	mov    eax,0x1
  3fa59d:	c9                   	leave  
  3fa59e:	c3                   	ret    
  3fa59f:	f3 0f 1e fa          	endbr64 
  3fa5a3:	55                   	push   rbp
  3fa5a4:	48 89 e5             	mov    rbp,rsp
  3fa5a7:	48 89 7d e8          	mov    QWORD PTR [rbp-0x18],rdi
  3fa5ab:	48 89 75 e0          	mov    QWORD PTR [rbp-0x20],rsi
  3fa5af:	c7 45 fc 00 00 00 00 	mov    DWORD PTR [rbp-0x4],0x0
  3fa5b6:	48 8b 4d e8          	mov    rcx,QWORD PTR [rbp-0x18]
  3fa5ba:	48 ba 67 66 66 66 66 	movabs rdx,0x6666666666666667
  3fa5c1:	66 66 66 
  3fa5c4:	48 89 c8             	mov    rax,rcx
  3fa5c7:	48 f7 ea             	imul   rdx
  3fa5ca:	48 c1 fa 02          	sar    rdx,0x2
  3fa5ce:	48 89 c8             	mov    rax,rcx
  3fa5d1:	48 c1 f8 3f          	sar    rax,0x3f
  3fa5d5:	48 29 c2             	sub    rdx,rax
  3fa5d8:	48 89 d0             	mov    rax,rdx
  3fa5db:	48 c1 e0 02          	shl    rax,0x2
  3fa5df:	48 01 d0             	add    rax,rdx
  3fa5e2:	48 01 c0             	add    rax,rax
  3fa5e5:	48 29 c1             	sub    rcx,rax
  3fa5e8:	48 89 ca             	mov    rdx,rcx
  3fa5eb:	89 d0                	mov    eax,edx
  3fa5ed:	8d 48 30             	lea    ecx,[rax+0x30]
  3fa5f0:	8b 45 fc             	mov    eax,DWORD PTR [rbp-0x4]
  3fa5f3:	48 63 d0             	movsxd rdx,eax
  3fa5f6:	48 8b 45 e0          	mov    rax,QWORD PTR [rbp-0x20]
  3fa5fa:	48 01 d0             	add    rax,rdx
  3fa5fd:	89 ca                	mov    edx,ecx
  3fa5ff:	88 10                	mov    BYTE PTR [rax],dl
  3fa601:	48 8b 4d e8          	mov    rcx,QWORD PTR [rbp-0x18]
  3fa605:	48 ba 67 66 66 66 66 	movabs rdx,0x6666666666666667
  3fa60c:	66 66 66 
  3fa60f:	48 89 c8             	mov    rax,rcx
  3fa612:	48 f7 ea             	imul   rdx
  3fa615:	48 c1 fa 02          	sar    rdx,0x2
  3fa619:	48 89 c8             	mov    rax,rcx
  3fa61c:	48 c1 f8 3f          	sar    rax,0x3f
  3fa620:	48 29 c2             	sub    rdx,rax
  3fa623:	48 89 d0             	mov    rax,rdx
  3fa626:	48 89 45 e8          	mov    QWORD PTR [rbp-0x18],rax
  3fa62a:	83 45 fc 01          	add    DWORD PTR [rbp-0x4],0x1
  3fa62e:	48 83 7d e8 00       	cmp    QWORD PTR [rbp-0x18],0x0
  3fa633:	75 81                	jne    3fa5b6 <_init-0x5eaa>
  3fa635:	8b 45 fc             	mov    eax,DWORD PTR [rbp-0x4]
  3fa638:	48 63 d0             	movsxd rdx,eax
  3fa63b:	48 8b 45 e0          	mov    rax,QWORD PTR [rbp-0x20]
  3fa63f:	48 01 d0             	add    rax,rdx
  3fa642:	c6 00 00             	mov    BYTE PTR [rax],0x0
  3fa645:	c7 45 f8 00 00 00 00 	mov    DWORD PTR [rbp-0x8],0x0
  3fa64c:	e9 b5 00 00 00       	jmp    3fa706 <_init-0x5d5a>
  3fa651:	8b 45 f8             	mov    eax,DWORD PTR [rbp-0x8]
  3fa654:	48 63 d0             	movsxd rdx,eax
  3fa657:	48 8b 45 e0          	mov    rax,QWORD PTR [rbp-0x20]
  3fa65b:	48 01 d0             	add    rax,rdx
  3fa65e:	0f b6 30             	movzx  esi,BYTE PTR [rax]
  3fa661:	8b 45 fc             	mov    eax,DWORD PTR [rbp-0x4]
  3fa664:	2b 45 f8             	sub    eax,DWORD PTR [rbp-0x8]
  3fa667:	48 98                	cdqe   
  3fa669:	48 8d 50 ff          	lea    rdx,[rax-0x1]
  3fa66d:	48 8b 45 e0          	mov    rax,QWORD PTR [rbp-0x20]
  3fa671:	48 01 d0             	add    rax,rdx
  3fa674:	0f b6 08             	movzx  ecx,BYTE PTR [rax]
  3fa677:	8b 45 f8             	mov    eax,DWORD PTR [rbp-0x8]
  3fa67a:	48 63 d0             	movsxd rdx,eax
  3fa67d:	48 8b 45 e0          	mov    rax,QWORD PTR [rbp-0x20]
  3fa681:	48 01 d0             	add    rax,rdx
  3fa684:	31 ce                	xor    esi,ecx
  3fa686:	89 f2                	mov    edx,esi
  3fa688:	88 10                	mov    BYTE PTR [rax],dl
  3fa68a:	8b 45 fc             	mov    eax,DWORD PTR [rbp-0x4]
  3fa68d:	2b 45 f8             	sub    eax,DWORD PTR [rbp-0x8]
  3fa690:	48 98                	cdqe   
  3fa692:	48 8d 50 ff          	lea    rdx,[rax-0x1]
  3fa696:	48 8b 45 e0          	mov    rax,QWORD PTR [rbp-0x20]
  3fa69a:	48 01 d0             	add    rax,rdx
  3fa69d:	0f b6 30             	movzx  esi,BYTE PTR [rax]
  3fa6a0:	8b 45 f8             	mov    eax,DWORD PTR [rbp-0x8]
  3fa6a3:	48 63 d0             	movsxd rdx,eax
  3fa6a6:	48 8b 45 e0          	mov    rax,QWORD PTR [rbp-0x20]
  3fa6aa:	48 01 d0             	add    rax,rdx
  3fa6ad:	0f b6 08             	movzx  ecx,BYTE PTR [rax]
  3fa6b0:	8b 45 fc             	mov    eax,DWORD PTR [rbp-0x4]
  3fa6b3:	2b 45 f8             	sub    eax,DWORD PTR [rbp-0x8]
  3fa6b6:	48 98                	cdqe   
  3fa6b8:	48 8d 50 ff          	lea    rdx,[rax-0x1]
  3fa6bc:	48 8b 45 e0          	mov    rax,QWORD PTR [rbp-0x20]
  3fa6c0:	48 01 d0             	add    rax,rdx
  3fa6c3:	31 ce                	xor    esi,ecx
  3fa6c5:	89 f2                	mov    edx,esi
  3fa6c7:	88 10                	mov    BYTE PTR [rax],dl
  3fa6c9:	8b 45 f8             	mov    eax,DWORD PTR [rbp-0x8]
  3fa6cc:	48 63 d0             	movsxd rdx,eax
  3fa6cf:	48 8b 45 e0          	mov    rax,QWORD PTR [rbp-0x20]
  3fa6d3:	48 01 d0             	add    rax,rdx
  3fa6d6:	0f b6 30             	movzx  esi,BYTE PTR [rax]
  3fa6d9:	8b 45 fc             	mov    eax,DWORD PTR [rbp-0x4]
  3fa6dc:	2b 45 f8             	sub    eax,DWORD PTR [rbp-0x8]
  3fa6df:	48 98                	cdqe   
  3fa6e1:	48 8d 50 ff          	lea    rdx,[rax-0x1]
  3fa6e5:	48 8b 45 e0          	mov    rax,QWORD PTR [rbp-0x20]
  3fa6e9:	48 01 d0             	add    rax,rdx
  3fa6ec:	0f b6 08             	movzx  ecx,BYTE PTR [rax]
  3fa6ef:	8b 45 f8             	mov    eax,DWORD PTR [rbp-0x8]
  3fa6f2:	48 63 d0             	movsxd rdx,eax
  3fa6f5:	48 8b 45 e0          	mov    rax,QWORD PTR [rbp-0x20]
  3fa6f9:	48 01 d0             	add    rax,rdx
  3fa6fc:	31 ce                	xor    esi,ecx
  3fa6fe:	89 f2                	mov    edx,esi
  3fa700:	88 10                	mov    BYTE PTR [rax],dl
  3fa702:	83 45 f8 01          	add    DWORD PTR [rbp-0x8],0x1
  3fa706:	8b 45 fc             	mov    eax,DWORD PTR [rbp-0x4]
  3fa709:	89 c2                	mov    edx,eax
  3fa70b:	c1 ea 1f             	shr    edx,0x1f
  3fa70e:	01 d0                	add    eax,edx
  3fa710:	d1 f8                	sar    eax,1
  3fa712:	39 45 f8             	cmp    DWORD PTR [rbp-0x8],eax
  3fa715:	0f 8c 36 ff ff ff    	jl     3fa651 <_init-0x5e0f>
  3fa71b:	48 8b 45 e0          	mov    rax,QWORD PTR [rbp-0x20]
  3fa71f:	5d                   	pop    rbp
  3fa720:	c3                   	ret    
  3fa721:	f3 0f 1e fa          	endbr64 
  3fa725:	55                   	push   rbp
  3fa726:	48 89 e5             	mov    rbp,rsp
  3fa729:	48 89 7d e8          	mov    QWORD PTR [rbp-0x18],rdi
  3fa72d:	48 89 75 e0          	mov    QWORD PTR [rbp-0x20],rsi
  3fa731:	c7 45 fc 00 00 00 00 	mov    DWORD PTR [rbp-0x4],0x0
  3fa738:	48 8b 45 e8          	mov    rax,QWORD PTR [rbp-0x18]
  3fa73c:	48 99                	cqo    
  3fa73e:	48 c1 ea 3c          	shr    rdx,0x3c
  3fa742:	48 01 d0             	add    rax,rdx
  3fa745:	83 e0 0f             	and    eax,0xf
  3fa748:	48 29 d0             	sub    rax,rdx
  3fa74b:	48 89 c1             	mov    rcx,rax
  3fa74e:	8b 45 fc             	mov    eax,DWORD PTR [rbp-0x4]
  3fa751:	48 63 d0             	movsxd rdx,eax
  3fa754:	48 8b 45 e0          	mov    rax,QWORD PTR [rbp-0x20]
  3fa758:	48 01 d0             	add    rax,rdx
  3fa75b:	89 ca                	mov    edx,ecx
  3fa75d:	88 10                	mov    BYTE PTR [rax],dl
  3fa75f:	8b 45 fc             	mov    eax,DWORD PTR [rbp-0x4]
  3fa762:	48 63 d0             	movsxd rdx,eax
  3fa765:	48 8b 45 e0          	mov    rax,QWORD PTR [rbp-0x20]
  3fa769:	48 01 d0             	add    rax,rdx
  3fa76c:	0f b6 00             	movzx  eax,BYTE PTR [rax]
  3fa76f:	3c 09                	cmp    al,0x9
  3fa771:	7e 26                	jle    3fa799 <_init-0x5cc7>
  3fa773:	8b 45 fc             	mov    eax,DWORD PTR [rbp-0x4]
  3fa776:	48 63 d0             	movsxd rdx,eax
  3fa779:	48 8b 45 e0          	mov    rax,QWORD PTR [rbp-0x20]
  3fa77d:	48 01 d0             	add    rax,rdx
  3fa780:	0f b6 00             	movzx  eax,BYTE PTR [rax]
  3fa783:	8d 48 57             	lea    ecx,[rax+0x57]
  3fa786:	8b 45 fc             	mov    eax,DWORD PTR [rbp-0x4]
  3fa789:	48 63 d0             	movsxd rdx,eax
  3fa78c:	48 8b 45 e0          	mov    rax,QWORD PTR [rbp-0x20]
  3fa790:	48 01 d0             	add    rax,rdx
  3fa793:	89 ca                	mov    edx,ecx
  3fa795:	88 10                	mov    BYTE PTR [rax],dl
  3fa797:	eb 24                	jmp    3fa7bd <_init-0x5ca3>
  3fa799:	8b 45 fc             	mov    eax,DWORD PTR [rbp-0x4]
  3fa79c:	48 63 d0             	movsxd rdx,eax
  3fa79f:	48 8b 45 e0          	mov    rax,QWORD PTR [rbp-0x20]
  3fa7a3:	48 01 d0             	add    rax,rdx
  3fa7a6:	0f b6 00             	movzx  eax,BYTE PTR [rax]
  3fa7a9:	8d 48 30             	lea    ecx,[rax+0x30]
  3fa7ac:	8b 45 fc             	mov    eax,DWORD PTR [rbp-0x4]
  3fa7af:	48 63 d0             	movsxd rdx,eax
  3fa7b2:	48 8b 45 e0          	mov    rax,QWORD PTR [rbp-0x20]
  3fa7b6:	48 01 d0             	add    rax,rdx
  3fa7b9:	89 ca                	mov    edx,ecx
  3fa7bb:	88 10                	mov    BYTE PTR [rax],dl
  3fa7bd:	48 8b 45 e8          	mov    rax,QWORD PTR [rbp-0x18]
  3fa7c1:	48 8d 50 0f          	lea    rdx,[rax+0xf]
  3fa7c5:	48 85 c0             	test   rax,rax
  3fa7c8:	48 0f 48 c2          	cmovs  rax,rdx
  3fa7cc:	48 c1 f8 04          	sar    rax,0x4
  3fa7d0:	48 89 45 e8          	mov    QWORD PTR [rbp-0x18],rax
  3fa7d4:	83 45 fc 01          	add    DWORD PTR [rbp-0x4],0x1
  3fa7d8:	48 83 7d e8 00       	cmp    QWORD PTR [rbp-0x18],0x0
  3fa7dd:	0f 85 55 ff ff ff    	jne    3fa738 <_init-0x5d28>
  3fa7e3:	8b 45 fc             	mov    eax,DWORD PTR [rbp-0x4]
  3fa7e6:	48 63 d0             	movsxd rdx,eax
  3fa7e9:	48 8b 45 e0          	mov    rax,QWORD PTR [rbp-0x20]
  3fa7ed:	48 01 d0             	add    rax,rdx
  3fa7f0:	c6 00 00             	mov    BYTE PTR [rax],0x0
  3fa7f3:	c7 45 f8 00 00 00 00 	mov    DWORD PTR [rbp-0x8],0x0
  3fa7fa:	e9 b5 00 00 00       	jmp    3fa8b4 <_init-0x5bac>
  3fa7ff:	8b 45 f8             	mov    eax,DWORD PTR [rbp-0x8]
  3fa802:	48 63 d0             	movsxd rdx,eax
  3fa805:	48 8b 45 e0          	mov    rax,QWORD PTR [rbp-0x20]
  3fa809:	48 01 d0             	add    rax,rdx
  3fa80c:	0f b6 30             	movzx  esi,BYTE PTR [rax]
  3fa80f:	8b 45 fc             	mov    eax,DWORD PTR [rbp-0x4]
  3fa812:	2b 45 f8             	sub    eax,DWORD PTR [rbp-0x8]
  3fa815:	48 98                	cdqe   
  3fa817:	48 8d 50 ff          	lea    rdx,[rax-0x1]
  3fa81b:	48 8b 45 e0          	mov    rax,QWORD PTR [rbp-0x20]
  3fa81f:	48 01 d0             	add    rax,rdx
  3fa822:	0f b6 08             	movzx  ecx,BYTE PTR [rax]
  3fa825:	8b 45 f8             	mov    eax,DWORD PTR [rbp-0x8]
  3fa828:	48 63 d0             	movsxd rdx,eax
  3fa82b:	48 8b 45 e0          	mov    rax,QWORD PTR [rbp-0x20]
  3fa82f:	48 01 d0             	add    rax,rdx
  3fa832:	31 ce                	xor    esi,ecx
  3fa834:	89 f2                	mov    edx,esi
  3fa836:	88 10                	mov    BYTE PTR [rax],dl
  3fa838:	8b 45 fc             	mov    eax,DWORD PTR [rbp-0x4]
  3fa83b:	2b 45 f8             	sub    eax,DWORD PTR [rbp-0x8]
  3fa83e:	48 98                	cdqe   
  3fa840:	48 8d 50 ff          	lea    rdx,[rax-0x1]
  3fa844:	48 8b 45 e0          	mov    rax,QWORD PTR [rbp-0x20]
  3fa848:	48 01 d0             	add    rax,rdx
  3fa84b:	0f b6 30             	movzx  esi,BYTE PTR [rax]
  3fa84e:	8b 45 f8             	mov    eax,DWORD PTR [rbp-0x8]
  3fa851:	48 63 d0             	movsxd rdx,eax
  3fa854:	48 8b 45 e0          	mov    rax,QWORD PTR [rbp-0x20]
  3fa858:	48 01 d0             	add    rax,rdx
  3fa85b:	0f b6 08             	movzx  ecx,BYTE PTR [rax]
  3fa85e:	8b 45 fc             	mov    eax,DWORD PTR [rbp-0x4]
  3fa861:	2b 45 f8             	sub    eax,DWORD PTR [rbp-0x8]
  3fa864:	48 98                	cdqe   
  3fa866:	48 8d 50 ff          	lea    rdx,[rax-0x1]
  3fa86a:	48 8b 45 e0          	mov    rax,QWORD PTR [rbp-0x20]
  3fa86e:	48 01 d0             	add    rax,rdx
  3fa871:	31 ce                	xor    esi,ecx
  3fa873:	89 f2                	mov    edx,esi
  3fa875:	88 10                	mov    BYTE PTR [rax],dl
  3fa877:	8b 45 f8             	mov    eax,DWORD PTR [rbp-0x8]
  3fa87a:	48 63 d0             	movsxd rdx,eax
  3fa87d:	48 8b 45 e0          	mov    rax,QWORD PTR [rbp-0x20]
  3fa881:	48 01 d0             	add    rax,rdx
  3fa884:	0f b6 30             	movzx  esi,BYTE PTR [rax]
  3fa887:	8b 45 fc             	mov    eax,DWORD PTR [rbp-0x4]
  3fa88a:	2b 45 f8             	sub    eax,DWORD PTR [rbp-0x8]
  3fa88d:	48 98                	cdqe   
  3fa88f:	48 8d 50 ff          	lea    rdx,[rax-0x1]
  3fa893:	48 8b 45 e0          	mov    rax,QWORD PTR [rbp-0x20]
  3fa897:	48 01 d0             	add    rax,rdx
  3fa89a:	0f b6 08             	movzx  ecx,BYTE PTR [rax]
  3fa89d:	8b 45 f8             	mov    eax,DWORD PTR [rbp-0x8]
  3fa8a0:	48 63 d0             	movsxd rdx,eax
  3fa8a3:	48 8b 45 e0          	mov    rax,QWORD PTR [rbp-0x20]
  3fa8a7:	48 01 d0             	add    rax,rdx
  3fa8aa:	31 ce                	xor    esi,ecx
  3fa8ac:	89 f2                	mov    edx,esi
  3fa8ae:	88 10                	mov    BYTE PTR [rax],dl
  3fa8b0:	83 45 f8 01          	add    DWORD PTR [rbp-0x8],0x1
  3fa8b4:	8b 45 fc             	mov    eax,DWORD PTR [rbp-0x4]
  3fa8b7:	89 c2                	mov    edx,eax
  3fa8b9:	c1 ea 1f             	shr    edx,0x1f
  3fa8bc:	01 d0                	add    eax,edx
  3fa8be:	d1 f8                	sar    eax,1
  3fa8c0:	39 45 f8             	cmp    DWORD PTR [rbp-0x8],eax
  3fa8c3:	0f 8c 36 ff ff ff    	jl     3fa7ff <_init-0x5c61>
  3fa8c9:	48 8b 45 e0          	mov    rax,QWORD PTR [rbp-0x20]
  3fa8cd:	5d                   	pop    rbp
  3fa8ce:	c3                   	ret    
  3fa8cf:	f3 0f 1e fa          	endbr64 
  3fa8d3:	55                   	push   rbp
  3fa8d4:	48 89 e5             	mov    rbp,rsp
  3fa8d7:	48 83 ec 10          	sub    rsp,0x10
  3fa8db:	48 89 7d f8          	mov    QWORD PTR [rbp-0x8],rdi
  3fa8df:	48 8b 45 f8          	mov    rax,QWORD PTR [rbp-0x8]
  3fa8e3:	48 89 c7             	mov    rdi,rax
  3fa8e6:	e8 7c 00 00 00       	call   3fa967 <_init-0x5af9>
  3fa8eb:	48 89 c2             	mov    rdx,rax
  3fa8ee:	48 8b 45 f8          	mov    rax,QWORD PTR [rbp-0x8]
  3fa8f2:	48 89 c6             	mov    rsi,rax
  3fa8f5:	bf 01 00 00 00       	mov    edi,0x1
  3fa8fa:	e8 03 f6 ff ff       	call   3f9f02 <_init-0x655e>
  3fa8ff:	bf 01 00 00 00       	mov    edi,0x1
  3fa904:	e8 e6 f6 ff ff       	call   3f9fef <_init-0x6471>
  3fa909:	b8 01 00 00 00       	mov    eax,0x1
  3fa90e:	c9                   	leave  
  3fa90f:	c3                   	ret    
  3fa910:	f3 0f 1e fa          	endbr64 
  3fa914:	55                   	push   rbp
  3fa915:	48 89 e5             	mov    rbp,rsp
  3fa918:	48 83 ec 10          	sub    rsp,0x10
  3fa91c:	48 89 7d f8          	mov    QWORD PTR [rbp-0x8],rdi
  3fa920:	48 8b 45 f8          	mov    rax,QWORD PTR [rbp-0x8]
  3fa924:	48 89 c7             	mov    rdi,rax
  3fa927:	e8 3b 00 00 00       	call   3fa967 <_init-0x5af9>
  3fa92c:	48 89 c2             	mov    rdx,rax
  3fa92f:	48 8b 45 f8          	mov    rax,QWORD PTR [rbp-0x8]
  3fa933:	48 89 c6             	mov    rsi,rax
  3fa936:	bf 01 00 00 00       	mov    edi,0x1
  3fa93b:	e8 c2 f5 ff ff       	call   3f9f02 <_init-0x655e>
  3fa940:	ba 01 00 00 00       	mov    edx,0x1
  3fa945:	48 8d 35 13 03 00 00 	lea    rsi,[rip+0x313]        # 3fac5f <_init-0x5801>
  3fa94c:	bf 01 00 00 00       	mov    edi,0x1
  3fa951:	e8 ac f5 ff ff       	call   3f9f02 <_init-0x655e>
  3fa956:	bf 01 00 00 00       	mov    edi,0x1
  3fa95b:	e8 8f f6 ff ff       	call   3f9fef <_init-0x6471>
  3fa960:	b8 01 00 00 00       	mov    eax,0x1
  3fa965:	c9                   	leave  
  3fa966:	c3                   	ret    
  3fa967:	f3 0f 1e fa          	endbr64 
  3fa96b:	55                   	push   rbp
  3fa96c:	48 89 e5             	mov    rbp,rsp
  3fa96f:	48 89 7d e8          	mov    QWORD PTR [rbp-0x18],rdi
  3fa973:	48 c7 45 f8 00 00 00 	mov    QWORD PTR [rbp-0x8],0x0
  3fa97a:	00 
  3fa97b:	eb 05                	jmp    3fa982 <_init-0x5ade>
  3fa97d:	48 83 45 f8 01       	add    QWORD PTR [rbp-0x8],0x1
  3fa982:	48 8b 55 e8          	mov    rdx,QWORD PTR [rbp-0x18]
  3fa986:	48 8b 45 f8          	mov    rax,QWORD PTR [rbp-0x8]
  3fa98a:	48 01 d0             	add    rax,rdx
  3fa98d:	0f b6 00             	movzx  eax,BYTE PTR [rax]
  3fa990:	84 c0                	test   al,al
  3fa992:	75 e9                	jne    3fa97d <_init-0x5ae3>
  3fa994:	48 8b 45 f8          	mov    rax,QWORD PTR [rbp-0x8]
  3fa998:	5d                   	pop    rbp
  3fa999:	c3                   	ret    
  3fa99a:	f3 0f 1e fa          	endbr64 
  3fa99e:	55                   	push   rbp
  3fa99f:	48 89 e5             	mov    rbp,rsp
  3fa9a2:	89 f8                	mov    eax,edi
  3fa9a4:	88 45 fc             	mov    BYTE PTR [rbp-0x4],al
  3fa9a7:	80 7d fc 60          	cmp    BYTE PTR [rbp-0x4],0x60
  3fa9ab:	7e 16                	jle    3fa9c3 <_init-0x5a9d>
  3fa9ad:	80 7d fc 7a          	cmp    BYTE PTR [rbp-0x4],0x7a
  3fa9b1:	7f 10                	jg     3fa9c3 <_init-0x5a9d>
  3fa9b3:	0f b6 45 fc          	movzx  eax,BYTE PTR [rbp-0x4]
  3fa9b7:	83 e8 20             	sub    eax,0x20
  3fa9ba:	88 45 fc             	mov    BYTE PTR [rbp-0x4],al
  3fa9bd:	0f b6 45 fc          	movzx  eax,BYTE PTR [rbp-0x4]
  3fa9c1:	eb 04                	jmp    3fa9c7 <_init-0x5a99>
  3fa9c3:	0f b6 45 fc          	movzx  eax,BYTE PTR [rbp-0x4]
  3fa9c7:	5d                   	pop    rbp
  3fa9c8:	c3                   	ret    
  3fa9c9:	f3 0f 1e fa          	endbr64 
  3fa9cd:	55                   	push   rbp
  3fa9ce:	48 89 e5             	mov    rbp,rsp
  3fa9d1:	48 89 7d f8          	mov    QWORD PTR [rbp-0x8],rdi
  3fa9d5:	48 89 75 f0          	mov    QWORD PTR [rbp-0x10],rsi
  3fa9d9:	48 89 55 e8          	mov    QWORD PTR [rbp-0x18],rdx
  3fa9dd:	eb 53                	jmp    3faa32 <_init-0x5a2e>
  3fa9df:	48 8b 45 f8          	mov    rax,QWORD PTR [rbp-0x8]
  3fa9e3:	0f b6 10             	movzx  edx,BYTE PTR [rax]
  3fa9e6:	48 8b 45 f0          	mov    rax,QWORD PTR [rbp-0x10]
  3fa9ea:	0f b6 00             	movzx  eax,BYTE PTR [rax]
  3fa9ed:	38 c2                	cmp    dl,al
  3fa9ef:	74 20                	je     3faa11 <_init-0x5a4f>
  3fa9f1:	48 8b 45 f8          	mov    rax,QWORD PTR [rbp-0x8]
  3fa9f5:	0f b6 10             	movzx  edx,BYTE PTR [rax]
  3fa9f8:	48 8b 45 f0          	mov    rax,QWORD PTR [rbp-0x10]
  3fa9fc:	0f b6 00             	movzx  eax,BYTE PTR [rax]
  3fa9ff:	38 c2                	cmp    dl,al
  3faa01:	73 07                	jae    3faa0a <_init-0x5a56>
  3faa03:	b8 ff ff ff ff       	mov    eax,0xffffffff
  3faa08:	eb 34                	jmp    3faa3e <_init-0x5a22>
  3faa0a:	b8 01 00 00 00       	mov    eax,0x1
  3faa0f:	eb 2d                	jmp    3faa3e <_init-0x5a22>
  3faa11:	48 8b 45 f8          	mov    rax,QWORD PTR [rbp-0x8]
  3faa15:	0f b6 00             	movzx  eax,BYTE PTR [rax]
  3faa18:	84 c0                	test   al,al
  3faa1a:	75 07                	jne    3faa23 <_init-0x5a3d>
  3faa1c:	b8 00 00 00 00       	mov    eax,0x0
  3faa21:	eb 1b                	jmp    3faa3e <_init-0x5a22>
  3faa23:	48 83 45 f8 01       	add    QWORD PTR [rbp-0x8],0x1
  3faa28:	48 83 45 f0 01       	add    QWORD PTR [rbp-0x10],0x1
  3faa2d:	48 83 6d e8 01       	sub    QWORD PTR [rbp-0x18],0x1
  3faa32:	48 83 7d e8 00       	cmp    QWORD PTR [rbp-0x18],0x0
  3faa37:	75 a6                	jne    3fa9df <_init-0x5a81>
  3faa39:	b8 00 00 00 00       	mov    eax,0x0
  3faa3e:	5d                   	pop    rbp
  3faa3f:	c3                   	ret    
  3faa40:	f3 0f 1e fa          	endbr64 
  3faa44:	55                   	push   rbp
  3faa45:	48 89 e5             	mov    rbp,rsp
  3faa48:	48 89 7d f8          	mov    QWORD PTR [rbp-0x8],rdi
  3faa4c:	48 89 75 f0          	mov    QWORD PTR [rbp-0x10],rsi
  3faa50:	eb 1c                	jmp    3faa6e <_init-0x59f2>
  3faa52:	48 8b 45 f8          	mov    rax,QWORD PTR [rbp-0x8]
  3faa56:	0f b6 00             	movzx  eax,BYTE PTR [rax]
  3faa59:	84 c0                	test   al,al
  3faa5b:	75 07                	jne    3faa64 <_init-0x59fc>
  3faa5d:	b8 00 00 00 00       	mov    eax,0x0
  3faa62:	eb 3a                	jmp    3faa9e <_init-0x59c2>
  3faa64:	48 83 45 f8 01       	add    QWORD PTR [rbp-0x8],0x1
  3faa69:	48 83 45 f0 01       	add    QWORD PTR [rbp-0x10],0x1
  3faa6e:	48 8b 45 f8          	mov    rax,QWORD PTR [rbp-0x8]
  3faa72:	0f b6 10             	movzx  edx,BYTE PTR [rax]
  3faa75:	48 8b 45 f0          	mov    rax,QWORD PTR [rbp-0x10]
  3faa79:	0f b6 00             	movzx  eax,BYTE PTR [rax]
  3faa7c:	38 c2                	cmp    dl,al
  3faa7e:	74 d2                	je     3faa52 <_init-0x5a0e>
  3faa80:	48 8b 45 f8          	mov    rax,QWORD PTR [rbp-0x8]
  3faa84:	0f b6 10             	movzx  edx,BYTE PTR [rax]
  3faa87:	48 8b 45 f0          	mov    rax,QWORD PTR [rbp-0x10]
  3faa8b:	0f b6 00             	movzx  eax,BYTE PTR [rax]
  3faa8e:	38 c2                	cmp    dl,al
  3faa90:	73 07                	jae    3faa99 <_init-0x59c7>
  3faa92:	b8 ff ff ff ff       	mov    eax,0xffffffff
  3faa97:	eb 05                	jmp    3faa9e <_init-0x59c2>
  3faa99:	b8 01 00 00 00       	mov    eax,0x1
  3faa9e:	5d                   	pop    rbp
  3faa9f:	c3                   	ret    
  3faaa0:	f3 0f 1e fa          	endbr64 
  3faaa4:	55                   	push   rbp
  3faaa5:	48 89 e5             	mov    rbp,rsp
  3faaa8:	48 89 7d e8          	mov    QWORD PTR [rbp-0x18],rdi
  3faaac:	48 89 75 e0          	mov    QWORD PTR [rbp-0x20],rsi
  3faab0:	89 55 dc             	mov    DWORD PTR [rbp-0x24],edx
  3faab3:	eb 35                	jmp    3faaea <_init-0x5976>
  3faab5:	48 8b 45 e8          	mov    rax,QWORD PTR [rbp-0x18]
  3faab9:	0f b6 00             	movzx  eax,BYTE PTR [rax]
  3faabc:	88 45 ff             	mov    BYTE PTR [rbp-0x1],al
  3faabf:	48 8b 45 e0          	mov    rax,QWORD PTR [rbp-0x20]
  3faac3:	0f b6 00             	movzx  eax,BYTE PTR [rax]
  3faac6:	88 45 fe             	mov    BYTE PTR [rbp-0x2],al
  3faac9:	0f b6 45 ff          	movzx  eax,BYTE PTR [rbp-0x1]
  3faacd:	3a 45 fe             	cmp    al,BYTE PTR [rbp-0x2]
  3faad0:	74 0e                	je     3faae0 <_init-0x5980>
  3faad2:	0f b6 55 ff          	movzx  edx,BYTE PTR [rbp-0x1]
  3faad6:	0f b6 45 fe          	movzx  eax,BYTE PTR [rbp-0x2]
  3faada:	29 c2                	sub    edx,eax
  3faadc:	89 d0                	mov    eax,edx
  3faade:	eb 17                	jmp    3faaf7 <_init-0x5969>
  3faae0:	48 83 45 e8 01       	add    QWORD PTR [rbp-0x18],0x1
  3faae5:	48 83 45 e0 01       	add    QWORD PTR [rbp-0x20],0x1
  3faaea:	8b 45 dc             	mov    eax,DWORD PTR [rbp-0x24]
  3faaed:	8d 50 ff             	lea    edx,[rax-0x1]
  3faaf0:	89 55 dc             	mov    DWORD PTR [rbp-0x24],edx
  3faaf3:	85 c0                	test   eax,eax
  3faaf5:	75 be                	jne    3faab5 <_init-0x59ab>
  3faaf7:	5d                   	pop    rbp
  3faaf8:	c3                   	ret    
  3faaf9:	f3 0f 1e fa          	endbr64 
  3faafd:	55                   	push   rbp
  3faafe:	48 89 e5             	mov    rbp,rsp
  3fab01:	e8 00 00 00 00       	call   3fab06 <_init-0x595a>
  3fab06:	58                   	pop    rax
  3fab07:	48 89 c0             	mov    rax,rax
  3fab0a:	48 89 45 f8          	mov    QWORD PTR [rbp-0x8],rax
  3fab0e:	48 8b 45 f8          	mov    rax,QWORD PTR [rbp-0x8]
  3fab12:	5d                   	pop    rbp
  3fab13:	c3                   	ret    
  3fab14:	68 b0 04 40 00       	push   0x4004b0
  3fab19:	c3                   	ret    
  3fab1a:	89 e5                	mov    ebp,esp
  3fab1c:	bf 00 00 00 00       	mov    edi,0x0
  3fab21:	e8 33 f3 ff ff       	call   3f9e59 <_init-0x6607>
  3fab26:	90                   	nop
  3fab27:	5d                   	pop    rbp
  3fab28:	c3                   	ret    
  3fab29:	f3 0f 1e fa          	endbr64 
  3fab2d:	55                   	push   rbp
  3fab2e:	48 89 e5             	mov    rbp,rsp
  3fab31:	90                   	nop
  3fab32:	90                   	nop
  3fab33:	5d                   	pop    rbp
  3fab34:	c3                   	ret    
  3fab35:	f3 0f 1e fa          	endbr64 
  3fab39:	55                   	push   rbp
  3fab3a:	48 89 e5             	mov    rbp,rsp
  3fab3d:	ba ed 3b 00 00       	mov    edx,0x3bed
  3fab42:	48 c7 c0 c0 2d 40 00 	mov    rax,0x402dc0
  3fab49:	48 89 c6             	mov    rsi,rax
  3fab4c:	bf 01 00 00 00       	mov    edi,0x1
  3fab51:	e8 ac f3 ff ff       	call   3f9f02 <_init-0x655e>
  3fab56:	90                   	nop
  3fab57:	5d                   	pop    rbp
  3fab58:	c3                   	ret    
	...
  3fab61:	00 00                	add    BYTE PTR [rax],al
  3fab63:	00 4d d6             	add    BYTE PTR [rbp-0x2a],cl
  3fab66:	ff                   	(bad)  
  3fab67:	ff 62 d6             	jmp    QWORD PTR [rdx-0x2a]
  3fab6a:	ff                   	(bad)  
  3fab6b:	ff 62 d6             	jmp    QWORD PTR [rdx-0x2a]
  3fab6e:	ff                   	(bad)  
  3fab6f:	ff 62 d6             	jmp    QWORD PTR [rdx-0x2a]
  3fab72:	ff                   	(bad)  
  3fab73:	ff                   	(bad)  
  3fab74:	f9                   	stc    
  3fab75:	d5                   	(bad)  
  3fab76:	ff                   	(bad)  
  3fab77:	ff 62 d6             	jmp    QWORD PTR [rdx-0x2a]
  3fab7a:	ff                   	(bad)  
  3fab7b:	ff 62 d6             	jmp    QWORD PTR [rdx-0x2a]
  3fab7e:	ff                   	(bad)  
  3fab7f:	ff 62 d6             	jmp    QWORD PTR [rdx-0x2a]
  3fab82:	ff                   	(bad)  
  3fab83:	ff e1                	jmp    rcx
  3fab85:	d5                   	(bad)  
  3fab86:	ff                   	(bad)  
  3fab87:	ff 62 d6             	jmp    QWORD PTR [rdx-0x2a]
  3fab8a:	ff                   	(bad)  
  3fab8b:	ff 62 d6             	jmp    QWORD PTR [rdx-0x2a]
  3fab8e:	ff                   	(bad)  
  3fab8f:	ff 62 d6             	jmp    QWORD PTR [rdx-0x2a]
  3fab92:	ff                   	(bad)  
  3fab93:	ff 62 d6             	jmp    QWORD PTR [rdx-0x2a]
  3fab96:	ff                   	(bad)  
  3fab97:	ff 62 d6             	jmp    QWORD PTR [rdx-0x2a]
  3fab9a:	ff                   	(bad)  
  3fab9b:	ff                   	(bad)  
  3fab9c:	38 d6                	cmp    dh,dl
  3fab9e:	ff                   	(bad)  
  3fab9f:	ff 62 d6             	jmp    QWORD PTR [rdx-0x2a]
  3faba2:	ff                   	(bad)  
  3faba3:	ff 62 d6             	jmp    QWORD PTR [rdx-0x2a]
  3faba6:	ff                   	(bad)  
  3faba7:	ff 62 d6             	jmp    QWORD PTR [rdx-0x2a]
  3fabaa:	ff                   	(bad)  
  3fabab:	ff 0e                	dec    DWORD PTR [rsi]
  3fabad:	d6                   	(bad)  
  3fabae:	ff                   	(bad)  
  3fabaf:	ff 23                	jmp    QWORD PTR [rbx]
  3fabb1:	d6                   	(bad)  
  3fabb2:	ff                   	(bad)  
  3fabb3:	ff 2e                	jmp    FWORD PTR [rsi]
  3fabb5:	78 79                	js     3fac30 <_init-0x5830>
  3fabb7:	7a 2e                	jp     3fabe7 <_init-0x5879>
  3fabb9:	73 6b                	jae    3fac26 <_init-0x583a>
  3fabbb:	65 6b 73 69 2e       	imul   esi,DWORD PTR gs:[rbx+0x69],0x2e
  3fabc0:	65 6c                	gs ins BYTE PTR es:[rdi],dx
  3fabc2:	66 36 34 00          	data16 ss xor al,0x0
  3fabc6:	2e 74 65             	cs je  3fac2e <_init-0x5832>
  3fabc9:	78 74                	js     3fac3f <_init-0x5821>
  3fabcb:	00 70 75             	add    BYTE PTR [rax+0x75],dh
  3fabce:	74 73                	je     3fac43 <_init-0x581d>
  3fabd0:	00 00                	add    BYTE PTR [rax],al
  3fabd2:	00 00                	add    BYTE PTR [rax],al
  3fabd4:	9e                   	sahf   
  3fabd5:	eb ff                	jmp    3fabd6 <_init-0x588a>
  3fabd7:	ff 9e eb ff ff 82    	call   FWORD PTR [rsi-0x7d000015]
  3fabdd:	eb ff                	jmp    3fabde <_init-0x5882>
  3fabdf:	ff b5 ea ff ff 9e    	push   QWORD PTR [rbp-0x61000016]
  3fabe5:	eb ff                	jmp    3fabe6 <_init-0x587a>
  3fabe7:	ff                   	(bad)  
  3fabe8:	f9                   	stc    
  3fabe9:	ea                   	(bad)  
  3fabea:	ff                   	(bad)  
  3fabeb:	ff                   	(bad)  
  3fabec:	7c ea                	jl     3fabd8 <_init-0x5888>
  3fabee:	ff                   	(bad)  
  3fabef:	ff 9e eb ff ff 9e    	call   FWORD PTR [rsi-0x61000015]
  3fabf5:	eb ff                	jmp    3fabf6 <_init-0x586a>
  3fabf7:	ff 9e eb ff ff 2f    	call   FWORD PTR [rsi+0x2fffffeb]
  3fabfd:	eb ff                	jmp    3fabfe <_init-0x5862>
  3fabff:	ff 9e eb ff ff 9e    	call   FWORD PTR [rsi-0x61000015]
  3fac05:	eb ff                	jmp    3fac06 <_init-0x585a>
  3fac07:	ff 9e eb ff ff 9e    	call   FWORD PTR [rsi-0x61000015]
  3fac0d:	eb ff                	jmp    3fac0e <_init-0x5852>
  3fac0f:	ff 9e eb ff ff 9e    	call   FWORD PTR [rsi-0x61000015]
  3fac15:	eb ff                	jmp    3fac16 <_init-0x584a>
  3fac17:	ff 9e eb ff ff 9e    	call   FWORD PTR [rsi-0x61000015]
  3fac1d:	eb ff                	jmp    3fac1e <_init-0x5842>
  3fac1f:	ff 9e eb ff ff 9e    	call   FWORD PTR [rsi-0x61000015]
  3fac25:	eb ff                	jmp    3fac26 <_init-0x583a>
  3fac27:	ff 9e eb ff ff 9e    	call   FWORD PTR [rsi-0x61000015]
  3fac2d:	eb ff                	jmp    3fac2e <_init-0x5832>
  3fac2f:	ff 4c eb ff          	dec    DWORD PTR [rbx+rbp*8-0x1]
  3fac33:	ff                   	(bad)  
  3fac34:	7f 45                	jg     3fac7b <_init-0x57e5>
  3fac36:	4c                   	rex.WR
  3fac37:	46 00 2f             	rex.RX add BYTE PTR [rdi],r13b
  3fac3a:	73 62                	jae    3fac9e <_init-0x57c2>
  3fac3c:	69 6e 00 2f 75 73 72 	imul   ebp,DWORD PTR [rsi+0x0],0x7273752f
  3fac43:	2f                   	(bad)  
  3fac44:	73 62                	jae    3faca8 <_init-0x57b8>
  3fac46:	69 6e 00 2f 62 69 6e 	imul   ebp,DWORD PTR [rsi+0x0],0x6e69622f
  3fac4d:	00 2f                	add    BYTE PTR [rdi],ch
  3fac4f:	75 73                	jne    3facc4 <_init-0x579c>
  3fac51:	72 2f                	jb     3fac82 <_init-0x57de>
  3fac53:	62                   	(bad)  
  3fac54:	69 6e 00 2e 00 76 69 	imul   ebp,DWORD PTR [rsi+0x0],0x6976002e
  3fac5b:	72 75                	jb     3facd2 <_init-0x578e>
  3fac5d:	73 00                	jae    3fac5f <_init-0x5801>
  3fac5f:	0a 00                	or     al,BYTE PTR [rax]
  3fac61:	00 00                	add    BYTE PTR [rax],al
  3fac63:	00 1b                	add    BYTE PTR [rbx],bl
  3fac65:	5b                   	pop    rbx
  3fac66:	30 3b                	xor    BYTE PTR [rbx],bh
  3fac68:	31 3b                	xor    DWORD PTR [rbx],edi
  3fac6a:	33 30                	xor    esi,DWORD PTR [rax]
  3fac6c:	3b 34 30             	cmp    esi,DWORD PTR [rax+rsi*1]
  3fac6f:	6d                   	ins    DWORD PTR es:[rdi],dx
  3fac70:	40 1b 5b 30          	rex sbb ebx,DWORD PTR [rbx+0x30]
  3fac74:	3b 33                	cmp    esi,DWORD PTR [rbx]
  3fac76:	31 3b                	xor    DWORD PTR [rbx],edi
  3fac78:	34 30                	xor    al,0x30
  3fac7a:	6d                   	ins    DWORD PTR es:[rdi],dx
  3fac7b:	38 1b                	cmp    BYTE PTR [rbx],bl
  3fac7d:	5b                   	pop    rbx
  3fac7e:	30 3b                	xor    BYTE PTR [rbx],bh
  3fac80:	35 3b 33 30 3b       	xor    eax,0x3b30333b
  3fac85:	34 30                	xor    al,0x30
  3fac87:	6d                   	ins    DWORD PTR es:[rdi],dx
  3fac88:	38 1b                	cmp    BYTE PTR [rbx],bl
  3fac8a:	5b                   	pop    rbx
  3fac8b:	30 3b                	xor    BYTE PTR [rbx],bh
  3fac8d:	33 31                	xor    esi,DWORD PTR [rcx]
  3fac8f:	3b 34 30             	cmp    esi,DWORD PTR [rax+rsi*1]
  3fac92:	6d                   	ins    DWORD PTR es:[rdi],dx
  3fac93:	40 1b 5b 30          	rex sbb ebx,DWORD PTR [rbx+0x30]
  3fac97:	3b 35 3b 33 30 3b    	cmp    esi,DWORD PTR [rip+0x3b30333b]        # 3b6fdfd8 <_end+0x3b2fbfa0>
  3fac9d:	34 30                	xor    al,0x30
  3fac9f:	6d                   	ins    DWORD PTR es:[rdi],dx
  3faca0:	38 1b                	cmp    BYTE PTR [rbx],bl
  3faca2:	5b                   	pop    rbx
  3faca3:	30 3b                	xor    BYTE PTR [rbx],bh
  3faca5:	33 31                	xor    esi,DWORD PTR [rcx]
  3faca7:	3b 34 30             	cmp    esi,DWORD PTR [rax+rsi*1]
  3facaa:	6d                   	ins    DWORD PTR es:[rdi],dx
  3facab:	40 1b 5b 30          	rex sbb ebx,DWORD PTR [rbx+0x30]
  3facaf:	3b 35 3b 33 30 3b    	cmp    esi,DWORD PTR [rip+0x3b30333b]        # 3b6fdff0 <_end+0x3b2fbfb8>
  3facb5:	34 30                	xor    al,0x30
  3facb7:	6d                   	ins    DWORD PTR es:[rdi],dx
  3facb8:	38 1b                	cmp    BYTE PTR [rbx],bl
  3facba:	5b                   	pop    rbx
  3facbb:	30 3b                	xor    BYTE PTR [rbx],bh
  3facbd:	33 31                	xor    esi,DWORD PTR [rcx]
  3facbf:	3b 34 30             	cmp    esi,DWORD PTR [rax+rsi*1]
  3facc2:	6d                   	ins    DWORD PTR es:[rdi],dx
  3facc3:	40 1b 5b 30          	rex sbb ebx,DWORD PTR [rbx+0x30]
  3facc7:	3b 35 3b 33 30 3b    	cmp    esi,DWORD PTR [rip+0x3b30333b]        # 3b6fe008 <_end+0x3b2fbfd0>
  3faccd:	34 30                	xor    al,0x30
  3faccf:	6d                   	ins    DWORD PTR es:[rdi],dx
  3facd0:	38 1b                	cmp    BYTE PTR [rbx],bl
  3facd2:	5b                   	pop    rbx
  3facd3:	30 3b                	xor    BYTE PTR [rbx],bh
  3facd5:	33 31                	xor    esi,DWORD PTR [rcx]
  3facd7:	3b 34 30             	cmp    esi,DWORD PTR [rax+rsi*1]
  3facda:	6d                   	ins    DWORD PTR es:[rdi],dx
  3facdb:	40 1b 5b 30          	rex sbb ebx,DWORD PTR [rbx+0x30]
  3facdf:	3b 35 3b 33 30 3b    	cmp    esi,DWORD PTR [rip+0x3b30333b]        # 3b6fe020 <_end+0x3b2fbfe8>
  3face5:	34 30                	xor    al,0x30
  3face7:	6d                   	ins    DWORD PTR es:[rdi],dx
  3face8:	38 1b                	cmp    BYTE PTR [rbx],bl
  3facea:	5b                   	pop    rbx
  3faceb:	30 3b                	xor    BYTE PTR [rbx],bh
  3faced:	33 31                	xor    esi,DWORD PTR [rcx]
  3facef:	3b 34 30             	cmp    esi,DWORD PTR [rax+rsi*1]
  3facf2:	6d                   	ins    DWORD PTR es:[rdi],dx
  3facf3:	40 1b 5b 30          	rex sbb ebx,DWORD PTR [rbx+0x30]
  3facf7:	3b 35 3b 33 30 3b    	cmp    esi,DWORD PTR [rip+0x3b30333b]        # 3b6fe038 <_end+0x3b2fc000>
  3facfd:	34 30                	xor    al,0x30
  3facff:	6d                   	ins    DWORD PTR es:[rdi],dx
  3fad00:	38 1b                	cmp    BYTE PTR [rbx],bl
  3fad02:	5b                   	pop    rbx
  3fad03:	30 3b                	xor    BYTE PTR [rbx],bh
  3fad05:	33 31                	xor    esi,DWORD PTR [rcx]
  3fad07:	3b 34 30             	cmp    esi,DWORD PTR [rax+rsi*1]
  3fad0a:	6d                   	ins    DWORD PTR es:[rdi],dx
  3fad0b:	40 1b 5b 30          	rex sbb ebx,DWORD PTR [rbx+0x30]
  3fad0f:	3b 35 3b 33 30 3b    	cmp    esi,DWORD PTR [rip+0x3b30333b]        # 3b6fe050 <_end+0x3b2fc018>
  3fad15:	34 30                	xor    al,0x30
  3fad17:	6d                   	ins    DWORD PTR es:[rdi],dx
  3fad18:	38 1b                	cmp    BYTE PTR [rbx],bl
  3fad1a:	5b                   	pop    rbx
  3fad1b:	30 3b                	xor    BYTE PTR [rbx],bh
  3fad1d:	33 31                	xor    esi,DWORD PTR [rcx]
  3fad1f:	3b 34 30             	cmp    esi,DWORD PTR [rax+rsi*1]
  3fad22:	6d                   	ins    DWORD PTR es:[rdi],dx
  3fad23:	40 1b 5b 30          	rex sbb ebx,DWORD PTR [rbx+0x30]
  3fad27:	3b 35 3b 33 30 3b    	cmp    esi,DWORD PTR [rip+0x3b30333b]        # 3b6fe068 <_end+0x3b2fc030>
  3fad2d:	34 30                	xor    al,0x30
  3fad2f:	6d                   	ins    DWORD PTR es:[rdi],dx
  3fad30:	38 1b                	cmp    BYTE PTR [rbx],bl
  3fad32:	5b                   	pop    rbx
  3fad33:	30 3b                	xor    BYTE PTR [rbx],bh
  3fad35:	33 31                	xor    esi,DWORD PTR [rcx]
  3fad37:	3b 34 30             	cmp    esi,DWORD PTR [rax+rsi*1]
  3fad3a:	6d                   	ins    DWORD PTR es:[rdi],dx
  3fad3b:	40 1b 5b 30          	rex sbb ebx,DWORD PTR [rbx+0x30]
  3fad3f:	3b 35 3b 33 30 3b    	cmp    esi,DWORD PTR [rip+0x3b30333b]        # 3b6fe080 <_end+0x3b2fc048>
  3fad45:	34 30                	xor    al,0x30
  3fad47:	6d                   	ins    DWORD PTR es:[rdi],dx
  3fad48:	38 1b                	cmp    BYTE PTR [rbx],bl
  3fad4a:	5b                   	pop    rbx
  3fad4b:	30 3b                	xor    BYTE PTR [rbx],bh
  3fad4d:	33 31                	xor    esi,DWORD PTR [rcx]
  3fad4f:	3b 34 30             	cmp    esi,DWORD PTR [rax+rsi*1]
  3fad52:	6d                   	ins    DWORD PTR es:[rdi],dx
  3fad53:	40 1b 5b 30          	rex sbb ebx,DWORD PTR [rbx+0x30]
  3fad57:	3b 35 3b 33 30 3b    	cmp    esi,DWORD PTR [rip+0x3b30333b]        # 3b6fe098 <_end+0x3b2fc060>
  3fad5d:	34 30                	xor    al,0x30
  3fad5f:	6d                   	ins    DWORD PTR es:[rdi],dx
  3fad60:	38 1b                	cmp    BYTE PTR [rbx],bl
  3fad62:	5b                   	pop    rbx
  3fad63:	30 3b                	xor    BYTE PTR [rbx],bh
  3fad65:	33 31                	xor    esi,DWORD PTR [rcx]
  3fad67:	3b 34 30             	cmp    esi,DWORD PTR [rax+rsi*1]
  3fad6a:	6d                   	ins    DWORD PTR es:[rdi],dx
  3fad6b:	40 1b 5b 30          	rex sbb ebx,DWORD PTR [rbx+0x30]
  3fad6f:	3b 35 3b 33 30 3b    	cmp    esi,DWORD PTR [rip+0x3b30333b]        # 3b6fe0b0 <_end+0x3b2fc078>
  3fad75:	34 30                	xor    al,0x30
  3fad77:	6d                   	ins    DWORD PTR es:[rdi],dx
  3fad78:	38 1b                	cmp    BYTE PTR [rbx],bl
  3fad7a:	5b                   	pop    rbx
  3fad7b:	30 3b                	xor    BYTE PTR [rbx],bh
  3fad7d:	33 31                	xor    esi,DWORD PTR [rcx]
  3fad7f:	3b 34 30             	cmp    esi,DWORD PTR [rax+rsi*1]
  3fad82:	6d                   	ins    DWORD PTR es:[rdi],dx
  3fad83:	40 1b 5b 30          	rex sbb ebx,DWORD PTR [rbx+0x30]
  3fad87:	3b 35 3b 33 30 3b    	cmp    esi,DWORD PTR [rip+0x3b30333b]        # 3b6fe0c8 <_end+0x3b2fc090>
  3fad8d:	34 30                	xor    al,0x30
  3fad8f:	6d                   	ins    DWORD PTR es:[rdi],dx
  3fad90:	38 1b                	cmp    BYTE PTR [rbx],bl
  3fad92:	5b                   	pop    rbx
  3fad93:	30 3b                	xor    BYTE PTR [rbx],bh
  3fad95:	33 31                	xor    esi,DWORD PTR [rcx]
  3fad97:	3b 34 30             	cmp    esi,DWORD PTR [rax+rsi*1]
  3fad9a:	6d                   	ins    DWORD PTR es:[rdi],dx
  3fad9b:	40 1b 5b 30          	rex sbb ebx,DWORD PTR [rbx+0x30]
  3fad9f:	3b 35 3b 33 30 3b    	cmp    esi,DWORD PTR [rip+0x3b30333b]        # 3b6fe0e0 <_end+0x3b2fc0a8>
  3fada5:	34 30                	xor    al,0x30
  3fada7:	6d                   	ins    DWORD PTR es:[rdi],dx
  3fada8:	38 1b                	cmp    BYTE PTR [rbx],bl
  3fadaa:	5b                   	pop    rbx
  3fadab:	30 3b                	xor    BYTE PTR [rbx],bh
  3fadad:	33 31                	xor    esi,DWORD PTR [rcx]
  3fadaf:	3b 34 30             	cmp    esi,DWORD PTR [rax+rsi*1]
  3fadb2:	6d                   	ins    DWORD PTR es:[rdi],dx
  3fadb3:	40 1b 5b 30          	rex sbb ebx,DWORD PTR [rbx+0x30]
  3fadb7:	3b 35 3b 33 30 3b    	cmp    esi,DWORD PTR [rip+0x3b30333b]        # 3b6fe0f8 <_end+0x3b2fc0c0>
  3fadbd:	34 30                	xor    al,0x30
  3fadbf:	6d                   	ins    DWORD PTR es:[rdi],dx
  3fadc0:	38 1b                	cmp    BYTE PTR [rbx],bl
  3fadc2:	5b                   	pop    rbx
  3fadc3:	30 3b                	xor    BYTE PTR [rbx],bh
  3fadc5:	33 31                	xor    esi,DWORD PTR [rcx]
  3fadc7:	3b 34 30             	cmp    esi,DWORD PTR [rax+rsi*1]
  3fadca:	6d                   	ins    DWORD PTR es:[rdi],dx
  3fadcb:	40 1b 5b 30          	rex sbb ebx,DWORD PTR [rbx+0x30]
  3fadcf:	3b 35 3b 33 30 3b    	cmp    esi,DWORD PTR [rip+0x3b30333b]        # 3b6fe110 <_end+0x3b2fc0d8>
  3fadd5:	34 30                	xor    al,0x30
  3fadd7:	6d                   	ins    DWORD PTR es:[rdi],dx
  3fadd8:	38 1b                	cmp    BYTE PTR [rbx],bl
  3fadda:	5b                   	pop    rbx
  3faddb:	30 3b                	xor    BYTE PTR [rbx],bh
  3faddd:	33 31                	xor    esi,DWORD PTR [rcx]
  3faddf:	3b 34 30             	cmp    esi,DWORD PTR [rax+rsi*1]
  3fade2:	6d                   	ins    DWORD PTR es:[rdi],dx
  3fade3:	40 1b 5b 30          	rex sbb ebx,DWORD PTR [rbx+0x30]
  3fade7:	3b 35 3b 33 30 3b    	cmp    esi,DWORD PTR [rip+0x3b30333b]        # 3b6fe128 <_end+0x3b2fc0f0>
  3faded:	34 30                	xor    al,0x30
  3fadef:	6d                   	ins    DWORD PTR es:[rdi],dx
  3fadf0:	38 1b                	cmp    BYTE PTR [rbx],bl
  3fadf2:	5b                   	pop    rbx
  3fadf3:	30 3b                	xor    BYTE PTR [rbx],bh
  3fadf5:	33 31                	xor    esi,DWORD PTR [rcx]
  3fadf7:	3b 34 30             	cmp    esi,DWORD PTR [rax+rsi*1]
  3fadfa:	6d                   	ins    DWORD PTR es:[rdi],dx
  3fadfb:	40 1b 5b 30          	rex sbb ebx,DWORD PTR [rbx+0x30]
  3fadff:	3b 35 3b 33 30 3b    	cmp    esi,DWORD PTR [rip+0x3b30333b]        # 3b6fe140 <_end+0x3b2fc108>
  3fae05:	34 30                	xor    al,0x30
  3fae07:	6d                   	ins    DWORD PTR es:[rdi],dx
  3fae08:	38 1b                	cmp    BYTE PTR [rbx],bl
  3fae0a:	5b                   	pop    rbx
  3fae0b:	30 3b                	xor    BYTE PTR [rbx],bh
  3fae0d:	33 31                	xor    esi,DWORD PTR [rcx]
  3fae0f:	3b 34 30             	cmp    esi,DWORD PTR [rax+rsi*1]
  3fae12:	6d                   	ins    DWORD PTR es:[rdi],dx
  3fae13:	40 1b 5b 30          	rex sbb ebx,DWORD PTR [rbx+0x30]
  3fae17:	3b 35 3b 33 30 3b    	cmp    esi,DWORD PTR [rip+0x3b30333b]        # 3b6fe158 <_end+0x3b2fc120>
  3fae1d:	34 30                	xor    al,0x30
  3fae1f:	6d                   	ins    DWORD PTR es:[rdi],dx
  3fae20:	38 1b                	cmp    BYTE PTR [rbx],bl
  3fae22:	5b                   	pop    rbx
  3fae23:	30 3b                	xor    BYTE PTR [rbx],bh
  3fae25:	33 31                	xor    esi,DWORD PTR [rcx]
  3fae27:	3b 34 30             	cmp    esi,DWORD PTR [rax+rsi*1]
  3fae2a:	6d                   	ins    DWORD PTR es:[rdi],dx
  3fae2b:	40 1b 5b 30          	rex sbb ebx,DWORD PTR [rbx+0x30]
  3fae2f:	3b 35 3b 33 30 3b    	cmp    esi,DWORD PTR [rip+0x3b30333b]        # 3b6fe170 <_end+0x3b2fc138>
  3fae35:	34 30                	xor    al,0x30
  3fae37:	6d                   	ins    DWORD PTR es:[rdi],dx
  3fae38:	38 1b                	cmp    BYTE PTR [rbx],bl
  3fae3a:	5b                   	pop    rbx
  3fae3b:	30 3b                	xor    BYTE PTR [rbx],bh
  3fae3d:	33 31                	xor    esi,DWORD PTR [rcx]
  3fae3f:	3b 34 30             	cmp    esi,DWORD PTR [rax+rsi*1]
  3fae42:	6d                   	ins    DWORD PTR es:[rdi],dx
  3fae43:	40 1b 5b 30          	rex sbb ebx,DWORD PTR [rbx+0x30]
  3fae47:	3b 35 3b 33 30 3b    	cmp    esi,DWORD PTR [rip+0x3b30333b]        # 3b6fe188 <_end+0x3b2fc150>
  3fae4d:	34 30                	xor    al,0x30
  3fae4f:	6d                   	ins    DWORD PTR es:[rdi],dx
  3fae50:	38 1b                	cmp    BYTE PTR [rbx],bl
  3fae52:	5b                   	pop    rbx
  3fae53:	30 3b                	xor    BYTE PTR [rbx],bh
  3fae55:	33 31                	xor    esi,DWORD PTR [rcx]
  3fae57:	3b 34 30             	cmp    esi,DWORD PTR [rax+rsi*1]
  3fae5a:	6d                   	ins    DWORD PTR es:[rdi],dx
  3fae5b:	40 1b 5b 30          	rex sbb ebx,DWORD PTR [rbx+0x30]
  3fae5f:	3b 35 3b 33 30 3b    	cmp    esi,DWORD PTR [rip+0x3b30333b]        # 3b6fe1a0 <_end+0x3b2fc168>
  3fae65:	34 30                	xor    al,0x30
  3fae67:	6d                   	ins    DWORD PTR es:[rdi],dx
  3fae68:	38 1b                	cmp    BYTE PTR [rbx],bl
  3fae6a:	5b                   	pop    rbx
  3fae6b:	30 3b                	xor    BYTE PTR [rbx],bh
  3fae6d:	33 31                	xor    esi,DWORD PTR [rcx]
  3fae6f:	3b 34 30             	cmp    esi,DWORD PTR [rax+rsi*1]
  3fae72:	6d                   	ins    DWORD PTR es:[rdi],dx
  3fae73:	40 1b 5b 30          	rex sbb ebx,DWORD PTR [rbx+0x30]
  3fae77:	3b 35 3b 33 30 3b    	cmp    esi,DWORD PTR [rip+0x3b30333b]        # 3b6fe1b8 <_end+0x3b2fc180>
  3fae7d:	34 30                	xor    al,0x30
  3fae7f:	6d                   	ins    DWORD PTR es:[rdi],dx
  3fae80:	38 1b                	cmp    BYTE PTR [rbx],bl
  3fae82:	5b                   	pop    rbx
  3fae83:	30 3b                	xor    BYTE PTR [rbx],bh
  3fae85:	33 31                	xor    esi,DWORD PTR [rcx]
  3fae87:	3b 34 30             	cmp    esi,DWORD PTR [rax+rsi*1]
  3fae8a:	6d                   	ins    DWORD PTR es:[rdi],dx
  3fae8b:	40 1b 5b 30          	rex sbb ebx,DWORD PTR [rbx+0x30]
  3fae8f:	3b 35 3b 33 30 3b    	cmp    esi,DWORD PTR [rip+0x3b30333b]        # 3b6fe1d0 <_end+0x3b2fc198>
  3fae95:	34 30                	xor    al,0x30
  3fae97:	6d                   	ins    DWORD PTR es:[rdi],dx
  3fae98:	38 1b                	cmp    BYTE PTR [rbx],bl
  3fae9a:	5b                   	pop    rbx
  3fae9b:	30 3b                	xor    BYTE PTR [rbx],bh
  3fae9d:	33 31                	xor    esi,DWORD PTR [rcx]
  3fae9f:	3b 34 30             	cmp    esi,DWORD PTR [rax+rsi*1]
  3faea2:	6d                   	ins    DWORD PTR es:[rdi],dx
  3faea3:	40 1b 5b 30          	rex sbb ebx,DWORD PTR [rbx+0x30]
  3faea7:	3b 35 3b 33 30 3b    	cmp    esi,DWORD PTR [rip+0x3b30333b]        # 3b6fe1e8 <_end+0x3b2fc1b0>
  3faead:	34 30                	xor    al,0x30
  3faeaf:	6d                   	ins    DWORD PTR es:[rdi],dx
  3faeb0:	38 1b                	cmp    BYTE PTR [rbx],bl
  3faeb2:	5b                   	pop    rbx
  3faeb3:	30 3b                	xor    BYTE PTR [rbx],bh
  3faeb5:	33 31                	xor    esi,DWORD PTR [rcx]
  3faeb7:	3b 34 30             	cmp    esi,DWORD PTR [rax+rsi*1]
  3faeba:	6d                   	ins    DWORD PTR es:[rdi],dx
  3faebb:	40 1b 5b 30          	rex sbb ebx,DWORD PTR [rbx+0x30]
  3faebf:	6d                   	ins    DWORD PTR es:[rdi],dx
  3faec0:	0d 0a 1b 5b 30       	or     eax,0x305b1b0a
  3faec5:	3b 31                	cmp    esi,DWORD PTR [rcx]
  3faec7:	3b 33                	cmp    esi,DWORD PTR [rbx]
  3faec9:	30 3b                	xor    BYTE PTR [rbx],bh
  3faecb:	34 30                	xor    al,0x30
  3faecd:	6d                   	ins    DWORD PTR es:[rdi],dx
  3faece:	40 38 38             	cmp    BYTE PTR [rax],dil
  3faed1:	38 38                	cmp    BYTE PTR [rax],bh
  3faed3:	38 38                	cmp    BYTE PTR [rax],bh
  3faed5:	38 38                	cmp    BYTE PTR [rax],bh
  3faed7:	38 38                	cmp    BYTE PTR [rax],bh
  3faed9:	38 38                	cmp    BYTE PTR [rax],bh
  3faedb:	38 38                	cmp    BYTE PTR [rax],bh
  3faedd:	38 38                	cmp    BYTE PTR [rax],bh
  3faedf:	38 38                	cmp    BYTE PTR [rax],bh
  3faee1:	38 38                	cmp    BYTE PTR [rax],bh
  3faee3:	38 1b                	cmp    BYTE PTR [rbx],bl
  3faee5:	5b                   	pop    rbx
  3faee6:	30 3b                	xor    BYTE PTR [rbx],bh
  3faee8:	33 31                	xor    esi,DWORD PTR [rcx]
  3faeea:	3b 34 30             	cmp    esi,DWORD PTR [rax+rsi*1]
  3faeed:	6d                   	ins    DWORD PTR es:[rdi],dx
  3faeee:	38 1b                	cmp    BYTE PTR [rbx],bl
  3faef0:	5b                   	pop    rbx
  3faef1:	30 3b                	xor    BYTE PTR [rbx],bh
  3faef3:	35 3b 33 30 3b       	xor    eax,0x3b30333b
  3faef8:	34 30                	xor    al,0x30
  3faefa:	6d                   	ins    DWORD PTR es:[rdi],dx
  3faefb:	38 1b                	cmp    BYTE PTR [rbx],bl
  3faefd:	5b                   	pop    rbx
  3faefe:	30 3b                	xor    BYTE PTR [rbx],bh
  3faf00:	31 3b                	xor    DWORD PTR [rbx],edi
  3faf02:	33 30                	xor    esi,DWORD PTR [rax]
  3faf04:	3b 34 30             	cmp    esi,DWORD PTR [rax+rsi*1]
  3faf07:	6d                   	ins    DWORD PTR es:[rdi],dx
  3faf08:	38 38                	cmp    BYTE PTR [rax],bh
  3faf0a:	38 38                	cmp    BYTE PTR [rax],bh
  3faf0c:	1b 5b 30             	sbb    ebx,DWORD PTR [rbx+0x30]
  3faf0f:	3b 35 3b 33 30 3b    	cmp    esi,DWORD PTR [rip+0x3b30333b]        # 3b6fe250 <_end+0x3b2fc218>
  3faf15:	34 30                	xor    al,0x30
  3faf17:	6d                   	ins    DWORD PTR es:[rdi],dx
  3faf18:	40 1b 5b 30          	rex sbb ebx,DWORD PTR [rbx+0x30]
  3faf1c:	3b 35 3b 33 31 3b    	cmp    esi,DWORD PTR [rip+0x3b31333b]        # 3b70e25d <_end+0x3b30c225>
  3faf22:	34 30                	xor    al,0x30
  3faf24:	6d                   	ins    DWORD PTR es:[rdi],dx
  3faf25:	58                   	pop    rax
  3faf26:	1b 5b 30             	sbb    ebx,DWORD PTR [rbx+0x30]
  3faf29:	3b 33                	cmp    esi,DWORD PTR [rbx]
  3faf2b:	32 3b                	xor    bh,BYTE PTR [rbx]
  3faf2d:	34 30                	xor    al,0x30
  3faf2f:	6d                   	ins    DWORD PTR es:[rdi],dx
  3faf30:	58                   	pop    rax
  3faf31:	1b 5b 30             	sbb    ebx,DWORD PTR [rbx+0x30]
  3faf34:	3b 35 3b 33 30 3b    	cmp    esi,DWORD PTR [rip+0x3b30333b]        # 3b6fe275 <_end+0x3b2fc23d>
  3faf3a:	34 30                	xor    al,0x30
  3faf3c:	6d                   	ins    DWORD PTR es:[rdi],dx
  3faf3d:	38 1b                	cmp    BYTE PTR [rbx],bl
  3faf3f:	5b                   	pop    rbx
  3faf40:	30 3b                	xor    BYTE PTR [rbx],bh
  3faf42:	33 31                	xor    esi,DWORD PTR [rcx]
  3faf44:	3b 34 30             	cmp    esi,DWORD PTR [rax+rsi*1]
  3faf47:	6d                   	ins    DWORD PTR es:[rdi],dx
  3faf48:	38 1b                	cmp    BYTE PTR [rbx],bl
  3faf4a:	5b                   	pop    rbx
  3faf4b:	30 3b                	xor    BYTE PTR [rbx],bh
  3faf4d:	35 3b 33 30 3b       	xor    eax,0x3b30333b
  3faf52:	34 30                	xor    al,0x30
  3faf54:	6d                   	ins    DWORD PTR es:[rdi],dx
  3faf55:	38 1b                	cmp    BYTE PTR [rbx],bl
  3faf57:	5b                   	pop    rbx
  3faf58:	30 3b                	xor    BYTE PTR [rbx],bh
  3faf5a:	31 3b                	xor    DWORD PTR [rbx],edi
  3faf5c:	33 30                	xor    esi,DWORD PTR [rax]
  3faf5e:	3b 34 30             	cmp    esi,DWORD PTR [rax+rsi*1]
  3faf61:	6d                   	ins    DWORD PTR es:[rdi],dx
  3faf62:	38 38                	cmp    BYTE PTR [rax],bh
  3faf64:	38 38                	cmp    BYTE PTR [rax],bh
  3faf66:	38 38                	cmp    BYTE PTR [rax],bh
  3faf68:	38 38                	cmp    BYTE PTR [rax],bh
  3faf6a:	38 38                	cmp    BYTE PTR [rax],bh
  3faf6c:	38 38                	cmp    BYTE PTR [rax],bh
  3faf6e:	38 38                	cmp    BYTE PTR [rax],bh
  3faf70:	38 38                	cmp    BYTE PTR [rax],bh
  3faf72:	1b 5b 30             	sbb    ebx,DWORD PTR [rbx+0x30]
  3faf75:	6d                   	ins    DWORD PTR es:[rdi],dx
  3faf76:	0d 0a 1b 5b 30       	or     eax,0x305b1b0a
  3faf7b:	3b 31                	cmp    esi,DWORD PTR [rcx]
  3faf7d:	3b 33                	cmp    esi,DWORD PTR [rbx]
  3faf7f:	30 3b                	xor    BYTE PTR [rbx],bh
  3faf81:	34 30                	xor    al,0x30
  3faf83:	6d                   	ins    DWORD PTR es:[rdi],dx
  3faf84:	40 1b 5b 30          	rex sbb ebx,DWORD PTR [rbx+0x30]
  3faf88:	3b 33                	cmp    esi,DWORD PTR [rbx]
  3faf8a:	31 3b                	xor    DWORD PTR [rbx],edi
  3faf8c:	34 30                	xor    al,0x30
  3faf8e:	6d                   	ins    DWORD PTR es:[rdi],dx
  3faf8f:	38 1b                	cmp    BYTE PTR [rbx],bl
  3faf91:	5b                   	pop    rbx
  3faf92:	30 3b                	xor    BYTE PTR [rbx],bh
  3faf94:	35 3b 33 30 3b       	xor    eax,0x3b30333b
  3faf99:	34 30                	xor    al,0x30
  3faf9b:	6d                   	ins    DWORD PTR es:[rdi],dx
  3faf9c:	58                   	pop    rax
  3faf9d:	1b 5b 30             	sbb    ebx,DWORD PTR [rbx+0x30]
  3fafa0:	3b 33                	cmp    esi,DWORD PTR [rbx]
  3fafa2:	31 3b                	xor    DWORD PTR [rbx],edi
  3fafa4:	34 30                	xor    al,0x30
  3fafa6:	6d                   	ins    DWORD PTR es:[rdi],dx
  3fafa7:	38 1b                	cmp    BYTE PTR [rbx],bl
  3fafa9:	5b                   	pop    rbx
  3fafaa:	30 3b                	xor    BYTE PTR [rbx],bh
  3fafac:	35 3b 33 30 3b       	xor    eax,0x3b30333b
  3fafb1:	34 30                	xor    al,0x30
  3fafb3:	6d                   	ins    DWORD PTR es:[rdi],dx
  3fafb4:	58                   	pop    rax
  3fafb5:	1b 5b 30             	sbb    ebx,DWORD PTR [rbx+0x30]
  3fafb8:	3b 33                	cmp    esi,DWORD PTR [rbx]
  3fafba:	31 3b                	xor    DWORD PTR [rbx],edi
  3fafbc:	34 30                	xor    al,0x30
  3fafbe:	6d                   	ins    DWORD PTR es:[rdi],dx
  3fafbf:	38 1b                	cmp    BYTE PTR [rbx],bl
  3fafc1:	5b                   	pop    rbx
  3fafc2:	30 3b                	xor    BYTE PTR [rbx],bh
  3fafc4:	35 3b 33 30 3b       	xor    eax,0x3b30333b
  3fafc9:	34 30                	xor    al,0x30
  3fafcb:	6d                   	ins    DWORD PTR es:[rdi],dx
  3fafcc:	58                   	pop    rax
  3fafcd:	1b 5b 30             	sbb    ebx,DWORD PTR [rbx+0x30]
  3fafd0:	3b 33                	cmp    esi,DWORD PTR [rbx]
  3fafd2:	31 3b                	xor    DWORD PTR [rbx],edi
  3fafd4:	34 30                	xor    al,0x30
  3fafd6:	6d                   	ins    DWORD PTR es:[rdi],dx
  3fafd7:	38 1b                	cmp    BYTE PTR [rbx],bl
  3fafd9:	5b                   	pop    rbx
  3fafda:	30 3b                	xor    BYTE PTR [rbx],bh
  3fafdc:	35 3b 33 30 3b       	xor    eax,0x3b30333b
  3fafe1:	34 30                	xor    al,0x30
  3fafe3:	6d                   	ins    DWORD PTR es:[rdi],dx
  3fafe4:	58                   	pop    rax
  3fafe5:	1b 5b 30             	sbb    ebx,DWORD PTR [rbx+0x30]
  3fafe8:	3b 33                	cmp    esi,DWORD PTR [rbx]
  3fafea:	31 3b                	xor    DWORD PTR [rbx],edi
  3fafec:	34 30                	xor    al,0x30
  3fafee:	6d                   	ins    DWORD PTR es:[rdi],dx
  3fafef:	38 1b                	cmp    BYTE PTR [rbx],bl
  3faff1:	5b                   	pop    rbx
  3faff2:	30 3b                	xor    BYTE PTR [rbx],bh
  3faff4:	35 3b 33 30 3b       	xor    eax,0x3b30333b
  3faff9:	34 30                	xor    al,0x30
  3faffb:	6d                   	ins    DWORD PTR es:[rdi],dx
  3faffc:	58                   	pop    rax
  3faffd:	1b 5b 30             	sbb    ebx,DWORD PTR [rbx+0x30]
  3fb000:	3b 33                	cmp    esi,DWORD PTR [rbx]
  3fb002:	31 3b                	xor    DWORD PTR [rbx],edi
  3fb004:	34 30                	xor    al,0x30
  3fb006:	6d                   	ins    DWORD PTR es:[rdi],dx
  3fb007:	38 1b                	cmp    BYTE PTR [rbx],bl
  3fb009:	5b                   	pop    rbx
  3fb00a:	30 3b                	xor    BYTE PTR [rbx],bh
  3fb00c:	31 3b                	xor    DWORD PTR [rbx],edi
  3fb00e:	33 30                	xor    esi,DWORD PTR [rax]
  3fb010:	3b 34 30             	cmp    esi,DWORD PTR [rax+rsi*1]
  3fb013:	6d                   	ins    DWORD PTR es:[rdi],dx
  3fb014:	38 1b                	cmp    BYTE PTR [rbx],bl
  3fb016:	5b                   	pop    rbx
  3fb017:	30 3b                	xor    BYTE PTR [rbx],bh
  3fb019:	33 30                	xor    esi,DWORD PTR [rax]
  3fb01b:	3b 34 31             	cmp    esi,DWORD PTR [rcx+rsi*1]
  3fb01e:	6d                   	ins    DWORD PTR es:[rdi],dx
  3fb01f:	38 1b                	cmp    BYTE PTR [rbx],bl
  3fb021:	5b                   	pop    rbx
  3fb022:	30 3b                	xor    BYTE PTR [rbx],bh
  3fb024:	35 3b 33 32 3b       	xor    eax,0x3b32333b
  3fb029:	34 30                	xor    al,0x30
  3fb02b:	6d                   	ins    DWORD PTR es:[rdi],dx
  3fb02c:	53                   	push   rbx
  3fb02d:	1b 5b 30             	sbb    ebx,DWORD PTR [rbx+0x30]
  3fb030:	3b 31                	cmp    esi,DWORD PTR [rcx]
  3fb032:	3b 33                	cmp    esi,DWORD PTR [rbx]
  3fb034:	30 3b                	xor    BYTE PTR [rbx],bh
  3fb036:	34 31                	xor    al,0x31
  3fb038:	6d                   	ins    DWORD PTR es:[rdi],dx
  3fb039:	38 1b                	cmp    BYTE PTR [rbx],bl
  3fb03b:	5b                   	pop    rbx
  3fb03c:	30 3b                	xor    BYTE PTR [rbx],bh
  3fb03e:	33 31                	xor    esi,DWORD PTR [rcx]
  3fb040:	3b 34 30             	cmp    esi,DWORD PTR [rax+rsi*1]
  3fb043:	6d                   	ins    DWORD PTR es:[rdi],dx
  3fb044:	58                   	pop    rax
  3fb045:	1b 5b 30             	sbb    ebx,DWORD PTR [rbx+0x30]
  3fb048:	3b 35 3b 33 30 3b    	cmp    esi,DWORD PTR [rip+0x3b30333b]        # 3b6fe389 <_end+0x3b2fc351>
  3fb04e:	34 30                	xor    al,0x30
  3fb050:	6d                   	ins    DWORD PTR es:[rdi],dx
  3fb051:	58                   	pop    rax
  3fb052:	1b 5b 30             	sbb    ebx,DWORD PTR [rbx+0x30]
  3fb055:	3b 31                	cmp    esi,DWORD PTR [rcx]
  3fb057:	3b 33                	cmp    esi,DWORD PTR [rbx]
  3fb059:	30 3b                	xor    BYTE PTR [rbx],bh
  3fb05b:	34 31                	xor    al,0x31
  3fb05d:	6d                   	ins    DWORD PTR es:[rdi],dx
  3fb05e:	38 1b                	cmp    BYTE PTR [rbx],bl
  3fb060:	5b                   	pop    rbx
  3fb061:	30 3b                	xor    BYTE PTR [rbx],bh
  3fb063:	35 3b 33 33 3b       	xor    eax,0x3b33333b
  3fb068:	34 30                	xor    al,0x30
  3fb06a:	6d                   	ins    DWORD PTR es:[rdi],dx
  3fb06b:	25 1b 5b 30 3b       	and    eax,0x3b305b1b
  3fb070:	31 3b                	xor    DWORD PTR [rbx],edi
  3fb072:	33 30                	xor    esi,DWORD PTR [rax]
  3fb074:	3b 34 37             	cmp    esi,DWORD PTR [rdi+rsi*1]
  3fb077:	6d                   	ins    DWORD PTR es:[rdi],dx
  3fb078:	53                   	push   rbx
  3fb079:	1b 5b 30             	sbb    ebx,DWORD PTR [rbx+0x30]
  3fb07c:	3b 35 3b 33 37 3b    	cmp    esi,DWORD PTR [rip+0x3b37333b]        # 3b76e3bd <_end+0x3b36c385>
  3fb082:	34 30                	xor    al,0x30
  3fb084:	6d                   	ins    DWORD PTR es:[rdi],dx
  3fb085:	38 1b                	cmp    BYTE PTR [rbx],bl
  3fb087:	5b                   	pop    rbx
  3fb088:	30 3b                	xor    BYTE PTR [rbx],bh
  3fb08a:	35 3b 33 33 3b       	xor    eax,0x3b33333b
  3fb08f:	34 30                	xor    al,0x30
  3fb091:	6d                   	ins    DWORD PTR es:[rdi],dx
  3fb092:	3a 1b                	cmp    bl,BYTE PTR [rbx]
  3fb094:	5b                   	pop    rbx
  3fb095:	30 3b                	xor    BYTE PTR [rbx],bh
  3fb097:	31 3b                	xor    DWORD PTR [rbx],edi
  3fb099:	33 37                	xor    esi,DWORD PTR [rdi]
  3fb09b:	3b 34 37             	cmp    esi,DWORD PTR [rdi+rsi*1]
  3fb09e:	6d                   	ins    DWORD PTR es:[rdi],dx
  3fb09f:	53                   	push   rbx
  3fb0a0:	1b 5b 30             	sbb    ebx,DWORD PTR [rbx+0x30]
  3fb0a3:	3b 35 3b 33 33 3b    	cmp    esi,DWORD PTR [rip+0x3b33333b]        # 3b72e3e4 <_end+0x3b32c3ac>
  3fb0a9:	34 30                	xor    al,0x30
  3fb0ab:	6d                   	ins    DWORD PTR es:[rdi],dx
  3fb0ac:	3b 74 2e 38          	cmp    esi,DWORD PTR [rsi+rbp*1+0x38]
  3fb0b0:	3a 20                	cmp    ah,BYTE PTR [rax]
  3fb0b2:	1b 5b 30             	sbb    ebx,DWORD PTR [rbx+0x30]
  3fb0b5:	3b 31                	cmp    esi,DWORD PTR [rcx]
  3fb0b7:	3b 33                	cmp    esi,DWORD PTR [rbx]
  3fb0b9:	37                   	(bad)  
  3fb0ba:	3b 34 37             	cmp    esi,DWORD PTR [rdi+rsi*1]
  3fb0bd:	6d                   	ins    DWORD PTR es:[rdi],dx
  3fb0be:	20 1b                	and    BYTE PTR [rbx],bl
  3fb0c0:	5b                   	pop    rbx
  3fb0c1:	30 3b                	xor    BYTE PTR [rbx],bh
  3fb0c3:	35 3b 33 33 3b       	xor    eax,0x3b33333b
  3fb0c8:	34 30                	xor    al,0x30
  3fb0ca:	6d                   	ins    DWORD PTR es:[rdi],dx
  3fb0cb:	40 25 1b 5b 30 3b    	rex and eax,0x3b305b1b
  3fb0d1:	35 3b 33 30 3b       	xor    eax,0x3b30333b
  3fb0d6:	34 30                	xor    al,0x30
  3fb0d8:	6d                   	ins    DWORD PTR es:[rdi],dx
  3fb0d9:	58                   	pop    rax
  3fb0da:	1b 5b 30             	sbb    ebx,DWORD PTR [rbx+0x30]
  3fb0dd:	3b 35 3b 33 31 3b    	cmp    esi,DWORD PTR [rip+0x3b31333b]        # 3b70e41e <_end+0x3b30c3e6>
  3fb0e3:	34 30                	xor    al,0x30
  3fb0e5:	6d                   	ins    DWORD PTR es:[rdi],dx
  3fb0e6:	38 1b                	cmp    BYTE PTR [rbx],bl
  3fb0e8:	5b                   	pop    rbx
  3fb0e9:	30 3b                	xor    BYTE PTR [rbx],bh
  3fb0eb:	33 31                	xor    esi,DWORD PTR [rcx]
  3fb0ed:	3b 34 30             	cmp    esi,DWORD PTR [rax+rsi*1]
  3fb0f0:	6d                   	ins    DWORD PTR es:[rdi],dx
  3fb0f1:	58                   	pop    rax
  3fb0f2:	1b 5b 30             	sbb    ebx,DWORD PTR [rbx+0x30]
  3fb0f5:	3b 35 3b 33 30 3b    	cmp    esi,DWORD PTR [rip+0x3b30333b]        # 3b6fe436 <_end+0x3b2fc3fe>
  3fb0fb:	34 30                	xor    al,0x30
  3fb0fd:	6d                   	ins    DWORD PTR es:[rdi],dx
  3fb0fe:	58                   	pop    rax
  3fb0ff:	1b 5b 30             	sbb    ebx,DWORD PTR [rbx+0x30]
  3fb102:	3b 33                	cmp    esi,DWORD PTR [rbx]
  3fb104:	31 3b                	xor    DWORD PTR [rbx],edi
  3fb106:	34 30                	xor    al,0x30
  3fb108:	6d                   	ins    DWORD PTR es:[rdi],dx
  3fb109:	38 1b                	cmp    BYTE PTR [rbx],bl
  3fb10b:	5b                   	pop    rbx
  3fb10c:	30 3b                	xor    BYTE PTR [rbx],bh
  3fb10e:	35 3b 33 30 3b       	xor    eax,0x3b30333b
  3fb113:	34 30                	xor    al,0x30
  3fb115:	6d                   	ins    DWORD PTR es:[rdi],dx
  3fb116:	58                   	pop    rax
  3fb117:	1b 5b 30             	sbb    ebx,DWORD PTR [rbx+0x30]
  3fb11a:	3b 33                	cmp    esi,DWORD PTR [rbx]
  3fb11c:	31 3b                	xor    DWORD PTR [rbx],edi
  3fb11e:	34 30                	xor    al,0x30
  3fb120:	6d                   	ins    DWORD PTR es:[rdi],dx
  3fb121:	38 1b                	cmp    BYTE PTR [rbx],bl
  3fb123:	5b                   	pop    rbx
  3fb124:	30 3b                	xor    BYTE PTR [rbx],bh
  3fb126:	35 3b 33 30 3b       	xor    eax,0x3b30333b
  3fb12b:	34 30                	xor    al,0x30
  3fb12d:	6d                   	ins    DWORD PTR es:[rdi],dx
  3fb12e:	58                   	pop    rax
  3fb12f:	1b 5b 30             	sbb    ebx,DWORD PTR [rbx+0x30]
  3fb132:	3b 33                	cmp    esi,DWORD PTR [rbx]
  3fb134:	31 3b                	xor    DWORD PTR [rbx],edi
  3fb136:	34 30                	xor    al,0x30
  3fb138:	6d                   	ins    DWORD PTR es:[rdi],dx
  3fb139:	38 1b                	cmp    BYTE PTR [rbx],bl
  3fb13b:	5b                   	pop    rbx
  3fb13c:	30 3b                	xor    BYTE PTR [rbx],bh
  3fb13e:	35 3b 33 30 3b       	xor    eax,0x3b30333b
  3fb143:	34 30                	xor    al,0x30
  3fb145:	6d                   	ins    DWORD PTR es:[rdi],dx
  3fb146:	58                   	pop    rax
  3fb147:	1b 5b 30             	sbb    ebx,DWORD PTR [rbx+0x30]
  3fb14a:	3b 33                	cmp    esi,DWORD PTR [rbx]
  3fb14c:	31 3b                	xor    DWORD PTR [rbx],edi
  3fb14e:	34 30                	xor    al,0x30
  3fb150:	6d                   	ins    DWORD PTR es:[rdi],dx
  3fb151:	38 1b                	cmp    BYTE PTR [rbx],bl
  3fb153:	5b                   	pop    rbx
  3fb154:	30 3b                	xor    BYTE PTR [rbx],bh
  3fb156:	35 3b 33 30 3b       	xor    eax,0x3b30333b
  3fb15b:	34 30                	xor    al,0x30
  3fb15d:	6d                   	ins    DWORD PTR es:[rdi],dx
  3fb15e:	58                   	pop    rax
  3fb15f:	1b 5b 30             	sbb    ebx,DWORD PTR [rbx+0x30]
  3fb162:	3b 33                	cmp    esi,DWORD PTR [rbx]
  3fb164:	31 3b                	xor    DWORD PTR [rbx],edi
  3fb166:	34 30                	xor    al,0x30
  3fb168:	6d                   	ins    DWORD PTR es:[rdi],dx
  3fb169:	38 1b                	cmp    BYTE PTR [rbx],bl
  3fb16b:	5b                   	pop    rbx
  3fb16c:	30 3b                	xor    BYTE PTR [rbx],bh
  3fb16e:	35 3b 33 30 3b       	xor    eax,0x3b30333b
  3fb173:	34 30                	xor    al,0x30
  3fb175:	6d                   	ins    DWORD PTR es:[rdi],dx
  3fb176:	58                   	pop    rax
  3fb177:	1b 5b 30             	sbb    ebx,DWORD PTR [rbx+0x30]
  3fb17a:	3b 33                	cmp    esi,DWORD PTR [rbx]
  3fb17c:	31 3b                	xor    DWORD PTR [rbx],edi
  3fb17e:	34 30                	xor    al,0x30
  3fb180:	6d                   	ins    DWORD PTR es:[rdi],dx
  3fb181:	38 1b                	cmp    BYTE PTR [rbx],bl
  3fb183:	5b                   	pop    rbx
  3fb184:	30 3b                	xor    BYTE PTR [rbx],bh
  3fb186:	35 3b 33 30 3b       	xor    eax,0x3b30333b
  3fb18b:	34 30                	xor    al,0x30
  3fb18d:	6d                   	ins    DWORD PTR es:[rdi],dx
  3fb18e:	58                   	pop    rax
  3fb18f:	1b 5b 30             	sbb    ebx,DWORD PTR [rbx+0x30]
  3fb192:	3b 33                	cmp    esi,DWORD PTR [rbx]
  3fb194:	31 3b                	xor    DWORD PTR [rbx],edi
  3fb196:	34 30                	xor    al,0x30
  3fb198:	6d                   	ins    DWORD PTR es:[rdi],dx
  3fb199:	38 1b                	cmp    BYTE PTR [rbx],bl
  3fb19b:	5b                   	pop    rbx
  3fb19c:	30 6d 0d             	xor    BYTE PTR [rbp+0xd],ch
  3fb19f:	0a 1b                	or     bl,BYTE PTR [rbx]
  3fb1a1:	5b                   	pop    rbx
  3fb1a2:	30 3b                	xor    BYTE PTR [rbx],bh
  3fb1a4:	31 3b                	xor    DWORD PTR [rbx],edi
  3fb1a6:	33 30                	xor    esi,DWORD PTR [rax]
  3fb1a8:	3b 34 30             	cmp    esi,DWORD PTR [rax+rsi*1]
  3fb1ab:	6d                   	ins    DWORD PTR es:[rdi],dx
  3fb1ac:	40 38 1b             	cmp    BYTE PTR [rbx],bl
  3fb1af:	5b                   	pop    rbx
  3fb1b0:	30 3b                	xor    BYTE PTR [rbx],bh
  3fb1b2:	33 31                	xor    esi,DWORD PTR [rcx]
  3fb1b4:	3b 34 30             	cmp    esi,DWORD PTR [rax+rsi*1]
  3fb1b7:	6d                   	ins    DWORD PTR es:[rdi],dx
  3fb1b8:	38 1b                	cmp    BYTE PTR [rbx],bl
  3fb1ba:	5b                   	pop    rbx
  3fb1bb:	30 3b                	xor    BYTE PTR [rbx],bh
  3fb1bd:	35 3b 33 32 3b       	xor    eax,0x3b32333b
  3fb1c2:	34 30                	xor    al,0x30
  3fb1c4:	6d                   	ins    DWORD PTR es:[rdi],dx
  3fb1c5:	40 1b 5b 30          	rex sbb ebx,DWORD PTR [rbx+0x30]
  3fb1c9:	3b 33                	cmp    esi,DWORD PTR [rbx]
  3fb1cb:	31 3b                	xor    DWORD PTR [rbx],edi
  3fb1cd:	34 30                	xor    al,0x30
  3fb1cf:	6d                   	ins    DWORD PTR es:[rdi],dx
  3fb1d0:	40 1b 5b 30          	rex sbb ebx,DWORD PTR [rbx+0x30]
  3fb1d4:	3b 31                	cmp    esi,DWORD PTR [rcx]
  3fb1d6:	3b 33                	cmp    esi,DWORD PTR [rbx]
  3fb1d8:	30 3b                	xor    BYTE PTR [rbx],bh
  3fb1da:	34 30                	xor    al,0x30
  3fb1dc:	6d                   	ins    DWORD PTR es:[rdi],dx
  3fb1dd:	38 1b                	cmp    BYTE PTR [rbx],bl
  3fb1df:	5b                   	pop    rbx
  3fb1e0:	30 3b                	xor    BYTE PTR [rbx],bh
  3fb1e2:	33 31                	xor    esi,DWORD PTR [rcx]
  3fb1e4:	3b 34 30             	cmp    esi,DWORD PTR [rax+rsi*1]
  3fb1e7:	6d                   	ins    DWORD PTR es:[rdi],dx
  3fb1e8:	38 1b                	cmp    BYTE PTR [rbx],bl
  3fb1ea:	5b                   	pop    rbx
  3fb1eb:	30 3b                	xor    BYTE PTR [rbx],bh
  3fb1ed:	35 3b 33 32 3b       	xor    eax,0x3b32333b
  3fb1f2:	34 30                	xor    al,0x30
  3fb1f4:	6d                   	ins    DWORD PTR es:[rdi],dx
  3fb1f5:	38 1b                	cmp    BYTE PTR [rbx],bl
  3fb1f7:	5b                   	pop    rbx
  3fb1f8:	30 3b                	xor    BYTE PTR [rbx],bh
  3fb1fa:	35 3b 33 31 3b       	xor    eax,0x3b31333b
  3fb1ff:	34 30                	xor    al,0x30
  3fb201:	6d                   	ins    DWORD PTR es:[rdi],dx
  3fb202:	40 1b 5b 30          	rex sbb ebx,DWORD PTR [rbx+0x30]
  3fb206:	3b 35 3b 33 33 3b    	cmp    esi,DWORD PTR [rip+0x3b33333b]        # 3b72e547 <_end+0x3b32c50f>
  3fb20c:	34 30                	xor    al,0x30
  3fb20e:	6d                   	ins    DWORD PTR es:[rdi],dx
  3fb20f:	38 1b                	cmp    BYTE PTR [rbx],bl
  3fb211:	5b                   	pop    rbx
  3fb212:	30 3b                	xor    BYTE PTR [rbx],bh
  3fb214:	31 3b                	xor    DWORD PTR [rbx],edi
  3fb216:	33 30                	xor    esi,DWORD PTR [rax]
  3fb218:	3b 34 30             	cmp    esi,DWORD PTR [rax+rsi*1]
  3fb21b:	6d                   	ins    DWORD PTR es:[rdi],dx
  3fb21c:	38 1b                	cmp    BYTE PTR [rbx],bl
  3fb21e:	5b                   	pop    rbx
  3fb21f:	30 3b                	xor    BYTE PTR [rbx],bh
  3fb221:	35 3b 33 33 3b       	xor    eax,0x3b33333b
  3fb226:	34 30                	xor    al,0x30
  3fb228:	6d                   	ins    DWORD PTR es:[rdi],dx
  3fb229:	53                   	push   rbx
  3fb22a:	20 1b                	and    BYTE PTR [rbx],bl
  3fb22c:	5b                   	pop    rbx
  3fb22d:	30 3b                	xor    BYTE PTR [rbx],bh
  3fb22f:	31 3b                	xor    DWORD PTR [rbx],edi
  3fb231:	33 30                	xor    esi,DWORD PTR [rax]
  3fb233:	3b 34 37             	cmp    esi,DWORD PTR [rdi+rsi*1]
  3fb236:	6d                   	ins    DWORD PTR es:[rdi],dx
  3fb237:	20 1b                	and    BYTE PTR [rbx],bl
  3fb239:	5b                   	pop    rbx
  3fb23a:	30 3b                	xor    BYTE PTR [rbx],bh
  3fb23c:	31 3b                	xor    DWORD PTR [rbx],edi
  3fb23e:	33 37                	xor    esi,DWORD PTR [rdi]
  3fb240:	3b 34 37             	cmp    esi,DWORD PTR [rdi+rsi*1]
  3fb243:	6d                   	ins    DWORD PTR es:[rdi],dx
  3fb244:	74 1b                	je     3fb261 <_init-0x51ff>
  3fb246:	5b                   	pop    rbx
  3fb247:	30 3b                	xor    BYTE PTR [rbx],bh
  3fb249:	31 3b                	xor    DWORD PTR [rbx],edi
  3fb24b:	33 30                	xor    esi,DWORD PTR [rax]
  3fb24d:	3b 34 37             	cmp    esi,DWORD PTR [rdi+rsi*1]
  3fb250:	6d                   	ins    DWORD PTR es:[rdi],dx
  3fb251:	2e 1b 5b 30          	sbb    ebx,DWORD PTR cs:[rbx+0x30]
  3fb255:	3b 35 3b 33 33 3b    	cmp    esi,DWORD PTR [rip+0x3b33333b]        # 3b72e596 <_end+0x3b32c55e>
  3fb25b:	34 30                	xor    al,0x30
  3fb25d:	6d                   	ins    DWORD PTR es:[rdi],dx
  3fb25e:	38 1b                	cmp    BYTE PTR [rbx],bl
  3fb260:	5b                   	pop    rbx
  3fb261:	30 3b                	xor    BYTE PTR [rbx],bh
  3fb263:	33 31                	xor    esi,DWORD PTR [rcx]
  3fb265:	3b 34 30             	cmp    esi,DWORD PTR [rax+rsi*1]
  3fb268:	6d                   	ins    DWORD PTR es:[rdi],dx
  3fb269:	25 1b 5b 30 3b       	and    eax,0x3b305b1b
  3fb26e:	35 3b 33 32 3b       	xor    eax,0x3b32333b
  3fb273:	34 30                	xor    al,0x30
  3fb275:	6d                   	ins    DWORD PTR es:[rdi],dx
  3fb276:	58                   	pop    rax
  3fb277:	1b 5b 30             	sbb    ebx,DWORD PTR [rbx+0x30]
  3fb27a:	3b 31                	cmp    esi,DWORD PTR [rcx]
  3fb27c:	3b 33                	cmp    esi,DWORD PTR [rbx]
  3fb27e:	37                   	(bad)  
  3fb27f:	3b 34 37             	cmp    esi,DWORD PTR [rdi+rsi*1]
  3fb282:	6d                   	ins    DWORD PTR es:[rdi],dx
  3fb283:	53                   	push   rbx
  3fb284:	53                   	push   rbx
  3fb285:	1b 5b 30             	sbb    ebx,DWORD PTR [rbx+0x30]
  3fb288:	3b 31                	cmp    esi,DWORD PTR [rcx]
  3fb28a:	3b 33                	cmp    esi,DWORD PTR [rbx]
  3fb28c:	30 3b                	xor    BYTE PTR [rbx],bh
  3fb28e:	34 37                	xor    al,0x37
  3fb290:	6d                   	ins    DWORD PTR es:[rdi],dx
  3fb291:	20 1b                	and    BYTE PTR [rbx],bl
  3fb293:	5b                   	pop    rbx
  3fb294:	30 3b                	xor    BYTE PTR [rbx],bh
  3fb296:	35 3b 33 33 3b       	xor    eax,0x3b33333b
  3fb29b:	34 30                	xor    al,0x30
  3fb29d:	6d                   	ins    DWORD PTR es:[rdi],dx
  3fb29e:	25 1b 5b 30 3b       	and    eax,0x3b305b1b
  3fb2a3:	31 3b                	xor    DWORD PTR [rbx],edi
  3fb2a5:	33 37                	xor    esi,DWORD PTR [rdi]
  3fb2a7:	3b 34 37             	cmp    esi,DWORD PTR [rdi+rsi*1]
  3fb2aa:	6d                   	ins    DWORD PTR es:[rdi],dx
  3fb2ab:	38 1b                	cmp    BYTE PTR [rbx],bl
  3fb2ad:	5b                   	pop    rbx
  3fb2ae:	30 3b                	xor    BYTE PTR [rbx],bh
  3fb2b0:	31 3b                	xor    DWORD PTR [rbx],edi
  3fb2b2:	33 30                	xor    esi,DWORD PTR [rax]
  3fb2b4:	3b 34 37             	cmp    esi,DWORD PTR [rdi+rsi*1]
  3fb2b7:	6d                   	ins    DWORD PTR es:[rdi],dx
  3fb2b8:	20 1b                	and    BYTE PTR [rbx],bl
  3fb2ba:	5b                   	pop    rbx
  3fb2bb:	30 3b                	xor    BYTE PTR [rbx],bh
  3fb2bd:	31 3b                	xor    DWORD PTR [rbx],edi
  3fb2bf:	33 37                	xor    esi,DWORD PTR [rdi]
  3fb2c1:	3b 34 37             	cmp    esi,DWORD PTR [rdi+rsi*1]
  3fb2c4:	6d                   	ins    DWORD PTR es:[rdi],dx
  3fb2c5:	3a 1b                	cmp    bl,BYTE PTR [rbx]
  3fb2c7:	5b                   	pop    rbx
  3fb2c8:	30 3b                	xor    BYTE PTR [rbx],bh
  3fb2ca:	35 3b 33 33 3b       	xor    eax,0x3b33333b
  3fb2cf:	34 30                	xor    al,0x30
  3fb2d1:	6d                   	ins    DWORD PTR es:[rdi],dx
  3fb2d2:	2e 1b 5b 30          	sbb    ebx,DWORD PTR cs:[rbx+0x30]
  3fb2d6:	3b 31                	cmp    esi,DWORD PTR [rcx]
  3fb2d8:	3b 33                	cmp    esi,DWORD PTR [rbx]
  3fb2da:	37                   	(bad)  
  3fb2db:	3b 34 37             	cmp    esi,DWORD PTR [rdi+rsi*1]
  3fb2de:	6d                   	ins    DWORD PTR es:[rdi],dx
  3fb2df:	20 1b                	and    BYTE PTR [rbx],bl
  3fb2e1:	5b                   	pop    rbx
  3fb2e2:	30 3b                	xor    BYTE PTR [rbx],bh
  3fb2e4:	35 3b 33 37 3b       	xor    eax,0x3b37333b
  3fb2e9:	34 37                	xor    al,0x37
  3fb2eb:	6d                   	ins    DWORD PTR es:[rdi],dx
  3fb2ec:	58                   	pop    rax
  3fb2ed:	1b 5b 30             	sbb    ebx,DWORD PTR [rbx+0x30]
  3fb2f0:	3b 31                	cmp    esi,DWORD PTR [rcx]
  3fb2f2:	3b 33                	cmp    esi,DWORD PTR [rbx]
  3fb2f4:	37                   	(bad)  
  3fb2f5:	3b 34 37             	cmp    esi,DWORD PTR [rdi+rsi*1]
  3fb2f8:	6d                   	ins    DWORD PTR es:[rdi],dx
  3fb2f9:	2e 1b 5b 30          	sbb    ebx,DWORD PTR cs:[rbx+0x30]
  3fb2fd:	3b 35 3b 33 37 3b    	cmp    esi,DWORD PTR [rip+0x3b37333b]        # 3b76e63e <_end+0x3b36c606>
  3fb303:	34 30                	xor    al,0x30
  3fb305:	6d                   	ins    DWORD PTR es:[rdi],dx
  3fb306:	40 1b 5b 30          	rex sbb ebx,DWORD PTR [rbx+0x30]
  3fb30a:	3b 35 3b 33 35 3b    	cmp    esi,DWORD PTR [rip+0x3b35333b]        # 3b74e64b <_end+0x3b34c613>
  3fb310:	34 30                	xor    al,0x30
  3fb312:	6d                   	ins    DWORD PTR es:[rdi],dx
  3fb313:	25 1b 5b 30 3b       	and    eax,0x3b305b1b
  3fb318:	31 3b                	xor    DWORD PTR [rbx],edi
  3fb31a:	33 30                	xor    esi,DWORD PTR [rax]
  3fb31c:	3b 34 37             	cmp    esi,DWORD PTR [rdi+rsi*1]
  3fb31f:	6d                   	ins    DWORD PTR es:[rdi],dx
  3fb320:	38 1b                	cmp    BYTE PTR [rbx],bl
  3fb322:	5b                   	pop    rbx
  3fb323:	30 3b                	xor    BYTE PTR [rbx],bh
  3fb325:	31 3b                	xor    DWORD PTR [rbx],edi
  3fb327:	33 37                	xor    esi,DWORD PTR [rdi]
  3fb329:	3b 34 37             	cmp    esi,DWORD PTR [rdi+rsi*1]
  3fb32c:	6d                   	ins    DWORD PTR es:[rdi],dx
  3fb32d:	74 1b                	je     3fb34a <_init-0x5116>
  3fb32f:	5b                   	pop    rbx
  3fb330:	30 3b                	xor    BYTE PTR [rbx],bh
  3fb332:	35 3b 33 33 3b       	xor    eax,0x3b33333b
  3fb337:	34 30                	xor    al,0x30
  3fb339:	6d                   	ins    DWORD PTR es:[rdi],dx
  3fb33a:	3b 1b                	cmp    ebx,DWORD PTR [rbx]
  3fb33c:	5b                   	pop    rbx
  3fb33d:	30 3b                	xor    BYTE PTR [rbx],bh
  3fb33f:	31 3b                	xor    DWORD PTR [rbx],edi
  3fb341:	33 30                	xor    esi,DWORD PTR [rax]
  3fb343:	3b 34 37             	cmp    esi,DWORD PTR [rdi+rsi*1]
  3fb346:	6d                   	ins    DWORD PTR es:[rdi],dx
  3fb347:	53                   	push   rbx
  3fb348:	1b 5b 30             	sbb    ebx,DWORD PTR [rbx+0x30]
  3fb34b:	3b 35 3b 33 33 3b    	cmp    esi,DWORD PTR [rip+0x3b33333b]        # 3b72e68c <_end+0x3b32c654>
  3fb351:	34 30                	xor    al,0x30
  3fb353:	6d                   	ins    DWORD PTR es:[rdi],dx
  3fb354:	38 40 58             	cmp    BYTE PTR [rax+0x58],al
  3fb357:	1b 5b 30             	sbb    ebx,DWORD PTR [rbx+0x30]
  3fb35a:	3b 35 3b 33 30 3b    	cmp    esi,DWORD PTR [rip+0x3b30333b]        # 3b6fe69b <_end+0x3b2fc663>
  3fb360:	34 30                	xor    al,0x30
  3fb362:	6d                   	ins    DWORD PTR es:[rdi],dx
  3fb363:	58                   	pop    rax
  3fb364:	40 1b 5b 30          	rex sbb ebx,DWORD PTR [rbx+0x30]
  3fb368:	3b 33                	cmp    esi,DWORD PTR [rbx]
  3fb36a:	31 3b                	xor    DWORD PTR [rbx],edi
  3fb36c:	34 30                	xor    al,0x30
  3fb36e:	6d                   	ins    DWORD PTR es:[rdi],dx
  3fb36f:	38 1b                	cmp    BYTE PTR [rbx],bl
  3fb371:	5b                   	pop    rbx
  3fb372:	30 3b                	xor    BYTE PTR [rbx],bh
  3fb374:	31 3b                	xor    DWORD PTR [rbx],edi
  3fb376:	33 30                	xor    esi,DWORD PTR [rax]
  3fb378:	3b 34 30             	cmp    esi,DWORD PTR [rax+rsi*1]
  3fb37b:	6d                   	ins    DWORD PTR es:[rdi],dx
  3fb37c:	38 38                	cmp    BYTE PTR [rax],bh
  3fb37e:	1b 5b 30             	sbb    ebx,DWORD PTR [rbx+0x30]
  3fb381:	3b 33                	cmp    esi,DWORD PTR [rbx]
  3fb383:	31 3b                	xor    DWORD PTR [rbx],edi
  3fb385:	34 30                	xor    al,0x30
  3fb387:	6d                   	ins    DWORD PTR es:[rdi],dx
  3fb388:	38 1b                	cmp    BYTE PTR [rbx],bl
  3fb38a:	5b                   	pop    rbx
  3fb38b:	30 3b                	xor    BYTE PTR [rbx],bh
  3fb38d:	31 3b                	xor    DWORD PTR [rbx],edi
  3fb38f:	33 30                	xor    esi,DWORD PTR [rax]
  3fb391:	3b 34 32             	cmp    esi,DWORD PTR [rdx+rsi*1]
  3fb394:	6d                   	ins    DWORD PTR es:[rdi],dx
  3fb395:	38 1b                	cmp    BYTE PTR [rbx],bl
  3fb397:	5b                   	pop    rbx
  3fb398:	30 3b                	xor    BYTE PTR [rbx],bh
  3fb39a:	33 31                	xor    esi,DWORD PTR [rcx]
  3fb39c:	3b 34 30             	cmp    esi,DWORD PTR [rax+rsi*1]
  3fb39f:	6d                   	ins    DWORD PTR es:[rdi],dx
  3fb3a0:	38 1b                	cmp    BYTE PTR [rbx],bl
  3fb3a2:	5b                   	pop    rbx
  3fb3a3:	30 3b                	xor    BYTE PTR [rbx],bh
  3fb3a5:	31 3b                	xor    DWORD PTR [rbx],edi
  3fb3a7:	33 30                	xor    esi,DWORD PTR [rax]
  3fb3a9:	3b 34 30             	cmp    esi,DWORD PTR [rax+rsi*1]
  3fb3ac:	6d                   	ins    DWORD PTR es:[rdi],dx
  3fb3ad:	38 1b                	cmp    BYTE PTR [rbx],bl
  3fb3af:	5b                   	pop    rbx
  3fb3b0:	30 3b                	xor    BYTE PTR [rbx],bh
  3fb3b2:	33 31                	xor    esi,DWORD PTR [rcx]
  3fb3b4:	3b 34 30             	cmp    esi,DWORD PTR [rax+rsi*1]
  3fb3b7:	6d                   	ins    DWORD PTR es:[rdi],dx
  3fb3b8:	38 1b                	cmp    BYTE PTR [rbx],bl
  3fb3ba:	5b                   	pop    rbx
  3fb3bb:	30 3b                	xor    BYTE PTR [rbx],bh
  3fb3bd:	35 3b 33 32 3b       	xor    eax,0x3b32333b
  3fb3c2:	34 30                	xor    al,0x30
  3fb3c4:	6d                   	ins    DWORD PTR es:[rdi],dx
  3fb3c5:	38 1b                	cmp    BYTE PTR [rbx],bl
  3fb3c7:	5b                   	pop    rbx
  3fb3c8:	30 6d 0d             	xor    BYTE PTR [rbp+0xd],ch
  3fb3cb:	0a 1b                	or     bl,BYTE PTR [rbx]
  3fb3cd:	5b                   	pop    rbx
  3fb3ce:	30 3b                	xor    BYTE PTR [rbx],bh
  3fb3d0:	31 3b                	xor    DWORD PTR [rbx],edi
  3fb3d2:	33 30                	xor    esi,DWORD PTR [rax]
  3fb3d4:	3b 34 30             	cmp    esi,DWORD PTR [rax+rsi*1]
  3fb3d7:	6d                   	ins    DWORD PTR es:[rdi],dx
  3fb3d8:	40 38 1b             	cmp    BYTE PTR [rbx],bl
  3fb3db:	5b                   	pop    rbx
  3fb3dc:	30 3b                	xor    BYTE PTR [rbx],bh
  3fb3de:	33 31                	xor    esi,DWORD PTR [rcx]
  3fb3e0:	3b 34 30             	cmp    esi,DWORD PTR [rax+rsi*1]
  3fb3e3:	6d                   	ins    DWORD PTR es:[rdi],dx
  3fb3e4:	38 1b                	cmp    BYTE PTR [rbx],bl
  3fb3e6:	5b                   	pop    rbx
  3fb3e7:	30 3b                	xor    BYTE PTR [rbx],bh
  3fb3e9:	31 3b                	xor    DWORD PTR [rbx],edi
  3fb3eb:	33 30                	xor    esi,DWORD PTR [rax]
  3fb3ed:	3b 34 30             	cmp    esi,DWORD PTR [rax+rsi*1]
  3fb3f0:	6d                   	ins    DWORD PTR es:[rdi],dx
  3fb3f1:	38 38                	cmp    BYTE PTR [rax],bh
  3fb3f3:	38 1b                	cmp    BYTE PTR [rbx],bl
  3fb3f5:	5b                   	pop    rbx
  3fb3f6:	30 3b                	xor    BYTE PTR [rbx],bh
  3fb3f8:	35 3b 33 31 3b       	xor    eax,0x3b31333b
  3fb3fd:	34 30                	xor    al,0x30
  3fb3ff:	6d                   	ins    DWORD PTR es:[rdi],dx
  3fb400:	58                   	pop    rax
  3fb401:	1b 5b 30             	sbb    ebx,DWORD PTR [rbx+0x30]
  3fb404:	3b 35 3b 33 33 3b    	cmp    esi,DWORD PTR [rip+0x3b33333b]        # 3b72e745 <_end+0x3b32c70d>
  3fb40a:	34 30                	xor    al,0x30
  3fb40c:	6d                   	ins    DWORD PTR es:[rdi],dx
  3fb40d:	40 1b 5b 30          	rex sbb ebx,DWORD PTR [rbx+0x30]
  3fb411:	3b 35 3b 33 35 3b    	cmp    esi,DWORD PTR [rip+0x3b35333b]        # 3b74e752 <_end+0x3b34c71a>
  3fb417:	34 30                	xor    al,0x30
  3fb419:	6d                   	ins    DWORD PTR es:[rdi],dx
  3fb41a:	2e 1b 5b 30          	sbb    ebx,DWORD PTR cs:[rbx+0x30]
  3fb41e:	3b 35 3b 33 37 3b    	cmp    esi,DWORD PTR [rip+0x3b37333b]        # 3b76e75f <_end+0x3b36c727>
  3fb424:	34 30                	xor    al,0x30
  3fb426:	6d                   	ins    DWORD PTR es:[rdi],dx
  3fb427:	40 1b 5b 30          	rex sbb ebx,DWORD PTR [rbx+0x30]
  3fb42b:	3b 35 3b 33 33 3b    	cmp    esi,DWORD PTR [rip+0x3b33333b]        # 3b72e76c <_end+0x3b32c734>
  3fb431:	34 30                	xor    al,0x30
  3fb433:	6d                   	ins    DWORD PTR es:[rdi],dx
  3fb434:	20 1b                	and    BYTE PTR [rbx],bl
  3fb436:	5b                   	pop    rbx
  3fb437:	30 3b                	xor    BYTE PTR [rbx],bh
  3fb439:	35 3b 33 37 3b       	xor    eax,0x3b37333b
  3fb43e:	34 37                	xor    al,0x37
  3fb440:	6d                   	ins    DWORD PTR es:[rdi],dx
  3fb441:	3b 1b                	cmp    ebx,DWORD PTR [rbx]
  3fb443:	5b                   	pop    rbx
  3fb444:	30 3b                	xor    BYTE PTR [rbx],bh
  3fb446:	31 3b                	xor    DWORD PTR [rbx],edi
  3fb448:	33 30                	xor    esi,DWORD PTR [rax]
  3fb44a:	3b 34 37             	cmp    esi,DWORD PTR [rdi+rsi*1]
  3fb44d:	6d                   	ins    DWORD PTR es:[rdi],dx
  3fb44e:	20 1b                	and    BYTE PTR [rbx],bl
  3fb450:	5b                   	pop    rbx
  3fb451:	30 3b                	xor    BYTE PTR [rbx],bh
  3fb453:	35 3b 33 37 3b       	xor    eax,0x3b37333b
  3fb458:	34 37                	xor    al,0x37
  3fb45a:	6d                   	ins    DWORD PTR es:[rdi],dx
  3fb45b:	25 1b 5b 30 3b       	and    eax,0x3b305b1b
  3fb460:	35 3b 33 33 3b       	xor    eax,0x3b33333b
  3fb465:	34 30                	xor    al,0x30
  3fb467:	6d                   	ins    DWORD PTR es:[rdi],dx
  3fb468:	38 1b                	cmp    BYTE PTR [rbx],bl
  3fb46a:	5b                   	pop    rbx
  3fb46b:	30 3b                	xor    BYTE PTR [rbx],bh
  3fb46d:	31 3b                	xor    DWORD PTR [rbx],edi
  3fb46f:	33 37                	xor    esi,DWORD PTR [rdi]
  3fb471:	3b 34 37             	cmp    esi,DWORD PTR [rdi+rsi*1]
  3fb474:	6d                   	ins    DWORD PTR es:[rdi],dx
  3fb475:	74 1b                	je     3fb492 <_init-0x4fce>
  3fb477:	5b                   	pop    rbx
  3fb478:	30 3b                	xor    BYTE PTR [rbx],bh
  3fb47a:	35 3b 33 30 3b       	xor    eax,0x3b30333b
  3fb47f:	34 30                	xor    al,0x30
  3fb481:	6d                   	ins    DWORD PTR es:[rdi],dx
  3fb482:	40 1b 5b 30          	rex sbb ebx,DWORD PTR [rbx+0x30]
  3fb486:	3b 31                	cmp    esi,DWORD PTR [rcx]
  3fb488:	3b 33                	cmp    esi,DWORD PTR [rbx]
  3fb48a:	30 3b                	xor    BYTE PTR [rbx],bh
  3fb48c:	34 30                	xor    al,0x30
  3fb48e:	6d                   	ins    DWORD PTR es:[rdi],dx
  3fb48f:	38 1b                	cmp    BYTE PTR [rbx],bl
  3fb491:	5b                   	pop    rbx
  3fb492:	30 3b                	xor    BYTE PTR [rbx],bh
  3fb494:	35 3b 33 33 3b       	xor    eax,0x3b33333b
  3fb499:	34 30                	xor    al,0x30
  3fb49b:	6d                   	ins    DWORD PTR es:[rdi],dx
  3fb49c:	2e 1b 5b 30          	sbb    ebx,DWORD PTR cs:[rbx+0x30]
  3fb4a0:	3b 31                	cmp    esi,DWORD PTR [rcx]
  3fb4a2:	3b 33                	cmp    esi,DWORD PTR [rbx]
  3fb4a4:	37                   	(bad)  
  3fb4a5:	3b 34 37             	cmp    esi,DWORD PTR [rdi+rsi*1]
  3fb4a8:	6d                   	ins    DWORD PTR es:[rdi],dx
  3fb4a9:	3a 1b                	cmp    bl,BYTE PTR [rbx]
  3fb4ab:	5b                   	pop    rbx
  3fb4ac:	30 3b                	xor    BYTE PTR [rbx],bh
  3fb4ae:	31 3b                	xor    DWORD PTR [rbx],edi
  3fb4b0:	33 30                	xor    esi,DWORD PTR [rax]
  3fb4b2:	3b 34 37             	cmp    esi,DWORD PTR [rdi+rsi*1]
  3fb4b5:	6d                   	ins    DWORD PTR es:[rdi],dx
  3fb4b6:	53                   	push   rbx
  3fb4b7:	1b 5b 30             	sbb    ebx,DWORD PTR [rbx+0x30]
  3fb4ba:	3b 35 3b 33 37 3b    	cmp    esi,DWORD PTR [rip+0x3b37333b]        # 3b76e7fb <_end+0x3b36c7c3>
  3fb4c0:	34 37                	xor    al,0x37
  3fb4c2:	6d                   	ins    DWORD PTR es:[rdi],dx
  3fb4c3:	58                   	pop    rax
  3fb4c4:	1b 5b 30             	sbb    ebx,DWORD PTR [rbx+0x30]
  3fb4c7:	3b 31                	cmp    esi,DWORD PTR [rcx]
  3fb4c9:	3b 33                	cmp    esi,DWORD PTR [rbx]
  3fb4cb:	30 3b                	xor    BYTE PTR [rbx],bh
  3fb4cd:	34 37                	xor    al,0x37
  3fb4cf:	6d                   	ins    DWORD PTR es:[rdi],dx
  3fb4d0:	38 2e                	cmp    BYTE PTR [rsi],ch
  3fb4d2:	74 1b                	je     3fb4ef <_init-0x4f71>
  3fb4d4:	5b                   	pop    rbx
  3fb4d5:	30 3b                	xor    BYTE PTR [rbx],bh
  3fb4d7:	31 3b                	xor    DWORD PTR [rbx],edi
  3fb4d9:	33 37                	xor    esi,DWORD PTR [rdi]
  3fb4db:	3b 34 37             	cmp    esi,DWORD PTR [rdi+rsi*1]
  3fb4de:	6d                   	ins    DWORD PTR es:[rdi],dx
  3fb4df:	2e 1b 5b 30          	sbb    ebx,DWORD PTR cs:[rbx+0x30]
  3fb4e3:	3b 31                	cmp    esi,DWORD PTR [rcx]
  3fb4e5:	3b 33                	cmp    esi,DWORD PTR [rbx]
  3fb4e7:	30 3b                	xor    BYTE PTR [rbx],bh
  3fb4e9:	34 37                	xor    al,0x37
  3fb4eb:	6d                   	ins    DWORD PTR es:[rdi],dx
  3fb4ec:	74 1b                	je     3fb509 <_init-0x4f57>
  3fb4ee:	5b                   	pop    rbx
  3fb4ef:	30 3b                	xor    BYTE PTR [rbx],bh
  3fb4f1:	35 3b 33 37 3b       	xor    eax,0x3b37333b
  3fb4f6:	34 30                	xor    al,0x30
  3fb4f8:	6d                   	ins    DWORD PTR es:[rdi],dx
  3fb4f9:	58                   	pop    rax
  3fb4fa:	1b 5b 30             	sbb    ebx,DWORD PTR [rbx+0x30]
  3fb4fd:	3b 31                	cmp    esi,DWORD PTR [rcx]
  3fb4ff:	3b 33                	cmp    esi,DWORD PTR [rbx]
  3fb501:	37                   	(bad)  
  3fb502:	3b 34 37             	cmp    esi,DWORD PTR [rdi+rsi*1]
  3fb505:	6d                   	ins    DWORD PTR es:[rdi],dx
  3fb506:	58                   	pop    rax
  3fb507:	1b 5b 30             	sbb    ebx,DWORD PTR [rbx+0x30]
  3fb50a:	3b 31                	cmp    esi,DWORD PTR [rcx]
  3fb50c:	3b 33                	cmp    esi,DWORD PTR [rbx]
  3fb50e:	30 3b                	xor    BYTE PTR [rbx],bh
  3fb510:	34 37                	xor    al,0x37
  3fb512:	6d                   	ins    DWORD PTR es:[rdi],dx
  3fb513:	38 1b                	cmp    BYTE PTR [rbx],bl
  3fb515:	5b                   	pop    rbx
  3fb516:	30 3b                	xor    BYTE PTR [rbx],bh
  3fb518:	35 3b 33 37 3b       	xor    eax,0x3b37333b
  3fb51d:	34 30                	xor    al,0x30
  3fb51f:	6d                   	ins    DWORD PTR es:[rdi],dx
  3fb520:	58                   	pop    rax
  3fb521:	1b 5b 30             	sbb    ebx,DWORD PTR [rbx+0x30]
  3fb524:	3b 35 3b 33 33 3b    	cmp    esi,DWORD PTR [rip+0x3b33333b]        # 3b72e865 <_end+0x3b32c82d>
  3fb52a:	34 30                	xor    al,0x30
  3fb52c:	6d                   	ins    DWORD PTR es:[rdi],dx
  3fb52d:	3b 1b                	cmp    ebx,DWORD PTR [rbx]
  3fb52f:	5b                   	pop    rbx
  3fb530:	30 3b                	xor    BYTE PTR [rbx],bh
  3fb532:	31 3b                	xor    DWORD PTR [rbx],edi
  3fb534:	33 37                	xor    esi,DWORD PTR [rdi]
  3fb536:	3b 34 37             	cmp    esi,DWORD PTR [rdi+rsi*1]
  3fb539:	6d                   	ins    DWORD PTR es:[rdi],dx
  3fb53a:	40 1b 5b 30          	rex sbb ebx,DWORD PTR [rbx+0x30]
  3fb53e:	3b 35 3b 33 37 3b    	cmp    esi,DWORD PTR [rip+0x3b37333b]        # 3b76e87f <_end+0x3b36c847>
  3fb544:	34 37                	xor    al,0x37
  3fb546:	6d                   	ins    DWORD PTR es:[rdi],dx
  3fb547:	58                   	pop    rax
  3fb548:	25 1b 5b 30 3b       	and    eax,0x3b305b1b
  3fb54d:	35 3b 33 31 3b       	xor    eax,0x3b31333b
  3fb552:	34 30                	xor    al,0x30
  3fb554:	6d                   	ins    DWORD PTR es:[rdi],dx
  3fb555:	58                   	pop    rax
  3fb556:	1b 5b 30             	sbb    ebx,DWORD PTR [rbx+0x30]
  3fb559:	3b 35 3b 33 36 3b    	cmp    esi,DWORD PTR [rip+0x3b36333b]        # 3b75e89a <_end+0x3b35c862>
  3fb55f:	34 30                	xor    al,0x30
  3fb561:	6d                   	ins    DWORD PTR es:[rdi],dx
  3fb562:	25 1b 5b 30 3b       	and    eax,0x3b305b1b
  3fb567:	31 3b                	xor    DWORD PTR [rbx],edi
  3fb569:	33 30                	xor    esi,DWORD PTR [rax]
  3fb56b:	3b 34 37             	cmp    esi,DWORD PTR [rdi+rsi*1]
  3fb56e:	6d                   	ins    DWORD PTR es:[rdi],dx
  3fb56f:	58                   	pop    rax
  3fb570:	1b 5b 30             	sbb    ebx,DWORD PTR [rbx+0x30]
  3fb573:	3b 35 3b 33 37 3b    	cmp    esi,DWORD PTR [rip+0x3b37333b]        # 3b76e8b4 <_end+0x3b36c87c>
  3fb579:	34 37                	xor    al,0x37
  3fb57b:	6d                   	ins    DWORD PTR es:[rdi],dx
  3fb57c:	38 1b                	cmp    BYTE PTR [rbx],bl
  3fb57e:	5b                   	pop    rbx
  3fb57f:	30 3b                	xor    BYTE PTR [rbx],bh
  3fb581:	31 3b                	xor    DWORD PTR [rbx],edi
  3fb583:	33 30                	xor    esi,DWORD PTR [rax]
  3fb585:	3b 34 37             	cmp    esi,DWORD PTR [rdi+rsi*1]
  3fb588:	6d                   	ins    DWORD PTR es:[rdi],dx
  3fb589:	20 1b                	and    BYTE PTR [rbx],bl
  3fb58b:	5b                   	pop    rbx
  3fb58c:	30 3b                	xor    BYTE PTR [rbx],bh
  3fb58e:	35 3b 33 33 3b       	xor    eax,0x3b33333b
  3fb593:	34 30                	xor    al,0x30
  3fb595:	6d                   	ins    DWORD PTR es:[rdi],dx
  3fb596:	74 3b                	je     3fb5d3 <_init-0x4e8d>
  3fb598:	3a 38                	cmp    bh,BYTE PTR [rax]
  3fb59a:	1b 5b 30             	sbb    ebx,DWORD PTR [rbx+0x30]
  3fb59d:	3b 33                	cmp    esi,DWORD PTR [rbx]
  3fb59f:	31 3b                	xor    DWORD PTR [rbx],edi
  3fb5a1:	34 30                	xor    al,0x30
  3fb5a3:	6d                   	ins    DWORD PTR es:[rdi],dx
  3fb5a4:	58                   	pop    rax
  3fb5a5:	1b 5b 30             	sbb    ebx,DWORD PTR [rbx+0x30]
  3fb5a8:	3b 31                	cmp    esi,DWORD PTR [rcx]
  3fb5aa:	3b 33                	cmp    esi,DWORD PTR [rbx]
  3fb5ac:	30 3b                	xor    BYTE PTR [rbx],bh
  3fb5ae:	34 30                	xor    al,0x30
  3fb5b0:	6d                   	ins    DWORD PTR es:[rdi],dx
  3fb5b1:	38 38                	cmp    BYTE PTR [rax],bh
  3fb5b3:	38 1b                	cmp    BYTE PTR [rbx],bl
  3fb5b5:	5b                   	pop    rbx
  3fb5b6:	30 3b                	xor    BYTE PTR [rbx],bh
  3fb5b8:	33 31                	xor    esi,DWORD PTR [rcx]
  3fb5ba:	3b 34 30             	cmp    esi,DWORD PTR [rax+rsi*1]
  3fb5bd:	6d                   	ins    DWORD PTR es:[rdi],dx
  3fb5be:	38 1b                	cmp    BYTE PTR [rbx],bl
  3fb5c0:	5b                   	pop    rbx
  3fb5c1:	30 3b                	xor    BYTE PTR [rbx],bh
  3fb5c3:	31 3b                	xor    DWORD PTR [rbx],edi
  3fb5c5:	33 30                	xor    esi,DWORD PTR [rax]
  3fb5c7:	3b 34 30             	cmp    esi,DWORD PTR [rax+rsi*1]
  3fb5ca:	6d                   	ins    DWORD PTR es:[rdi],dx
  3fb5cb:	38 1b                	cmp    BYTE PTR [rbx],bl
  3fb5cd:	5b                   	pop    rbx
  3fb5ce:	30 6d 0d             	xor    BYTE PTR [rbp+0xd],ch
  3fb5d1:	0a 1b                	or     bl,BYTE PTR [rbx]
  3fb5d3:	5b                   	pop    rbx
  3fb5d4:	30 3b                	xor    BYTE PTR [rbx],bh
  3fb5d6:	31 3b                	xor    DWORD PTR [rbx],edi
  3fb5d8:	33 30                	xor    esi,DWORD PTR [rax]
  3fb5da:	3b 34 30             	cmp    esi,DWORD PTR [rax+rsi*1]
  3fb5dd:	6d                   	ins    DWORD PTR es:[rdi],dx
  3fb5de:	40 1b 5b 30          	rex sbb ebx,DWORD PTR [rbx+0x30]
  3fb5e2:	3b 35 3b 33 30 3b    	cmp    esi,DWORD PTR [rip+0x3b30333b]        # 3b6fe923 <_end+0x3b2fc8eb>
  3fb5e8:	34 30                	xor    al,0x30
  3fb5ea:	6d                   	ins    DWORD PTR es:[rdi],dx
  3fb5eb:	38 1b                	cmp    BYTE PTR [rbx],bl
  3fb5ed:	5b                   	pop    rbx
  3fb5ee:	30 3b                	xor    BYTE PTR [rbx],bh
  3fb5f0:	31 3b                	xor    DWORD PTR [rbx],edi
  3fb5f2:	33 30                	xor    esi,DWORD PTR [rax]
  3fb5f4:	3b 34 30             	cmp    esi,DWORD PTR [rax+rsi*1]
  3fb5f7:	6d                   	ins    DWORD PTR es:[rdi],dx
  3fb5f8:	38 1b                	cmp    BYTE PTR [rbx],bl
  3fb5fa:	5b                   	pop    rbx
  3fb5fb:	30 3b                	xor    BYTE PTR [rbx],bh
  3fb5fd:	33 30                	xor    esi,DWORD PTR [rax]
  3fb5ff:	3b 34 31             	cmp    esi,DWORD PTR [rcx+rsi*1]
  3fb602:	6d                   	ins    DWORD PTR es:[rdi],dx
  3fb603:	38 1b                	cmp    BYTE PTR [rbx],bl
  3fb605:	5b                   	pop    rbx
  3fb606:	30 3b                	xor    BYTE PTR [rbx],bh
  3fb608:	35 3b 33 30 3b       	xor    eax,0x3b30333b
  3fb60d:	34 30                	xor    al,0x30
  3fb60f:	6d                   	ins    DWORD PTR es:[rdi],dx
  3fb610:	58                   	pop    rax
  3fb611:	1b 5b 30             	sbb    ebx,DWORD PTR [rbx+0x30]
  3fb614:	3b 33                	cmp    esi,DWORD PTR [rbx]
  3fb616:	31 3b                	xor    DWORD PTR [rbx],edi
  3fb618:	34 30                	xor    al,0x30
  3fb61a:	6d                   	ins    DWORD PTR es:[rdi],dx
  3fb61b:	40 1b 5b 30          	rex sbb ebx,DWORD PTR [rbx+0x30]
  3fb61f:	3b 35 3b 33 32 3b    	cmp    esi,DWORD PTR [rip+0x3b32333b]        # 3b71e960 <_end+0x3b31c928>
  3fb625:	34 30                	xor    al,0x30
  3fb627:	6d                   	ins    DWORD PTR es:[rdi],dx
  3fb628:	58                   	pop    rax
  3fb629:	1b 5b 30             	sbb    ebx,DWORD PTR [rbx+0x30]
  3fb62c:	3b 35 3b 33 37 3b    	cmp    esi,DWORD PTR [rip+0x3b37333b]        # 3b76e96d <_end+0x3b36c935>
  3fb632:	34 30                	xor    al,0x30
  3fb634:	6d                   	ins    DWORD PTR es:[rdi],dx
  3fb635:	38 1b                	cmp    BYTE PTR [rbx],bl
  3fb637:	5b                   	pop    rbx
  3fb638:	30 3b                	xor    BYTE PTR [rbx],bh
  3fb63a:	35 3b 33 37 3b       	xor    eax,0x3b37333b
  3fb63f:	34 37                	xor    al,0x37
  3fb641:	6d                   	ins    DWORD PTR es:[rdi],dx
  3fb642:	25 1b 5b 30 3b       	and    eax,0x3b305b1b
  3fb647:	35 3b 33 33 3b       	xor    eax,0x3b33333b
  3fb64c:	34 30                	xor    al,0x30
  3fb64e:	6d                   	ins    DWORD PTR es:[rdi],dx
  3fb64f:	20 53 1b             	and    BYTE PTR [rbx+0x1b],dl
  3fb652:	5b                   	pop    rbx
  3fb653:	30 3b                	xor    BYTE PTR [rbx],bh
  3fb655:	31 3b                	xor    DWORD PTR [rbx],edi
  3fb657:	33 37                	xor    esi,DWORD PTR [rdi]
  3fb659:	3b 34 37             	cmp    esi,DWORD PTR [rdi+rsi*1]
  3fb65c:	6d                   	ins    DWORD PTR es:[rdi],dx
  3fb65d:	25 20 1b 5b 30       	and    eax,0x305b1b20
  3fb662:	3b 35 3b 33 33 3b    	cmp    esi,DWORD PTR [rip+0x3b33333b]        # 3b72e9a3 <_end+0x3b32c96b>
  3fb668:	34 30                	xor    al,0x30
  3fb66a:	6d                   	ins    DWORD PTR es:[rdi],dx
  3fb66b:	20 1b                	and    BYTE PTR [rbx],bl
  3fb66d:	5b                   	pop    rbx
  3fb66e:	30 3b                	xor    BYTE PTR [rbx],bh
  3fb670:	31 3b                	xor    DWORD PTR [rbx],edi
  3fb672:	33 30                	xor    esi,DWORD PTR [rax]
  3fb674:	3b 34 37             	cmp    esi,DWORD PTR [rdi+rsi*1]
  3fb677:	6d                   	ins    DWORD PTR es:[rdi],dx
  3fb678:	53                   	push   rbx
  3fb679:	1b 5b 30             	sbb    ebx,DWORD PTR [rbx+0x30]
  3fb67c:	3b 35 3b 33 33 3b    	cmp    esi,DWORD PTR [rip+0x3b33333b]        # 3b72e9bd <_end+0x3b32c985>
  3fb682:	34 30                	xor    al,0x30
  3fb684:	6d                   	ins    DWORD PTR es:[rdi],dx
  3fb685:	53                   	push   rbx
  3fb686:	1b 5b 30             	sbb    ebx,DWORD PTR [rbx+0x30]
  3fb689:	3b 35 3b 33 31 3b    	cmp    esi,DWORD PTR [rip+0x3b31333b]        # 3b70e9ca <_end+0x3b30c992>
  3fb68f:	34 30                	xor    al,0x30
  3fb691:	6d                   	ins    DWORD PTR es:[rdi],dx
  3fb692:	38 1b                	cmp    BYTE PTR [rbx],bl
  3fb694:	5b                   	pop    rbx
  3fb695:	30 3b                	xor    BYTE PTR [rbx],bh
  3fb697:	33 31                	xor    esi,DWORD PTR [rcx]
  3fb699:	3b 34 30             	cmp    esi,DWORD PTR [rax+rsi*1]
  3fb69c:	6d                   	ins    DWORD PTR es:[rdi],dx
  3fb69d:	53                   	push   rbx
  3fb69e:	1b 5b 30             	sbb    ebx,DWORD PTR [rbx+0x30]
  3fb6a1:	3b 35 3b 33 33 3b    	cmp    esi,DWORD PTR [rip+0x3b33333b]        # 3b72e9e2 <_end+0x3b32c9aa>
  3fb6a7:	34 30                	xor    al,0x30
  3fb6a9:	6d                   	ins    DWORD PTR es:[rdi],dx
  3fb6aa:	58                   	pop    rax
  3fb6ab:	1b 5b 30             	sbb    ebx,DWORD PTR [rbx+0x30]
  3fb6ae:	3b 35 3b 33 31 3b    	cmp    esi,DWORD PTR [rip+0x3b31333b]        # 3b70e9ef <_end+0x3b30c9b7>
  3fb6b4:	34 30                	xor    al,0x30
  3fb6b6:	6d                   	ins    DWORD PTR es:[rdi],dx
  3fb6b7:	38 1b                	cmp    BYTE PTR [rbx],bl
  3fb6b9:	5b                   	pop    rbx
  3fb6ba:	30 3b                	xor    BYTE PTR [rbx],bh
  3fb6bc:	35 3b 33 33 3b       	xor    eax,0x3b33333b
  3fb6c1:	34 30                	xor    al,0x30
  3fb6c3:	6d                   	ins    DWORD PTR es:[rdi],dx
  3fb6c4:	58                   	pop    rax
  3fb6c5:	1b 5b 30             	sbb    ebx,DWORD PTR [rbx+0x30]
  3fb6c8:	3b 35 3b 33 31 3b    	cmp    esi,DWORD PTR [rip+0x3b31333b]        # 3b70ea09 <_end+0x3b30c9d1>
  3fb6ce:	34 30                	xor    al,0x30
  3fb6d0:	6d                   	ins    DWORD PTR es:[rdi],dx
  3fb6d1:	38 1b                	cmp    BYTE PTR [rbx],bl
  3fb6d3:	5b                   	pop    rbx
  3fb6d4:	30 3b                	xor    BYTE PTR [rbx],bh
  3fb6d6:	31 3b                	xor    DWORD PTR [rbx],edi
  3fb6d8:	33 30                	xor    esi,DWORD PTR [rax]
  3fb6da:	3b 34 30             	cmp    esi,DWORD PTR [rax+rsi*1]
  3fb6dd:	6d                   	ins    DWORD PTR es:[rdi],dx
  3fb6de:	38 1b                	cmp    BYTE PTR [rbx],bl
  3fb6e0:	5b                   	pop    rbx
  3fb6e1:	30 3b                	xor    BYTE PTR [rbx],bh
  3fb6e3:	35 3b 33 31 3b       	xor    eax,0x3b31333b
  3fb6e8:	34 30                	xor    al,0x30
  3fb6ea:	6d                   	ins    DWORD PTR es:[rdi],dx
  3fb6eb:	38 38                	cmp    BYTE PTR [rax],bh
  3fb6ed:	1b 5b 30             	sbb    ebx,DWORD PTR [rbx+0x30]
  3fb6f0:	3b 31                	cmp    esi,DWORD PTR [rcx]
  3fb6f2:	3b 33                	cmp    esi,DWORD PTR [rbx]
  3fb6f4:	30 3b                	xor    BYTE PTR [rbx],bh
  3fb6f6:	34 30                	xor    al,0x30
  3fb6f8:	6d                   	ins    DWORD PTR es:[rdi],dx
  3fb6f9:	38 1b                	cmp    BYTE PTR [rbx],bl
  3fb6fb:	5b                   	pop    rbx
  3fb6fc:	30 3b                	xor    BYTE PTR [rbx],bh
  3fb6fe:	35 3b 33 33 3b       	xor    eax,0x3b33333b
  3fb703:	34 30                	xor    al,0x30
  3fb705:	6d                   	ins    DWORD PTR es:[rdi],dx
  3fb706:	38 1b                	cmp    BYTE PTR [rbx],bl
  3fb708:	5b                   	pop    rbx
  3fb709:	30 3b                	xor    BYTE PTR [rbx],bh
  3fb70b:	35 3b 33 35 3b       	xor    eax,0x3b35333b
  3fb710:	34 30                	xor    al,0x30
  3fb712:	6d                   	ins    DWORD PTR es:[rdi],dx
  3fb713:	20 1b                	and    BYTE PTR [rbx],bl
  3fb715:	5b                   	pop    rbx
  3fb716:	30 3b                	xor    BYTE PTR [rbx],bh
  3fb718:	35 3b 33 33 3b       	xor    eax,0x3b33333b
  3fb71d:	34 30                	xor    al,0x30
  3fb71f:	6d                   	ins    DWORD PTR es:[rdi],dx
  3fb720:	20 53 1b             	and    BYTE PTR [rbx+0x1b],dl
  3fb723:	5b                   	pop    rbx
  3fb724:	30 3b                	xor    BYTE PTR [rbx],bh
  3fb726:	35 3b 33 31 3b       	xor    eax,0x3b31333b
  3fb72b:	34 30                	xor    al,0x30
  3fb72d:	6d                   	ins    DWORD PTR es:[rdi],dx
  3fb72e:	38 40 1b             	cmp    BYTE PTR [rax+0x1b],al
  3fb731:	5b                   	pop    rbx
  3fb732:	30 3b                	xor    BYTE PTR [rbx],bh
  3fb734:	35 3b 33 33 3b       	xor    eax,0x3b33333b
  3fb739:	34 30                	xor    al,0x30
  3fb73b:	6d                   	ins    DWORD PTR es:[rdi],dx
  3fb73c:	20 3a                	and    BYTE PTR [rdx],bh
  3fb73e:	1b 5b 30             	sbb    ebx,DWORD PTR [rbx+0x30]
  3fb741:	3b 31                	cmp    esi,DWORD PTR [rcx]
  3fb743:	3b 33                	cmp    esi,DWORD PTR [rbx]
  3fb745:	30 3b                	xor    BYTE PTR [rbx],bh
  3fb747:	34 37                	xor    al,0x37
  3fb749:	6d                   	ins    DWORD PTR es:[rdi],dx
  3fb74a:	53                   	push   rbx
  3fb74b:	40 38 25 1b 5b 30 3b 	cmp    BYTE PTR [rip+0x3b305b1b],spl        # 3b70126d <_end+0x3b2ff235>
  3fb752:	31 3b                	xor    DWORD PTR [rbx],edi
  3fb754:	33 37                	xor    esi,DWORD PTR [rdi]
  3fb756:	3b 34 37             	cmp    esi,DWORD PTR [rdi+rsi*1]
  3fb759:	6d                   	ins    DWORD PTR es:[rdi],dx
  3fb75a:	25 1b 5b 30 3b       	and    eax,0x3b305b1b
  3fb75f:	35 3b 33 37 3b       	xor    eax,0x3b37333b
  3fb764:	34 37                	xor    al,0x37
  3fb766:	6d                   	ins    DWORD PTR es:[rdi],dx
  3fb767:	38 1b                	cmp    BYTE PTR [rbx],bl
  3fb769:	5b                   	pop    rbx
  3fb76a:	30 3b                	xor    BYTE PTR [rbx],bh
  3fb76c:	35 3b 33 33 3b       	xor    eax,0x3b33333b
  3fb771:	34 30                	xor    al,0x30
  3fb773:	6d                   	ins    DWORD PTR es:[rdi],dx
  3fb774:	25 1b 5b 30 3b       	and    eax,0x3b305b1b
  3fb779:	31 3b                	xor    DWORD PTR [rbx],edi
  3fb77b:	33 37                	xor    esi,DWORD PTR [rdi]
  3fb77d:	3b 34 37             	cmp    esi,DWORD PTR [rdi+rsi*1]
  3fb780:	6d                   	ins    DWORD PTR es:[rdi],dx
  3fb781:	3b 25 1b 5b 30 3b    	cmp    esp,DWORD PTR [rip+0x3b305b1b]        # 3b7012a2 <_end+0x3b2ff26a>
  3fb787:	35 3b 33 31 3b       	xor    eax,0x3b31333b
  3fb78c:	34 30                	xor    al,0x30
  3fb78e:	6d                   	ins    DWORD PTR es:[rdi],dx
  3fb78f:	38 1b                	cmp    BYTE PTR [rbx],bl
  3fb791:	5b                   	pop    rbx
  3fb792:	30 3b                	xor    BYTE PTR [rbx],bh
  3fb794:	31 3b                	xor    DWORD PTR [rbx],edi
  3fb796:	33 30                	xor    esi,DWORD PTR [rax]
  3fb798:	3b 34 30             	cmp    esi,DWORD PTR [rax+rsi*1]
  3fb79b:	6d                   	ins    DWORD PTR es:[rdi],dx
  3fb79c:	40 1b 5b 30          	rex sbb ebx,DWORD PTR [rbx+0x30]
  3fb7a0:	3b 33                	cmp    esi,DWORD PTR [rbx]
  3fb7a2:	31 3b                	xor    DWORD PTR [rbx],edi
  3fb7a4:	34 30                	xor    al,0x30
  3fb7a6:	6d                   	ins    DWORD PTR es:[rdi],dx
  3fb7a7:	38 1b                	cmp    BYTE PTR [rbx],bl
  3fb7a9:	5b                   	pop    rbx
  3fb7aa:	30 3b                	xor    BYTE PTR [rbx],bh
  3fb7ac:	35 3b 33 30 3b       	xor    eax,0x3b30333b
  3fb7b1:	34 30                	xor    al,0x30
  3fb7b3:	6d                   	ins    DWORD PTR es:[rdi],dx
  3fb7b4:	58                   	pop    rax
  3fb7b5:	1b 5b 30             	sbb    ebx,DWORD PTR [rbx+0x30]
  3fb7b8:	3b 33                	cmp    esi,DWORD PTR [rbx]
  3fb7ba:	31 3b                	xor    DWORD PTR [rbx],edi
  3fb7bc:	34 30                	xor    al,0x30
  3fb7be:	6d                   	ins    DWORD PTR es:[rdi],dx
  3fb7bf:	38 1b                	cmp    BYTE PTR [rbx],bl
  3fb7c1:	5b                   	pop    rbx
  3fb7c2:	30 3b                	xor    BYTE PTR [rbx],bh
  3fb7c4:	35 3b 33 32 3b       	xor    eax,0x3b32333b
  3fb7c9:	34 30                	xor    al,0x30
  3fb7cb:	6d                   	ins    DWORD PTR es:[rdi],dx
  3fb7cc:	40 1b 5b 30          	rex sbb ebx,DWORD PTR [rbx+0x30]
  3fb7d0:	3b 33                	cmp    esi,DWORD PTR [rbx]
  3fb7d2:	31 3b                	xor    DWORD PTR [rbx],edi
  3fb7d4:	34 30                	xor    al,0x30
  3fb7d6:	6d                   	ins    DWORD PTR es:[rdi],dx
  3fb7d7:	38 1b                	cmp    BYTE PTR [rbx],bl
  3fb7d9:	5b                   	pop    rbx
  3fb7da:	30 6d 0d             	xor    BYTE PTR [rbp+0xd],ch
  3fb7dd:	0a 1b                	or     bl,BYTE PTR [rbx]
  3fb7df:	5b                   	pop    rbx
  3fb7e0:	30 3b                	xor    BYTE PTR [rbx],bh
  3fb7e2:	31 3b                	xor    DWORD PTR [rbx],edi
  3fb7e4:	33 30                	xor    esi,DWORD PTR [rax]
  3fb7e6:	3b 34 30             	cmp    esi,DWORD PTR [rax+rsi*1]
  3fb7e9:	6d                   	ins    DWORD PTR es:[rdi],dx
  3fb7ea:	40 1b 5b 30          	rex sbb ebx,DWORD PTR [rbx+0x30]
  3fb7ee:	3b 33                	cmp    esi,DWORD PTR [rbx]
  3fb7f0:	31 3b                	xor    DWORD PTR [rbx],edi
  3fb7f2:	34 30                	xor    al,0x30
  3fb7f4:	6d                   	ins    DWORD PTR es:[rdi],dx
  3fb7f5:	38 1b                	cmp    BYTE PTR [rbx],bl
  3fb7f7:	5b                   	pop    rbx
  3fb7f8:	30 3b                	xor    BYTE PTR [rbx],bh
  3fb7fa:	35 3b 33 30 3b       	xor    eax,0x3b30333b
  3fb7ff:	34 30                	xor    al,0x30
  3fb801:	6d                   	ins    DWORD PTR es:[rdi],dx
  3fb802:	58                   	pop    rax
  3fb803:	1b 5b 30             	sbb    ebx,DWORD PTR [rbx+0x30]
  3fb806:	3b 33                	cmp    esi,DWORD PTR [rbx]
  3fb808:	32 3b                	xor    bh,BYTE PTR [rbx]
  3fb80a:	34 30                	xor    al,0x30
  3fb80c:	6d                   	ins    DWORD PTR es:[rdi],dx
  3fb80d:	40 1b 5b 30          	rex sbb ebx,DWORD PTR [rbx+0x30]
  3fb811:	3b 33                	cmp    esi,DWORD PTR [rbx]
  3fb813:	30 3b                	xor    BYTE PTR [rbx],bh
  3fb815:	34 31                	xor    al,0x31
  3fb817:	6d                   	ins    DWORD PTR es:[rdi],dx
  3fb818:	38 1b                	cmp    BYTE PTR [rbx],bl
  3fb81a:	5b                   	pop    rbx
  3fb81b:	30 3b                	xor    BYTE PTR [rbx],bh
  3fb81d:	35 3b 33 30 3b       	xor    eax,0x3b30333b
  3fb822:	34 30                	xor    al,0x30
  3fb824:	6d                   	ins    DWORD PTR es:[rdi],dx
  3fb825:	38 1b                	cmp    BYTE PTR [rbx],bl
  3fb827:	5b                   	pop    rbx
  3fb828:	30 3b                	xor    BYTE PTR [rbx],bh
  3fb82a:	33 31                	xor    esi,DWORD PTR [rcx]
  3fb82c:	3b 34 30             	cmp    esi,DWORD PTR [rax+rsi*1]
  3fb82f:	6d                   	ins    DWORD PTR es:[rdi],dx
  3fb830:	40 1b 5b 30          	rex sbb ebx,DWORD PTR [rbx+0x30]
  3fb834:	3b 35 3b 33 31 3b    	cmp    esi,DWORD PTR [rip+0x3b31333b]        # 3b70eb75 <_end+0x3b30cb3d>
  3fb83a:	34 30                	xor    al,0x30
  3fb83c:	6d                   	ins    DWORD PTR es:[rdi],dx
  3fb83d:	58                   	pop    rax
  3fb83e:	1b 5b 30             	sbb    ebx,DWORD PTR [rbx+0x30]
  3fb841:	3b 31                	cmp    esi,DWORD PTR [rcx]
  3fb843:	3b 33                	cmp    esi,DWORD PTR [rbx]
  3fb845:	30 3b                	xor    BYTE PTR [rbx],bh
  3fb847:	34 37                	xor    al,0x37
  3fb849:	6d                   	ins    DWORD PTR es:[rdi],dx
  3fb84a:	40 1b 5b 30          	rex sbb ebx,DWORD PTR [rbx+0x30]
  3fb84e:	3b 31                	cmp    esi,DWORD PTR [rcx]
  3fb850:	3b 33                	cmp    esi,DWORD PTR [rbx]
  3fb852:	37                   	(bad)  
  3fb853:	3b 34 37             	cmp    esi,DWORD PTR [rdi+rsi*1]
  3fb856:	6d                   	ins    DWORD PTR es:[rdi],dx
  3fb857:	20 1b                	and    BYTE PTR [rbx],bl
  3fb859:	5b                   	pop    rbx
  3fb85a:	30 3b                	xor    BYTE PTR [rbx],bh
  3fb85c:	35 3b 33 33 3b       	xor    eax,0x3b33333b
  3fb861:	34 30                	xor    al,0x30
  3fb863:	6d                   	ins    DWORD PTR es:[rdi],dx
  3fb864:	53                   	push   rbx
  3fb865:	1b 5b 30             	sbb    ebx,DWORD PTR [rbx+0x30]
  3fb868:	3b 35 3b 33 31 3b    	cmp    esi,DWORD PTR [rip+0x3b31333b]        # 3b70eba9 <_end+0x3b30cb71>
  3fb86e:	34 30                	xor    al,0x30
  3fb870:	6d                   	ins    DWORD PTR es:[rdi],dx
